
CanSat Probe Code.elf:     file format elf32-avr

Sections:
Idx Name          Size      VMA       LMA       File off  Algn
  0 .text         00004012  00000000  00000000  00000094  2**1
                  CONTENTS, ALLOC, LOAD, READONLY, CODE
  1 .data         00000054  00802000  00004012  000040a6  2**0
                  CONTENTS, ALLOC, LOAD, DATA
  2 .bss          00000080  00802054  00802054  000040fa  2**0
                  ALLOC
  3 .comment      0000005c  00000000  00000000  000040fa  2**0
                  CONTENTS, READONLY
  4 .note.gnu.avr.deviceinfo 00000040  00000000  00000000  00004158  2**2
                  CONTENTS, READONLY
  5 .debug_aranges 00000048  00000000  00000000  00004198  2**3
                  CONTENTS, READONLY, DEBUGGING
  6 .debug_info   00003f62  00000000  00000000  000041e0  2**0
                  CONTENTS, READONLY, DEBUGGING
  7 .debug_abbrev 00003b34  00000000  00000000  00008142  2**0
                  CONTENTS, READONLY, DEBUGGING
  8 .debug_line   00000542  00000000  00000000  0000bc76  2**0
                  CONTENTS, READONLY, DEBUGGING
  9 .debug_str    00002969  00000000  00000000  0000c1b8  2**0
                  CONTENTS, READONLY, DEBUGGING
 10 .debug_ranges 00000020  00000000  00000000  0000eb28  2**3
                  CONTENTS, READONLY, DEBUGGING

Disassembly of section .text:

00000000 <__vectors>:
       0:	3e c1       	rjmp	.+636    	; 0x27e <__ctors_end>
       2:	00 00       	nop
       4:	62 c1       	rjmp	.+708    	; 0x2ca <__bad_interrupt>
       6:	00 00       	nop
       8:	60 c1       	rjmp	.+704    	; 0x2ca <__bad_interrupt>
       a:	00 00       	nop
       c:	5e c1       	rjmp	.+700    	; 0x2ca <__bad_interrupt>
       e:	00 00       	nop
      10:	5c c1       	rjmp	.+696    	; 0x2ca <__bad_interrupt>
      12:	00 00       	nop
      14:	5a c1       	rjmp	.+692    	; 0x2ca <__bad_interrupt>
      16:	00 00       	nop
      18:	58 c1       	rjmp	.+688    	; 0x2ca <__bad_interrupt>
      1a:	00 00       	nop
      1c:	56 c1       	rjmp	.+684    	; 0x2ca <__bad_interrupt>
      1e:	00 00       	nop
      20:	54 c1       	rjmp	.+680    	; 0x2ca <__bad_interrupt>
      22:	00 00       	nop
      24:	52 c1       	rjmp	.+676    	; 0x2ca <__bad_interrupt>
      26:	00 00       	nop
      28:	50 c1       	rjmp	.+672    	; 0x2ca <__bad_interrupt>
      2a:	00 00       	nop
      2c:	4e c1       	rjmp	.+668    	; 0x2ca <__bad_interrupt>
      2e:	00 00       	nop
      30:	4c c1       	rjmp	.+664    	; 0x2ca <__bad_interrupt>
      32:	00 00       	nop
      34:	77 c2       	rjmp	.+1262   	; 0x524 <__vector_13>
      36:	00 00       	nop
      38:	1f c5       	rjmp	.+2622   	; 0xa78 <__vector_14>
      3a:	00 00       	nop
      3c:	55 c5       	rjmp	.+2730   	; 0xae8 <__vector_15>
      3e:	00 00       	nop
      40:	8b c5       	rjmp	.+2838   	; 0xb58 <__vector_16>
      42:	00 00       	nop
      44:	c1 c5       	rjmp	.+2946   	; 0xbc8 <__vector_17>
      46:	00 00       	nop
      48:	f7 c5       	rjmp	.+3054   	; 0xc38 <__vector_18>
      4a:	00 00       	nop
      4c:	2d c6       	rjmp	.+3162   	; 0xca8 <__vector_19>
      4e:	00 00       	nop
      50:	63 c6       	rjmp	.+3270   	; 0xd18 <__vector_20>
      52:	00 00       	nop
      54:	99 c6       	rjmp	.+3378   	; 0xd88 <__vector_21>
      56:	00 00       	nop
      58:	cf c6       	rjmp	.+3486   	; 0xdf8 <__vector_22>
      5a:	00 00       	nop
      5c:	05 c7       	rjmp	.+3594   	; 0xe68 <__vector_23>
      5e:	00 00       	nop
      60:	34 c1       	rjmp	.+616    	; 0x2ca <__bad_interrupt>
      62:	00 00       	nop
      64:	0c 94 4f 14 	jmp	0x289e	; 0x289e <__vector_25>
      68:	30 c1       	rjmp	.+608    	; 0x2ca <__bad_interrupt>
      6a:	00 00       	nop
      6c:	2e c1       	rjmp	.+604    	; 0x2ca <__bad_interrupt>
      6e:	00 00       	nop
      70:	2c c1       	rjmp	.+600    	; 0x2ca <__bad_interrupt>
      72:	00 00       	nop
      74:	2a c1       	rjmp	.+596    	; 0x2ca <__bad_interrupt>
      76:	00 00       	nop
      78:	28 c1       	rjmp	.+592    	; 0x2ca <__bad_interrupt>
      7a:	00 00       	nop
      7c:	26 c1       	rjmp	.+588    	; 0x2ca <__bad_interrupt>
      7e:	00 00       	nop
      80:	24 c1       	rjmp	.+584    	; 0x2ca <__bad_interrupt>
      82:	00 00       	nop
      84:	22 c1       	rjmp	.+580    	; 0x2ca <__bad_interrupt>
      86:	00 00       	nop
      88:	20 c1       	rjmp	.+576    	; 0x2ca <__bad_interrupt>
      8a:	00 00       	nop
      8c:	1e c1       	rjmp	.+572    	; 0x2ca <__bad_interrupt>
      8e:	00 00       	nop
      90:	1c c1       	rjmp	.+568    	; 0x2ca <__bad_interrupt>
      92:	00 00       	nop
      94:	1a c1       	rjmp	.+564    	; 0x2ca <__bad_interrupt>
      96:	00 00       	nop
      98:	18 c1       	rjmp	.+560    	; 0x2ca <__bad_interrupt>
      9a:	00 00       	nop
      9c:	e9 c3       	rjmp	.+2002   	; 0x870 <__vector_39>
      9e:	00 00       	nop
      a0:	24 c4       	rjmp	.+2120   	; 0x8ea <__vector_40>
      a2:	00 00       	nop
      a4:	5f c4       	rjmp	.+2238   	; 0x964 <__vector_41>
      a6:	00 00       	nop
      a8:	9a c4       	rjmp	.+2356   	; 0x9de <__vector_42>
      aa:	00 00       	nop
      ac:	0e c1       	rjmp	.+540    	; 0x2ca <__bad_interrupt>
      ae:	00 00       	nop
      b0:	0c c1       	rjmp	.+536    	; 0x2ca <__bad_interrupt>
      b2:	00 00       	nop
      b4:	0a c1       	rjmp	.+532    	; 0x2ca <__bad_interrupt>
      b6:	00 00       	nop
      b8:	d1 c1       	rjmp	.+930    	; 0x45c <__vector_46>
      ba:	00 00       	nop
      bc:	0c 94 9c 09 	jmp	0x1338	; 0x1338 <__vector_47>
      c0:	0c 94 d4 09 	jmp	0x13a8	; 0x13a8 <__vector_48>
      c4:	0c 94 0c 0a 	jmp	0x1418	; 0x1418 <__vector_49>
      c8:	0c 94 44 0a 	jmp	0x1488	; 0x1488 <__vector_50>
      cc:	0c 94 7c 0a 	jmp	0x14f8	; 0x14f8 <__vector_51>
      d0:	0c 94 b4 0a 	jmp	0x1568	; 0x1568 <__vector_52>
      d4:	0c 94 ec 0a 	jmp	0x15d8	; 0x15d8 <__vector_53>
      d8:	0c 94 24 0b 	jmp	0x1648	; 0x1648 <__vector_54>
      dc:	0c 94 5c 0b 	jmp	0x16b8	; 0x16b8 <__vector_55>
      e0:	0c 94 94 0b 	jmp	0x1728	; 0x1728 <__vector_56>
      e4:	f2 c0       	rjmp	.+484    	; 0x2ca <__bad_interrupt>
      e6:	00 00       	nop
      e8:	f0 c0       	rjmp	.+480    	; 0x2ca <__bad_interrupt>
      ea:	00 00       	nop
      ec:	ee c0       	rjmp	.+476    	; 0x2ca <__bad_interrupt>
      ee:	00 00       	nop
      f0:	ec c0       	rjmp	.+472    	; 0x2ca <__bad_interrupt>
      f2:	00 00       	nop
      f4:	ea c0       	rjmp	.+468    	; 0x2ca <__bad_interrupt>
      f6:	00 00       	nop
      f8:	e8 c0       	rjmp	.+464    	; 0x2ca <__bad_interrupt>
      fa:	00 00       	nop
      fc:	e6 c0       	rjmp	.+460    	; 0x2ca <__bad_interrupt>
      fe:	00 00       	nop
     100:	e4 c0       	rjmp	.+456    	; 0x2ca <__bad_interrupt>
     102:	00 00       	nop
     104:	e2 c0       	rjmp	.+452    	; 0x2ca <__bad_interrupt>
     106:	00 00       	nop
     108:	e0 c0       	rjmp	.+448    	; 0x2ca <__bad_interrupt>
     10a:	00 00       	nop
     10c:	de c0       	rjmp	.+444    	; 0x2ca <__bad_interrupt>
     10e:	00 00       	nop
     110:	dc c0       	rjmp	.+440    	; 0x2ca <__bad_interrupt>
     112:	00 00       	nop
     114:	da c0       	rjmp	.+436    	; 0x2ca <__bad_interrupt>
     116:	00 00       	nop
     118:	d8 c0       	rjmp	.+432    	; 0x2ca <__bad_interrupt>
     11a:	00 00       	nop
     11c:	b5 c2       	rjmp	.+1386   	; 0x688 <__vector_71>
     11e:	00 00       	nop
     120:	f0 c2       	rjmp	.+1504   	; 0x702 <__vector_72>
     122:	00 00       	nop
     124:	2b c3       	rjmp	.+1622   	; 0x77c <__vector_73>
     126:	00 00       	nop
     128:	66 c3       	rjmp	.+1740   	; 0x7f6 <__vector_74>
     12a:	00 00       	nop
     12c:	ce c0       	rjmp	.+412    	; 0x2ca <__bad_interrupt>
     12e:	00 00       	nop
     130:	c7 c1       	rjmp	.+910    	; 0x4c0 <__vector_76>
     132:	00 00       	nop
     134:	d1 c6       	rjmp	.+3490   	; 0xed8 <__vector_77>
     136:	00 00       	nop
     138:	07 c7       	rjmp	.+3598   	; 0xf48 <__vector_78>
     13a:	00 00       	nop
     13c:	3d c7       	rjmp	.+3706   	; 0xfb8 <__vector_79>
     13e:	00 00       	nop
     140:	73 c7       	rjmp	.+3814   	; 0x1028 <__vector_80>
     142:	00 00       	nop
     144:	a9 c7       	rjmp	.+3922   	; 0x1098 <__vector_81>
     146:	00 00       	nop
     148:	df c7       	rjmp	.+4030   	; 0x1108 <__vector_82>
     14a:	00 00       	nop
     14c:	0c 94 bc 08 	jmp	0x1178	; 0x1178 <__vector_83>
     150:	0c 94 f4 08 	jmp	0x11e8	; 0x11e8 <__vector_84>
     154:	0c 94 2c 09 	jmp	0x1258	; 0x1258 <__vector_85>
     158:	0c 94 64 09 	jmp	0x12c8	; 0x12c8 <__vector_86>
     15c:	b6 c0       	rjmp	.+364    	; 0x2ca <__bad_interrupt>
     15e:	00 00       	nop
     160:	b4 c0       	rjmp	.+360    	; 0x2ca <__bad_interrupt>
     162:	00 00       	nop
     164:	b2 c0       	rjmp	.+356    	; 0x2ca <__bad_interrupt>
     166:	00 00       	nop
     168:	b0 c0       	rjmp	.+352    	; 0x2ca <__bad_interrupt>
     16a:	00 00       	nop
     16c:	ae c0       	rjmp	.+348    	; 0x2ca <__bad_interrupt>
     16e:	00 00       	nop
     170:	ac c0       	rjmp	.+344    	; 0x2ca <__bad_interrupt>
     172:	00 00       	nop
     174:	aa c0       	rjmp	.+340    	; 0x2ca <__bad_interrupt>
     176:	00 00       	nop
     178:	a8 c0       	rjmp	.+336    	; 0x2ca <__bad_interrupt>
     17a:	00 00       	nop
     17c:	a6 c0       	rjmp	.+332    	; 0x2ca <__bad_interrupt>
     17e:	00 00       	nop
     180:	a4 c0       	rjmp	.+328    	; 0x2ca <__bad_interrupt>
     182:	00 00       	nop
     184:	a2 c0       	rjmp	.+324    	; 0x2ca <__bad_interrupt>
     186:	00 00       	nop
     188:	a0 c0       	rjmp	.+320    	; 0x2ca <__bad_interrupt>
     18a:	00 00       	nop
     18c:	9e c0       	rjmp	.+316    	; 0x2ca <__bad_interrupt>
     18e:	00 00       	nop
     190:	9c c0       	rjmp	.+312    	; 0x2ca <__bad_interrupt>
     192:	00 00       	nop
     194:	9a c0       	rjmp	.+308    	; 0x2ca <__bad_interrupt>
     196:	00 00       	nop
     198:	98 c0       	rjmp	.+304    	; 0x2ca <__bad_interrupt>
     19a:	00 00       	nop
     19c:	96 c0       	rjmp	.+300    	; 0x2ca <__bad_interrupt>
     19e:	00 00       	nop
     1a0:	94 c0       	rjmp	.+296    	; 0x2ca <__bad_interrupt>
     1a2:	00 00       	nop
     1a4:	92 c0       	rjmp	.+292    	; 0x2ca <__bad_interrupt>
     1a6:	00 00       	nop
     1a8:	90 c0       	rjmp	.+288    	; 0x2ca <__bad_interrupt>
     1aa:	00 00       	nop
     1ac:	8f c0       	rjmp	.+286    	; 0x2cc <__vector_107>
     1ae:	00 00       	nop
     1b0:	0c 94 cc 0b 	jmp	0x1798	; 0x1798 <__vector_108>
     1b4:	0c 94 04 0c 	jmp	0x1808	; 0x1808 <__vector_109>
     1b8:	0c 94 3c 0c 	jmp	0x1878	; 0x1878 <__vector_110>
     1bc:	0c 94 74 0c 	jmp	0x18e8	; 0x18e8 <__vector_111>
     1c0:	0c 94 ac 0c 	jmp	0x1958	; 0x1958 <__vector_112>
     1c4:	0c 94 e4 0c 	jmp	0x19c8	; 0x19c8 <__vector_113>
     1c8:	0c 94 1c 0d 	jmp	0x1a38	; 0x1a38 <__vector_114>
     1cc:	0c 94 54 0d 	jmp	0x1aa8	; 0x1aa8 <__vector_115>
     1d0:	0c 94 8c 0d 	jmp	0x1b18	; 0x1b18 <__vector_116>
     1d4:	0c 94 c4 0d 	jmp	0x1b88	; 0x1b88 <__vector_117>
     1d8:	78 c0       	rjmp	.+240    	; 0x2ca <__bad_interrupt>
     1da:	00 00       	nop
     1dc:	76 c0       	rjmp	.+236    	; 0x2ca <__bad_interrupt>
     1de:	00 00       	nop
     1e0:	74 c0       	rjmp	.+232    	; 0x2ca <__bad_interrupt>
     1e2:	00 00       	nop
     1e4:	72 c0       	rjmp	.+228    	; 0x2ca <__bad_interrupt>
     1e6:	00 00       	nop
     1e8:	70 c0       	rjmp	.+224    	; 0x2ca <__bad_interrupt>
     1ea:	00 00       	nop
     1ec:	6e c0       	rjmp	.+220    	; 0x2ca <__bad_interrupt>
     1ee:	00 00       	nop
     1f0:	6c c0       	rjmp	.+216    	; 0x2ca <__bad_interrupt>
     1f2:	00 00       	nop
     1f4:	6a c0       	rjmp	.+212    	; 0x2ca <__bad_interrupt>
     1f6:	00 00       	nop
     1f8:	68 c0       	rjmp	.+208    	; 0x2ca <__bad_interrupt>
     1fa:	00 00       	nop
     1fc:	08 00       	.word	0x0008	; ????
     1fe:	00 00       	nop
     200:	be 92       	st	-X, r11
     202:	24 49       	sbci	r18, 0x94	; 148
     204:	12 3e       	cpi	r17, 0xE2	; 226
     206:	ab aa       	std	Y+51, r10	; 0x33
     208:	aa 2a       	or	r10, r26
     20a:	be cd       	rjmp	.-1156   	; 0xfffffd88 <__eeprom_end+0xff7efd88>
     20c:	cc cc       	rjmp	.-1640   	; 0xfffffba6 <__eeprom_end+0xff7efba6>
     20e:	4c 3e       	cpi	r20, 0xEC	; 236
     210:	00 00       	nop
     212:	00 80       	ld	r0, Z
     214:	be ab       	std	Y+54, r27	; 0x36
     216:	aa aa       	std	Y+50, r10	; 0x32
     218:	aa 3e       	cpi	r26, 0xEA	; 234
     21a:	00 00       	nop
     21c:	00 00       	nop
     21e:	bf 00       	.word	0x00bf	; ????
     220:	00 00       	nop
     222:	80 3f       	cpi	r24, 0xF0	; 240
     224:	00 00       	nop
     226:	00 00       	nop
     228:	00 08       	sbc	r0, r0
     22a:	41 78       	andi	r20, 0x81	; 129
     22c:	d3 bb       	out	0x13, r29	; 19
     22e:	43 87       	std	Z+11, r20	; 0x0b
     230:	d1 13       	cpse	r29, r17
     232:	3d 19       	sub	r19, r13
     234:	0e 3c       	cpi	r16, 0xCE	; 206
     236:	c3 bd       	out	0x23, r28	; 35
     238:	42 82       	std	Z+2, r4	; 0x02
     23a:	ad 2b       	or	r26, r29
     23c:	3e 68       	ori	r19, 0x8E	; 142
     23e:	ec 82       	std	Y+4, r14	; 0x04
     240:	76 be       	out	0x36, r7	; 54
     242:	d9 8f       	std	Y+25, r29	; 0x19
     244:	e1 a9       	ldd	r30, Z+49	; 0x31
     246:	3e 4c       	sbci	r19, 0xCE	; 206
     248:	80 ef       	ldi	r24, 0xF0	; 240
     24a:	ff be       	out	0x3f, r15	; 63
     24c:	01 c4       	rjmp	.+2050   	; 0xa50 <__vector_42+0x72>
     24e:	ff 7f       	andi	r31, 0xFF	; 255
     250:	3f 00       	.word	0x003f	; ????
     252:	00 00       	nop
     254:	00 00       	nop
     256:	07 63       	ori	r16, 0x37	; 55
     258:	42 36       	cpi	r20, 0x62	; 98
     25a:	b7 9b       	sbis	0x16, 7	; 22
     25c:	d8 a7       	std	Y+40, r29	; 0x28
     25e:	1a 39       	cpi	r17, 0x9A	; 154
     260:	68 56       	subi	r22, 0x68	; 104
     262:	18 ae       	std	Y+56, r1	; 0x38
     264:	ba ab       	std	Y+50, r27	; 0x32
     266:	55 8c       	ldd	r5, Z+29	; 0x1d
     268:	1d 3c       	cpi	r17, 0xCD	; 205
     26a:	b7 cc       	rjmp	.-1682   	; 0xfffffbda <__eeprom_end+0xff7efbda>
     26c:	57 63       	ori	r21, 0x37	; 55
     26e:	bd 6d       	ori	r27, 0xDD	; 221
     270:	ed fd       	.word	0xfded	; ????
     272:	75 3e       	cpi	r23, 0xE5	; 229
     274:	f6 17       	cp	r31, r22
     276:	72 31       	cpi	r23, 0x12	; 18
     278:	bf 00       	.word	0x00bf	; ????
     27a:	00 00       	nop
     27c:	80 3f       	cpi	r24, 0xF0	; 240

0000027e <__ctors_end>:
     27e:	11 24       	eor	r1, r1
     280:	1f be       	out	0x3f, r1	; 63
     282:	cf ef       	ldi	r28, 0xFF	; 255
     284:	cd bf       	out	0x3d, r28	; 61
     286:	df e3       	ldi	r29, 0x3F	; 63
     288:	de bf       	out	0x3e, r29	; 62
     28a:	00 e0       	ldi	r16, 0x00	; 0
     28c:	0c bf       	out	0x3c, r16	; 60
     28e:	18 be       	out	0x38, r1	; 56
     290:	19 be       	out	0x39, r1	; 57
     292:	1a be       	out	0x3a, r1	; 58
     294:	1b be       	out	0x3b, r1	; 59

00000296 <__do_copy_data>:
     296:	10 e2       	ldi	r17, 0x20	; 32
     298:	a0 e0       	ldi	r26, 0x00	; 0
     29a:	b0 e2       	ldi	r27, 0x20	; 32
     29c:	e2 e1       	ldi	r30, 0x12	; 18
     29e:	f0 e4       	ldi	r31, 0x40	; 64
     2a0:	00 e0       	ldi	r16, 0x00	; 0
     2a2:	0b bf       	out	0x3b, r16	; 59
     2a4:	02 c0       	rjmp	.+4      	; 0x2aa <__do_copy_data+0x14>
     2a6:	07 90       	elpm	r0, Z+
     2a8:	0d 92       	st	X+, r0
     2aa:	a4 35       	cpi	r26, 0x54	; 84
     2ac:	b1 07       	cpc	r27, r17
     2ae:	d9 f7       	brne	.-10     	; 0x2a6 <__do_copy_data+0x10>
     2b0:	1b be       	out	0x3b, r1	; 59

000002b2 <__do_clear_bss>:
     2b2:	20 e2       	ldi	r18, 0x20	; 32
     2b4:	a4 e5       	ldi	r26, 0x54	; 84
     2b6:	b0 e2       	ldi	r27, 0x20	; 32
     2b8:	01 c0       	rjmp	.+2      	; 0x2bc <.do_clear_bss_start>

000002ba <.do_clear_bss_loop>:
     2ba:	1d 92       	st	X+, r1

000002bc <.do_clear_bss_start>:
     2bc:	a4 3d       	cpi	r26, 0xD4	; 212
     2be:	b2 07       	cpc	r27, r18
     2c0:	e1 f7       	brne	.-8      	; 0x2ba <.do_clear_bss_loop>
     2c2:	0e 94 e7 15 	call	0x2bce	; 0x2bce <main>
     2c6:	0c 94 07 20 	jmp	0x400e	; 0x400e <_exit>

000002ca <__bad_interrupt>:
     2ca:	9a ce       	rjmp	.-716    	; 0x0 <__vectors>

000002cc <__vector_107>:
     2cc:	1f 92       	push	r1
     2ce:	0f 92       	push	r0
     2d0:	0f b6       	in	r0, 0x3f	; 63
     2d2:	0f 92       	push	r0
     2d4:	11 24       	eor	r1, r1
     2d6:	08 b6       	in	r0, 0x38	; 56
     2d8:	0f 92       	push	r0
     2da:	18 be       	out	0x38, r1	; 56
     2dc:	09 b6       	in	r0, 0x39	; 57
     2de:	0f 92       	push	r0
     2e0:	19 be       	out	0x39, r1	; 57
     2e2:	0a b6       	in	r0, 0x3a	; 58
     2e4:	0f 92       	push	r0
     2e6:	1a be       	out	0x3a, r1	; 58
     2e8:	0b b6       	in	r0, 0x3b	; 59
     2ea:	0f 92       	push	r0
     2ec:	1b be       	out	0x3b, r1	; 59
     2ee:	2f 93       	push	r18
     2f0:	3f 93       	push	r19
     2f2:	4f 93       	push	r20
     2f4:	5f 93       	push	r21
     2f6:	6f 93       	push	r22
     2f8:	7f 93       	push	r23
     2fa:	8f 93       	push	r24
     2fc:	9f 93       	push	r25
     2fe:	af 93       	push	r26
     300:	bf 93       	push	r27
     302:	cf 93       	push	r28
     304:	df 93       	push	r29
     306:	ef 93       	push	r30
     308:	ff 93       	push	r31
     30a:	e0 91 54 20 	lds	r30, 0x2054	; 0x802054 <__data_end>
     30e:	f0 91 55 20 	lds	r31, 0x2055	; 0x802055 <__data_end+0x1>
     312:	84 81       	ldd	r24, Z+4	; 0x04
     314:	83 ff       	sbrs	r24, 3
     316:	06 c0       	rjmp	.+12     	; 0x324 <__vector_107+0x58>
     318:	88 60       	ori	r24, 0x08	; 8
     31a:	84 83       	std	Z+4, r24	; 0x04
     31c:	83 e0       	ldi	r24, 0x03	; 3
     31e:	83 83       	std	Z+3, r24	; 0x03
     320:	86 ef       	ldi	r24, 0xF6	; 246
     322:	7f c0       	rjmp	.+254    	; 0x422 <__LOCK_REGION_LENGTH__+0x22>
     324:	98 2f       	mov	r25, r24
     326:	94 71       	andi	r25, 0x14	; 20
     328:	21 f0       	breq	.+8      	; 0x332 <__vector_107+0x66>
     32a:	83 e0       	ldi	r24, 0x03	; 3
     32c:	83 83       	std	Z+3, r24	; 0x03
     32e:	8f ef       	ldi	r24, 0xFF	; 255
     330:	78 c0       	rjmp	.+240    	; 0x422 <__LOCK_REGION_LENGTH__+0x22>
     332:	86 ff       	sbrs	r24, 6
     334:	41 c0       	rjmp	.+130    	; 0x3b8 <__vector_107+0xec>
     336:	a0 91 56 20 	lds	r26, 0x2056	; 0x802056 <__data_end+0x2>
     33a:	b0 91 57 20 	lds	r27, 0x2057	; 0x802057 <__data_end+0x3>
     33e:	80 91 58 20 	lds	r24, 0x2058	; 0x802058 <__data_end+0x4>
     342:	90 91 59 20 	lds	r25, 0x2059	; 0x802059 <__data_end+0x5>
     346:	14 96       	adiw	r26, 0x04	; 4
     348:	2d 91       	ld	r18, X+
     34a:	3c 91       	ld	r19, X
     34c:	15 97       	sbiw	r26, 0x05	; 5
     34e:	82 17       	cp	r24, r18
     350:	93 07       	cpc	r25, r19
     352:	64 f4       	brge	.+24     	; 0x36c <__vector_107+0xa0>
     354:	9c 01       	movw	r18, r24
     356:	2f 5f       	subi	r18, 0xFF	; 255
     358:	3f 4f       	sbci	r19, 0xFF	; 255
     35a:	20 93 58 20 	sts	0x2058, r18	; 0x802058 <__data_end+0x4>
     35e:	30 93 59 20 	sts	0x2059, r19	; 0x802059 <__data_end+0x5>
     362:	a8 0f       	add	r26, r24
     364:	b9 1f       	adc	r27, r25
     366:	11 96       	adiw	r26, 0x01	; 1
     368:	8c 91       	ld	r24, X
     36a:	22 c0       	rjmp	.+68     	; 0x3b0 <__vector_107+0xe4>
     36c:	80 91 5a 20 	lds	r24, 0x205A	; 0x80205a <__data_end+0x6>
     370:	90 91 5b 20 	lds	r25, 0x205B	; 0x80205b <__data_end+0x7>
     374:	18 96       	adiw	r26, 0x08	; 8
     376:	2d 91       	ld	r18, X+
     378:	3c 91       	ld	r19, X
     37a:	19 97       	sbiw	r26, 0x09	; 9
     37c:	82 17       	cp	r24, r18
     37e:	93 07       	cpc	r25, r19
     380:	c8 f4       	brcc	.+50     	; 0x3b4 <__vector_107+0xe8>
     382:	20 91 5c 20 	lds	r18, 0x205C	; 0x80205c <__data_end+0x8>
     386:	22 23       	and	r18, r18
     388:	21 f0       	breq	.+8      	; 0x392 <__vector_107+0xc6>
     38a:	86 81       	ldd	r24, Z+6	; 0x06
     38c:	81 60       	ori	r24, 0x01	; 1
     38e:	86 83       	std	Z+6, r24	; 0x06
     390:	4a c0       	rjmp	.+148    	; 0x426 <__LOCK_REGION_LENGTH__+0x26>
     392:	16 96       	adiw	r26, 0x06	; 6
     394:	2d 91       	ld	r18, X+
     396:	3c 91       	ld	r19, X
     398:	17 97       	sbiw	r26, 0x07	; 7
     39a:	ac 01       	movw	r20, r24
     39c:	4f 5f       	subi	r20, 0xFF	; 255
     39e:	5f 4f       	sbci	r21, 0xFF	; 255
     3a0:	40 93 5a 20 	sts	0x205A, r20	; 0x80205a <__data_end+0x6>
     3a4:	50 93 5b 20 	sts	0x205B, r21	; 0x80205b <__data_end+0x7>
     3a8:	d9 01       	movw	r26, r18
     3aa:	a8 0f       	add	r26, r24
     3ac:	b9 1f       	adc	r27, r25
     3ae:	8c 91       	ld	r24, X
     3b0:	87 83       	std	Z+7, r24	; 0x07
     3b2:	39 c0       	rjmp	.+114    	; 0x426 <__LOCK_REGION_LENGTH__+0x26>
     3b4:	83 e0       	ldi	r24, 0x03	; 3
     3b6:	2c c0       	rjmp	.+88     	; 0x410 <__LOCK_REGION_LENGTH__+0x10>
     3b8:	87 ff       	sbrs	r24, 7
     3ba:	32 c0       	rjmp	.+100    	; 0x420 <__LOCK_REGION_LENGTH__+0x20>
     3bc:	a0 91 56 20 	lds	r26, 0x2056	; 0x802056 <__data_end+0x2>
     3c0:	b0 91 57 20 	lds	r27, 0x2057	; 0x802057 <__data_end+0x3>
     3c4:	80 91 5a 20 	lds	r24, 0x205A	; 0x80205a <__data_end+0x6>
     3c8:	90 91 5b 20 	lds	r25, 0x205B	; 0x80205b <__data_end+0x7>
     3cc:	18 96       	adiw	r26, 0x08	; 8
     3ce:	2d 91       	ld	r18, X+
     3d0:	3c 91       	ld	r19, X
     3d2:	19 97       	sbiw	r26, 0x09	; 9
     3d4:	82 17       	cp	r24, r18
     3d6:	93 07       	cpc	r25, r19
     3d8:	f8 f4       	brcc	.+62     	; 0x418 <__LOCK_REGION_LENGTH__+0x18>
     3da:	16 96       	adiw	r26, 0x06	; 6
     3dc:	6d 91       	ld	r22, X+
     3de:	7c 91       	ld	r23, X
     3e0:	17 97       	sbiw	r26, 0x07	; 7
     3e2:	9c 01       	movw	r18, r24
     3e4:	2f 5f       	subi	r18, 0xFF	; 255
     3e6:	3f 4f       	sbci	r19, 0xFF	; 255
     3e8:	20 93 5a 20 	sts	0x205A, r18	; 0x80205a <__data_end+0x6>
     3ec:	30 93 5b 20 	sts	0x205B, r19	; 0x80205b <__data_end+0x7>
     3f0:	47 81       	ldd	r20, Z+7	; 0x07
     3f2:	eb 01       	movw	r28, r22
     3f4:	c8 0f       	add	r28, r24
     3f6:	d9 1f       	adc	r29, r25
     3f8:	48 83       	st	Y, r20
     3fa:	18 96       	adiw	r26, 0x08	; 8
     3fc:	8d 91       	ld	r24, X+
     3fe:	9c 91       	ld	r25, X
     400:	19 97       	sbiw	r26, 0x09	; 9
     402:	28 17       	cp	r18, r24
     404:	39 07       	cpc	r19, r25
     406:	18 f4       	brcc	.+6      	; 0x40e <__LOCK_REGION_LENGTH__+0xe>
     408:	82 e0       	ldi	r24, 0x02	; 2
     40a:	83 83       	std	Z+3, r24	; 0x03
     40c:	0c c0       	rjmp	.+24     	; 0x426 <__LOCK_REGION_LENGTH__+0x26>
     40e:	87 e0       	ldi	r24, 0x07	; 7
     410:	83 83       	std	Z+3, r24	; 0x03
     412:	10 92 5e 20 	sts	0x205E, r1	; 0x80205e <__data_end+0xa>
     416:	07 c0       	rjmp	.+14     	; 0x426 <__LOCK_REGION_LENGTH__+0x26>
     418:	83 e0       	ldi	r24, 0x03	; 3
     41a:	83 83       	std	Z+3, r24	; 0x03
     41c:	89 ef       	ldi	r24, 0xF9	; 249
     41e:	01 c0       	rjmp	.+2      	; 0x422 <__LOCK_REGION_LENGTH__+0x22>
     420:	8b ef       	ldi	r24, 0xFB	; 251
     422:	80 93 5e 20 	sts	0x205E, r24	; 0x80205e <__data_end+0xa>
     426:	ff 91       	pop	r31
     428:	ef 91       	pop	r30
     42a:	df 91       	pop	r29
     42c:	cf 91       	pop	r28
     42e:	bf 91       	pop	r27
     430:	af 91       	pop	r26
     432:	9f 91       	pop	r25
     434:	8f 91       	pop	r24
     436:	7f 91       	pop	r23
     438:	6f 91       	pop	r22
     43a:	5f 91       	pop	r21
     43c:	4f 91       	pop	r20
     43e:	3f 91       	pop	r19
     440:	2f 91       	pop	r18
     442:	0f 90       	pop	r0
     444:	0b be       	out	0x3b, r0	; 59
     446:	0f 90       	pop	r0
     448:	0a be       	out	0x3a, r0	; 58
     44a:	0f 90       	pop	r0
     44c:	09 be       	out	0x39, r0	; 57
     44e:	0f 90       	pop	r0
     450:	08 be       	out	0x38, r0	; 56
     452:	0f 90       	pop	r0
     454:	0f be       	out	0x3f, r0	; 63
     456:	0f 90       	pop	r0
     458:	1f 90       	pop	r1
     45a:	18 95       	reti

0000045c <__vector_46>:
     45c:	1f 92       	push	r1
     45e:	0f 92       	push	r0
     460:	0f b6       	in	r0, 0x3f	; 63
     462:	0f 92       	push	r0
     464:	11 24       	eor	r1, r1
     466:	08 b6       	in	r0, 0x38	; 56
     468:	0f 92       	push	r0
     46a:	18 be       	out	0x38, r1	; 56
     46c:	09 b6       	in	r0, 0x39	; 57
     46e:	0f 92       	push	r0
     470:	19 be       	out	0x39, r1	; 57
     472:	0b b6       	in	r0, 0x3b	; 59
     474:	0f 92       	push	r0
     476:	1b be       	out	0x3b, r1	; 59
     478:	2f 93       	push	r18
     47a:	3f 93       	push	r19
     47c:	4f 93       	push	r20
     47e:	5f 93       	push	r21
     480:	6f 93       	push	r22
     482:	7f 93       	push	r23
     484:	8f 93       	push	r24
     486:	9f 93       	push	r25
     488:	af 93       	push	r26
     48a:	bf 93       	push	r27
     48c:	ef 93       	push	r30
     48e:	ff 93       	push	r31
     490:	1d df       	rcall	.-454    	; 0x2cc <__vector_107>
     492:	ff 91       	pop	r31
     494:	ef 91       	pop	r30
     496:	bf 91       	pop	r27
     498:	af 91       	pop	r26
     49a:	9f 91       	pop	r25
     49c:	8f 91       	pop	r24
     49e:	7f 91       	pop	r23
     4a0:	6f 91       	pop	r22
     4a2:	5f 91       	pop	r21
     4a4:	4f 91       	pop	r20
     4a6:	3f 91       	pop	r19
     4a8:	2f 91       	pop	r18
     4aa:	0f 90       	pop	r0
     4ac:	0b be       	out	0x3b, r0	; 59
     4ae:	0f 90       	pop	r0
     4b0:	09 be       	out	0x39, r0	; 57
     4b2:	0f 90       	pop	r0
     4b4:	08 be       	out	0x38, r0	; 56
     4b6:	0f 90       	pop	r0
     4b8:	0f be       	out	0x3f, r0	; 63
     4ba:	0f 90       	pop	r0
     4bc:	1f 90       	pop	r1
     4be:	18 95       	reti

000004c0 <__vector_76>:
     4c0:	1f 92       	push	r1
     4c2:	0f 92       	push	r0
     4c4:	0f b6       	in	r0, 0x3f	; 63
     4c6:	0f 92       	push	r0
     4c8:	11 24       	eor	r1, r1
     4ca:	08 b6       	in	r0, 0x38	; 56
     4cc:	0f 92       	push	r0
     4ce:	18 be       	out	0x38, r1	; 56
     4d0:	09 b6       	in	r0, 0x39	; 57
     4d2:	0f 92       	push	r0
     4d4:	19 be       	out	0x39, r1	; 57
     4d6:	0b b6       	in	r0, 0x3b	; 59
     4d8:	0f 92       	push	r0
     4da:	1b be       	out	0x3b, r1	; 59
     4dc:	2f 93       	push	r18
     4de:	3f 93       	push	r19
     4e0:	4f 93       	push	r20
     4e2:	5f 93       	push	r21
     4e4:	6f 93       	push	r22
     4e6:	7f 93       	push	r23
     4e8:	8f 93       	push	r24
     4ea:	9f 93       	push	r25
     4ec:	af 93       	push	r26
     4ee:	bf 93       	push	r27
     4f0:	ef 93       	push	r30
     4f2:	ff 93       	push	r31
     4f4:	eb de       	rcall	.-554    	; 0x2cc <__vector_107>
     4f6:	ff 91       	pop	r31
     4f8:	ef 91       	pop	r30
     4fa:	bf 91       	pop	r27
     4fc:	af 91       	pop	r26
     4fe:	9f 91       	pop	r25
     500:	8f 91       	pop	r24
     502:	7f 91       	pop	r23
     504:	6f 91       	pop	r22
     506:	5f 91       	pop	r21
     508:	4f 91       	pop	r20
     50a:	3f 91       	pop	r19
     50c:	2f 91       	pop	r18
     50e:	0f 90       	pop	r0
     510:	0b be       	out	0x3b, r0	; 59
     512:	0f 90       	pop	r0
     514:	09 be       	out	0x39, r0	; 57
     516:	0f 90       	pop	r0
     518:	08 be       	out	0x38, r0	; 56
     51a:	0f 90       	pop	r0
     51c:	0f be       	out	0x3f, r0	; 63
     51e:	0f 90       	pop	r0
     520:	1f 90       	pop	r1
     522:	18 95       	reti

00000524 <__vector_13>:
     524:	1f 92       	push	r1
     526:	0f 92       	push	r0
     528:	0f b6       	in	r0, 0x3f	; 63
     52a:	0f 92       	push	r0
     52c:	11 24       	eor	r1, r1
     52e:	08 b6       	in	r0, 0x38	; 56
     530:	0f 92       	push	r0
     532:	18 be       	out	0x38, r1	; 56
     534:	09 b6       	in	r0, 0x39	; 57
     536:	0f 92       	push	r0
     538:	19 be       	out	0x39, r1	; 57
     53a:	0b b6       	in	r0, 0x3b	; 59
     53c:	0f 92       	push	r0
     53e:	1b be       	out	0x3b, r1	; 59
     540:	2f 93       	push	r18
     542:	3f 93       	push	r19
     544:	4f 93       	push	r20
     546:	5f 93       	push	r21
     548:	6f 93       	push	r22
     54a:	7f 93       	push	r23
     54c:	8f 93       	push	r24
     54e:	9f 93       	push	r25
     550:	af 93       	push	r26
     552:	bf 93       	push	r27
     554:	ef 93       	push	r30
     556:	ff 93       	push	r31
     558:	b9 de       	rcall	.-654    	; 0x2cc <__vector_107>
     55a:	ff 91       	pop	r31
     55c:	ef 91       	pop	r30
     55e:	bf 91       	pop	r27
     560:	af 91       	pop	r26
     562:	9f 91       	pop	r25
     564:	8f 91       	pop	r24
     566:	7f 91       	pop	r23
     568:	6f 91       	pop	r22
     56a:	5f 91       	pop	r21
     56c:	4f 91       	pop	r20
     56e:	3f 91       	pop	r19
     570:	2f 91       	pop	r18
     572:	0f 90       	pop	r0
     574:	0b be       	out	0x3b, r0	; 59
     576:	0f 90       	pop	r0
     578:	09 be       	out	0x39, r0	; 57
     57a:	0f 90       	pop	r0
     57c:	08 be       	out	0x38, r0	; 56
     57e:	0f 90       	pop	r0
     580:	0f be       	out	0x3f, r0	; 63
     582:	0f 90       	pop	r0
     584:	1f 90       	pop	r1
     586:	18 95       	reti

00000588 <wdt_wait_while_busy>:
     588:	80 91 82 00 	lds	r24, 0x0082	; 0x800082 <__TEXT_REGION_LENGTH__+0x700082>
     58c:	80 fd       	sbrc	r24, 0
     58e:	fc cf       	rjmp	.-8      	; 0x588 <wdt_wait_while_busy>
     590:	08 95       	ret

00000592 <wdt_reset_mcu>:
     592:	63 e0       	ldi	r22, 0x03	; 3
     594:	80 e8       	ldi	r24, 0x80	; 128
     596:	90 e0       	ldi	r25, 0x00	; 0
     598:	5f d2       	rcall	.+1214   	; 0xa58 <ccp_write_io>
     59a:	f6 df       	rcall	.-20     	; 0x588 <wdt_wait_while_busy>
     59c:	6b e2       	ldi	r22, 0x2B	; 43
     59e:	81 e8       	ldi	r24, 0x81	; 129
     5a0:	90 e0       	ldi	r25, 0x00	; 0
     5a2:	5a d2       	rcall	.+1204   	; 0xa58 <ccp_write_io>
     5a4:	f1 df       	rcall	.-30     	; 0x588 <wdt_wait_while_busy>
     5a6:	a8 95       	wdr
     5a8:	ff cf       	rjmp	.-2      	; 0x5a8 <wdt_reset_mcu+0x16>

000005aa <cpu_irq_save>:
     5aa:	cf 93       	push	r28
     5ac:	df 93       	push	r29
     5ae:	1f 92       	push	r1
     5b0:	cd b7       	in	r28, 0x3d	; 61
     5b2:	de b7       	in	r29, 0x3e	; 62
     5b4:	8f b7       	in	r24, 0x3f	; 63
     5b6:	89 83       	std	Y+1, r24	; 0x01
     5b8:	f8 94       	cli
     5ba:	89 81       	ldd	r24, Y+1	; 0x01
     5bc:	0f 90       	pop	r0
     5be:	df 91       	pop	r29
     5c0:	cf 91       	pop	r28
     5c2:	08 95       	ret

000005c4 <sysclk_init>:
     5c4:	8f ef       	ldi	r24, 0xFF	; 255
     5c6:	80 93 70 00 	sts	0x0070, r24	; 0x800070 <__TEXT_REGION_LENGTH__+0x700070>
     5ca:	80 93 71 00 	sts	0x0071, r24	; 0x800071 <__TEXT_REGION_LENGTH__+0x700071>
     5ce:	80 93 72 00 	sts	0x0072, r24	; 0x800072 <__TEXT_REGION_LENGTH__+0x700072>
     5d2:	80 93 73 00 	sts	0x0073, r24	; 0x800073 <__TEXT_REGION_LENGTH__+0x700073>
     5d6:	80 93 74 00 	sts	0x0074, r24	; 0x800074 <__TEXT_REGION_LENGTH__+0x700074>
     5da:	80 93 75 00 	sts	0x0075, r24	; 0x800075 <__TEXT_REGION_LENGTH__+0x700075>
     5de:	80 93 76 00 	sts	0x0076, r24	; 0x800076 <__TEXT_REGION_LENGTH__+0x700076>
     5e2:	e3 df       	rcall	.-58     	; 0x5aa <cpu_irq_save>
     5e4:	90 91 50 00 	lds	r25, 0x0050	; 0x800050 <__TEXT_REGION_LENGTH__+0x700050>
     5e8:	92 60       	ori	r25, 0x02	; 2
     5ea:	90 93 50 00 	sts	0x0050, r25	; 0x800050 <__TEXT_REGION_LENGTH__+0x700050>
     5ee:	8f bf       	out	0x3f, r24	; 63
     5f0:	80 91 51 00 	lds	r24, 0x0051	; 0x800051 <__TEXT_REGION_LENGTH__+0x700051>
     5f4:	81 ff       	sbrs	r24, 1
     5f6:	fc cf       	rjmp	.-8      	; 0x5f0 <sysclk_init+0x2c>
     5f8:	61 e0       	ldi	r22, 0x01	; 1
     5fa:	80 e4       	ldi	r24, 0x40	; 64
     5fc:	90 e0       	ldi	r25, 0x00	; 0
     5fe:	2c d2       	rcall	.+1112   	; 0xa58 <ccp_write_io>
     600:	d4 df       	rcall	.-88     	; 0x5aa <cpu_irq_save>
     602:	90 91 50 00 	lds	r25, 0x0050	; 0x800050 <__TEXT_REGION_LENGTH__+0x700050>
     606:	9e 7f       	andi	r25, 0xFE	; 254
     608:	90 93 50 00 	sts	0x0050, r25	; 0x800050 <__TEXT_REGION_LENGTH__+0x700050>
     60c:	8f bf       	out	0x3f, r24	; 63
     60e:	08 95       	ret

00000610 <sysclk_enable_module>:
     610:	cf 93       	push	r28
     612:	df 93       	push	r29
     614:	c8 2f       	mov	r28, r24
     616:	d6 2f       	mov	r29, r22
     618:	c8 df       	rcall	.-112    	; 0x5aa <cpu_irq_save>
     61a:	ec 2f       	mov	r30, r28
     61c:	f0 e0       	ldi	r31, 0x00	; 0
     61e:	e0 59       	subi	r30, 0x90	; 144
     620:	ff 4f       	sbci	r31, 0xFF	; 255
     622:	d0 95       	com	r29
     624:	90 81       	ld	r25, Z
     626:	d9 23       	and	r29, r25
     628:	d0 83       	st	Z, r29
     62a:	8f bf       	out	0x3f, r24	; 63
     62c:	df 91       	pop	r29
     62e:	cf 91       	pop	r28
     630:	08 95       	ret

00000632 <_read>:
     632:	cf 93       	push	r28
     634:	df 93       	push	r29
     636:	1f 92       	push	r1
     638:	cd b7       	in	r28, 0x3d	; 61
     63a:	de b7       	in	r29, 0x3e	; 62
     63c:	80 91 b3 20 	lds	r24, 0x20B3	; 0x8020b3 <stdio_base>
     640:	90 91 b4 20 	lds	r25, 0x20B4	; 0x8020b4 <stdio_base+0x1>
     644:	e0 91 af 20 	lds	r30, 0x20AF	; 0x8020af <ptr_get>
     648:	f0 91 b0 20 	lds	r31, 0x20B0	; 0x8020b0 <ptr_get+0x1>
     64c:	be 01       	movw	r22, r28
     64e:	6f 5f       	subi	r22, 0xFF	; 255
     650:	7f 4f       	sbci	r23, 0xFF	; 255
     652:	19 95       	eicall
     654:	89 81       	ldd	r24, Y+1	; 0x01
     656:	08 2e       	mov	r0, r24
     658:	00 0c       	add	r0, r0
     65a:	99 0b       	sbc	r25, r25
     65c:	0f 90       	pop	r0
     65e:	df 91       	pop	r29
     660:	cf 91       	pop	r28
     662:	08 95       	ret

00000664 <_write>:
     664:	68 2f       	mov	r22, r24
     666:	80 91 b3 20 	lds	r24, 0x20B3	; 0x8020b3 <stdio_base>
     66a:	90 91 b4 20 	lds	r25, 0x20B4	; 0x8020b4 <stdio_base+0x1>
     66e:	e0 91 b1 20 	lds	r30, 0x20B1	; 0x8020b1 <ptr_put>
     672:	f0 91 b2 20 	lds	r31, 0x20B2	; 0x8020b2 <ptr_put+0x1>
     676:	19 95       	eicall
     678:	97 fd       	sbrc	r25, 7
     67a:	03 c0       	rjmp	.+6      	; 0x682 <_write+0x1e>
     67c:	81 e0       	ldi	r24, 0x01	; 1
     67e:	90 e0       	ldi	r25, 0x00	; 0
     680:	08 95       	ret
     682:	8f ef       	ldi	r24, 0xFF	; 255
     684:	9f ef       	ldi	r25, 0xFF	; 255
     686:	08 95       	ret

00000688 <__vector_71>:
     688:	1f 92       	push	r1
     68a:	0f 92       	push	r0
     68c:	0f b6       	in	r0, 0x3f	; 63
     68e:	0f 92       	push	r0
     690:	11 24       	eor	r1, r1
     692:	08 b6       	in	r0, 0x38	; 56
     694:	0f 92       	push	r0
     696:	18 be       	out	0x38, r1	; 56
     698:	09 b6       	in	r0, 0x39	; 57
     69a:	0f 92       	push	r0
     69c:	19 be       	out	0x39, r1	; 57
     69e:	0b b6       	in	r0, 0x3b	; 59
     6a0:	0f 92       	push	r0
     6a2:	1b be       	out	0x3b, r1	; 59
     6a4:	2f 93       	push	r18
     6a6:	3f 93       	push	r19
     6a8:	4f 93       	push	r20
     6aa:	5f 93       	push	r21
     6ac:	6f 93       	push	r22
     6ae:	7f 93       	push	r23
     6b0:	8f 93       	push	r24
     6b2:	9f 93       	push	r25
     6b4:	af 93       	push	r26
     6b6:	bf 93       	push	r27
     6b8:	ef 93       	push	r30
     6ba:	ff 93       	push	r31
     6bc:	40 91 24 02 	lds	r20, 0x0224	; 0x800224 <__TEXT_REGION_LENGTH__+0x700224>
     6c0:	50 91 25 02 	lds	r21, 0x0225	; 0x800225 <__TEXT_REGION_LENGTH__+0x700225>
     6c4:	e0 91 b7 20 	lds	r30, 0x20B7	; 0x8020b7 <adca_callback>
     6c8:	f0 91 b8 20 	lds	r31, 0x20B8	; 0x8020b8 <adca_callback+0x1>
     6cc:	61 e0       	ldi	r22, 0x01	; 1
     6ce:	80 e0       	ldi	r24, 0x00	; 0
     6d0:	92 e0       	ldi	r25, 0x02	; 2
     6d2:	19 95       	eicall
     6d4:	ff 91       	pop	r31
     6d6:	ef 91       	pop	r30
     6d8:	bf 91       	pop	r27
     6da:	af 91       	pop	r26
     6dc:	9f 91       	pop	r25
     6de:	8f 91       	pop	r24
     6e0:	7f 91       	pop	r23
     6e2:	6f 91       	pop	r22
     6e4:	5f 91       	pop	r21
     6e6:	4f 91       	pop	r20
     6e8:	3f 91       	pop	r19
     6ea:	2f 91       	pop	r18
     6ec:	0f 90       	pop	r0
     6ee:	0b be       	out	0x3b, r0	; 59
     6f0:	0f 90       	pop	r0
     6f2:	09 be       	out	0x39, r0	; 57
     6f4:	0f 90       	pop	r0
     6f6:	08 be       	out	0x38, r0	; 56
     6f8:	0f 90       	pop	r0
     6fa:	0f be       	out	0x3f, r0	; 63
     6fc:	0f 90       	pop	r0
     6fe:	1f 90       	pop	r1
     700:	18 95       	reti

00000702 <__vector_72>:
     702:	1f 92       	push	r1
     704:	0f 92       	push	r0
     706:	0f b6       	in	r0, 0x3f	; 63
     708:	0f 92       	push	r0
     70a:	11 24       	eor	r1, r1
     70c:	08 b6       	in	r0, 0x38	; 56
     70e:	0f 92       	push	r0
     710:	18 be       	out	0x38, r1	; 56
     712:	09 b6       	in	r0, 0x39	; 57
     714:	0f 92       	push	r0
     716:	19 be       	out	0x39, r1	; 57
     718:	0b b6       	in	r0, 0x3b	; 59
     71a:	0f 92       	push	r0
     71c:	1b be       	out	0x3b, r1	; 59
     71e:	2f 93       	push	r18
     720:	3f 93       	push	r19
     722:	4f 93       	push	r20
     724:	5f 93       	push	r21
     726:	6f 93       	push	r22
     728:	7f 93       	push	r23
     72a:	8f 93       	push	r24
     72c:	9f 93       	push	r25
     72e:	af 93       	push	r26
     730:	bf 93       	push	r27
     732:	ef 93       	push	r30
     734:	ff 93       	push	r31
     736:	40 91 2c 02 	lds	r20, 0x022C	; 0x80022c <__TEXT_REGION_LENGTH__+0x70022c>
     73a:	50 91 2d 02 	lds	r21, 0x022D	; 0x80022d <__TEXT_REGION_LENGTH__+0x70022d>
     73e:	e0 91 b7 20 	lds	r30, 0x20B7	; 0x8020b7 <adca_callback>
     742:	f0 91 b8 20 	lds	r31, 0x20B8	; 0x8020b8 <adca_callback+0x1>
     746:	62 e0       	ldi	r22, 0x02	; 2
     748:	80 e0       	ldi	r24, 0x00	; 0
     74a:	92 e0       	ldi	r25, 0x02	; 2
     74c:	19 95       	eicall
     74e:	ff 91       	pop	r31
     750:	ef 91       	pop	r30
     752:	bf 91       	pop	r27
     754:	af 91       	pop	r26
     756:	9f 91       	pop	r25
     758:	8f 91       	pop	r24
     75a:	7f 91       	pop	r23
     75c:	6f 91       	pop	r22
     75e:	5f 91       	pop	r21
     760:	4f 91       	pop	r20
     762:	3f 91       	pop	r19
     764:	2f 91       	pop	r18
     766:	0f 90       	pop	r0
     768:	0b be       	out	0x3b, r0	; 59
     76a:	0f 90       	pop	r0
     76c:	09 be       	out	0x39, r0	; 57
     76e:	0f 90       	pop	r0
     770:	08 be       	out	0x38, r0	; 56
     772:	0f 90       	pop	r0
     774:	0f be       	out	0x3f, r0	; 63
     776:	0f 90       	pop	r0
     778:	1f 90       	pop	r1
     77a:	18 95       	reti

0000077c <__vector_73>:
     77c:	1f 92       	push	r1
     77e:	0f 92       	push	r0
     780:	0f b6       	in	r0, 0x3f	; 63
     782:	0f 92       	push	r0
     784:	11 24       	eor	r1, r1
     786:	08 b6       	in	r0, 0x38	; 56
     788:	0f 92       	push	r0
     78a:	18 be       	out	0x38, r1	; 56
     78c:	09 b6       	in	r0, 0x39	; 57
     78e:	0f 92       	push	r0
     790:	19 be       	out	0x39, r1	; 57
     792:	0b b6       	in	r0, 0x3b	; 59
     794:	0f 92       	push	r0
     796:	1b be       	out	0x3b, r1	; 59
     798:	2f 93       	push	r18
     79a:	3f 93       	push	r19
     79c:	4f 93       	push	r20
     79e:	5f 93       	push	r21
     7a0:	6f 93       	push	r22
     7a2:	7f 93       	push	r23
     7a4:	8f 93       	push	r24
     7a6:	9f 93       	push	r25
     7a8:	af 93       	push	r26
     7aa:	bf 93       	push	r27
     7ac:	ef 93       	push	r30
     7ae:	ff 93       	push	r31
     7b0:	40 91 34 02 	lds	r20, 0x0234	; 0x800234 <__TEXT_REGION_LENGTH__+0x700234>
     7b4:	50 91 35 02 	lds	r21, 0x0235	; 0x800235 <__TEXT_REGION_LENGTH__+0x700235>
     7b8:	e0 91 b7 20 	lds	r30, 0x20B7	; 0x8020b7 <adca_callback>
     7bc:	f0 91 b8 20 	lds	r31, 0x20B8	; 0x8020b8 <adca_callback+0x1>
     7c0:	64 e0       	ldi	r22, 0x04	; 4
     7c2:	80 e0       	ldi	r24, 0x00	; 0
     7c4:	92 e0       	ldi	r25, 0x02	; 2
     7c6:	19 95       	eicall
     7c8:	ff 91       	pop	r31
     7ca:	ef 91       	pop	r30
     7cc:	bf 91       	pop	r27
     7ce:	af 91       	pop	r26
     7d0:	9f 91       	pop	r25
     7d2:	8f 91       	pop	r24
     7d4:	7f 91       	pop	r23
     7d6:	6f 91       	pop	r22
     7d8:	5f 91       	pop	r21
     7da:	4f 91       	pop	r20
     7dc:	3f 91       	pop	r19
     7de:	2f 91       	pop	r18
     7e0:	0f 90       	pop	r0
     7e2:	0b be       	out	0x3b, r0	; 59
     7e4:	0f 90       	pop	r0
     7e6:	09 be       	out	0x39, r0	; 57
     7e8:	0f 90       	pop	r0
     7ea:	08 be       	out	0x38, r0	; 56
     7ec:	0f 90       	pop	r0
     7ee:	0f be       	out	0x3f, r0	; 63
     7f0:	0f 90       	pop	r0
     7f2:	1f 90       	pop	r1
     7f4:	18 95       	reti

000007f6 <__vector_74>:
     7f6:	1f 92       	push	r1
     7f8:	0f 92       	push	r0
     7fa:	0f b6       	in	r0, 0x3f	; 63
     7fc:	0f 92       	push	r0
     7fe:	11 24       	eor	r1, r1
     800:	08 b6       	in	r0, 0x38	; 56
     802:	0f 92       	push	r0
     804:	18 be       	out	0x38, r1	; 56
     806:	09 b6       	in	r0, 0x39	; 57
     808:	0f 92       	push	r0
     80a:	19 be       	out	0x39, r1	; 57
     80c:	0b b6       	in	r0, 0x3b	; 59
     80e:	0f 92       	push	r0
     810:	1b be       	out	0x3b, r1	; 59
     812:	2f 93       	push	r18
     814:	3f 93       	push	r19
     816:	4f 93       	push	r20
     818:	5f 93       	push	r21
     81a:	6f 93       	push	r22
     81c:	7f 93       	push	r23
     81e:	8f 93       	push	r24
     820:	9f 93       	push	r25
     822:	af 93       	push	r26
     824:	bf 93       	push	r27
     826:	ef 93       	push	r30
     828:	ff 93       	push	r31
     82a:	40 91 3c 02 	lds	r20, 0x023C	; 0x80023c <__TEXT_REGION_LENGTH__+0x70023c>
     82e:	50 91 3d 02 	lds	r21, 0x023D	; 0x80023d <__TEXT_REGION_LENGTH__+0x70023d>
     832:	e0 91 b7 20 	lds	r30, 0x20B7	; 0x8020b7 <adca_callback>
     836:	f0 91 b8 20 	lds	r31, 0x20B8	; 0x8020b8 <adca_callback+0x1>
     83a:	68 e0       	ldi	r22, 0x08	; 8
     83c:	80 e0       	ldi	r24, 0x00	; 0
     83e:	92 e0       	ldi	r25, 0x02	; 2
     840:	19 95       	eicall
     842:	ff 91       	pop	r31
     844:	ef 91       	pop	r30
     846:	bf 91       	pop	r27
     848:	af 91       	pop	r26
     84a:	9f 91       	pop	r25
     84c:	8f 91       	pop	r24
     84e:	7f 91       	pop	r23
     850:	6f 91       	pop	r22
     852:	5f 91       	pop	r21
     854:	4f 91       	pop	r20
     856:	3f 91       	pop	r19
     858:	2f 91       	pop	r18
     85a:	0f 90       	pop	r0
     85c:	0b be       	out	0x3b, r0	; 59
     85e:	0f 90       	pop	r0
     860:	09 be       	out	0x39, r0	; 57
     862:	0f 90       	pop	r0
     864:	08 be       	out	0x38, r0	; 56
     866:	0f 90       	pop	r0
     868:	0f be       	out	0x3f, r0	; 63
     86a:	0f 90       	pop	r0
     86c:	1f 90       	pop	r1
     86e:	18 95       	reti

00000870 <__vector_39>:
     870:	1f 92       	push	r1
     872:	0f 92       	push	r0
     874:	0f b6       	in	r0, 0x3f	; 63
     876:	0f 92       	push	r0
     878:	11 24       	eor	r1, r1
     87a:	08 b6       	in	r0, 0x38	; 56
     87c:	0f 92       	push	r0
     87e:	18 be       	out	0x38, r1	; 56
     880:	09 b6       	in	r0, 0x39	; 57
     882:	0f 92       	push	r0
     884:	19 be       	out	0x39, r1	; 57
     886:	0b b6       	in	r0, 0x3b	; 59
     888:	0f 92       	push	r0
     88a:	1b be       	out	0x3b, r1	; 59
     88c:	2f 93       	push	r18
     88e:	3f 93       	push	r19
     890:	4f 93       	push	r20
     892:	5f 93       	push	r21
     894:	6f 93       	push	r22
     896:	7f 93       	push	r23
     898:	8f 93       	push	r24
     89a:	9f 93       	push	r25
     89c:	af 93       	push	r26
     89e:	bf 93       	push	r27
     8a0:	ef 93       	push	r30
     8a2:	ff 93       	push	r31
     8a4:	40 91 64 02 	lds	r20, 0x0264	; 0x800264 <__TEXT_REGION_LENGTH__+0x700264>
     8a8:	50 91 65 02 	lds	r21, 0x0265	; 0x800265 <__TEXT_REGION_LENGTH__+0x700265>
     8ac:	e0 91 b5 20 	lds	r30, 0x20B5	; 0x8020b5 <adcb_callback>
     8b0:	f0 91 b6 20 	lds	r31, 0x20B6	; 0x8020b6 <adcb_callback+0x1>
     8b4:	61 e0       	ldi	r22, 0x01	; 1
     8b6:	80 e4       	ldi	r24, 0x40	; 64
     8b8:	92 e0       	ldi	r25, 0x02	; 2
     8ba:	19 95       	eicall
     8bc:	ff 91       	pop	r31
     8be:	ef 91       	pop	r30
     8c0:	bf 91       	pop	r27
     8c2:	af 91       	pop	r26
     8c4:	9f 91       	pop	r25
     8c6:	8f 91       	pop	r24
     8c8:	7f 91       	pop	r23
     8ca:	6f 91       	pop	r22
     8cc:	5f 91       	pop	r21
     8ce:	4f 91       	pop	r20
     8d0:	3f 91       	pop	r19
     8d2:	2f 91       	pop	r18
     8d4:	0f 90       	pop	r0
     8d6:	0b be       	out	0x3b, r0	; 59
     8d8:	0f 90       	pop	r0
     8da:	09 be       	out	0x39, r0	; 57
     8dc:	0f 90       	pop	r0
     8de:	08 be       	out	0x38, r0	; 56
     8e0:	0f 90       	pop	r0
     8e2:	0f be       	out	0x3f, r0	; 63
     8e4:	0f 90       	pop	r0
     8e6:	1f 90       	pop	r1
     8e8:	18 95       	reti

000008ea <__vector_40>:
     8ea:	1f 92       	push	r1
     8ec:	0f 92       	push	r0
     8ee:	0f b6       	in	r0, 0x3f	; 63
     8f0:	0f 92       	push	r0
     8f2:	11 24       	eor	r1, r1
     8f4:	08 b6       	in	r0, 0x38	; 56
     8f6:	0f 92       	push	r0
     8f8:	18 be       	out	0x38, r1	; 56
     8fa:	09 b6       	in	r0, 0x39	; 57
     8fc:	0f 92       	push	r0
     8fe:	19 be       	out	0x39, r1	; 57
     900:	0b b6       	in	r0, 0x3b	; 59
     902:	0f 92       	push	r0
     904:	1b be       	out	0x3b, r1	; 59
     906:	2f 93       	push	r18
     908:	3f 93       	push	r19
     90a:	4f 93       	push	r20
     90c:	5f 93       	push	r21
     90e:	6f 93       	push	r22
     910:	7f 93       	push	r23
     912:	8f 93       	push	r24
     914:	9f 93       	push	r25
     916:	af 93       	push	r26
     918:	bf 93       	push	r27
     91a:	ef 93       	push	r30
     91c:	ff 93       	push	r31
     91e:	40 91 6c 02 	lds	r20, 0x026C	; 0x80026c <__TEXT_REGION_LENGTH__+0x70026c>
     922:	50 91 6d 02 	lds	r21, 0x026D	; 0x80026d <__TEXT_REGION_LENGTH__+0x70026d>
     926:	e0 91 b5 20 	lds	r30, 0x20B5	; 0x8020b5 <adcb_callback>
     92a:	f0 91 b6 20 	lds	r31, 0x20B6	; 0x8020b6 <adcb_callback+0x1>
     92e:	62 e0       	ldi	r22, 0x02	; 2
     930:	80 e4       	ldi	r24, 0x40	; 64
     932:	92 e0       	ldi	r25, 0x02	; 2
     934:	19 95       	eicall
     936:	ff 91       	pop	r31
     938:	ef 91       	pop	r30
     93a:	bf 91       	pop	r27
     93c:	af 91       	pop	r26
     93e:	9f 91       	pop	r25
     940:	8f 91       	pop	r24
     942:	7f 91       	pop	r23
     944:	6f 91       	pop	r22
     946:	5f 91       	pop	r21
     948:	4f 91       	pop	r20
     94a:	3f 91       	pop	r19
     94c:	2f 91       	pop	r18
     94e:	0f 90       	pop	r0
     950:	0b be       	out	0x3b, r0	; 59
     952:	0f 90       	pop	r0
     954:	09 be       	out	0x39, r0	; 57
     956:	0f 90       	pop	r0
     958:	08 be       	out	0x38, r0	; 56
     95a:	0f 90       	pop	r0
     95c:	0f be       	out	0x3f, r0	; 63
     95e:	0f 90       	pop	r0
     960:	1f 90       	pop	r1
     962:	18 95       	reti

00000964 <__vector_41>:
     964:	1f 92       	push	r1
     966:	0f 92       	push	r0
     968:	0f b6       	in	r0, 0x3f	; 63
     96a:	0f 92       	push	r0
     96c:	11 24       	eor	r1, r1
     96e:	08 b6       	in	r0, 0x38	; 56
     970:	0f 92       	push	r0
     972:	18 be       	out	0x38, r1	; 56
     974:	09 b6       	in	r0, 0x39	; 57
     976:	0f 92       	push	r0
     978:	19 be       	out	0x39, r1	; 57
     97a:	0b b6       	in	r0, 0x3b	; 59
     97c:	0f 92       	push	r0
     97e:	1b be       	out	0x3b, r1	; 59
     980:	2f 93       	push	r18
     982:	3f 93       	push	r19
     984:	4f 93       	push	r20
     986:	5f 93       	push	r21
     988:	6f 93       	push	r22
     98a:	7f 93       	push	r23
     98c:	8f 93       	push	r24
     98e:	9f 93       	push	r25
     990:	af 93       	push	r26
     992:	bf 93       	push	r27
     994:	ef 93       	push	r30
     996:	ff 93       	push	r31
     998:	40 91 74 02 	lds	r20, 0x0274	; 0x800274 <__TEXT_REGION_LENGTH__+0x700274>
     99c:	50 91 75 02 	lds	r21, 0x0275	; 0x800275 <__TEXT_REGION_LENGTH__+0x700275>
     9a0:	e0 91 b5 20 	lds	r30, 0x20B5	; 0x8020b5 <adcb_callback>
     9a4:	f0 91 b6 20 	lds	r31, 0x20B6	; 0x8020b6 <adcb_callback+0x1>
     9a8:	64 e0       	ldi	r22, 0x04	; 4
     9aa:	80 e4       	ldi	r24, 0x40	; 64
     9ac:	92 e0       	ldi	r25, 0x02	; 2
     9ae:	19 95       	eicall
     9b0:	ff 91       	pop	r31
     9b2:	ef 91       	pop	r30
     9b4:	bf 91       	pop	r27
     9b6:	af 91       	pop	r26
     9b8:	9f 91       	pop	r25
     9ba:	8f 91       	pop	r24
     9bc:	7f 91       	pop	r23
     9be:	6f 91       	pop	r22
     9c0:	5f 91       	pop	r21
     9c2:	4f 91       	pop	r20
     9c4:	3f 91       	pop	r19
     9c6:	2f 91       	pop	r18
     9c8:	0f 90       	pop	r0
     9ca:	0b be       	out	0x3b, r0	; 59
     9cc:	0f 90       	pop	r0
     9ce:	09 be       	out	0x39, r0	; 57
     9d0:	0f 90       	pop	r0
     9d2:	08 be       	out	0x38, r0	; 56
     9d4:	0f 90       	pop	r0
     9d6:	0f be       	out	0x3f, r0	; 63
     9d8:	0f 90       	pop	r0
     9da:	1f 90       	pop	r1
     9dc:	18 95       	reti

000009de <__vector_42>:
     9de:	1f 92       	push	r1
     9e0:	0f 92       	push	r0
     9e2:	0f b6       	in	r0, 0x3f	; 63
     9e4:	0f 92       	push	r0
     9e6:	11 24       	eor	r1, r1
     9e8:	08 b6       	in	r0, 0x38	; 56
     9ea:	0f 92       	push	r0
     9ec:	18 be       	out	0x38, r1	; 56
     9ee:	09 b6       	in	r0, 0x39	; 57
     9f0:	0f 92       	push	r0
     9f2:	19 be       	out	0x39, r1	; 57
     9f4:	0b b6       	in	r0, 0x3b	; 59
     9f6:	0f 92       	push	r0
     9f8:	1b be       	out	0x3b, r1	; 59
     9fa:	2f 93       	push	r18
     9fc:	3f 93       	push	r19
     9fe:	4f 93       	push	r20
     a00:	5f 93       	push	r21
     a02:	6f 93       	push	r22
     a04:	7f 93       	push	r23
     a06:	8f 93       	push	r24
     a08:	9f 93       	push	r25
     a0a:	af 93       	push	r26
     a0c:	bf 93       	push	r27
     a0e:	ef 93       	push	r30
     a10:	ff 93       	push	r31
     a12:	40 91 7c 02 	lds	r20, 0x027C	; 0x80027c <__TEXT_REGION_LENGTH__+0x70027c>
     a16:	50 91 7d 02 	lds	r21, 0x027D	; 0x80027d <__TEXT_REGION_LENGTH__+0x70027d>
     a1a:	e0 91 b5 20 	lds	r30, 0x20B5	; 0x8020b5 <adcb_callback>
     a1e:	f0 91 b6 20 	lds	r31, 0x20B6	; 0x8020b6 <adcb_callback+0x1>
     a22:	68 e0       	ldi	r22, 0x08	; 8
     a24:	80 e4       	ldi	r24, 0x40	; 64
     a26:	92 e0       	ldi	r25, 0x02	; 2
     a28:	19 95       	eicall
     a2a:	ff 91       	pop	r31
     a2c:	ef 91       	pop	r30
     a2e:	bf 91       	pop	r27
     a30:	af 91       	pop	r26
     a32:	9f 91       	pop	r25
     a34:	8f 91       	pop	r24
     a36:	7f 91       	pop	r23
     a38:	6f 91       	pop	r22
     a3a:	5f 91       	pop	r21
     a3c:	4f 91       	pop	r20
     a3e:	3f 91       	pop	r19
     a40:	2f 91       	pop	r18
     a42:	0f 90       	pop	r0
     a44:	0b be       	out	0x3b, r0	; 59
     a46:	0f 90       	pop	r0
     a48:	09 be       	out	0x39, r0	; 57
     a4a:	0f 90       	pop	r0
     a4c:	08 be       	out	0x38, r0	; 56
     a4e:	0f 90       	pop	r0
     a50:	0f be       	out	0x3f, r0	; 63
     a52:	0f 90       	pop	r0
     a54:	1f 90       	pop	r1
     a56:	18 95       	reti

00000a58 <ccp_write_io>:

	PUBLIC_FUNCTION(ccp_write_io)

#if defined(__GNUC__)

	out     RAMPZ, r1               // Reset bits 23:16 of Z
     a58:	1b be       	out	0x3b, r1	; 59
	movw    r30, r24                // Load addr into Z
     a5a:	fc 01       	movw	r30, r24
	ldi     r18, CCP_IOREG          // Load magic CCP value
     a5c:	28 ed       	ldi	r18, 0xD8	; 216
	out     CCP, r18                // Start CCP handshake
     a5e:	24 bf       	out	0x34, r18	; 52
	st      Z, r22                  // Write value to I/O register
     a60:	60 83       	st	Z, r22
	ret                             // Return to caller
     a62:	08 95       	ret

00000a64 <nvm_read_byte>:
#endif

#ifndef __DOXYGEN__
	PUBLIC_FUNCTION(nvm_read_byte)
#if defined(__GNUC__)
	lds r20, NVM_CMD          ; Store NVM command register
     a64:	40 91 ca 01 	lds	r20, 0x01CA	; 0x8001ca <__TEXT_REGION_LENGTH__+0x7001ca>
	mov ZL, r22               ; Load byte index into low byte of Z.
     a68:	e6 2f       	mov	r30, r22
	mov ZH, r23               ; Load high byte into Z.
     a6a:	f7 2f       	mov	r31, r23
	sts NVM_CMD, r24          ; Load prepared command into NVM Command register.
     a6c:	80 93 ca 01 	sts	0x01CA, r24	; 0x8001ca <__TEXT_REGION_LENGTH__+0x7001ca>
	lpm r24, Z                ; Perform an LPM to read out byte
     a70:	84 91       	lpm	r24, Z
	sts NVM_CMD, r20          ; Restore NVM command register
     a72:	40 93 ca 01 	sts	0x01CA, r20	; 0x8001ca <__TEXT_REGION_LENGTH__+0x7001ca>
	sts NVM_CMD, r16          ; Load prepared command into NVM Command register.
	lpm r16, Z                ; Perform an LPM to read out byte
	sts NVM_CMD, r20          ; Restore NVM command register
#endif

	ret
     a76:	08 95       	ret

00000a78 <__vector_14>:
     a78:	1f 92       	push	r1
     a7a:	0f 92       	push	r0
     a7c:	0f b6       	in	r0, 0x3f	; 63
     a7e:	0f 92       	push	r0
     a80:	11 24       	eor	r1, r1
     a82:	08 b6       	in	r0, 0x38	; 56
     a84:	0f 92       	push	r0
     a86:	18 be       	out	0x38, r1	; 56
     a88:	09 b6       	in	r0, 0x39	; 57
     a8a:	0f 92       	push	r0
     a8c:	19 be       	out	0x39, r1	; 57
     a8e:	0b b6       	in	r0, 0x3b	; 59
     a90:	0f 92       	push	r0
     a92:	1b be       	out	0x3b, r1	; 59
     a94:	2f 93       	push	r18
     a96:	3f 93       	push	r19
     a98:	4f 93       	push	r20
     a9a:	5f 93       	push	r21
     a9c:	6f 93       	push	r22
     a9e:	7f 93       	push	r23
     aa0:	8f 93       	push	r24
     aa2:	9f 93       	push	r25
     aa4:	af 93       	push	r26
     aa6:	bf 93       	push	r27
     aa8:	ef 93       	push	r30
     aaa:	ff 93       	push	r31
     aac:	e0 91 ad 20 	lds	r30, 0x20AD	; 0x8020ad <tc_tcc0_ovf_callback>
     ab0:	f0 91 ae 20 	lds	r31, 0x20AE	; 0x8020ae <tc_tcc0_ovf_callback+0x1>
     ab4:	30 97       	sbiw	r30, 0x00	; 0
     ab6:	09 f0       	breq	.+2      	; 0xaba <__vector_14+0x42>
     ab8:	19 95       	eicall
     aba:	ff 91       	pop	r31
     abc:	ef 91       	pop	r30
     abe:	bf 91       	pop	r27
     ac0:	af 91       	pop	r26
     ac2:	9f 91       	pop	r25
     ac4:	8f 91       	pop	r24
     ac6:	7f 91       	pop	r23
     ac8:	6f 91       	pop	r22
     aca:	5f 91       	pop	r21
     acc:	4f 91       	pop	r20
     ace:	3f 91       	pop	r19
     ad0:	2f 91       	pop	r18
     ad2:	0f 90       	pop	r0
     ad4:	0b be       	out	0x3b, r0	; 59
     ad6:	0f 90       	pop	r0
     ad8:	09 be       	out	0x39, r0	; 57
     ada:	0f 90       	pop	r0
     adc:	08 be       	out	0x38, r0	; 56
     ade:	0f 90       	pop	r0
     ae0:	0f be       	out	0x3f, r0	; 63
     ae2:	0f 90       	pop	r0
     ae4:	1f 90       	pop	r1
     ae6:	18 95       	reti

00000ae8 <__vector_15>:
     ae8:	1f 92       	push	r1
     aea:	0f 92       	push	r0
     aec:	0f b6       	in	r0, 0x3f	; 63
     aee:	0f 92       	push	r0
     af0:	11 24       	eor	r1, r1
     af2:	08 b6       	in	r0, 0x38	; 56
     af4:	0f 92       	push	r0
     af6:	18 be       	out	0x38, r1	; 56
     af8:	09 b6       	in	r0, 0x39	; 57
     afa:	0f 92       	push	r0
     afc:	19 be       	out	0x39, r1	; 57
     afe:	0b b6       	in	r0, 0x3b	; 59
     b00:	0f 92       	push	r0
     b02:	1b be       	out	0x3b, r1	; 59
     b04:	2f 93       	push	r18
     b06:	3f 93       	push	r19
     b08:	4f 93       	push	r20
     b0a:	5f 93       	push	r21
     b0c:	6f 93       	push	r22
     b0e:	7f 93       	push	r23
     b10:	8f 93       	push	r24
     b12:	9f 93       	push	r25
     b14:	af 93       	push	r26
     b16:	bf 93       	push	r27
     b18:	ef 93       	push	r30
     b1a:	ff 93       	push	r31
     b1c:	e0 91 ab 20 	lds	r30, 0x20AB	; 0x8020ab <tc_tcc0_err_callback>
     b20:	f0 91 ac 20 	lds	r31, 0x20AC	; 0x8020ac <tc_tcc0_err_callback+0x1>
     b24:	30 97       	sbiw	r30, 0x00	; 0
     b26:	09 f0       	breq	.+2      	; 0xb2a <__vector_15+0x42>
     b28:	19 95       	eicall
     b2a:	ff 91       	pop	r31
     b2c:	ef 91       	pop	r30
     b2e:	bf 91       	pop	r27
     b30:	af 91       	pop	r26
     b32:	9f 91       	pop	r25
     b34:	8f 91       	pop	r24
     b36:	7f 91       	pop	r23
     b38:	6f 91       	pop	r22
     b3a:	5f 91       	pop	r21
     b3c:	4f 91       	pop	r20
     b3e:	3f 91       	pop	r19
     b40:	2f 91       	pop	r18
     b42:	0f 90       	pop	r0
     b44:	0b be       	out	0x3b, r0	; 59
     b46:	0f 90       	pop	r0
     b48:	09 be       	out	0x39, r0	; 57
     b4a:	0f 90       	pop	r0
     b4c:	08 be       	out	0x38, r0	; 56
     b4e:	0f 90       	pop	r0
     b50:	0f be       	out	0x3f, r0	; 63
     b52:	0f 90       	pop	r0
     b54:	1f 90       	pop	r1
     b56:	18 95       	reti

00000b58 <__vector_16>:
     b58:	1f 92       	push	r1
     b5a:	0f 92       	push	r0
     b5c:	0f b6       	in	r0, 0x3f	; 63
     b5e:	0f 92       	push	r0
     b60:	11 24       	eor	r1, r1
     b62:	08 b6       	in	r0, 0x38	; 56
     b64:	0f 92       	push	r0
     b66:	18 be       	out	0x38, r1	; 56
     b68:	09 b6       	in	r0, 0x39	; 57
     b6a:	0f 92       	push	r0
     b6c:	19 be       	out	0x39, r1	; 57
     b6e:	0b b6       	in	r0, 0x3b	; 59
     b70:	0f 92       	push	r0
     b72:	1b be       	out	0x3b, r1	; 59
     b74:	2f 93       	push	r18
     b76:	3f 93       	push	r19
     b78:	4f 93       	push	r20
     b7a:	5f 93       	push	r21
     b7c:	6f 93       	push	r22
     b7e:	7f 93       	push	r23
     b80:	8f 93       	push	r24
     b82:	9f 93       	push	r25
     b84:	af 93       	push	r26
     b86:	bf 93       	push	r27
     b88:	ef 93       	push	r30
     b8a:	ff 93       	push	r31
     b8c:	e0 91 a9 20 	lds	r30, 0x20A9	; 0x8020a9 <tc_tcc0_cca_callback>
     b90:	f0 91 aa 20 	lds	r31, 0x20AA	; 0x8020aa <tc_tcc0_cca_callback+0x1>
     b94:	30 97       	sbiw	r30, 0x00	; 0
     b96:	09 f0       	breq	.+2      	; 0xb9a <__vector_16+0x42>
     b98:	19 95       	eicall
     b9a:	ff 91       	pop	r31
     b9c:	ef 91       	pop	r30
     b9e:	bf 91       	pop	r27
     ba0:	af 91       	pop	r26
     ba2:	9f 91       	pop	r25
     ba4:	8f 91       	pop	r24
     ba6:	7f 91       	pop	r23
     ba8:	6f 91       	pop	r22
     baa:	5f 91       	pop	r21
     bac:	4f 91       	pop	r20
     bae:	3f 91       	pop	r19
     bb0:	2f 91       	pop	r18
     bb2:	0f 90       	pop	r0
     bb4:	0b be       	out	0x3b, r0	; 59
     bb6:	0f 90       	pop	r0
     bb8:	09 be       	out	0x39, r0	; 57
     bba:	0f 90       	pop	r0
     bbc:	08 be       	out	0x38, r0	; 56
     bbe:	0f 90       	pop	r0
     bc0:	0f be       	out	0x3f, r0	; 63
     bc2:	0f 90       	pop	r0
     bc4:	1f 90       	pop	r1
     bc6:	18 95       	reti

00000bc8 <__vector_17>:
     bc8:	1f 92       	push	r1
     bca:	0f 92       	push	r0
     bcc:	0f b6       	in	r0, 0x3f	; 63
     bce:	0f 92       	push	r0
     bd0:	11 24       	eor	r1, r1
     bd2:	08 b6       	in	r0, 0x38	; 56
     bd4:	0f 92       	push	r0
     bd6:	18 be       	out	0x38, r1	; 56
     bd8:	09 b6       	in	r0, 0x39	; 57
     bda:	0f 92       	push	r0
     bdc:	19 be       	out	0x39, r1	; 57
     bde:	0b b6       	in	r0, 0x3b	; 59
     be0:	0f 92       	push	r0
     be2:	1b be       	out	0x3b, r1	; 59
     be4:	2f 93       	push	r18
     be6:	3f 93       	push	r19
     be8:	4f 93       	push	r20
     bea:	5f 93       	push	r21
     bec:	6f 93       	push	r22
     bee:	7f 93       	push	r23
     bf0:	8f 93       	push	r24
     bf2:	9f 93       	push	r25
     bf4:	af 93       	push	r26
     bf6:	bf 93       	push	r27
     bf8:	ef 93       	push	r30
     bfa:	ff 93       	push	r31
     bfc:	e0 91 a7 20 	lds	r30, 0x20A7	; 0x8020a7 <tc_tcc0_ccb_callback>
     c00:	f0 91 a8 20 	lds	r31, 0x20A8	; 0x8020a8 <tc_tcc0_ccb_callback+0x1>
     c04:	30 97       	sbiw	r30, 0x00	; 0
     c06:	09 f0       	breq	.+2      	; 0xc0a <__vector_17+0x42>
     c08:	19 95       	eicall
     c0a:	ff 91       	pop	r31
     c0c:	ef 91       	pop	r30
     c0e:	bf 91       	pop	r27
     c10:	af 91       	pop	r26
     c12:	9f 91       	pop	r25
     c14:	8f 91       	pop	r24
     c16:	7f 91       	pop	r23
     c18:	6f 91       	pop	r22
     c1a:	5f 91       	pop	r21
     c1c:	4f 91       	pop	r20
     c1e:	3f 91       	pop	r19
     c20:	2f 91       	pop	r18
     c22:	0f 90       	pop	r0
     c24:	0b be       	out	0x3b, r0	; 59
     c26:	0f 90       	pop	r0
     c28:	09 be       	out	0x39, r0	; 57
     c2a:	0f 90       	pop	r0
     c2c:	08 be       	out	0x38, r0	; 56
     c2e:	0f 90       	pop	r0
     c30:	0f be       	out	0x3f, r0	; 63
     c32:	0f 90       	pop	r0
     c34:	1f 90       	pop	r1
     c36:	18 95       	reti

00000c38 <__vector_18>:
     c38:	1f 92       	push	r1
     c3a:	0f 92       	push	r0
     c3c:	0f b6       	in	r0, 0x3f	; 63
     c3e:	0f 92       	push	r0
     c40:	11 24       	eor	r1, r1
     c42:	08 b6       	in	r0, 0x38	; 56
     c44:	0f 92       	push	r0
     c46:	18 be       	out	0x38, r1	; 56
     c48:	09 b6       	in	r0, 0x39	; 57
     c4a:	0f 92       	push	r0
     c4c:	19 be       	out	0x39, r1	; 57
     c4e:	0b b6       	in	r0, 0x3b	; 59
     c50:	0f 92       	push	r0
     c52:	1b be       	out	0x3b, r1	; 59
     c54:	2f 93       	push	r18
     c56:	3f 93       	push	r19
     c58:	4f 93       	push	r20
     c5a:	5f 93       	push	r21
     c5c:	6f 93       	push	r22
     c5e:	7f 93       	push	r23
     c60:	8f 93       	push	r24
     c62:	9f 93       	push	r25
     c64:	af 93       	push	r26
     c66:	bf 93       	push	r27
     c68:	ef 93       	push	r30
     c6a:	ff 93       	push	r31
     c6c:	e0 91 a5 20 	lds	r30, 0x20A5	; 0x8020a5 <tc_tcc0_ccc_callback>
     c70:	f0 91 a6 20 	lds	r31, 0x20A6	; 0x8020a6 <tc_tcc0_ccc_callback+0x1>
     c74:	30 97       	sbiw	r30, 0x00	; 0
     c76:	09 f0       	breq	.+2      	; 0xc7a <__vector_18+0x42>
     c78:	19 95       	eicall
     c7a:	ff 91       	pop	r31
     c7c:	ef 91       	pop	r30
     c7e:	bf 91       	pop	r27
     c80:	af 91       	pop	r26
     c82:	9f 91       	pop	r25
     c84:	8f 91       	pop	r24
     c86:	7f 91       	pop	r23
     c88:	6f 91       	pop	r22
     c8a:	5f 91       	pop	r21
     c8c:	4f 91       	pop	r20
     c8e:	3f 91       	pop	r19
     c90:	2f 91       	pop	r18
     c92:	0f 90       	pop	r0
     c94:	0b be       	out	0x3b, r0	; 59
     c96:	0f 90       	pop	r0
     c98:	09 be       	out	0x39, r0	; 57
     c9a:	0f 90       	pop	r0
     c9c:	08 be       	out	0x38, r0	; 56
     c9e:	0f 90       	pop	r0
     ca0:	0f be       	out	0x3f, r0	; 63
     ca2:	0f 90       	pop	r0
     ca4:	1f 90       	pop	r1
     ca6:	18 95       	reti

00000ca8 <__vector_19>:
     ca8:	1f 92       	push	r1
     caa:	0f 92       	push	r0
     cac:	0f b6       	in	r0, 0x3f	; 63
     cae:	0f 92       	push	r0
     cb0:	11 24       	eor	r1, r1
     cb2:	08 b6       	in	r0, 0x38	; 56
     cb4:	0f 92       	push	r0
     cb6:	18 be       	out	0x38, r1	; 56
     cb8:	09 b6       	in	r0, 0x39	; 57
     cba:	0f 92       	push	r0
     cbc:	19 be       	out	0x39, r1	; 57
     cbe:	0b b6       	in	r0, 0x3b	; 59
     cc0:	0f 92       	push	r0
     cc2:	1b be       	out	0x3b, r1	; 59
     cc4:	2f 93       	push	r18
     cc6:	3f 93       	push	r19
     cc8:	4f 93       	push	r20
     cca:	5f 93       	push	r21
     ccc:	6f 93       	push	r22
     cce:	7f 93       	push	r23
     cd0:	8f 93       	push	r24
     cd2:	9f 93       	push	r25
     cd4:	af 93       	push	r26
     cd6:	bf 93       	push	r27
     cd8:	ef 93       	push	r30
     cda:	ff 93       	push	r31
     cdc:	e0 91 a3 20 	lds	r30, 0x20A3	; 0x8020a3 <tc_tcc0_ccd_callback>
     ce0:	f0 91 a4 20 	lds	r31, 0x20A4	; 0x8020a4 <tc_tcc0_ccd_callback+0x1>
     ce4:	30 97       	sbiw	r30, 0x00	; 0
     ce6:	09 f0       	breq	.+2      	; 0xcea <__vector_19+0x42>
     ce8:	19 95       	eicall
     cea:	ff 91       	pop	r31
     cec:	ef 91       	pop	r30
     cee:	bf 91       	pop	r27
     cf0:	af 91       	pop	r26
     cf2:	9f 91       	pop	r25
     cf4:	8f 91       	pop	r24
     cf6:	7f 91       	pop	r23
     cf8:	6f 91       	pop	r22
     cfa:	5f 91       	pop	r21
     cfc:	4f 91       	pop	r20
     cfe:	3f 91       	pop	r19
     d00:	2f 91       	pop	r18
     d02:	0f 90       	pop	r0
     d04:	0b be       	out	0x3b, r0	; 59
     d06:	0f 90       	pop	r0
     d08:	09 be       	out	0x39, r0	; 57
     d0a:	0f 90       	pop	r0
     d0c:	08 be       	out	0x38, r0	; 56
     d0e:	0f 90       	pop	r0
     d10:	0f be       	out	0x3f, r0	; 63
     d12:	0f 90       	pop	r0
     d14:	1f 90       	pop	r1
     d16:	18 95       	reti

00000d18 <__vector_20>:
     d18:	1f 92       	push	r1
     d1a:	0f 92       	push	r0
     d1c:	0f b6       	in	r0, 0x3f	; 63
     d1e:	0f 92       	push	r0
     d20:	11 24       	eor	r1, r1
     d22:	08 b6       	in	r0, 0x38	; 56
     d24:	0f 92       	push	r0
     d26:	18 be       	out	0x38, r1	; 56
     d28:	09 b6       	in	r0, 0x39	; 57
     d2a:	0f 92       	push	r0
     d2c:	19 be       	out	0x39, r1	; 57
     d2e:	0b b6       	in	r0, 0x3b	; 59
     d30:	0f 92       	push	r0
     d32:	1b be       	out	0x3b, r1	; 59
     d34:	2f 93       	push	r18
     d36:	3f 93       	push	r19
     d38:	4f 93       	push	r20
     d3a:	5f 93       	push	r21
     d3c:	6f 93       	push	r22
     d3e:	7f 93       	push	r23
     d40:	8f 93       	push	r24
     d42:	9f 93       	push	r25
     d44:	af 93       	push	r26
     d46:	bf 93       	push	r27
     d48:	ef 93       	push	r30
     d4a:	ff 93       	push	r31
     d4c:	e0 91 a1 20 	lds	r30, 0x20A1	; 0x8020a1 <tc_tcc1_ovf_callback>
     d50:	f0 91 a2 20 	lds	r31, 0x20A2	; 0x8020a2 <tc_tcc1_ovf_callback+0x1>
     d54:	30 97       	sbiw	r30, 0x00	; 0
     d56:	09 f0       	breq	.+2      	; 0xd5a <__vector_20+0x42>
     d58:	19 95       	eicall
     d5a:	ff 91       	pop	r31
     d5c:	ef 91       	pop	r30
     d5e:	bf 91       	pop	r27
     d60:	af 91       	pop	r26
     d62:	9f 91       	pop	r25
     d64:	8f 91       	pop	r24
     d66:	7f 91       	pop	r23
     d68:	6f 91       	pop	r22
     d6a:	5f 91       	pop	r21
     d6c:	4f 91       	pop	r20
     d6e:	3f 91       	pop	r19
     d70:	2f 91       	pop	r18
     d72:	0f 90       	pop	r0
     d74:	0b be       	out	0x3b, r0	; 59
     d76:	0f 90       	pop	r0
     d78:	09 be       	out	0x39, r0	; 57
     d7a:	0f 90       	pop	r0
     d7c:	08 be       	out	0x38, r0	; 56
     d7e:	0f 90       	pop	r0
     d80:	0f be       	out	0x3f, r0	; 63
     d82:	0f 90       	pop	r0
     d84:	1f 90       	pop	r1
     d86:	18 95       	reti

00000d88 <__vector_21>:
     d88:	1f 92       	push	r1
     d8a:	0f 92       	push	r0
     d8c:	0f b6       	in	r0, 0x3f	; 63
     d8e:	0f 92       	push	r0
     d90:	11 24       	eor	r1, r1
     d92:	08 b6       	in	r0, 0x38	; 56
     d94:	0f 92       	push	r0
     d96:	18 be       	out	0x38, r1	; 56
     d98:	09 b6       	in	r0, 0x39	; 57
     d9a:	0f 92       	push	r0
     d9c:	19 be       	out	0x39, r1	; 57
     d9e:	0b b6       	in	r0, 0x3b	; 59
     da0:	0f 92       	push	r0
     da2:	1b be       	out	0x3b, r1	; 59
     da4:	2f 93       	push	r18
     da6:	3f 93       	push	r19
     da8:	4f 93       	push	r20
     daa:	5f 93       	push	r21
     dac:	6f 93       	push	r22
     dae:	7f 93       	push	r23
     db0:	8f 93       	push	r24
     db2:	9f 93       	push	r25
     db4:	af 93       	push	r26
     db6:	bf 93       	push	r27
     db8:	ef 93       	push	r30
     dba:	ff 93       	push	r31
     dbc:	e0 91 9f 20 	lds	r30, 0x209F	; 0x80209f <tc_tcc1_err_callback>
     dc0:	f0 91 a0 20 	lds	r31, 0x20A0	; 0x8020a0 <tc_tcc1_err_callback+0x1>
     dc4:	30 97       	sbiw	r30, 0x00	; 0
     dc6:	09 f0       	breq	.+2      	; 0xdca <__vector_21+0x42>
     dc8:	19 95       	eicall
     dca:	ff 91       	pop	r31
     dcc:	ef 91       	pop	r30
     dce:	bf 91       	pop	r27
     dd0:	af 91       	pop	r26
     dd2:	9f 91       	pop	r25
     dd4:	8f 91       	pop	r24
     dd6:	7f 91       	pop	r23
     dd8:	6f 91       	pop	r22
     dda:	5f 91       	pop	r21
     ddc:	4f 91       	pop	r20
     dde:	3f 91       	pop	r19
     de0:	2f 91       	pop	r18
     de2:	0f 90       	pop	r0
     de4:	0b be       	out	0x3b, r0	; 59
     de6:	0f 90       	pop	r0
     de8:	09 be       	out	0x39, r0	; 57
     dea:	0f 90       	pop	r0
     dec:	08 be       	out	0x38, r0	; 56
     dee:	0f 90       	pop	r0
     df0:	0f be       	out	0x3f, r0	; 63
     df2:	0f 90       	pop	r0
     df4:	1f 90       	pop	r1
     df6:	18 95       	reti

00000df8 <__vector_22>:
     df8:	1f 92       	push	r1
     dfa:	0f 92       	push	r0
     dfc:	0f b6       	in	r0, 0x3f	; 63
     dfe:	0f 92       	push	r0
     e00:	11 24       	eor	r1, r1
     e02:	08 b6       	in	r0, 0x38	; 56
     e04:	0f 92       	push	r0
     e06:	18 be       	out	0x38, r1	; 56
     e08:	09 b6       	in	r0, 0x39	; 57
     e0a:	0f 92       	push	r0
     e0c:	19 be       	out	0x39, r1	; 57
     e0e:	0b b6       	in	r0, 0x3b	; 59
     e10:	0f 92       	push	r0
     e12:	1b be       	out	0x3b, r1	; 59
     e14:	2f 93       	push	r18
     e16:	3f 93       	push	r19
     e18:	4f 93       	push	r20
     e1a:	5f 93       	push	r21
     e1c:	6f 93       	push	r22
     e1e:	7f 93       	push	r23
     e20:	8f 93       	push	r24
     e22:	9f 93       	push	r25
     e24:	af 93       	push	r26
     e26:	bf 93       	push	r27
     e28:	ef 93       	push	r30
     e2a:	ff 93       	push	r31
     e2c:	e0 91 9d 20 	lds	r30, 0x209D	; 0x80209d <tc_tcc1_cca_callback>
     e30:	f0 91 9e 20 	lds	r31, 0x209E	; 0x80209e <tc_tcc1_cca_callback+0x1>
     e34:	30 97       	sbiw	r30, 0x00	; 0
     e36:	09 f0       	breq	.+2      	; 0xe3a <__vector_22+0x42>
     e38:	19 95       	eicall
     e3a:	ff 91       	pop	r31
     e3c:	ef 91       	pop	r30
     e3e:	bf 91       	pop	r27
     e40:	af 91       	pop	r26
     e42:	9f 91       	pop	r25
     e44:	8f 91       	pop	r24
     e46:	7f 91       	pop	r23
     e48:	6f 91       	pop	r22
     e4a:	5f 91       	pop	r21
     e4c:	4f 91       	pop	r20
     e4e:	3f 91       	pop	r19
     e50:	2f 91       	pop	r18
     e52:	0f 90       	pop	r0
     e54:	0b be       	out	0x3b, r0	; 59
     e56:	0f 90       	pop	r0
     e58:	09 be       	out	0x39, r0	; 57
     e5a:	0f 90       	pop	r0
     e5c:	08 be       	out	0x38, r0	; 56
     e5e:	0f 90       	pop	r0
     e60:	0f be       	out	0x3f, r0	; 63
     e62:	0f 90       	pop	r0
     e64:	1f 90       	pop	r1
     e66:	18 95       	reti

00000e68 <__vector_23>:
     e68:	1f 92       	push	r1
     e6a:	0f 92       	push	r0
     e6c:	0f b6       	in	r0, 0x3f	; 63
     e6e:	0f 92       	push	r0
     e70:	11 24       	eor	r1, r1
     e72:	08 b6       	in	r0, 0x38	; 56
     e74:	0f 92       	push	r0
     e76:	18 be       	out	0x38, r1	; 56
     e78:	09 b6       	in	r0, 0x39	; 57
     e7a:	0f 92       	push	r0
     e7c:	19 be       	out	0x39, r1	; 57
     e7e:	0b b6       	in	r0, 0x3b	; 59
     e80:	0f 92       	push	r0
     e82:	1b be       	out	0x3b, r1	; 59
     e84:	2f 93       	push	r18
     e86:	3f 93       	push	r19
     e88:	4f 93       	push	r20
     e8a:	5f 93       	push	r21
     e8c:	6f 93       	push	r22
     e8e:	7f 93       	push	r23
     e90:	8f 93       	push	r24
     e92:	9f 93       	push	r25
     e94:	af 93       	push	r26
     e96:	bf 93       	push	r27
     e98:	ef 93       	push	r30
     e9a:	ff 93       	push	r31
     e9c:	e0 91 9b 20 	lds	r30, 0x209B	; 0x80209b <tc_tcc1_ccb_callback>
     ea0:	f0 91 9c 20 	lds	r31, 0x209C	; 0x80209c <tc_tcc1_ccb_callback+0x1>
     ea4:	30 97       	sbiw	r30, 0x00	; 0
     ea6:	09 f0       	breq	.+2      	; 0xeaa <__vector_23+0x42>
     ea8:	19 95       	eicall
     eaa:	ff 91       	pop	r31
     eac:	ef 91       	pop	r30
     eae:	bf 91       	pop	r27
     eb0:	af 91       	pop	r26
     eb2:	9f 91       	pop	r25
     eb4:	8f 91       	pop	r24
     eb6:	7f 91       	pop	r23
     eb8:	6f 91       	pop	r22
     eba:	5f 91       	pop	r21
     ebc:	4f 91       	pop	r20
     ebe:	3f 91       	pop	r19
     ec0:	2f 91       	pop	r18
     ec2:	0f 90       	pop	r0
     ec4:	0b be       	out	0x3b, r0	; 59
     ec6:	0f 90       	pop	r0
     ec8:	09 be       	out	0x39, r0	; 57
     eca:	0f 90       	pop	r0
     ecc:	08 be       	out	0x38, r0	; 56
     ece:	0f 90       	pop	r0
     ed0:	0f be       	out	0x3f, r0	; 63
     ed2:	0f 90       	pop	r0
     ed4:	1f 90       	pop	r1
     ed6:	18 95       	reti

00000ed8 <__vector_77>:
     ed8:	1f 92       	push	r1
     eda:	0f 92       	push	r0
     edc:	0f b6       	in	r0, 0x3f	; 63
     ede:	0f 92       	push	r0
     ee0:	11 24       	eor	r1, r1
     ee2:	08 b6       	in	r0, 0x38	; 56
     ee4:	0f 92       	push	r0
     ee6:	18 be       	out	0x38, r1	; 56
     ee8:	09 b6       	in	r0, 0x39	; 57
     eea:	0f 92       	push	r0
     eec:	19 be       	out	0x39, r1	; 57
     eee:	0b b6       	in	r0, 0x3b	; 59
     ef0:	0f 92       	push	r0
     ef2:	1b be       	out	0x3b, r1	; 59
     ef4:	2f 93       	push	r18
     ef6:	3f 93       	push	r19
     ef8:	4f 93       	push	r20
     efa:	5f 93       	push	r21
     efc:	6f 93       	push	r22
     efe:	7f 93       	push	r23
     f00:	8f 93       	push	r24
     f02:	9f 93       	push	r25
     f04:	af 93       	push	r26
     f06:	bf 93       	push	r27
     f08:	ef 93       	push	r30
     f0a:	ff 93       	push	r31
     f0c:	e0 91 99 20 	lds	r30, 0x2099	; 0x802099 <tc_tcd0_ovf_callback>
     f10:	f0 91 9a 20 	lds	r31, 0x209A	; 0x80209a <tc_tcd0_ovf_callback+0x1>
     f14:	30 97       	sbiw	r30, 0x00	; 0
     f16:	09 f0       	breq	.+2      	; 0xf1a <__vector_77+0x42>
     f18:	19 95       	eicall
     f1a:	ff 91       	pop	r31
     f1c:	ef 91       	pop	r30
     f1e:	bf 91       	pop	r27
     f20:	af 91       	pop	r26
     f22:	9f 91       	pop	r25
     f24:	8f 91       	pop	r24
     f26:	7f 91       	pop	r23
     f28:	6f 91       	pop	r22
     f2a:	5f 91       	pop	r21
     f2c:	4f 91       	pop	r20
     f2e:	3f 91       	pop	r19
     f30:	2f 91       	pop	r18
     f32:	0f 90       	pop	r0
     f34:	0b be       	out	0x3b, r0	; 59
     f36:	0f 90       	pop	r0
     f38:	09 be       	out	0x39, r0	; 57
     f3a:	0f 90       	pop	r0
     f3c:	08 be       	out	0x38, r0	; 56
     f3e:	0f 90       	pop	r0
     f40:	0f be       	out	0x3f, r0	; 63
     f42:	0f 90       	pop	r0
     f44:	1f 90       	pop	r1
     f46:	18 95       	reti

00000f48 <__vector_78>:
     f48:	1f 92       	push	r1
     f4a:	0f 92       	push	r0
     f4c:	0f b6       	in	r0, 0x3f	; 63
     f4e:	0f 92       	push	r0
     f50:	11 24       	eor	r1, r1
     f52:	08 b6       	in	r0, 0x38	; 56
     f54:	0f 92       	push	r0
     f56:	18 be       	out	0x38, r1	; 56
     f58:	09 b6       	in	r0, 0x39	; 57
     f5a:	0f 92       	push	r0
     f5c:	19 be       	out	0x39, r1	; 57
     f5e:	0b b6       	in	r0, 0x3b	; 59
     f60:	0f 92       	push	r0
     f62:	1b be       	out	0x3b, r1	; 59
     f64:	2f 93       	push	r18
     f66:	3f 93       	push	r19
     f68:	4f 93       	push	r20
     f6a:	5f 93       	push	r21
     f6c:	6f 93       	push	r22
     f6e:	7f 93       	push	r23
     f70:	8f 93       	push	r24
     f72:	9f 93       	push	r25
     f74:	af 93       	push	r26
     f76:	bf 93       	push	r27
     f78:	ef 93       	push	r30
     f7a:	ff 93       	push	r31
     f7c:	e0 91 97 20 	lds	r30, 0x2097	; 0x802097 <tc_tcd0_err_callback>
     f80:	f0 91 98 20 	lds	r31, 0x2098	; 0x802098 <tc_tcd0_err_callback+0x1>
     f84:	30 97       	sbiw	r30, 0x00	; 0
     f86:	09 f0       	breq	.+2      	; 0xf8a <__vector_78+0x42>
     f88:	19 95       	eicall
     f8a:	ff 91       	pop	r31
     f8c:	ef 91       	pop	r30
     f8e:	bf 91       	pop	r27
     f90:	af 91       	pop	r26
     f92:	9f 91       	pop	r25
     f94:	8f 91       	pop	r24
     f96:	7f 91       	pop	r23
     f98:	6f 91       	pop	r22
     f9a:	5f 91       	pop	r21
     f9c:	4f 91       	pop	r20
     f9e:	3f 91       	pop	r19
     fa0:	2f 91       	pop	r18
     fa2:	0f 90       	pop	r0
     fa4:	0b be       	out	0x3b, r0	; 59
     fa6:	0f 90       	pop	r0
     fa8:	09 be       	out	0x39, r0	; 57
     faa:	0f 90       	pop	r0
     fac:	08 be       	out	0x38, r0	; 56
     fae:	0f 90       	pop	r0
     fb0:	0f be       	out	0x3f, r0	; 63
     fb2:	0f 90       	pop	r0
     fb4:	1f 90       	pop	r1
     fb6:	18 95       	reti

00000fb8 <__vector_79>:
     fb8:	1f 92       	push	r1
     fba:	0f 92       	push	r0
     fbc:	0f b6       	in	r0, 0x3f	; 63
     fbe:	0f 92       	push	r0
     fc0:	11 24       	eor	r1, r1
     fc2:	08 b6       	in	r0, 0x38	; 56
     fc4:	0f 92       	push	r0
     fc6:	18 be       	out	0x38, r1	; 56
     fc8:	09 b6       	in	r0, 0x39	; 57
     fca:	0f 92       	push	r0
     fcc:	19 be       	out	0x39, r1	; 57
     fce:	0b b6       	in	r0, 0x3b	; 59
     fd0:	0f 92       	push	r0
     fd2:	1b be       	out	0x3b, r1	; 59
     fd4:	2f 93       	push	r18
     fd6:	3f 93       	push	r19
     fd8:	4f 93       	push	r20
     fda:	5f 93       	push	r21
     fdc:	6f 93       	push	r22
     fde:	7f 93       	push	r23
     fe0:	8f 93       	push	r24
     fe2:	9f 93       	push	r25
     fe4:	af 93       	push	r26
     fe6:	bf 93       	push	r27
     fe8:	ef 93       	push	r30
     fea:	ff 93       	push	r31
     fec:	e0 91 95 20 	lds	r30, 0x2095	; 0x802095 <tc_tcd0_cca_callback>
     ff0:	f0 91 96 20 	lds	r31, 0x2096	; 0x802096 <tc_tcd0_cca_callback+0x1>
     ff4:	30 97       	sbiw	r30, 0x00	; 0
     ff6:	09 f0       	breq	.+2      	; 0xffa <__vector_79+0x42>
     ff8:	19 95       	eicall
     ffa:	ff 91       	pop	r31
     ffc:	ef 91       	pop	r30
     ffe:	bf 91       	pop	r27
    1000:	af 91       	pop	r26
    1002:	9f 91       	pop	r25
    1004:	8f 91       	pop	r24
    1006:	7f 91       	pop	r23
    1008:	6f 91       	pop	r22
    100a:	5f 91       	pop	r21
    100c:	4f 91       	pop	r20
    100e:	3f 91       	pop	r19
    1010:	2f 91       	pop	r18
    1012:	0f 90       	pop	r0
    1014:	0b be       	out	0x3b, r0	; 59
    1016:	0f 90       	pop	r0
    1018:	09 be       	out	0x39, r0	; 57
    101a:	0f 90       	pop	r0
    101c:	08 be       	out	0x38, r0	; 56
    101e:	0f 90       	pop	r0
    1020:	0f be       	out	0x3f, r0	; 63
    1022:	0f 90       	pop	r0
    1024:	1f 90       	pop	r1
    1026:	18 95       	reti

00001028 <__vector_80>:
    1028:	1f 92       	push	r1
    102a:	0f 92       	push	r0
    102c:	0f b6       	in	r0, 0x3f	; 63
    102e:	0f 92       	push	r0
    1030:	11 24       	eor	r1, r1
    1032:	08 b6       	in	r0, 0x38	; 56
    1034:	0f 92       	push	r0
    1036:	18 be       	out	0x38, r1	; 56
    1038:	09 b6       	in	r0, 0x39	; 57
    103a:	0f 92       	push	r0
    103c:	19 be       	out	0x39, r1	; 57
    103e:	0b b6       	in	r0, 0x3b	; 59
    1040:	0f 92       	push	r0
    1042:	1b be       	out	0x3b, r1	; 59
    1044:	2f 93       	push	r18
    1046:	3f 93       	push	r19
    1048:	4f 93       	push	r20
    104a:	5f 93       	push	r21
    104c:	6f 93       	push	r22
    104e:	7f 93       	push	r23
    1050:	8f 93       	push	r24
    1052:	9f 93       	push	r25
    1054:	af 93       	push	r26
    1056:	bf 93       	push	r27
    1058:	ef 93       	push	r30
    105a:	ff 93       	push	r31
    105c:	e0 91 93 20 	lds	r30, 0x2093	; 0x802093 <tc_tcd0_ccb_callback>
    1060:	f0 91 94 20 	lds	r31, 0x2094	; 0x802094 <tc_tcd0_ccb_callback+0x1>
    1064:	30 97       	sbiw	r30, 0x00	; 0
    1066:	09 f0       	breq	.+2      	; 0x106a <__vector_80+0x42>
    1068:	19 95       	eicall
    106a:	ff 91       	pop	r31
    106c:	ef 91       	pop	r30
    106e:	bf 91       	pop	r27
    1070:	af 91       	pop	r26
    1072:	9f 91       	pop	r25
    1074:	8f 91       	pop	r24
    1076:	7f 91       	pop	r23
    1078:	6f 91       	pop	r22
    107a:	5f 91       	pop	r21
    107c:	4f 91       	pop	r20
    107e:	3f 91       	pop	r19
    1080:	2f 91       	pop	r18
    1082:	0f 90       	pop	r0
    1084:	0b be       	out	0x3b, r0	; 59
    1086:	0f 90       	pop	r0
    1088:	09 be       	out	0x39, r0	; 57
    108a:	0f 90       	pop	r0
    108c:	08 be       	out	0x38, r0	; 56
    108e:	0f 90       	pop	r0
    1090:	0f be       	out	0x3f, r0	; 63
    1092:	0f 90       	pop	r0
    1094:	1f 90       	pop	r1
    1096:	18 95       	reti

00001098 <__vector_81>:
    1098:	1f 92       	push	r1
    109a:	0f 92       	push	r0
    109c:	0f b6       	in	r0, 0x3f	; 63
    109e:	0f 92       	push	r0
    10a0:	11 24       	eor	r1, r1
    10a2:	08 b6       	in	r0, 0x38	; 56
    10a4:	0f 92       	push	r0
    10a6:	18 be       	out	0x38, r1	; 56
    10a8:	09 b6       	in	r0, 0x39	; 57
    10aa:	0f 92       	push	r0
    10ac:	19 be       	out	0x39, r1	; 57
    10ae:	0b b6       	in	r0, 0x3b	; 59
    10b0:	0f 92       	push	r0
    10b2:	1b be       	out	0x3b, r1	; 59
    10b4:	2f 93       	push	r18
    10b6:	3f 93       	push	r19
    10b8:	4f 93       	push	r20
    10ba:	5f 93       	push	r21
    10bc:	6f 93       	push	r22
    10be:	7f 93       	push	r23
    10c0:	8f 93       	push	r24
    10c2:	9f 93       	push	r25
    10c4:	af 93       	push	r26
    10c6:	bf 93       	push	r27
    10c8:	ef 93       	push	r30
    10ca:	ff 93       	push	r31
    10cc:	e0 91 91 20 	lds	r30, 0x2091	; 0x802091 <tc_tcd0_ccc_callback>
    10d0:	f0 91 92 20 	lds	r31, 0x2092	; 0x802092 <tc_tcd0_ccc_callback+0x1>
    10d4:	30 97       	sbiw	r30, 0x00	; 0
    10d6:	09 f0       	breq	.+2      	; 0x10da <__vector_81+0x42>
    10d8:	19 95       	eicall
    10da:	ff 91       	pop	r31
    10dc:	ef 91       	pop	r30
    10de:	bf 91       	pop	r27
    10e0:	af 91       	pop	r26
    10e2:	9f 91       	pop	r25
    10e4:	8f 91       	pop	r24
    10e6:	7f 91       	pop	r23
    10e8:	6f 91       	pop	r22
    10ea:	5f 91       	pop	r21
    10ec:	4f 91       	pop	r20
    10ee:	3f 91       	pop	r19
    10f0:	2f 91       	pop	r18
    10f2:	0f 90       	pop	r0
    10f4:	0b be       	out	0x3b, r0	; 59
    10f6:	0f 90       	pop	r0
    10f8:	09 be       	out	0x39, r0	; 57
    10fa:	0f 90       	pop	r0
    10fc:	08 be       	out	0x38, r0	; 56
    10fe:	0f 90       	pop	r0
    1100:	0f be       	out	0x3f, r0	; 63
    1102:	0f 90       	pop	r0
    1104:	1f 90       	pop	r1
    1106:	18 95       	reti

00001108 <__vector_82>:
    1108:	1f 92       	push	r1
    110a:	0f 92       	push	r0
    110c:	0f b6       	in	r0, 0x3f	; 63
    110e:	0f 92       	push	r0
    1110:	11 24       	eor	r1, r1
    1112:	08 b6       	in	r0, 0x38	; 56
    1114:	0f 92       	push	r0
    1116:	18 be       	out	0x38, r1	; 56
    1118:	09 b6       	in	r0, 0x39	; 57
    111a:	0f 92       	push	r0
    111c:	19 be       	out	0x39, r1	; 57
    111e:	0b b6       	in	r0, 0x3b	; 59
    1120:	0f 92       	push	r0
    1122:	1b be       	out	0x3b, r1	; 59
    1124:	2f 93       	push	r18
    1126:	3f 93       	push	r19
    1128:	4f 93       	push	r20
    112a:	5f 93       	push	r21
    112c:	6f 93       	push	r22
    112e:	7f 93       	push	r23
    1130:	8f 93       	push	r24
    1132:	9f 93       	push	r25
    1134:	af 93       	push	r26
    1136:	bf 93       	push	r27
    1138:	ef 93       	push	r30
    113a:	ff 93       	push	r31
    113c:	e0 91 8f 20 	lds	r30, 0x208F	; 0x80208f <tc_tcd0_ccd_callback>
    1140:	f0 91 90 20 	lds	r31, 0x2090	; 0x802090 <tc_tcd0_ccd_callback+0x1>
    1144:	30 97       	sbiw	r30, 0x00	; 0
    1146:	09 f0       	breq	.+2      	; 0x114a <__vector_82+0x42>
    1148:	19 95       	eicall
    114a:	ff 91       	pop	r31
    114c:	ef 91       	pop	r30
    114e:	bf 91       	pop	r27
    1150:	af 91       	pop	r26
    1152:	9f 91       	pop	r25
    1154:	8f 91       	pop	r24
    1156:	7f 91       	pop	r23
    1158:	6f 91       	pop	r22
    115a:	5f 91       	pop	r21
    115c:	4f 91       	pop	r20
    115e:	3f 91       	pop	r19
    1160:	2f 91       	pop	r18
    1162:	0f 90       	pop	r0
    1164:	0b be       	out	0x3b, r0	; 59
    1166:	0f 90       	pop	r0
    1168:	09 be       	out	0x39, r0	; 57
    116a:	0f 90       	pop	r0
    116c:	08 be       	out	0x38, r0	; 56
    116e:	0f 90       	pop	r0
    1170:	0f be       	out	0x3f, r0	; 63
    1172:	0f 90       	pop	r0
    1174:	1f 90       	pop	r1
    1176:	18 95       	reti

00001178 <__vector_83>:
    1178:	1f 92       	push	r1
    117a:	0f 92       	push	r0
    117c:	0f b6       	in	r0, 0x3f	; 63
    117e:	0f 92       	push	r0
    1180:	11 24       	eor	r1, r1
    1182:	08 b6       	in	r0, 0x38	; 56
    1184:	0f 92       	push	r0
    1186:	18 be       	out	0x38, r1	; 56
    1188:	09 b6       	in	r0, 0x39	; 57
    118a:	0f 92       	push	r0
    118c:	19 be       	out	0x39, r1	; 57
    118e:	0b b6       	in	r0, 0x3b	; 59
    1190:	0f 92       	push	r0
    1192:	1b be       	out	0x3b, r1	; 59
    1194:	2f 93       	push	r18
    1196:	3f 93       	push	r19
    1198:	4f 93       	push	r20
    119a:	5f 93       	push	r21
    119c:	6f 93       	push	r22
    119e:	7f 93       	push	r23
    11a0:	8f 93       	push	r24
    11a2:	9f 93       	push	r25
    11a4:	af 93       	push	r26
    11a6:	bf 93       	push	r27
    11a8:	ef 93       	push	r30
    11aa:	ff 93       	push	r31
    11ac:	e0 91 8d 20 	lds	r30, 0x208D	; 0x80208d <tc_tcd1_ovf_callback>
    11b0:	f0 91 8e 20 	lds	r31, 0x208E	; 0x80208e <tc_tcd1_ovf_callback+0x1>
    11b4:	30 97       	sbiw	r30, 0x00	; 0
    11b6:	09 f0       	breq	.+2      	; 0x11ba <__vector_83+0x42>
    11b8:	19 95       	eicall
    11ba:	ff 91       	pop	r31
    11bc:	ef 91       	pop	r30
    11be:	bf 91       	pop	r27
    11c0:	af 91       	pop	r26
    11c2:	9f 91       	pop	r25
    11c4:	8f 91       	pop	r24
    11c6:	7f 91       	pop	r23
    11c8:	6f 91       	pop	r22
    11ca:	5f 91       	pop	r21
    11cc:	4f 91       	pop	r20
    11ce:	3f 91       	pop	r19
    11d0:	2f 91       	pop	r18
    11d2:	0f 90       	pop	r0
    11d4:	0b be       	out	0x3b, r0	; 59
    11d6:	0f 90       	pop	r0
    11d8:	09 be       	out	0x39, r0	; 57
    11da:	0f 90       	pop	r0
    11dc:	08 be       	out	0x38, r0	; 56
    11de:	0f 90       	pop	r0
    11e0:	0f be       	out	0x3f, r0	; 63
    11e2:	0f 90       	pop	r0
    11e4:	1f 90       	pop	r1
    11e6:	18 95       	reti

000011e8 <__vector_84>:
    11e8:	1f 92       	push	r1
    11ea:	0f 92       	push	r0
    11ec:	0f b6       	in	r0, 0x3f	; 63
    11ee:	0f 92       	push	r0
    11f0:	11 24       	eor	r1, r1
    11f2:	08 b6       	in	r0, 0x38	; 56
    11f4:	0f 92       	push	r0
    11f6:	18 be       	out	0x38, r1	; 56
    11f8:	09 b6       	in	r0, 0x39	; 57
    11fa:	0f 92       	push	r0
    11fc:	19 be       	out	0x39, r1	; 57
    11fe:	0b b6       	in	r0, 0x3b	; 59
    1200:	0f 92       	push	r0
    1202:	1b be       	out	0x3b, r1	; 59
    1204:	2f 93       	push	r18
    1206:	3f 93       	push	r19
    1208:	4f 93       	push	r20
    120a:	5f 93       	push	r21
    120c:	6f 93       	push	r22
    120e:	7f 93       	push	r23
    1210:	8f 93       	push	r24
    1212:	9f 93       	push	r25
    1214:	af 93       	push	r26
    1216:	bf 93       	push	r27
    1218:	ef 93       	push	r30
    121a:	ff 93       	push	r31
    121c:	e0 91 8b 20 	lds	r30, 0x208B	; 0x80208b <tc_tcd1_err_callback>
    1220:	f0 91 8c 20 	lds	r31, 0x208C	; 0x80208c <tc_tcd1_err_callback+0x1>
    1224:	30 97       	sbiw	r30, 0x00	; 0
    1226:	09 f0       	breq	.+2      	; 0x122a <__vector_84+0x42>
    1228:	19 95       	eicall
    122a:	ff 91       	pop	r31
    122c:	ef 91       	pop	r30
    122e:	bf 91       	pop	r27
    1230:	af 91       	pop	r26
    1232:	9f 91       	pop	r25
    1234:	8f 91       	pop	r24
    1236:	7f 91       	pop	r23
    1238:	6f 91       	pop	r22
    123a:	5f 91       	pop	r21
    123c:	4f 91       	pop	r20
    123e:	3f 91       	pop	r19
    1240:	2f 91       	pop	r18
    1242:	0f 90       	pop	r0
    1244:	0b be       	out	0x3b, r0	; 59
    1246:	0f 90       	pop	r0
    1248:	09 be       	out	0x39, r0	; 57
    124a:	0f 90       	pop	r0
    124c:	08 be       	out	0x38, r0	; 56
    124e:	0f 90       	pop	r0
    1250:	0f be       	out	0x3f, r0	; 63
    1252:	0f 90       	pop	r0
    1254:	1f 90       	pop	r1
    1256:	18 95       	reti

00001258 <__vector_85>:
    1258:	1f 92       	push	r1
    125a:	0f 92       	push	r0
    125c:	0f b6       	in	r0, 0x3f	; 63
    125e:	0f 92       	push	r0
    1260:	11 24       	eor	r1, r1
    1262:	08 b6       	in	r0, 0x38	; 56
    1264:	0f 92       	push	r0
    1266:	18 be       	out	0x38, r1	; 56
    1268:	09 b6       	in	r0, 0x39	; 57
    126a:	0f 92       	push	r0
    126c:	19 be       	out	0x39, r1	; 57
    126e:	0b b6       	in	r0, 0x3b	; 59
    1270:	0f 92       	push	r0
    1272:	1b be       	out	0x3b, r1	; 59
    1274:	2f 93       	push	r18
    1276:	3f 93       	push	r19
    1278:	4f 93       	push	r20
    127a:	5f 93       	push	r21
    127c:	6f 93       	push	r22
    127e:	7f 93       	push	r23
    1280:	8f 93       	push	r24
    1282:	9f 93       	push	r25
    1284:	af 93       	push	r26
    1286:	bf 93       	push	r27
    1288:	ef 93       	push	r30
    128a:	ff 93       	push	r31
    128c:	e0 91 89 20 	lds	r30, 0x2089	; 0x802089 <tc_tcd1_cca_callback>
    1290:	f0 91 8a 20 	lds	r31, 0x208A	; 0x80208a <tc_tcd1_cca_callback+0x1>
    1294:	30 97       	sbiw	r30, 0x00	; 0
    1296:	09 f0       	breq	.+2      	; 0x129a <__vector_85+0x42>
    1298:	19 95       	eicall
    129a:	ff 91       	pop	r31
    129c:	ef 91       	pop	r30
    129e:	bf 91       	pop	r27
    12a0:	af 91       	pop	r26
    12a2:	9f 91       	pop	r25
    12a4:	8f 91       	pop	r24
    12a6:	7f 91       	pop	r23
    12a8:	6f 91       	pop	r22
    12aa:	5f 91       	pop	r21
    12ac:	4f 91       	pop	r20
    12ae:	3f 91       	pop	r19
    12b0:	2f 91       	pop	r18
    12b2:	0f 90       	pop	r0
    12b4:	0b be       	out	0x3b, r0	; 59
    12b6:	0f 90       	pop	r0
    12b8:	09 be       	out	0x39, r0	; 57
    12ba:	0f 90       	pop	r0
    12bc:	08 be       	out	0x38, r0	; 56
    12be:	0f 90       	pop	r0
    12c0:	0f be       	out	0x3f, r0	; 63
    12c2:	0f 90       	pop	r0
    12c4:	1f 90       	pop	r1
    12c6:	18 95       	reti

000012c8 <__vector_86>:
    12c8:	1f 92       	push	r1
    12ca:	0f 92       	push	r0
    12cc:	0f b6       	in	r0, 0x3f	; 63
    12ce:	0f 92       	push	r0
    12d0:	11 24       	eor	r1, r1
    12d2:	08 b6       	in	r0, 0x38	; 56
    12d4:	0f 92       	push	r0
    12d6:	18 be       	out	0x38, r1	; 56
    12d8:	09 b6       	in	r0, 0x39	; 57
    12da:	0f 92       	push	r0
    12dc:	19 be       	out	0x39, r1	; 57
    12de:	0b b6       	in	r0, 0x3b	; 59
    12e0:	0f 92       	push	r0
    12e2:	1b be       	out	0x3b, r1	; 59
    12e4:	2f 93       	push	r18
    12e6:	3f 93       	push	r19
    12e8:	4f 93       	push	r20
    12ea:	5f 93       	push	r21
    12ec:	6f 93       	push	r22
    12ee:	7f 93       	push	r23
    12f0:	8f 93       	push	r24
    12f2:	9f 93       	push	r25
    12f4:	af 93       	push	r26
    12f6:	bf 93       	push	r27
    12f8:	ef 93       	push	r30
    12fa:	ff 93       	push	r31
    12fc:	e0 91 87 20 	lds	r30, 0x2087	; 0x802087 <tc_tcd1_ccb_callback>
    1300:	f0 91 88 20 	lds	r31, 0x2088	; 0x802088 <tc_tcd1_ccb_callback+0x1>
    1304:	30 97       	sbiw	r30, 0x00	; 0
    1306:	09 f0       	breq	.+2      	; 0x130a <__vector_86+0x42>
    1308:	19 95       	eicall
    130a:	ff 91       	pop	r31
    130c:	ef 91       	pop	r30
    130e:	bf 91       	pop	r27
    1310:	af 91       	pop	r26
    1312:	9f 91       	pop	r25
    1314:	8f 91       	pop	r24
    1316:	7f 91       	pop	r23
    1318:	6f 91       	pop	r22
    131a:	5f 91       	pop	r21
    131c:	4f 91       	pop	r20
    131e:	3f 91       	pop	r19
    1320:	2f 91       	pop	r18
    1322:	0f 90       	pop	r0
    1324:	0b be       	out	0x3b, r0	; 59
    1326:	0f 90       	pop	r0
    1328:	09 be       	out	0x39, r0	; 57
    132a:	0f 90       	pop	r0
    132c:	08 be       	out	0x38, r0	; 56
    132e:	0f 90       	pop	r0
    1330:	0f be       	out	0x3f, r0	; 63
    1332:	0f 90       	pop	r0
    1334:	1f 90       	pop	r1
    1336:	18 95       	reti

00001338 <__vector_47>:
    1338:	1f 92       	push	r1
    133a:	0f 92       	push	r0
    133c:	0f b6       	in	r0, 0x3f	; 63
    133e:	0f 92       	push	r0
    1340:	11 24       	eor	r1, r1
    1342:	08 b6       	in	r0, 0x38	; 56
    1344:	0f 92       	push	r0
    1346:	18 be       	out	0x38, r1	; 56
    1348:	09 b6       	in	r0, 0x39	; 57
    134a:	0f 92       	push	r0
    134c:	19 be       	out	0x39, r1	; 57
    134e:	0b b6       	in	r0, 0x3b	; 59
    1350:	0f 92       	push	r0
    1352:	1b be       	out	0x3b, r1	; 59
    1354:	2f 93       	push	r18
    1356:	3f 93       	push	r19
    1358:	4f 93       	push	r20
    135a:	5f 93       	push	r21
    135c:	6f 93       	push	r22
    135e:	7f 93       	push	r23
    1360:	8f 93       	push	r24
    1362:	9f 93       	push	r25
    1364:	af 93       	push	r26
    1366:	bf 93       	push	r27
    1368:	ef 93       	push	r30
    136a:	ff 93       	push	r31
    136c:	e0 91 85 20 	lds	r30, 0x2085	; 0x802085 <tc_tce0_ovf_callback>
    1370:	f0 91 86 20 	lds	r31, 0x2086	; 0x802086 <tc_tce0_ovf_callback+0x1>
    1374:	30 97       	sbiw	r30, 0x00	; 0
    1376:	09 f0       	breq	.+2      	; 0x137a <__vector_47+0x42>
    1378:	19 95       	eicall
    137a:	ff 91       	pop	r31
    137c:	ef 91       	pop	r30
    137e:	bf 91       	pop	r27
    1380:	af 91       	pop	r26
    1382:	9f 91       	pop	r25
    1384:	8f 91       	pop	r24
    1386:	7f 91       	pop	r23
    1388:	6f 91       	pop	r22
    138a:	5f 91       	pop	r21
    138c:	4f 91       	pop	r20
    138e:	3f 91       	pop	r19
    1390:	2f 91       	pop	r18
    1392:	0f 90       	pop	r0
    1394:	0b be       	out	0x3b, r0	; 59
    1396:	0f 90       	pop	r0
    1398:	09 be       	out	0x39, r0	; 57
    139a:	0f 90       	pop	r0
    139c:	08 be       	out	0x38, r0	; 56
    139e:	0f 90       	pop	r0
    13a0:	0f be       	out	0x3f, r0	; 63
    13a2:	0f 90       	pop	r0
    13a4:	1f 90       	pop	r1
    13a6:	18 95       	reti

000013a8 <__vector_48>:
    13a8:	1f 92       	push	r1
    13aa:	0f 92       	push	r0
    13ac:	0f b6       	in	r0, 0x3f	; 63
    13ae:	0f 92       	push	r0
    13b0:	11 24       	eor	r1, r1
    13b2:	08 b6       	in	r0, 0x38	; 56
    13b4:	0f 92       	push	r0
    13b6:	18 be       	out	0x38, r1	; 56
    13b8:	09 b6       	in	r0, 0x39	; 57
    13ba:	0f 92       	push	r0
    13bc:	19 be       	out	0x39, r1	; 57
    13be:	0b b6       	in	r0, 0x3b	; 59
    13c0:	0f 92       	push	r0
    13c2:	1b be       	out	0x3b, r1	; 59
    13c4:	2f 93       	push	r18
    13c6:	3f 93       	push	r19
    13c8:	4f 93       	push	r20
    13ca:	5f 93       	push	r21
    13cc:	6f 93       	push	r22
    13ce:	7f 93       	push	r23
    13d0:	8f 93       	push	r24
    13d2:	9f 93       	push	r25
    13d4:	af 93       	push	r26
    13d6:	bf 93       	push	r27
    13d8:	ef 93       	push	r30
    13da:	ff 93       	push	r31
    13dc:	e0 91 83 20 	lds	r30, 0x2083	; 0x802083 <tc_tce0_err_callback>
    13e0:	f0 91 84 20 	lds	r31, 0x2084	; 0x802084 <tc_tce0_err_callback+0x1>
    13e4:	30 97       	sbiw	r30, 0x00	; 0
    13e6:	09 f0       	breq	.+2      	; 0x13ea <__vector_48+0x42>
    13e8:	19 95       	eicall
    13ea:	ff 91       	pop	r31
    13ec:	ef 91       	pop	r30
    13ee:	bf 91       	pop	r27
    13f0:	af 91       	pop	r26
    13f2:	9f 91       	pop	r25
    13f4:	8f 91       	pop	r24
    13f6:	7f 91       	pop	r23
    13f8:	6f 91       	pop	r22
    13fa:	5f 91       	pop	r21
    13fc:	4f 91       	pop	r20
    13fe:	3f 91       	pop	r19
    1400:	2f 91       	pop	r18
    1402:	0f 90       	pop	r0
    1404:	0b be       	out	0x3b, r0	; 59
    1406:	0f 90       	pop	r0
    1408:	09 be       	out	0x39, r0	; 57
    140a:	0f 90       	pop	r0
    140c:	08 be       	out	0x38, r0	; 56
    140e:	0f 90       	pop	r0
    1410:	0f be       	out	0x3f, r0	; 63
    1412:	0f 90       	pop	r0
    1414:	1f 90       	pop	r1
    1416:	18 95       	reti

00001418 <__vector_49>:
    1418:	1f 92       	push	r1
    141a:	0f 92       	push	r0
    141c:	0f b6       	in	r0, 0x3f	; 63
    141e:	0f 92       	push	r0
    1420:	11 24       	eor	r1, r1
    1422:	08 b6       	in	r0, 0x38	; 56
    1424:	0f 92       	push	r0
    1426:	18 be       	out	0x38, r1	; 56
    1428:	09 b6       	in	r0, 0x39	; 57
    142a:	0f 92       	push	r0
    142c:	19 be       	out	0x39, r1	; 57
    142e:	0b b6       	in	r0, 0x3b	; 59
    1430:	0f 92       	push	r0
    1432:	1b be       	out	0x3b, r1	; 59
    1434:	2f 93       	push	r18
    1436:	3f 93       	push	r19
    1438:	4f 93       	push	r20
    143a:	5f 93       	push	r21
    143c:	6f 93       	push	r22
    143e:	7f 93       	push	r23
    1440:	8f 93       	push	r24
    1442:	9f 93       	push	r25
    1444:	af 93       	push	r26
    1446:	bf 93       	push	r27
    1448:	ef 93       	push	r30
    144a:	ff 93       	push	r31
    144c:	e0 91 81 20 	lds	r30, 0x2081	; 0x802081 <tc_tce0_cca_callback>
    1450:	f0 91 82 20 	lds	r31, 0x2082	; 0x802082 <tc_tce0_cca_callback+0x1>
    1454:	30 97       	sbiw	r30, 0x00	; 0
    1456:	09 f0       	breq	.+2      	; 0x145a <__vector_49+0x42>
    1458:	19 95       	eicall
    145a:	ff 91       	pop	r31
    145c:	ef 91       	pop	r30
    145e:	bf 91       	pop	r27
    1460:	af 91       	pop	r26
    1462:	9f 91       	pop	r25
    1464:	8f 91       	pop	r24
    1466:	7f 91       	pop	r23
    1468:	6f 91       	pop	r22
    146a:	5f 91       	pop	r21
    146c:	4f 91       	pop	r20
    146e:	3f 91       	pop	r19
    1470:	2f 91       	pop	r18
    1472:	0f 90       	pop	r0
    1474:	0b be       	out	0x3b, r0	; 59
    1476:	0f 90       	pop	r0
    1478:	09 be       	out	0x39, r0	; 57
    147a:	0f 90       	pop	r0
    147c:	08 be       	out	0x38, r0	; 56
    147e:	0f 90       	pop	r0
    1480:	0f be       	out	0x3f, r0	; 63
    1482:	0f 90       	pop	r0
    1484:	1f 90       	pop	r1
    1486:	18 95       	reti

00001488 <__vector_50>:
    1488:	1f 92       	push	r1
    148a:	0f 92       	push	r0
    148c:	0f b6       	in	r0, 0x3f	; 63
    148e:	0f 92       	push	r0
    1490:	11 24       	eor	r1, r1
    1492:	08 b6       	in	r0, 0x38	; 56
    1494:	0f 92       	push	r0
    1496:	18 be       	out	0x38, r1	; 56
    1498:	09 b6       	in	r0, 0x39	; 57
    149a:	0f 92       	push	r0
    149c:	19 be       	out	0x39, r1	; 57
    149e:	0b b6       	in	r0, 0x3b	; 59
    14a0:	0f 92       	push	r0
    14a2:	1b be       	out	0x3b, r1	; 59
    14a4:	2f 93       	push	r18
    14a6:	3f 93       	push	r19
    14a8:	4f 93       	push	r20
    14aa:	5f 93       	push	r21
    14ac:	6f 93       	push	r22
    14ae:	7f 93       	push	r23
    14b0:	8f 93       	push	r24
    14b2:	9f 93       	push	r25
    14b4:	af 93       	push	r26
    14b6:	bf 93       	push	r27
    14b8:	ef 93       	push	r30
    14ba:	ff 93       	push	r31
    14bc:	e0 91 7f 20 	lds	r30, 0x207F	; 0x80207f <tc_tce0_ccb_callback>
    14c0:	f0 91 80 20 	lds	r31, 0x2080	; 0x802080 <tc_tce0_ccb_callback+0x1>
    14c4:	30 97       	sbiw	r30, 0x00	; 0
    14c6:	09 f0       	breq	.+2      	; 0x14ca <__vector_50+0x42>
    14c8:	19 95       	eicall
    14ca:	ff 91       	pop	r31
    14cc:	ef 91       	pop	r30
    14ce:	bf 91       	pop	r27
    14d0:	af 91       	pop	r26
    14d2:	9f 91       	pop	r25
    14d4:	8f 91       	pop	r24
    14d6:	7f 91       	pop	r23
    14d8:	6f 91       	pop	r22
    14da:	5f 91       	pop	r21
    14dc:	4f 91       	pop	r20
    14de:	3f 91       	pop	r19
    14e0:	2f 91       	pop	r18
    14e2:	0f 90       	pop	r0
    14e4:	0b be       	out	0x3b, r0	; 59
    14e6:	0f 90       	pop	r0
    14e8:	09 be       	out	0x39, r0	; 57
    14ea:	0f 90       	pop	r0
    14ec:	08 be       	out	0x38, r0	; 56
    14ee:	0f 90       	pop	r0
    14f0:	0f be       	out	0x3f, r0	; 63
    14f2:	0f 90       	pop	r0
    14f4:	1f 90       	pop	r1
    14f6:	18 95       	reti

000014f8 <__vector_51>:
    14f8:	1f 92       	push	r1
    14fa:	0f 92       	push	r0
    14fc:	0f b6       	in	r0, 0x3f	; 63
    14fe:	0f 92       	push	r0
    1500:	11 24       	eor	r1, r1
    1502:	08 b6       	in	r0, 0x38	; 56
    1504:	0f 92       	push	r0
    1506:	18 be       	out	0x38, r1	; 56
    1508:	09 b6       	in	r0, 0x39	; 57
    150a:	0f 92       	push	r0
    150c:	19 be       	out	0x39, r1	; 57
    150e:	0b b6       	in	r0, 0x3b	; 59
    1510:	0f 92       	push	r0
    1512:	1b be       	out	0x3b, r1	; 59
    1514:	2f 93       	push	r18
    1516:	3f 93       	push	r19
    1518:	4f 93       	push	r20
    151a:	5f 93       	push	r21
    151c:	6f 93       	push	r22
    151e:	7f 93       	push	r23
    1520:	8f 93       	push	r24
    1522:	9f 93       	push	r25
    1524:	af 93       	push	r26
    1526:	bf 93       	push	r27
    1528:	ef 93       	push	r30
    152a:	ff 93       	push	r31
    152c:	e0 91 7d 20 	lds	r30, 0x207D	; 0x80207d <tc_tce0_ccc_callback>
    1530:	f0 91 7e 20 	lds	r31, 0x207E	; 0x80207e <tc_tce0_ccc_callback+0x1>
    1534:	30 97       	sbiw	r30, 0x00	; 0
    1536:	09 f0       	breq	.+2      	; 0x153a <__vector_51+0x42>
    1538:	19 95       	eicall
    153a:	ff 91       	pop	r31
    153c:	ef 91       	pop	r30
    153e:	bf 91       	pop	r27
    1540:	af 91       	pop	r26
    1542:	9f 91       	pop	r25
    1544:	8f 91       	pop	r24
    1546:	7f 91       	pop	r23
    1548:	6f 91       	pop	r22
    154a:	5f 91       	pop	r21
    154c:	4f 91       	pop	r20
    154e:	3f 91       	pop	r19
    1550:	2f 91       	pop	r18
    1552:	0f 90       	pop	r0
    1554:	0b be       	out	0x3b, r0	; 59
    1556:	0f 90       	pop	r0
    1558:	09 be       	out	0x39, r0	; 57
    155a:	0f 90       	pop	r0
    155c:	08 be       	out	0x38, r0	; 56
    155e:	0f 90       	pop	r0
    1560:	0f be       	out	0x3f, r0	; 63
    1562:	0f 90       	pop	r0
    1564:	1f 90       	pop	r1
    1566:	18 95       	reti

00001568 <__vector_52>:
    1568:	1f 92       	push	r1
    156a:	0f 92       	push	r0
    156c:	0f b6       	in	r0, 0x3f	; 63
    156e:	0f 92       	push	r0
    1570:	11 24       	eor	r1, r1
    1572:	08 b6       	in	r0, 0x38	; 56
    1574:	0f 92       	push	r0
    1576:	18 be       	out	0x38, r1	; 56
    1578:	09 b6       	in	r0, 0x39	; 57
    157a:	0f 92       	push	r0
    157c:	19 be       	out	0x39, r1	; 57
    157e:	0b b6       	in	r0, 0x3b	; 59
    1580:	0f 92       	push	r0
    1582:	1b be       	out	0x3b, r1	; 59
    1584:	2f 93       	push	r18
    1586:	3f 93       	push	r19
    1588:	4f 93       	push	r20
    158a:	5f 93       	push	r21
    158c:	6f 93       	push	r22
    158e:	7f 93       	push	r23
    1590:	8f 93       	push	r24
    1592:	9f 93       	push	r25
    1594:	af 93       	push	r26
    1596:	bf 93       	push	r27
    1598:	ef 93       	push	r30
    159a:	ff 93       	push	r31
    159c:	e0 91 7b 20 	lds	r30, 0x207B	; 0x80207b <tc_tce0_ccd_callback>
    15a0:	f0 91 7c 20 	lds	r31, 0x207C	; 0x80207c <tc_tce0_ccd_callback+0x1>
    15a4:	30 97       	sbiw	r30, 0x00	; 0
    15a6:	09 f0       	breq	.+2      	; 0x15aa <__vector_52+0x42>
    15a8:	19 95       	eicall
    15aa:	ff 91       	pop	r31
    15ac:	ef 91       	pop	r30
    15ae:	bf 91       	pop	r27
    15b0:	af 91       	pop	r26
    15b2:	9f 91       	pop	r25
    15b4:	8f 91       	pop	r24
    15b6:	7f 91       	pop	r23
    15b8:	6f 91       	pop	r22
    15ba:	5f 91       	pop	r21
    15bc:	4f 91       	pop	r20
    15be:	3f 91       	pop	r19
    15c0:	2f 91       	pop	r18
    15c2:	0f 90       	pop	r0
    15c4:	0b be       	out	0x3b, r0	; 59
    15c6:	0f 90       	pop	r0
    15c8:	09 be       	out	0x39, r0	; 57
    15ca:	0f 90       	pop	r0
    15cc:	08 be       	out	0x38, r0	; 56
    15ce:	0f 90       	pop	r0
    15d0:	0f be       	out	0x3f, r0	; 63
    15d2:	0f 90       	pop	r0
    15d4:	1f 90       	pop	r1
    15d6:	18 95       	reti

000015d8 <__vector_53>:
    15d8:	1f 92       	push	r1
    15da:	0f 92       	push	r0
    15dc:	0f b6       	in	r0, 0x3f	; 63
    15de:	0f 92       	push	r0
    15e0:	11 24       	eor	r1, r1
    15e2:	08 b6       	in	r0, 0x38	; 56
    15e4:	0f 92       	push	r0
    15e6:	18 be       	out	0x38, r1	; 56
    15e8:	09 b6       	in	r0, 0x39	; 57
    15ea:	0f 92       	push	r0
    15ec:	19 be       	out	0x39, r1	; 57
    15ee:	0b b6       	in	r0, 0x3b	; 59
    15f0:	0f 92       	push	r0
    15f2:	1b be       	out	0x3b, r1	; 59
    15f4:	2f 93       	push	r18
    15f6:	3f 93       	push	r19
    15f8:	4f 93       	push	r20
    15fa:	5f 93       	push	r21
    15fc:	6f 93       	push	r22
    15fe:	7f 93       	push	r23
    1600:	8f 93       	push	r24
    1602:	9f 93       	push	r25
    1604:	af 93       	push	r26
    1606:	bf 93       	push	r27
    1608:	ef 93       	push	r30
    160a:	ff 93       	push	r31
    160c:	e0 91 79 20 	lds	r30, 0x2079	; 0x802079 <tc_tce1_ovf_callback>
    1610:	f0 91 7a 20 	lds	r31, 0x207A	; 0x80207a <tc_tce1_ovf_callback+0x1>
    1614:	30 97       	sbiw	r30, 0x00	; 0
    1616:	09 f0       	breq	.+2      	; 0x161a <__vector_53+0x42>
    1618:	19 95       	eicall
    161a:	ff 91       	pop	r31
    161c:	ef 91       	pop	r30
    161e:	bf 91       	pop	r27
    1620:	af 91       	pop	r26
    1622:	9f 91       	pop	r25
    1624:	8f 91       	pop	r24
    1626:	7f 91       	pop	r23
    1628:	6f 91       	pop	r22
    162a:	5f 91       	pop	r21
    162c:	4f 91       	pop	r20
    162e:	3f 91       	pop	r19
    1630:	2f 91       	pop	r18
    1632:	0f 90       	pop	r0
    1634:	0b be       	out	0x3b, r0	; 59
    1636:	0f 90       	pop	r0
    1638:	09 be       	out	0x39, r0	; 57
    163a:	0f 90       	pop	r0
    163c:	08 be       	out	0x38, r0	; 56
    163e:	0f 90       	pop	r0
    1640:	0f be       	out	0x3f, r0	; 63
    1642:	0f 90       	pop	r0
    1644:	1f 90       	pop	r1
    1646:	18 95       	reti

00001648 <__vector_54>:
    1648:	1f 92       	push	r1
    164a:	0f 92       	push	r0
    164c:	0f b6       	in	r0, 0x3f	; 63
    164e:	0f 92       	push	r0
    1650:	11 24       	eor	r1, r1
    1652:	08 b6       	in	r0, 0x38	; 56
    1654:	0f 92       	push	r0
    1656:	18 be       	out	0x38, r1	; 56
    1658:	09 b6       	in	r0, 0x39	; 57
    165a:	0f 92       	push	r0
    165c:	19 be       	out	0x39, r1	; 57
    165e:	0b b6       	in	r0, 0x3b	; 59
    1660:	0f 92       	push	r0
    1662:	1b be       	out	0x3b, r1	; 59
    1664:	2f 93       	push	r18
    1666:	3f 93       	push	r19
    1668:	4f 93       	push	r20
    166a:	5f 93       	push	r21
    166c:	6f 93       	push	r22
    166e:	7f 93       	push	r23
    1670:	8f 93       	push	r24
    1672:	9f 93       	push	r25
    1674:	af 93       	push	r26
    1676:	bf 93       	push	r27
    1678:	ef 93       	push	r30
    167a:	ff 93       	push	r31
    167c:	e0 91 77 20 	lds	r30, 0x2077	; 0x802077 <tc_tce1_err_callback>
    1680:	f0 91 78 20 	lds	r31, 0x2078	; 0x802078 <tc_tce1_err_callback+0x1>
    1684:	30 97       	sbiw	r30, 0x00	; 0
    1686:	09 f0       	breq	.+2      	; 0x168a <__vector_54+0x42>
    1688:	19 95       	eicall
    168a:	ff 91       	pop	r31
    168c:	ef 91       	pop	r30
    168e:	bf 91       	pop	r27
    1690:	af 91       	pop	r26
    1692:	9f 91       	pop	r25
    1694:	8f 91       	pop	r24
    1696:	7f 91       	pop	r23
    1698:	6f 91       	pop	r22
    169a:	5f 91       	pop	r21
    169c:	4f 91       	pop	r20
    169e:	3f 91       	pop	r19
    16a0:	2f 91       	pop	r18
    16a2:	0f 90       	pop	r0
    16a4:	0b be       	out	0x3b, r0	; 59
    16a6:	0f 90       	pop	r0
    16a8:	09 be       	out	0x39, r0	; 57
    16aa:	0f 90       	pop	r0
    16ac:	08 be       	out	0x38, r0	; 56
    16ae:	0f 90       	pop	r0
    16b0:	0f be       	out	0x3f, r0	; 63
    16b2:	0f 90       	pop	r0
    16b4:	1f 90       	pop	r1
    16b6:	18 95       	reti

000016b8 <__vector_55>:
    16b8:	1f 92       	push	r1
    16ba:	0f 92       	push	r0
    16bc:	0f b6       	in	r0, 0x3f	; 63
    16be:	0f 92       	push	r0
    16c0:	11 24       	eor	r1, r1
    16c2:	08 b6       	in	r0, 0x38	; 56
    16c4:	0f 92       	push	r0
    16c6:	18 be       	out	0x38, r1	; 56
    16c8:	09 b6       	in	r0, 0x39	; 57
    16ca:	0f 92       	push	r0
    16cc:	19 be       	out	0x39, r1	; 57
    16ce:	0b b6       	in	r0, 0x3b	; 59
    16d0:	0f 92       	push	r0
    16d2:	1b be       	out	0x3b, r1	; 59
    16d4:	2f 93       	push	r18
    16d6:	3f 93       	push	r19
    16d8:	4f 93       	push	r20
    16da:	5f 93       	push	r21
    16dc:	6f 93       	push	r22
    16de:	7f 93       	push	r23
    16e0:	8f 93       	push	r24
    16e2:	9f 93       	push	r25
    16e4:	af 93       	push	r26
    16e6:	bf 93       	push	r27
    16e8:	ef 93       	push	r30
    16ea:	ff 93       	push	r31
    16ec:	e0 91 75 20 	lds	r30, 0x2075	; 0x802075 <tc_tce1_cca_callback>
    16f0:	f0 91 76 20 	lds	r31, 0x2076	; 0x802076 <tc_tce1_cca_callback+0x1>
    16f4:	30 97       	sbiw	r30, 0x00	; 0
    16f6:	09 f0       	breq	.+2      	; 0x16fa <__vector_55+0x42>
    16f8:	19 95       	eicall
    16fa:	ff 91       	pop	r31
    16fc:	ef 91       	pop	r30
    16fe:	bf 91       	pop	r27
    1700:	af 91       	pop	r26
    1702:	9f 91       	pop	r25
    1704:	8f 91       	pop	r24
    1706:	7f 91       	pop	r23
    1708:	6f 91       	pop	r22
    170a:	5f 91       	pop	r21
    170c:	4f 91       	pop	r20
    170e:	3f 91       	pop	r19
    1710:	2f 91       	pop	r18
    1712:	0f 90       	pop	r0
    1714:	0b be       	out	0x3b, r0	; 59
    1716:	0f 90       	pop	r0
    1718:	09 be       	out	0x39, r0	; 57
    171a:	0f 90       	pop	r0
    171c:	08 be       	out	0x38, r0	; 56
    171e:	0f 90       	pop	r0
    1720:	0f be       	out	0x3f, r0	; 63
    1722:	0f 90       	pop	r0
    1724:	1f 90       	pop	r1
    1726:	18 95       	reti

00001728 <__vector_56>:
    1728:	1f 92       	push	r1
    172a:	0f 92       	push	r0
    172c:	0f b6       	in	r0, 0x3f	; 63
    172e:	0f 92       	push	r0
    1730:	11 24       	eor	r1, r1
    1732:	08 b6       	in	r0, 0x38	; 56
    1734:	0f 92       	push	r0
    1736:	18 be       	out	0x38, r1	; 56
    1738:	09 b6       	in	r0, 0x39	; 57
    173a:	0f 92       	push	r0
    173c:	19 be       	out	0x39, r1	; 57
    173e:	0b b6       	in	r0, 0x3b	; 59
    1740:	0f 92       	push	r0
    1742:	1b be       	out	0x3b, r1	; 59
    1744:	2f 93       	push	r18
    1746:	3f 93       	push	r19
    1748:	4f 93       	push	r20
    174a:	5f 93       	push	r21
    174c:	6f 93       	push	r22
    174e:	7f 93       	push	r23
    1750:	8f 93       	push	r24
    1752:	9f 93       	push	r25
    1754:	af 93       	push	r26
    1756:	bf 93       	push	r27
    1758:	ef 93       	push	r30
    175a:	ff 93       	push	r31
    175c:	e0 91 73 20 	lds	r30, 0x2073	; 0x802073 <tc_tce1_ccb_callback>
    1760:	f0 91 74 20 	lds	r31, 0x2074	; 0x802074 <tc_tce1_ccb_callback+0x1>
    1764:	30 97       	sbiw	r30, 0x00	; 0
    1766:	09 f0       	breq	.+2      	; 0x176a <__vector_56+0x42>
    1768:	19 95       	eicall
    176a:	ff 91       	pop	r31
    176c:	ef 91       	pop	r30
    176e:	bf 91       	pop	r27
    1770:	af 91       	pop	r26
    1772:	9f 91       	pop	r25
    1774:	8f 91       	pop	r24
    1776:	7f 91       	pop	r23
    1778:	6f 91       	pop	r22
    177a:	5f 91       	pop	r21
    177c:	4f 91       	pop	r20
    177e:	3f 91       	pop	r19
    1780:	2f 91       	pop	r18
    1782:	0f 90       	pop	r0
    1784:	0b be       	out	0x3b, r0	; 59
    1786:	0f 90       	pop	r0
    1788:	09 be       	out	0x39, r0	; 57
    178a:	0f 90       	pop	r0
    178c:	08 be       	out	0x38, r0	; 56
    178e:	0f 90       	pop	r0
    1790:	0f be       	out	0x3f, r0	; 63
    1792:	0f 90       	pop	r0
    1794:	1f 90       	pop	r1
    1796:	18 95       	reti

00001798 <__vector_108>:
    1798:	1f 92       	push	r1
    179a:	0f 92       	push	r0
    179c:	0f b6       	in	r0, 0x3f	; 63
    179e:	0f 92       	push	r0
    17a0:	11 24       	eor	r1, r1
    17a2:	08 b6       	in	r0, 0x38	; 56
    17a4:	0f 92       	push	r0
    17a6:	18 be       	out	0x38, r1	; 56
    17a8:	09 b6       	in	r0, 0x39	; 57
    17aa:	0f 92       	push	r0
    17ac:	19 be       	out	0x39, r1	; 57
    17ae:	0b b6       	in	r0, 0x3b	; 59
    17b0:	0f 92       	push	r0
    17b2:	1b be       	out	0x3b, r1	; 59
    17b4:	2f 93       	push	r18
    17b6:	3f 93       	push	r19
    17b8:	4f 93       	push	r20
    17ba:	5f 93       	push	r21
    17bc:	6f 93       	push	r22
    17be:	7f 93       	push	r23
    17c0:	8f 93       	push	r24
    17c2:	9f 93       	push	r25
    17c4:	af 93       	push	r26
    17c6:	bf 93       	push	r27
    17c8:	ef 93       	push	r30
    17ca:	ff 93       	push	r31
    17cc:	e0 91 71 20 	lds	r30, 0x2071	; 0x802071 <tc_tcf0_ovf_callback>
    17d0:	f0 91 72 20 	lds	r31, 0x2072	; 0x802072 <tc_tcf0_ovf_callback+0x1>
    17d4:	30 97       	sbiw	r30, 0x00	; 0
    17d6:	09 f0       	breq	.+2      	; 0x17da <__vector_108+0x42>
    17d8:	19 95       	eicall
    17da:	ff 91       	pop	r31
    17dc:	ef 91       	pop	r30
    17de:	bf 91       	pop	r27
    17e0:	af 91       	pop	r26
    17e2:	9f 91       	pop	r25
    17e4:	8f 91       	pop	r24
    17e6:	7f 91       	pop	r23
    17e8:	6f 91       	pop	r22
    17ea:	5f 91       	pop	r21
    17ec:	4f 91       	pop	r20
    17ee:	3f 91       	pop	r19
    17f0:	2f 91       	pop	r18
    17f2:	0f 90       	pop	r0
    17f4:	0b be       	out	0x3b, r0	; 59
    17f6:	0f 90       	pop	r0
    17f8:	09 be       	out	0x39, r0	; 57
    17fa:	0f 90       	pop	r0
    17fc:	08 be       	out	0x38, r0	; 56
    17fe:	0f 90       	pop	r0
    1800:	0f be       	out	0x3f, r0	; 63
    1802:	0f 90       	pop	r0
    1804:	1f 90       	pop	r1
    1806:	18 95       	reti

00001808 <__vector_109>:
    1808:	1f 92       	push	r1
    180a:	0f 92       	push	r0
    180c:	0f b6       	in	r0, 0x3f	; 63
    180e:	0f 92       	push	r0
    1810:	11 24       	eor	r1, r1
    1812:	08 b6       	in	r0, 0x38	; 56
    1814:	0f 92       	push	r0
    1816:	18 be       	out	0x38, r1	; 56
    1818:	09 b6       	in	r0, 0x39	; 57
    181a:	0f 92       	push	r0
    181c:	19 be       	out	0x39, r1	; 57
    181e:	0b b6       	in	r0, 0x3b	; 59
    1820:	0f 92       	push	r0
    1822:	1b be       	out	0x3b, r1	; 59
    1824:	2f 93       	push	r18
    1826:	3f 93       	push	r19
    1828:	4f 93       	push	r20
    182a:	5f 93       	push	r21
    182c:	6f 93       	push	r22
    182e:	7f 93       	push	r23
    1830:	8f 93       	push	r24
    1832:	9f 93       	push	r25
    1834:	af 93       	push	r26
    1836:	bf 93       	push	r27
    1838:	ef 93       	push	r30
    183a:	ff 93       	push	r31
    183c:	e0 91 6f 20 	lds	r30, 0x206F	; 0x80206f <tc_tcf0_err_callback>
    1840:	f0 91 70 20 	lds	r31, 0x2070	; 0x802070 <tc_tcf0_err_callback+0x1>
    1844:	30 97       	sbiw	r30, 0x00	; 0
    1846:	09 f0       	breq	.+2      	; 0x184a <__vector_109+0x42>
    1848:	19 95       	eicall
    184a:	ff 91       	pop	r31
    184c:	ef 91       	pop	r30
    184e:	bf 91       	pop	r27
    1850:	af 91       	pop	r26
    1852:	9f 91       	pop	r25
    1854:	8f 91       	pop	r24
    1856:	7f 91       	pop	r23
    1858:	6f 91       	pop	r22
    185a:	5f 91       	pop	r21
    185c:	4f 91       	pop	r20
    185e:	3f 91       	pop	r19
    1860:	2f 91       	pop	r18
    1862:	0f 90       	pop	r0
    1864:	0b be       	out	0x3b, r0	; 59
    1866:	0f 90       	pop	r0
    1868:	09 be       	out	0x39, r0	; 57
    186a:	0f 90       	pop	r0
    186c:	08 be       	out	0x38, r0	; 56
    186e:	0f 90       	pop	r0
    1870:	0f be       	out	0x3f, r0	; 63
    1872:	0f 90       	pop	r0
    1874:	1f 90       	pop	r1
    1876:	18 95       	reti

00001878 <__vector_110>:
    1878:	1f 92       	push	r1
    187a:	0f 92       	push	r0
    187c:	0f b6       	in	r0, 0x3f	; 63
    187e:	0f 92       	push	r0
    1880:	11 24       	eor	r1, r1
    1882:	08 b6       	in	r0, 0x38	; 56
    1884:	0f 92       	push	r0
    1886:	18 be       	out	0x38, r1	; 56
    1888:	09 b6       	in	r0, 0x39	; 57
    188a:	0f 92       	push	r0
    188c:	19 be       	out	0x39, r1	; 57
    188e:	0b b6       	in	r0, 0x3b	; 59
    1890:	0f 92       	push	r0
    1892:	1b be       	out	0x3b, r1	; 59
    1894:	2f 93       	push	r18
    1896:	3f 93       	push	r19
    1898:	4f 93       	push	r20
    189a:	5f 93       	push	r21
    189c:	6f 93       	push	r22
    189e:	7f 93       	push	r23
    18a0:	8f 93       	push	r24
    18a2:	9f 93       	push	r25
    18a4:	af 93       	push	r26
    18a6:	bf 93       	push	r27
    18a8:	ef 93       	push	r30
    18aa:	ff 93       	push	r31
    18ac:	e0 91 6d 20 	lds	r30, 0x206D	; 0x80206d <tc_tcf0_cca_callback>
    18b0:	f0 91 6e 20 	lds	r31, 0x206E	; 0x80206e <tc_tcf0_cca_callback+0x1>
    18b4:	30 97       	sbiw	r30, 0x00	; 0
    18b6:	09 f0       	breq	.+2      	; 0x18ba <__vector_110+0x42>
    18b8:	19 95       	eicall
    18ba:	ff 91       	pop	r31
    18bc:	ef 91       	pop	r30
    18be:	bf 91       	pop	r27
    18c0:	af 91       	pop	r26
    18c2:	9f 91       	pop	r25
    18c4:	8f 91       	pop	r24
    18c6:	7f 91       	pop	r23
    18c8:	6f 91       	pop	r22
    18ca:	5f 91       	pop	r21
    18cc:	4f 91       	pop	r20
    18ce:	3f 91       	pop	r19
    18d0:	2f 91       	pop	r18
    18d2:	0f 90       	pop	r0
    18d4:	0b be       	out	0x3b, r0	; 59
    18d6:	0f 90       	pop	r0
    18d8:	09 be       	out	0x39, r0	; 57
    18da:	0f 90       	pop	r0
    18dc:	08 be       	out	0x38, r0	; 56
    18de:	0f 90       	pop	r0
    18e0:	0f be       	out	0x3f, r0	; 63
    18e2:	0f 90       	pop	r0
    18e4:	1f 90       	pop	r1
    18e6:	18 95       	reti

000018e8 <__vector_111>:
    18e8:	1f 92       	push	r1
    18ea:	0f 92       	push	r0
    18ec:	0f b6       	in	r0, 0x3f	; 63
    18ee:	0f 92       	push	r0
    18f0:	11 24       	eor	r1, r1
    18f2:	08 b6       	in	r0, 0x38	; 56
    18f4:	0f 92       	push	r0
    18f6:	18 be       	out	0x38, r1	; 56
    18f8:	09 b6       	in	r0, 0x39	; 57
    18fa:	0f 92       	push	r0
    18fc:	19 be       	out	0x39, r1	; 57
    18fe:	0b b6       	in	r0, 0x3b	; 59
    1900:	0f 92       	push	r0
    1902:	1b be       	out	0x3b, r1	; 59
    1904:	2f 93       	push	r18
    1906:	3f 93       	push	r19
    1908:	4f 93       	push	r20
    190a:	5f 93       	push	r21
    190c:	6f 93       	push	r22
    190e:	7f 93       	push	r23
    1910:	8f 93       	push	r24
    1912:	9f 93       	push	r25
    1914:	af 93       	push	r26
    1916:	bf 93       	push	r27
    1918:	ef 93       	push	r30
    191a:	ff 93       	push	r31
    191c:	e0 91 6b 20 	lds	r30, 0x206B	; 0x80206b <tc_tcf0_ccb_callback>
    1920:	f0 91 6c 20 	lds	r31, 0x206C	; 0x80206c <tc_tcf0_ccb_callback+0x1>
    1924:	30 97       	sbiw	r30, 0x00	; 0
    1926:	09 f0       	breq	.+2      	; 0x192a <__vector_111+0x42>
    1928:	19 95       	eicall
    192a:	ff 91       	pop	r31
    192c:	ef 91       	pop	r30
    192e:	bf 91       	pop	r27
    1930:	af 91       	pop	r26
    1932:	9f 91       	pop	r25
    1934:	8f 91       	pop	r24
    1936:	7f 91       	pop	r23
    1938:	6f 91       	pop	r22
    193a:	5f 91       	pop	r21
    193c:	4f 91       	pop	r20
    193e:	3f 91       	pop	r19
    1940:	2f 91       	pop	r18
    1942:	0f 90       	pop	r0
    1944:	0b be       	out	0x3b, r0	; 59
    1946:	0f 90       	pop	r0
    1948:	09 be       	out	0x39, r0	; 57
    194a:	0f 90       	pop	r0
    194c:	08 be       	out	0x38, r0	; 56
    194e:	0f 90       	pop	r0
    1950:	0f be       	out	0x3f, r0	; 63
    1952:	0f 90       	pop	r0
    1954:	1f 90       	pop	r1
    1956:	18 95       	reti

00001958 <__vector_112>:
    1958:	1f 92       	push	r1
    195a:	0f 92       	push	r0
    195c:	0f b6       	in	r0, 0x3f	; 63
    195e:	0f 92       	push	r0
    1960:	11 24       	eor	r1, r1
    1962:	08 b6       	in	r0, 0x38	; 56
    1964:	0f 92       	push	r0
    1966:	18 be       	out	0x38, r1	; 56
    1968:	09 b6       	in	r0, 0x39	; 57
    196a:	0f 92       	push	r0
    196c:	19 be       	out	0x39, r1	; 57
    196e:	0b b6       	in	r0, 0x3b	; 59
    1970:	0f 92       	push	r0
    1972:	1b be       	out	0x3b, r1	; 59
    1974:	2f 93       	push	r18
    1976:	3f 93       	push	r19
    1978:	4f 93       	push	r20
    197a:	5f 93       	push	r21
    197c:	6f 93       	push	r22
    197e:	7f 93       	push	r23
    1980:	8f 93       	push	r24
    1982:	9f 93       	push	r25
    1984:	af 93       	push	r26
    1986:	bf 93       	push	r27
    1988:	ef 93       	push	r30
    198a:	ff 93       	push	r31
    198c:	e0 91 69 20 	lds	r30, 0x2069	; 0x802069 <tc_tcf0_ccc_callback>
    1990:	f0 91 6a 20 	lds	r31, 0x206A	; 0x80206a <tc_tcf0_ccc_callback+0x1>
    1994:	30 97       	sbiw	r30, 0x00	; 0
    1996:	09 f0       	breq	.+2      	; 0x199a <__vector_112+0x42>
    1998:	19 95       	eicall
    199a:	ff 91       	pop	r31
    199c:	ef 91       	pop	r30
    199e:	bf 91       	pop	r27
    19a0:	af 91       	pop	r26
    19a2:	9f 91       	pop	r25
    19a4:	8f 91       	pop	r24
    19a6:	7f 91       	pop	r23
    19a8:	6f 91       	pop	r22
    19aa:	5f 91       	pop	r21
    19ac:	4f 91       	pop	r20
    19ae:	3f 91       	pop	r19
    19b0:	2f 91       	pop	r18
    19b2:	0f 90       	pop	r0
    19b4:	0b be       	out	0x3b, r0	; 59
    19b6:	0f 90       	pop	r0
    19b8:	09 be       	out	0x39, r0	; 57
    19ba:	0f 90       	pop	r0
    19bc:	08 be       	out	0x38, r0	; 56
    19be:	0f 90       	pop	r0
    19c0:	0f be       	out	0x3f, r0	; 63
    19c2:	0f 90       	pop	r0
    19c4:	1f 90       	pop	r1
    19c6:	18 95       	reti

000019c8 <__vector_113>:
    19c8:	1f 92       	push	r1
    19ca:	0f 92       	push	r0
    19cc:	0f b6       	in	r0, 0x3f	; 63
    19ce:	0f 92       	push	r0
    19d0:	11 24       	eor	r1, r1
    19d2:	08 b6       	in	r0, 0x38	; 56
    19d4:	0f 92       	push	r0
    19d6:	18 be       	out	0x38, r1	; 56
    19d8:	09 b6       	in	r0, 0x39	; 57
    19da:	0f 92       	push	r0
    19dc:	19 be       	out	0x39, r1	; 57
    19de:	0b b6       	in	r0, 0x3b	; 59
    19e0:	0f 92       	push	r0
    19e2:	1b be       	out	0x3b, r1	; 59
    19e4:	2f 93       	push	r18
    19e6:	3f 93       	push	r19
    19e8:	4f 93       	push	r20
    19ea:	5f 93       	push	r21
    19ec:	6f 93       	push	r22
    19ee:	7f 93       	push	r23
    19f0:	8f 93       	push	r24
    19f2:	9f 93       	push	r25
    19f4:	af 93       	push	r26
    19f6:	bf 93       	push	r27
    19f8:	ef 93       	push	r30
    19fa:	ff 93       	push	r31
    19fc:	e0 91 67 20 	lds	r30, 0x2067	; 0x802067 <tc_tcf0_ccd_callback>
    1a00:	f0 91 68 20 	lds	r31, 0x2068	; 0x802068 <tc_tcf0_ccd_callback+0x1>
    1a04:	30 97       	sbiw	r30, 0x00	; 0
    1a06:	09 f0       	breq	.+2      	; 0x1a0a <__vector_113+0x42>
    1a08:	19 95       	eicall
    1a0a:	ff 91       	pop	r31
    1a0c:	ef 91       	pop	r30
    1a0e:	bf 91       	pop	r27
    1a10:	af 91       	pop	r26
    1a12:	9f 91       	pop	r25
    1a14:	8f 91       	pop	r24
    1a16:	7f 91       	pop	r23
    1a18:	6f 91       	pop	r22
    1a1a:	5f 91       	pop	r21
    1a1c:	4f 91       	pop	r20
    1a1e:	3f 91       	pop	r19
    1a20:	2f 91       	pop	r18
    1a22:	0f 90       	pop	r0
    1a24:	0b be       	out	0x3b, r0	; 59
    1a26:	0f 90       	pop	r0
    1a28:	09 be       	out	0x39, r0	; 57
    1a2a:	0f 90       	pop	r0
    1a2c:	08 be       	out	0x38, r0	; 56
    1a2e:	0f 90       	pop	r0
    1a30:	0f be       	out	0x3f, r0	; 63
    1a32:	0f 90       	pop	r0
    1a34:	1f 90       	pop	r1
    1a36:	18 95       	reti

00001a38 <__vector_114>:
    1a38:	1f 92       	push	r1
    1a3a:	0f 92       	push	r0
    1a3c:	0f b6       	in	r0, 0x3f	; 63
    1a3e:	0f 92       	push	r0
    1a40:	11 24       	eor	r1, r1
    1a42:	08 b6       	in	r0, 0x38	; 56
    1a44:	0f 92       	push	r0
    1a46:	18 be       	out	0x38, r1	; 56
    1a48:	09 b6       	in	r0, 0x39	; 57
    1a4a:	0f 92       	push	r0
    1a4c:	19 be       	out	0x39, r1	; 57
    1a4e:	0b b6       	in	r0, 0x3b	; 59
    1a50:	0f 92       	push	r0
    1a52:	1b be       	out	0x3b, r1	; 59
    1a54:	2f 93       	push	r18
    1a56:	3f 93       	push	r19
    1a58:	4f 93       	push	r20
    1a5a:	5f 93       	push	r21
    1a5c:	6f 93       	push	r22
    1a5e:	7f 93       	push	r23
    1a60:	8f 93       	push	r24
    1a62:	9f 93       	push	r25
    1a64:	af 93       	push	r26
    1a66:	bf 93       	push	r27
    1a68:	ef 93       	push	r30
    1a6a:	ff 93       	push	r31
    1a6c:	e0 91 65 20 	lds	r30, 0x2065	; 0x802065 <tc_tcf1_ovf_callback>
    1a70:	f0 91 66 20 	lds	r31, 0x2066	; 0x802066 <tc_tcf1_ovf_callback+0x1>
    1a74:	30 97       	sbiw	r30, 0x00	; 0
    1a76:	09 f0       	breq	.+2      	; 0x1a7a <__vector_114+0x42>
    1a78:	19 95       	eicall
    1a7a:	ff 91       	pop	r31
    1a7c:	ef 91       	pop	r30
    1a7e:	bf 91       	pop	r27
    1a80:	af 91       	pop	r26
    1a82:	9f 91       	pop	r25
    1a84:	8f 91       	pop	r24
    1a86:	7f 91       	pop	r23
    1a88:	6f 91       	pop	r22
    1a8a:	5f 91       	pop	r21
    1a8c:	4f 91       	pop	r20
    1a8e:	3f 91       	pop	r19
    1a90:	2f 91       	pop	r18
    1a92:	0f 90       	pop	r0
    1a94:	0b be       	out	0x3b, r0	; 59
    1a96:	0f 90       	pop	r0
    1a98:	09 be       	out	0x39, r0	; 57
    1a9a:	0f 90       	pop	r0
    1a9c:	08 be       	out	0x38, r0	; 56
    1a9e:	0f 90       	pop	r0
    1aa0:	0f be       	out	0x3f, r0	; 63
    1aa2:	0f 90       	pop	r0
    1aa4:	1f 90       	pop	r1
    1aa6:	18 95       	reti

00001aa8 <__vector_115>:
    1aa8:	1f 92       	push	r1
    1aaa:	0f 92       	push	r0
    1aac:	0f b6       	in	r0, 0x3f	; 63
    1aae:	0f 92       	push	r0
    1ab0:	11 24       	eor	r1, r1
    1ab2:	08 b6       	in	r0, 0x38	; 56
    1ab4:	0f 92       	push	r0
    1ab6:	18 be       	out	0x38, r1	; 56
    1ab8:	09 b6       	in	r0, 0x39	; 57
    1aba:	0f 92       	push	r0
    1abc:	19 be       	out	0x39, r1	; 57
    1abe:	0b b6       	in	r0, 0x3b	; 59
    1ac0:	0f 92       	push	r0
    1ac2:	1b be       	out	0x3b, r1	; 59
    1ac4:	2f 93       	push	r18
    1ac6:	3f 93       	push	r19
    1ac8:	4f 93       	push	r20
    1aca:	5f 93       	push	r21
    1acc:	6f 93       	push	r22
    1ace:	7f 93       	push	r23
    1ad0:	8f 93       	push	r24
    1ad2:	9f 93       	push	r25
    1ad4:	af 93       	push	r26
    1ad6:	bf 93       	push	r27
    1ad8:	ef 93       	push	r30
    1ada:	ff 93       	push	r31
    1adc:	e0 91 63 20 	lds	r30, 0x2063	; 0x802063 <tc_tcf1_err_callback>
    1ae0:	f0 91 64 20 	lds	r31, 0x2064	; 0x802064 <tc_tcf1_err_callback+0x1>
    1ae4:	30 97       	sbiw	r30, 0x00	; 0
    1ae6:	09 f0       	breq	.+2      	; 0x1aea <__vector_115+0x42>
    1ae8:	19 95       	eicall
    1aea:	ff 91       	pop	r31
    1aec:	ef 91       	pop	r30
    1aee:	bf 91       	pop	r27
    1af0:	af 91       	pop	r26
    1af2:	9f 91       	pop	r25
    1af4:	8f 91       	pop	r24
    1af6:	7f 91       	pop	r23
    1af8:	6f 91       	pop	r22
    1afa:	5f 91       	pop	r21
    1afc:	4f 91       	pop	r20
    1afe:	3f 91       	pop	r19
    1b00:	2f 91       	pop	r18
    1b02:	0f 90       	pop	r0
    1b04:	0b be       	out	0x3b, r0	; 59
    1b06:	0f 90       	pop	r0
    1b08:	09 be       	out	0x39, r0	; 57
    1b0a:	0f 90       	pop	r0
    1b0c:	08 be       	out	0x38, r0	; 56
    1b0e:	0f 90       	pop	r0
    1b10:	0f be       	out	0x3f, r0	; 63
    1b12:	0f 90       	pop	r0
    1b14:	1f 90       	pop	r1
    1b16:	18 95       	reti

00001b18 <__vector_116>:
    1b18:	1f 92       	push	r1
    1b1a:	0f 92       	push	r0
    1b1c:	0f b6       	in	r0, 0x3f	; 63
    1b1e:	0f 92       	push	r0
    1b20:	11 24       	eor	r1, r1
    1b22:	08 b6       	in	r0, 0x38	; 56
    1b24:	0f 92       	push	r0
    1b26:	18 be       	out	0x38, r1	; 56
    1b28:	09 b6       	in	r0, 0x39	; 57
    1b2a:	0f 92       	push	r0
    1b2c:	19 be       	out	0x39, r1	; 57
    1b2e:	0b b6       	in	r0, 0x3b	; 59
    1b30:	0f 92       	push	r0
    1b32:	1b be       	out	0x3b, r1	; 59
    1b34:	2f 93       	push	r18
    1b36:	3f 93       	push	r19
    1b38:	4f 93       	push	r20
    1b3a:	5f 93       	push	r21
    1b3c:	6f 93       	push	r22
    1b3e:	7f 93       	push	r23
    1b40:	8f 93       	push	r24
    1b42:	9f 93       	push	r25
    1b44:	af 93       	push	r26
    1b46:	bf 93       	push	r27
    1b48:	ef 93       	push	r30
    1b4a:	ff 93       	push	r31
    1b4c:	e0 91 61 20 	lds	r30, 0x2061	; 0x802061 <tc_tcf1_cca_callback>
    1b50:	f0 91 62 20 	lds	r31, 0x2062	; 0x802062 <tc_tcf1_cca_callback+0x1>
    1b54:	30 97       	sbiw	r30, 0x00	; 0
    1b56:	09 f0       	breq	.+2      	; 0x1b5a <__vector_116+0x42>
    1b58:	19 95       	eicall
    1b5a:	ff 91       	pop	r31
    1b5c:	ef 91       	pop	r30
    1b5e:	bf 91       	pop	r27
    1b60:	af 91       	pop	r26
    1b62:	9f 91       	pop	r25
    1b64:	8f 91       	pop	r24
    1b66:	7f 91       	pop	r23
    1b68:	6f 91       	pop	r22
    1b6a:	5f 91       	pop	r21
    1b6c:	4f 91       	pop	r20
    1b6e:	3f 91       	pop	r19
    1b70:	2f 91       	pop	r18
    1b72:	0f 90       	pop	r0
    1b74:	0b be       	out	0x3b, r0	; 59
    1b76:	0f 90       	pop	r0
    1b78:	09 be       	out	0x39, r0	; 57
    1b7a:	0f 90       	pop	r0
    1b7c:	08 be       	out	0x38, r0	; 56
    1b7e:	0f 90       	pop	r0
    1b80:	0f be       	out	0x3f, r0	; 63
    1b82:	0f 90       	pop	r0
    1b84:	1f 90       	pop	r1
    1b86:	18 95       	reti

00001b88 <__vector_117>:
    1b88:	1f 92       	push	r1
    1b8a:	0f 92       	push	r0
    1b8c:	0f b6       	in	r0, 0x3f	; 63
    1b8e:	0f 92       	push	r0
    1b90:	11 24       	eor	r1, r1
    1b92:	08 b6       	in	r0, 0x38	; 56
    1b94:	0f 92       	push	r0
    1b96:	18 be       	out	0x38, r1	; 56
    1b98:	09 b6       	in	r0, 0x39	; 57
    1b9a:	0f 92       	push	r0
    1b9c:	19 be       	out	0x39, r1	; 57
    1b9e:	0b b6       	in	r0, 0x3b	; 59
    1ba0:	0f 92       	push	r0
    1ba2:	1b be       	out	0x3b, r1	; 59
    1ba4:	2f 93       	push	r18
    1ba6:	3f 93       	push	r19
    1ba8:	4f 93       	push	r20
    1baa:	5f 93       	push	r21
    1bac:	6f 93       	push	r22
    1bae:	7f 93       	push	r23
    1bb0:	8f 93       	push	r24
    1bb2:	9f 93       	push	r25
    1bb4:	af 93       	push	r26
    1bb6:	bf 93       	push	r27
    1bb8:	ef 93       	push	r30
    1bba:	ff 93       	push	r31
    1bbc:	e0 91 5f 20 	lds	r30, 0x205F	; 0x80205f <tc_tcf1_ccb_callback>
    1bc0:	f0 91 60 20 	lds	r31, 0x2060	; 0x802060 <tc_tcf1_ccb_callback+0x1>
    1bc4:	30 97       	sbiw	r30, 0x00	; 0
    1bc6:	09 f0       	breq	.+2      	; 0x1bca <__vector_117+0x42>
    1bc8:	19 95       	eicall
    1bca:	ff 91       	pop	r31
    1bcc:	ef 91       	pop	r30
    1bce:	bf 91       	pop	r27
    1bd0:	af 91       	pop	r26
    1bd2:	9f 91       	pop	r25
    1bd4:	8f 91       	pop	r24
    1bd6:	7f 91       	pop	r23
    1bd8:	6f 91       	pop	r22
    1bda:	5f 91       	pop	r21
    1bdc:	4f 91       	pop	r20
    1bde:	3f 91       	pop	r19
    1be0:	2f 91       	pop	r18
    1be2:	0f 90       	pop	r0
    1be4:	0b be       	out	0x3b, r0	; 59
    1be6:	0f 90       	pop	r0
    1be8:	09 be       	out	0x39, r0	; 57
    1bea:	0f 90       	pop	r0
    1bec:	08 be       	out	0x38, r0	; 56
    1bee:	0f 90       	pop	r0
    1bf0:	0f be       	out	0x3f, r0	; 63
    1bf2:	0f 90       	pop	r0
    1bf4:	1f 90       	pop	r1
    1bf6:	18 95       	reti

00001bf8 <sysclk_enable_peripheral_clock>:
    1bf8:	00 97       	sbiw	r24, 0x00	; 0
    1bfa:	09 f4       	brne	.+2      	; 0x1bfe <sysclk_enable_peripheral_clock+0x6>
    1bfc:	f0 c0       	rjmp	.+480    	; 0x1dde <sysclk_enable_peripheral_clock+0x1e6>
    1bfe:	80 3c       	cpi	r24, 0xC0	; 192
    1c00:	91 05       	cpc	r25, r1
    1c02:	11 f4       	brne	.+4      	; 0x1c08 <sysclk_enable_peripheral_clock+0x10>
    1c04:	60 e1       	ldi	r22, 0x10	; 16
    1c06:	05 c0       	rjmp	.+10     	; 0x1c12 <sysclk_enable_peripheral_clock+0x1a>
    1c08:	80 34       	cpi	r24, 0x40	; 64
    1c0a:	24 e0       	ldi	r18, 0x04	; 4
    1c0c:	92 07       	cpc	r25, r18
    1c0e:	19 f4       	brne	.+6      	; 0x1c16 <sysclk_enable_peripheral_clock+0x1e>
    1c10:	68 e0       	ldi	r22, 0x08	; 8
    1c12:	80 e0       	ldi	r24, 0x00	; 0
    1c14:	e2 c0       	rjmp	.+452    	; 0x1dda <sysclk_enable_peripheral_clock+0x1e2>
    1c16:	81 15       	cp	r24, r1
    1c18:	24 e0       	ldi	r18, 0x04	; 4
    1c1a:	92 07       	cpc	r25, r18
    1c1c:	11 f4       	brne	.+4      	; 0x1c22 <sysclk_enable_peripheral_clock+0x2a>
    1c1e:	64 e0       	ldi	r22, 0x04	; 4
    1c20:	f8 cf       	rjmp	.-16     	; 0x1c12 <sysclk_enable_peripheral_clock+0x1a>
    1c22:	80 38       	cpi	r24, 0x80	; 128
    1c24:	21 e0       	ldi	r18, 0x01	; 1
    1c26:	92 07       	cpc	r25, r18
    1c28:	11 f4       	brne	.+4      	; 0x1c2e <sysclk_enable_peripheral_clock+0x36>
    1c2a:	62 e0       	ldi	r22, 0x02	; 2
    1c2c:	f2 cf       	rjmp	.-28     	; 0x1c12 <sysclk_enable_peripheral_clock+0x1a>
    1c2e:	81 15       	cp	r24, r1
    1c30:	21 e0       	ldi	r18, 0x01	; 1
    1c32:	92 07       	cpc	r25, r18
    1c34:	11 f4       	brne	.+4      	; 0x1c3a <sysclk_enable_peripheral_clock+0x42>
    1c36:	61 e0       	ldi	r22, 0x01	; 1
    1c38:	ec cf       	rjmp	.-40     	; 0x1c12 <sysclk_enable_peripheral_clock+0x1a>
    1c3a:	80 38       	cpi	r24, 0x80	; 128
    1c3c:	23 e0       	ldi	r18, 0x03	; 3
    1c3e:	92 07       	cpc	r25, r18
    1c40:	11 f4       	brne	.+4      	; 0x1c46 <sysclk_enable_peripheral_clock+0x4e>
    1c42:	61 e0       	ldi	r22, 0x01	; 1
    1c44:	17 c0       	rjmp	.+46     	; 0x1c74 <sysclk_enable_peripheral_clock+0x7c>
    1c46:	80 39       	cpi	r24, 0x90	; 144
    1c48:	23 e0       	ldi	r18, 0x03	; 3
    1c4a:	92 07       	cpc	r25, r18
    1c4c:	11 f4       	brne	.+4      	; 0x1c52 <sysclk_enable_peripheral_clock+0x5a>
    1c4e:	61 e0       	ldi	r22, 0x01	; 1
    1c50:	18 c0       	rjmp	.+48     	; 0x1c82 <sysclk_enable_peripheral_clock+0x8a>
    1c52:	81 15       	cp	r24, r1
    1c54:	22 e0       	ldi	r18, 0x02	; 2
    1c56:	92 07       	cpc	r25, r18
    1c58:	11 f4       	brne	.+4      	; 0x1c5e <sysclk_enable_peripheral_clock+0x66>
    1c5a:	62 e0       	ldi	r22, 0x02	; 2
    1c5c:	0b c0       	rjmp	.+22     	; 0x1c74 <sysclk_enable_peripheral_clock+0x7c>
    1c5e:	80 34       	cpi	r24, 0x40	; 64
    1c60:	22 e0       	ldi	r18, 0x02	; 2
    1c62:	92 07       	cpc	r25, r18
    1c64:	11 f4       	brne	.+4      	; 0x1c6a <sysclk_enable_peripheral_clock+0x72>
    1c66:	62 e0       	ldi	r22, 0x02	; 2
    1c68:	0c c0       	rjmp	.+24     	; 0x1c82 <sysclk_enable_peripheral_clock+0x8a>
    1c6a:	81 15       	cp	r24, r1
    1c6c:	23 e0       	ldi	r18, 0x03	; 3
    1c6e:	92 07       	cpc	r25, r18
    1c70:	19 f4       	brne	.+6      	; 0x1c78 <sysclk_enable_peripheral_clock+0x80>
    1c72:	64 e0       	ldi	r22, 0x04	; 4
    1c74:	81 e0       	ldi	r24, 0x01	; 1
    1c76:	b1 c0       	rjmp	.+354    	; 0x1dda <sysclk_enable_peripheral_clock+0x1e2>
    1c78:	80 32       	cpi	r24, 0x20	; 32
    1c7a:	23 e0       	ldi	r18, 0x03	; 3
    1c7c:	92 07       	cpc	r25, r18
    1c7e:	19 f4       	brne	.+6      	; 0x1c86 <sysclk_enable_peripheral_clock+0x8e>
    1c80:	64 e0       	ldi	r22, 0x04	; 4
    1c82:	82 e0       	ldi	r24, 0x02	; 2
    1c84:	aa c0       	rjmp	.+340    	; 0x1dda <sysclk_enable_peripheral_clock+0x1e2>
    1c86:	81 15       	cp	r24, r1
    1c88:	28 e0       	ldi	r18, 0x08	; 8
    1c8a:	92 07       	cpc	r25, r18
    1c8c:	11 f4       	brne	.+4      	; 0x1c92 <sysclk_enable_peripheral_clock+0x9a>
    1c8e:	61 e0       	ldi	r22, 0x01	; 1
    1c90:	8f c0       	rjmp	.+286    	; 0x1db0 <sysclk_enable_peripheral_clock+0x1b8>
    1c92:	81 15       	cp	r24, r1
    1c94:	29 e0       	ldi	r18, 0x09	; 9
    1c96:	92 07       	cpc	r25, r18
    1c98:	11 f4       	brne	.+4      	; 0x1c9e <sysclk_enable_peripheral_clock+0xa6>
    1c9a:	61 e0       	ldi	r22, 0x01	; 1
    1c9c:	90 c0       	rjmp	.+288    	; 0x1dbe <sysclk_enable_peripheral_clock+0x1c6>
    1c9e:	81 15       	cp	r24, r1
    1ca0:	2a e0       	ldi	r18, 0x0A	; 10
    1ca2:	92 07       	cpc	r25, r18
    1ca4:	11 f4       	brne	.+4      	; 0x1caa <sysclk_enable_peripheral_clock+0xb2>
    1ca6:	61 e0       	ldi	r22, 0x01	; 1
    1ca8:	91 c0       	rjmp	.+290    	; 0x1dcc <sysclk_enable_peripheral_clock+0x1d4>
    1caa:	81 15       	cp	r24, r1
    1cac:	2b e0       	ldi	r18, 0x0B	; 11
    1cae:	92 07       	cpc	r25, r18
    1cb0:	11 f4       	brne	.+4      	; 0x1cb6 <sysclk_enable_peripheral_clock+0xbe>
    1cb2:	61 e0       	ldi	r22, 0x01	; 1
    1cb4:	91 c0       	rjmp	.+290    	; 0x1dd8 <sysclk_enable_peripheral_clock+0x1e0>
    1cb6:	80 34       	cpi	r24, 0x40	; 64
    1cb8:	28 e0       	ldi	r18, 0x08	; 8
    1cba:	92 07       	cpc	r25, r18
    1cbc:	11 f4       	brne	.+4      	; 0x1cc2 <sysclk_enable_peripheral_clock+0xca>
    1cbe:	62 e0       	ldi	r22, 0x02	; 2
    1cc0:	77 c0       	rjmp	.+238    	; 0x1db0 <sysclk_enable_peripheral_clock+0x1b8>
    1cc2:	80 34       	cpi	r24, 0x40	; 64
    1cc4:	29 e0       	ldi	r18, 0x09	; 9
    1cc6:	92 07       	cpc	r25, r18
    1cc8:	11 f4       	brne	.+4      	; 0x1cce <sysclk_enable_peripheral_clock+0xd6>
    1cca:	62 e0       	ldi	r22, 0x02	; 2
    1ccc:	78 c0       	rjmp	.+240    	; 0x1dbe <sysclk_enable_peripheral_clock+0x1c6>
    1cce:	80 34       	cpi	r24, 0x40	; 64
    1cd0:	2a e0       	ldi	r18, 0x0A	; 10
    1cd2:	92 07       	cpc	r25, r18
    1cd4:	11 f4       	brne	.+4      	; 0x1cda <sysclk_enable_peripheral_clock+0xe2>
    1cd6:	62 e0       	ldi	r22, 0x02	; 2
    1cd8:	79 c0       	rjmp	.+242    	; 0x1dcc <sysclk_enable_peripheral_clock+0x1d4>
    1cda:	80 34       	cpi	r24, 0x40	; 64
    1cdc:	2b e0       	ldi	r18, 0x0B	; 11
    1cde:	92 07       	cpc	r25, r18
    1ce0:	11 f4       	brne	.+4      	; 0x1ce6 <sysclk_enable_peripheral_clock+0xee>
    1ce2:	62 e0       	ldi	r22, 0x02	; 2
    1ce4:	79 c0       	rjmp	.+242    	; 0x1dd8 <sysclk_enable_peripheral_clock+0x1e0>
    1ce6:	80 39       	cpi	r24, 0x90	; 144
    1ce8:	28 e0       	ldi	r18, 0x08	; 8
    1cea:	92 07       	cpc	r25, r18
    1cec:	11 f4       	brne	.+4      	; 0x1cf2 <sysclk_enable_peripheral_clock+0xfa>
    1cee:	64 e0       	ldi	r22, 0x04	; 4
    1cf0:	5f c0       	rjmp	.+190    	; 0x1db0 <sysclk_enable_peripheral_clock+0x1b8>
    1cf2:	80 39       	cpi	r24, 0x90	; 144
    1cf4:	29 e0       	ldi	r18, 0x09	; 9
    1cf6:	92 07       	cpc	r25, r18
    1cf8:	11 f4       	brne	.+4      	; 0x1cfe <sysclk_enable_peripheral_clock+0x106>
    1cfa:	64 e0       	ldi	r22, 0x04	; 4
    1cfc:	60 c0       	rjmp	.+192    	; 0x1dbe <sysclk_enable_peripheral_clock+0x1c6>
    1cfe:	80 39       	cpi	r24, 0x90	; 144
    1d00:	2a e0       	ldi	r18, 0x0A	; 10
    1d02:	92 07       	cpc	r25, r18
    1d04:	11 f4       	brne	.+4      	; 0x1d0a <sysclk_enable_peripheral_clock+0x112>
    1d06:	64 e0       	ldi	r22, 0x04	; 4
    1d08:	61 c0       	rjmp	.+194    	; 0x1dcc <sysclk_enable_peripheral_clock+0x1d4>
    1d0a:	80 39       	cpi	r24, 0x90	; 144
    1d0c:	2b e0       	ldi	r18, 0x0B	; 11
    1d0e:	92 07       	cpc	r25, r18
    1d10:	11 f4       	brne	.+4      	; 0x1d16 <sysclk_enable_peripheral_clock+0x11e>
    1d12:	64 e0       	ldi	r22, 0x04	; 4
    1d14:	61 c0       	rjmp	.+194    	; 0x1dd8 <sysclk_enable_peripheral_clock+0x1e0>
    1d16:	80 3c       	cpi	r24, 0xC0	; 192
    1d18:	28 e0       	ldi	r18, 0x08	; 8
    1d1a:	92 07       	cpc	r25, r18
    1d1c:	11 f4       	brne	.+4      	; 0x1d22 <sysclk_enable_peripheral_clock+0x12a>
    1d1e:	68 e0       	ldi	r22, 0x08	; 8
    1d20:	47 c0       	rjmp	.+142    	; 0x1db0 <sysclk_enable_peripheral_clock+0x1b8>
    1d22:	80 3c       	cpi	r24, 0xC0	; 192
    1d24:	29 e0       	ldi	r18, 0x09	; 9
    1d26:	92 07       	cpc	r25, r18
    1d28:	11 f4       	brne	.+4      	; 0x1d2e <sysclk_enable_peripheral_clock+0x136>
    1d2a:	68 e0       	ldi	r22, 0x08	; 8
    1d2c:	48 c0       	rjmp	.+144    	; 0x1dbe <sysclk_enable_peripheral_clock+0x1c6>
    1d2e:	80 3c       	cpi	r24, 0xC0	; 192
    1d30:	2a e0       	ldi	r18, 0x0A	; 10
    1d32:	92 07       	cpc	r25, r18
    1d34:	11 f4       	brne	.+4      	; 0x1d3a <sysclk_enable_peripheral_clock+0x142>
    1d36:	68 e0       	ldi	r22, 0x08	; 8
    1d38:	49 c0       	rjmp	.+146    	; 0x1dcc <sysclk_enable_peripheral_clock+0x1d4>
    1d3a:	80 3c       	cpi	r24, 0xC0	; 192
    1d3c:	2b e0       	ldi	r18, 0x0B	; 11
    1d3e:	92 07       	cpc	r25, r18
    1d40:	11 f4       	brne	.+4      	; 0x1d46 <sysclk_enable_peripheral_clock+0x14e>
    1d42:	68 e0       	ldi	r22, 0x08	; 8
    1d44:	49 c0       	rjmp	.+146    	; 0x1dd8 <sysclk_enable_peripheral_clock+0x1e0>
    1d46:	80 3a       	cpi	r24, 0xA0	; 160
    1d48:	28 e0       	ldi	r18, 0x08	; 8
    1d4a:	92 07       	cpc	r25, r18
    1d4c:	11 f4       	brne	.+4      	; 0x1d52 <sysclk_enable_peripheral_clock+0x15a>
    1d4e:	60 e1       	ldi	r22, 0x10	; 16
    1d50:	2f c0       	rjmp	.+94     	; 0x1db0 <sysclk_enable_peripheral_clock+0x1b8>
    1d52:	80 3a       	cpi	r24, 0xA0	; 160
    1d54:	29 e0       	ldi	r18, 0x09	; 9
    1d56:	92 07       	cpc	r25, r18
    1d58:	11 f4       	brne	.+4      	; 0x1d5e <sysclk_enable_peripheral_clock+0x166>
    1d5a:	60 e1       	ldi	r22, 0x10	; 16
    1d5c:	30 c0       	rjmp	.+96     	; 0x1dbe <sysclk_enable_peripheral_clock+0x1c6>
    1d5e:	80 3a       	cpi	r24, 0xA0	; 160
    1d60:	2a e0       	ldi	r18, 0x0A	; 10
    1d62:	92 07       	cpc	r25, r18
    1d64:	11 f4       	brne	.+4      	; 0x1d6a <sysclk_enable_peripheral_clock+0x172>
    1d66:	60 e1       	ldi	r22, 0x10	; 16
    1d68:	31 c0       	rjmp	.+98     	; 0x1dcc <sysclk_enable_peripheral_clock+0x1d4>
    1d6a:	80 3a       	cpi	r24, 0xA0	; 160
    1d6c:	2b e0       	ldi	r18, 0x0B	; 11
    1d6e:	92 07       	cpc	r25, r18
    1d70:	11 f4       	brne	.+4      	; 0x1d76 <sysclk_enable_peripheral_clock+0x17e>
    1d72:	60 e1       	ldi	r22, 0x10	; 16
    1d74:	31 c0       	rjmp	.+98     	; 0x1dd8 <sysclk_enable_peripheral_clock+0x1e0>
    1d76:	80 3b       	cpi	r24, 0xB0	; 176
    1d78:	28 e0       	ldi	r18, 0x08	; 8
    1d7a:	92 07       	cpc	r25, r18
    1d7c:	11 f4       	brne	.+4      	; 0x1d82 <sysclk_enable_peripheral_clock+0x18a>
    1d7e:	60 e2       	ldi	r22, 0x20	; 32
    1d80:	17 c0       	rjmp	.+46     	; 0x1db0 <sysclk_enable_peripheral_clock+0x1b8>
    1d82:	80 3b       	cpi	r24, 0xB0	; 176
    1d84:	29 e0       	ldi	r18, 0x09	; 9
    1d86:	92 07       	cpc	r25, r18
    1d88:	11 f4       	brne	.+4      	; 0x1d8e <sysclk_enable_peripheral_clock+0x196>
    1d8a:	60 e2       	ldi	r22, 0x20	; 32
    1d8c:	18 c0       	rjmp	.+48     	; 0x1dbe <sysclk_enable_peripheral_clock+0x1c6>
    1d8e:	80 3b       	cpi	r24, 0xB0	; 176
    1d90:	2a e0       	ldi	r18, 0x0A	; 10
    1d92:	92 07       	cpc	r25, r18
    1d94:	11 f4       	brne	.+4      	; 0x1d9a <sysclk_enable_peripheral_clock+0x1a2>
    1d96:	60 e2       	ldi	r22, 0x20	; 32
    1d98:	19 c0       	rjmp	.+50     	; 0x1dcc <sysclk_enable_peripheral_clock+0x1d4>
    1d9a:	80 3b       	cpi	r24, 0xB0	; 176
    1d9c:	2b e0       	ldi	r18, 0x0B	; 11
    1d9e:	92 07       	cpc	r25, r18
    1da0:	11 f4       	brne	.+4      	; 0x1da6 <sysclk_enable_peripheral_clock+0x1ae>
    1da2:	60 e2       	ldi	r22, 0x20	; 32
    1da4:	19 c0       	rjmp	.+50     	; 0x1dd8 <sysclk_enable_peripheral_clock+0x1e0>
    1da6:	80 38       	cpi	r24, 0x80	; 128
    1da8:	24 e0       	ldi	r18, 0x04	; 4
    1daa:	92 07       	cpc	r25, r18
    1dac:	19 f4       	brne	.+6      	; 0x1db4 <sysclk_enable_peripheral_clock+0x1bc>
    1dae:	60 e4       	ldi	r22, 0x40	; 64
    1db0:	83 e0       	ldi	r24, 0x03	; 3
    1db2:	13 c0       	rjmp	.+38     	; 0x1dda <sysclk_enable_peripheral_clock+0x1e2>
    1db4:	80 39       	cpi	r24, 0x90	; 144
    1db6:	24 e0       	ldi	r18, 0x04	; 4
    1db8:	92 07       	cpc	r25, r18
    1dba:	19 f4       	brne	.+6      	; 0x1dc2 <sysclk_enable_peripheral_clock+0x1ca>
    1dbc:	60 e4       	ldi	r22, 0x40	; 64
    1dbe:	84 e0       	ldi	r24, 0x04	; 4
    1dc0:	0c c0       	rjmp	.+24     	; 0x1dda <sysclk_enable_peripheral_clock+0x1e2>
    1dc2:	80 3a       	cpi	r24, 0xA0	; 160
    1dc4:	24 e0       	ldi	r18, 0x04	; 4
    1dc6:	92 07       	cpc	r25, r18
    1dc8:	19 f4       	brne	.+6      	; 0x1dd0 <sysclk_enable_peripheral_clock+0x1d8>
    1dca:	60 e4       	ldi	r22, 0x40	; 64
    1dcc:	85 e0       	ldi	r24, 0x05	; 5
    1dce:	05 c0       	rjmp	.+10     	; 0x1dda <sysclk_enable_peripheral_clock+0x1e2>
    1dd0:	80 3b       	cpi	r24, 0xB0	; 176
    1dd2:	94 40       	sbci	r25, 0x04	; 4
    1dd4:	21 f4       	brne	.+8      	; 0x1dde <sysclk_enable_peripheral_clock+0x1e6>
    1dd6:	60 e4       	ldi	r22, 0x40	; 64
    1dd8:	86 e0       	ldi	r24, 0x06	; 6
    1dda:	0c 94 08 03 	jmp	0x610	; 0x610 <sysclk_enable_module>
    1dde:	08 95       	ret

00001de0 <usart_putchar>:
    1de0:	fc 01       	movw	r30, r24
    1de2:	21 81       	ldd	r18, Z+1	; 0x01
    1de4:	25 ff       	sbrs	r18, 5
    1de6:	fc cf       	rjmp	.-8      	; 0x1de0 <usart_putchar>
    1de8:	60 83       	st	Z, r22
    1dea:	80 e0       	ldi	r24, 0x00	; 0
    1dec:	90 e0       	ldi	r25, 0x00	; 0
    1dee:	08 95       	ret

00001df0 <usart_getchar>:
    1df0:	fc 01       	movw	r30, r24
    1df2:	21 81       	ldd	r18, Z+1	; 0x01
    1df4:	27 ff       	sbrs	r18, 7
    1df6:	fc cf       	rjmp	.-8      	; 0x1df0 <usart_getchar>
    1df8:	80 81       	ld	r24, Z
    1dfa:	08 95       	ret

00001dfc <usart_set_baudrate>:
    1dfc:	8f 92       	push	r8
    1dfe:	9f 92       	push	r9
    1e00:	af 92       	push	r10
    1e02:	bf 92       	push	r11
    1e04:	cf 92       	push	r12
    1e06:	df 92       	push	r13
    1e08:	ef 92       	push	r14
    1e0a:	ff 92       	push	r15
    1e0c:	0f 93       	push	r16
    1e0e:	1f 93       	push	r17
    1e10:	cf 93       	push	r28
    1e12:	df 93       	push	r29
    1e14:	ec 01       	movw	r28, r24
    1e16:	6a 01       	movw	r12, r20
    1e18:	7b 01       	movw	r14, r22
    1e1a:	48 01       	movw	r8, r16
    1e1c:	59 01       	movw	r10, r18
    1e1e:	8c 81       	ldd	r24, Y+4	; 0x04
    1e20:	b9 01       	movw	r22, r18
    1e22:	a8 01       	movw	r20, r16
    1e24:	82 ff       	sbrs	r24, 2
    1e26:	11 c0       	rjmp	.+34     	; 0x1e4a <usart_set_baudrate+0x4e>
    1e28:	33 e0       	ldi	r19, 0x03	; 3
    1e2a:	76 95       	lsr	r23
    1e2c:	67 95       	ror	r22
    1e2e:	57 95       	ror	r21
    1e30:	47 95       	ror	r20
    1e32:	3a 95       	dec	r19
    1e34:	d1 f7       	brne	.-12     	; 0x1e2a <usart_set_baudrate+0x2e>
    1e36:	d5 01       	movw	r26, r10
    1e38:	c4 01       	movw	r24, r8
    1e3a:	e6 e1       	ldi	r30, 0x16	; 22
    1e3c:	b6 95       	lsr	r27
    1e3e:	a7 95       	ror	r26
    1e40:	97 95       	ror	r25
    1e42:	87 95       	ror	r24
    1e44:	ea 95       	dec	r30
    1e46:	d1 f7       	brne	.-12     	; 0x1e3c <usart_set_baudrate+0x40>
    1e48:	10 c0       	rjmp	.+32     	; 0x1e6a <usart_set_baudrate+0x6e>
    1e4a:	94 e0       	ldi	r25, 0x04	; 4
    1e4c:	76 95       	lsr	r23
    1e4e:	67 95       	ror	r22
    1e50:	57 95       	ror	r21
    1e52:	47 95       	ror	r20
    1e54:	9a 95       	dec	r25
    1e56:	d1 f7       	brne	.-12     	; 0x1e4c <usart_set_baudrate+0x50>
    1e58:	d9 01       	movw	r26, r18
    1e5a:	c8 01       	movw	r24, r16
    1e5c:	27 e1       	ldi	r18, 0x17	; 23
    1e5e:	b6 95       	lsr	r27
    1e60:	a7 95       	ror	r26
    1e62:	97 95       	ror	r25
    1e64:	87 95       	ror	r24
    1e66:	2a 95       	dec	r18
    1e68:	d1 f7       	brne	.-12     	; 0x1e5e <usart_set_baudrate+0x62>
    1e6a:	4c 15       	cp	r20, r12
    1e6c:	5d 05       	cpc	r21, r13
    1e6e:	6e 05       	cpc	r22, r14
    1e70:	7f 05       	cpc	r23, r15
    1e72:	08 f4       	brcc	.+2      	; 0x1e76 <usart_set_baudrate+0x7a>
    1e74:	98 c0       	rjmp	.+304    	; 0x1fa6 <usart_set_baudrate+0x1aa>
    1e76:	c8 16       	cp	r12, r24
    1e78:	d9 06       	cpc	r13, r25
    1e7a:	ea 06       	cpc	r14, r26
    1e7c:	fb 06       	cpc	r15, r27
    1e7e:	08 f4       	brcc	.+2      	; 0x1e82 <usart_set_baudrate+0x86>
    1e80:	92 c0       	rjmp	.+292    	; 0x1fa6 <usart_set_baudrate+0x1aa>
    1e82:	8c 81       	ldd	r24, Y+4	; 0x04
    1e84:	82 fd       	sbrc	r24, 2
    1e86:	04 c0       	rjmp	.+8      	; 0x1e90 <usart_set_baudrate+0x94>
    1e88:	cc 0c       	add	r12, r12
    1e8a:	dd 1c       	adc	r13, r13
    1e8c:	ee 1c       	adc	r14, r14
    1e8e:	ff 1c       	adc	r15, r15
    1e90:	c5 01       	movw	r24, r10
    1e92:	b4 01       	movw	r22, r8
    1e94:	a7 01       	movw	r20, r14
    1e96:	96 01       	movw	r18, r12
    1e98:	0e 94 16 1a 	call	0x342c	; 0x342c <__udivmodsi4>
    1e9c:	19 ef       	ldi	r17, 0xF9	; 249
    1e9e:	8f ef       	ldi	r24, 0xFF	; 255
    1ea0:	90 e0       	ldi	r25, 0x00	; 0
    1ea2:	a0 e0       	ldi	r26, 0x00	; 0
    1ea4:	b0 e0       	ldi	r27, 0x00	; 0
    1ea6:	28 17       	cp	r18, r24
    1ea8:	39 07       	cpc	r19, r25
    1eaa:	4a 07       	cpc	r20, r26
    1eac:	5b 07       	cpc	r21, r27
    1eae:	58 f0       	brcs	.+22     	; 0x1ec6 <usart_set_baudrate+0xca>
    1eb0:	88 0f       	add	r24, r24
    1eb2:	99 1f       	adc	r25, r25
    1eb4:	aa 1f       	adc	r26, r26
    1eb6:	bb 1f       	adc	r27, r27
    1eb8:	1d 3f       	cpi	r17, 0xFD	; 253
    1eba:	0c f4       	brge	.+2      	; 0x1ebe <usart_set_baudrate+0xc2>
    1ebc:	81 60       	ori	r24, 0x01	; 1
    1ebe:	1f 5f       	subi	r17, 0xFF	; 255
    1ec0:	17 30       	cpi	r17, 0x07	; 7
    1ec2:	89 f7       	brne	.-30     	; 0x1ea6 <usart_set_baudrate+0xaa>
    1ec4:	49 c0       	rjmp	.+146    	; 0x1f58 <usart_set_baudrate+0x15c>
    1ec6:	17 ff       	sbrs	r17, 7
    1ec8:	47 c0       	rjmp	.+142    	; 0x1f58 <usart_set_baudrate+0x15c>
    1eca:	d7 01       	movw	r26, r14
    1ecc:	c6 01       	movw	r24, r12
    1ece:	f3 e0       	ldi	r31, 0x03	; 3
    1ed0:	88 0f       	add	r24, r24
    1ed2:	99 1f       	adc	r25, r25
    1ed4:	aa 1f       	adc	r26, r26
    1ed6:	bb 1f       	adc	r27, r27
    1ed8:	fa 95       	dec	r31
    1eda:	d1 f7       	brne	.-12     	; 0x1ed0 <usart_set_baudrate+0xd4>
    1edc:	88 1a       	sub	r8, r24
    1ede:	99 0a       	sbc	r9, r25
    1ee0:	aa 0a       	sbc	r10, r26
    1ee2:	bb 0a       	sbc	r11, r27
    1ee4:	81 2f       	mov	r24, r17
    1ee6:	01 2e       	mov	r0, r17
    1ee8:	00 0c       	add	r0, r0
    1eea:	99 0b       	sbc	r25, r25
    1eec:	1e 3f       	cpi	r17, 0xFE	; 254
    1eee:	dc f4       	brge	.+54     	; 0x1f26 <usart_set_baudrate+0x12a>
    1ef0:	2d ef       	ldi	r18, 0xFD	; 253
    1ef2:	3f ef       	ldi	r19, 0xFF	; 255
    1ef4:	a9 01       	movw	r20, r18
    1ef6:	48 1b       	sub	r20, r24
    1ef8:	59 0b       	sbc	r21, r25
    1efa:	04 c0       	rjmp	.+8      	; 0x1f04 <usart_set_baudrate+0x108>
    1efc:	88 0c       	add	r8, r8
    1efe:	99 1c       	adc	r9, r9
    1f00:	aa 1c       	adc	r10, r10
    1f02:	bb 1c       	adc	r11, r11
    1f04:	4a 95       	dec	r20
    1f06:	d2 f7       	brpl	.-12     	; 0x1efc <usart_set_baudrate+0x100>
    1f08:	d7 01       	movw	r26, r14
    1f0a:	c6 01       	movw	r24, r12
    1f0c:	b6 95       	lsr	r27
    1f0e:	a7 95       	ror	r26
    1f10:	97 95       	ror	r25
    1f12:	87 95       	ror	r24
    1f14:	bc 01       	movw	r22, r24
    1f16:	cd 01       	movw	r24, r26
    1f18:	68 0d       	add	r22, r8
    1f1a:	79 1d       	adc	r23, r9
    1f1c:	8a 1d       	adc	r24, r10
    1f1e:	9b 1d       	adc	r25, r11
    1f20:	a7 01       	movw	r20, r14
    1f22:	96 01       	movw	r18, r12
    1f24:	16 c0       	rjmp	.+44     	; 0x1f52 <usart_set_baudrate+0x156>
    1f26:	03 96       	adiw	r24, 0x03	; 3
    1f28:	a7 01       	movw	r20, r14
    1f2a:	96 01       	movw	r18, r12
    1f2c:	04 c0       	rjmp	.+8      	; 0x1f36 <usart_set_baudrate+0x13a>
    1f2e:	22 0f       	add	r18, r18
    1f30:	33 1f       	adc	r19, r19
    1f32:	44 1f       	adc	r20, r20
    1f34:	55 1f       	adc	r21, r21
    1f36:	8a 95       	dec	r24
    1f38:	d2 f7       	brpl	.-12     	; 0x1f2e <usart_set_baudrate+0x132>
    1f3a:	da 01       	movw	r26, r20
    1f3c:	c9 01       	movw	r24, r18
    1f3e:	b6 95       	lsr	r27
    1f40:	a7 95       	ror	r26
    1f42:	97 95       	ror	r25
    1f44:	87 95       	ror	r24
    1f46:	bc 01       	movw	r22, r24
    1f48:	cd 01       	movw	r24, r26
    1f4a:	68 0d       	add	r22, r8
    1f4c:	79 1d       	adc	r23, r9
    1f4e:	8a 1d       	adc	r24, r10
    1f50:	9b 1d       	adc	r25, r11
    1f52:	0e 94 16 1a 	call	0x342c	; 0x342c <__udivmodsi4>
    1f56:	1d c0       	rjmp	.+58     	; 0x1f92 <usart_set_baudrate+0x196>
    1f58:	83 e0       	ldi	r24, 0x03	; 3
    1f5a:	81 0f       	add	r24, r17
    1f5c:	a7 01       	movw	r20, r14
    1f5e:	96 01       	movw	r18, r12
    1f60:	04 c0       	rjmp	.+8      	; 0x1f6a <usart_set_baudrate+0x16e>
    1f62:	22 0f       	add	r18, r18
    1f64:	33 1f       	adc	r19, r19
    1f66:	44 1f       	adc	r20, r20
    1f68:	55 1f       	adc	r21, r21
    1f6a:	8a 95       	dec	r24
    1f6c:	d2 f7       	brpl	.-12     	; 0x1f62 <usart_set_baudrate+0x166>
    1f6e:	da 01       	movw	r26, r20
    1f70:	c9 01       	movw	r24, r18
    1f72:	b6 95       	lsr	r27
    1f74:	a7 95       	ror	r26
    1f76:	97 95       	ror	r25
    1f78:	87 95       	ror	r24
    1f7a:	bc 01       	movw	r22, r24
    1f7c:	cd 01       	movw	r24, r26
    1f7e:	68 0d       	add	r22, r8
    1f80:	79 1d       	adc	r23, r9
    1f82:	8a 1d       	adc	r24, r10
    1f84:	9b 1d       	adc	r25, r11
    1f86:	0e 94 16 1a 	call	0x342c	; 0x342c <__udivmodsi4>
    1f8a:	21 50       	subi	r18, 0x01	; 1
    1f8c:	31 09       	sbc	r19, r1
    1f8e:	41 09       	sbc	r20, r1
    1f90:	51 09       	sbc	r21, r1
    1f92:	93 2f       	mov	r25, r19
    1f94:	9f 70       	andi	r25, 0x0F	; 15
    1f96:	81 2f       	mov	r24, r17
    1f98:	82 95       	swap	r24
    1f9a:	80 7f       	andi	r24, 0xF0	; 240
    1f9c:	89 2b       	or	r24, r25
    1f9e:	8f 83       	std	Y+7, r24	; 0x07
    1fa0:	2e 83       	std	Y+6, r18	; 0x06
    1fa2:	81 e0       	ldi	r24, 0x01	; 1
    1fa4:	01 c0       	rjmp	.+2      	; 0x1fa8 <usart_set_baudrate+0x1ac>
    1fa6:	80 e0       	ldi	r24, 0x00	; 0
    1fa8:	df 91       	pop	r29
    1faa:	cf 91       	pop	r28
    1fac:	1f 91       	pop	r17
    1fae:	0f 91       	pop	r16
    1fb0:	ff 90       	pop	r15
    1fb2:	ef 90       	pop	r14
    1fb4:	df 90       	pop	r13
    1fb6:	cf 90       	pop	r12
    1fb8:	bf 90       	pop	r11
    1fba:	af 90       	pop	r10
    1fbc:	9f 90       	pop	r9
    1fbe:	8f 90       	pop	r8
    1fc0:	08 95       	ret

00001fc2 <usart_init_rs232>:
    1fc2:	0f 93       	push	r16
    1fc4:	1f 93       	push	r17
    1fc6:	cf 93       	push	r28
    1fc8:	df 93       	push	r29
    1fca:	ec 01       	movw	r28, r24
    1fcc:	8b 01       	movw	r16, r22
    1fce:	14 de       	rcall	.-984    	; 0x1bf8 <sysclk_enable_peripheral_clock>
    1fd0:	8d 81       	ldd	r24, Y+5	; 0x05
    1fd2:	8f 73       	andi	r24, 0x3F	; 63
    1fd4:	8d 83       	std	Y+5, r24	; 0x05
    1fd6:	f8 01       	movw	r30, r16
    1fd8:	95 81       	ldd	r25, Z+5	; 0x05
    1fda:	84 81       	ldd	r24, Z+4	; 0x04
    1fdc:	98 2b       	or	r25, r24
    1fde:	86 81       	ldd	r24, Z+6	; 0x06
    1fe0:	81 11       	cpse	r24, r1
    1fe2:	88 e0       	ldi	r24, 0x08	; 8
    1fe4:	89 2b       	or	r24, r25
    1fe6:	8d 83       	std	Y+5, r24	; 0x05
    1fe8:	f8 01       	movw	r30, r16
    1fea:	40 81       	ld	r20, Z
    1fec:	51 81       	ldd	r21, Z+1	; 0x01
    1fee:	62 81       	ldd	r22, Z+2	; 0x02
    1ff0:	73 81       	ldd	r23, Z+3	; 0x03
    1ff2:	00 e0       	ldi	r16, 0x00	; 0
    1ff4:	18 e4       	ldi	r17, 0x48	; 72
    1ff6:	28 ee       	ldi	r18, 0xE8	; 232
    1ff8:	31 e0       	ldi	r19, 0x01	; 1
    1ffa:	ce 01       	movw	r24, r28
    1ffc:	ff de       	rcall	.-514    	; 0x1dfc <usart_set_baudrate>
    1ffe:	9c 81       	ldd	r25, Y+4	; 0x04
    2000:	98 60       	ori	r25, 0x08	; 8
    2002:	9c 83       	std	Y+4, r25	; 0x04
    2004:	9c 81       	ldd	r25, Y+4	; 0x04
    2006:	90 61       	ori	r25, 0x10	; 16
    2008:	9c 83       	std	Y+4, r25	; 0x04
    200a:	df 91       	pop	r29
    200c:	cf 91       	pop	r28
    200e:	1f 91       	pop	r17
    2010:	0f 91       	pop	r16
    2012:	08 95       	ret

00002014 <Get_altitude>:
    2014:	8f 92       	push	r8
    2016:	9f 92       	push	r9
    2018:	af 92       	push	r10
    201a:	bf 92       	push	r11
    201c:	cf 92       	push	r12
    201e:	df 92       	push	r13
    2020:	ef 92       	push	r14
    2022:	ff 92       	push	r15
    2024:	0f 93       	push	r16
    2026:	1f 93       	push	r17
    2028:	cf 93       	push	r28
    202a:	df 93       	push	r29
    202c:	4b 01       	movw	r8, r22
    202e:	5c 01       	movw	r10, r24
    2030:	89 01       	movw	r16, r18
    2032:	d4 2f       	mov	r29, r20
    2034:	c5 2f       	mov	r28, r21
    2036:	5f 93       	push	r21
    2038:	4f 93       	push	r20
    203a:	1f 93       	push	r17
    203c:	2f 93       	push	r18
    203e:	84 e1       	ldi	r24, 0x14	; 20
    2040:	90 e2       	ldi	r25, 0x20	; 32
    2042:	9f 93       	push	r25
    2044:	8f 93       	push	r24
    2046:	0e 94 91 1b 	call	0x3722	; 0x3722 <printf>
    204a:	84 e6       	ldi	r24, 0x64	; 100
    204c:	c8 2e       	mov	r12, r24
    204e:	d1 2c       	mov	r13, r1
    2050:	e1 2c       	mov	r14, r1
    2052:	f1 2c       	mov	r15, r1
    2054:	c5 01       	movw	r24, r10
    2056:	b4 01       	movw	r22, r8
    2058:	a7 01       	movw	r20, r14
    205a:	96 01       	movw	r18, r12
    205c:	0e 94 16 1a 	call	0x342c	; 0x342c <__udivmodsi4>
    2060:	49 01       	movw	r8, r18
    2062:	5a 01       	movw	r10, r20
    2064:	b8 01       	movw	r22, r16
    2066:	8d 2f       	mov	r24, r29
    2068:	9c 2f       	mov	r25, r28
    206a:	a7 01       	movw	r20, r14
    206c:	96 01       	movw	r18, r12
    206e:	0e 94 16 1a 	call	0x342c	; 0x342c <__udivmodsi4>
    2072:	c5 01       	movw	r24, r10
    2074:	b4 01       	movw	r22, r8
    2076:	0e 94 16 1a 	call	0x342c	; 0x342c <__udivmodsi4>
    207a:	ca 01       	movw	r24, r20
    207c:	b9 01       	movw	r22, r18
    207e:	80 d7       	rcall	.+3840   	; 0x2f80 <__floatunsisf>
    2080:	24 eb       	ldi	r18, 0xB4	; 180
    2082:	39 ec       	ldi	r19, 0xC9	; 201
    2084:	42 e4       	ldi	r20, 0x42	; 66
    2086:	5e e3       	ldi	r21, 0x3E	; 62
    2088:	0e 94 f6 18 	call	0x31ec	; 0x31ec <pow>
    208c:	4b 01       	movw	r8, r22
    208e:	5c 01       	movw	r10, r24
    2090:	60 91 b9 20 	lds	r22, 0x20B9	; 0x8020b9 <TEMP>
    2094:	70 91 ba 20 	lds	r23, 0x20BA	; 0x8020ba <TEMP+0x1>
    2098:	80 91 bb 20 	lds	r24, 0x20BB	; 0x8020bb <TEMP+0x2>
    209c:	90 91 bc 20 	lds	r25, 0x20BC	; 0x8020bc <TEMP+0x3>
    20a0:	a7 01       	movw	r20, r14
    20a2:	96 01       	movw	r18, r12
    20a4:	0e 94 38 1a 	call	0x3470	; 0x3470 <__divmodsi4>
    20a8:	ca 01       	movw	r24, r20
    20aa:	b9 01       	movw	r22, r18
    20ac:	6b d7       	rcall	.+3798   	; 0x2f84 <__floatsisf>
    20ae:	23 e3       	ldi	r18, 0x33	; 51
    20b0:	33 e9       	ldi	r19, 0x93	; 147
    20b2:	48 e8       	ldi	r20, 0x88	; 136
    20b4:	53 e4       	ldi	r21, 0x43	; 67
    20b6:	67 d6       	rcall	.+3278   	; 0x2d86 <__addsf3>
    20b8:	6b 01       	movw	r12, r22
    20ba:	7c 01       	movw	r14, r24
    20bc:	20 e0       	ldi	r18, 0x00	; 0
    20be:	30 e0       	ldi	r19, 0x00	; 0
    20c0:	40 e8       	ldi	r20, 0x80	; 128
    20c2:	5f e3       	ldi	r21, 0x3F	; 63
    20c4:	c5 01       	movw	r24, r10
    20c6:	b4 01       	movw	r22, r8
    20c8:	5d d6       	rcall	.+3258   	; 0x2d84 <__subsf3>
    20ca:	9b 01       	movw	r18, r22
    20cc:	ac 01       	movw	r20, r24
    20ce:	c7 01       	movw	r24, r14
    20d0:	b6 01       	movw	r22, r12
    20d2:	0e 94 93 18 	call	0x3126	; 0x3126 <__mulsf3>
    20d6:	24 ef       	ldi	r18, 0xF4	; 244
    20d8:	3d ef       	ldi	r19, 0xFD	; 253
    20da:	44 ed       	ldi	r20, 0xD4	; 212
    20dc:	5b e3       	ldi	r21, 0x3B	; 59
    20de:	b7 d6       	rcall	.+3438   	; 0x2e4e <__divsf3>
    20e0:	0f 90       	pop	r0
    20e2:	0f 90       	pop	r0
    20e4:	0f 90       	pop	r0
    20e6:	0f 90       	pop	r0
    20e8:	0f 90       	pop	r0
    20ea:	0f 90       	pop	r0
    20ec:	df 91       	pop	r29
    20ee:	cf 91       	pop	r28
    20f0:	1f 91       	pop	r17
    20f2:	0f 91       	pop	r16
    20f4:	ff 90       	pop	r15
    20f6:	ef 90       	pop	r14
    20f8:	df 90       	pop	r13
    20fa:	cf 90       	pop	r12
    20fc:	bf 90       	pop	r11
    20fe:	af 90       	pop	r10
    2100:	9f 90       	pop	r9
    2102:	8f 90       	pop	r8
    2104:	08 95       	ret

00002106 <__portable_avr_delay_cycles.constprop.0>:
    2106:	86 e5       	ldi	r24, 0x56	; 86
    2108:	95 e8       	ldi	r25, 0x85	; 133
    210a:	a5 e4       	ldi	r26, 0x45	; 69
    210c:	b1 e0       	ldi	r27, 0x01	; 1
    210e:	01 97       	sbiw	r24, 0x01	; 1
    2110:	a1 09       	sbc	r26, r1
    2112:	b1 09       	sbc	r27, r1
    2114:	e1 f7       	brne	.-8      	; 0x210e <__portable_avr_delay_cycles.constprop.0+0x8>
    2116:	08 95       	ret

00002118 <heatshield_detatch_hotwire>:
    2118:	cf 93       	push	r28
    211a:	df 93       	push	r29
    211c:	c0 e6       	ldi	r28, 0x60	; 96
    211e:	d6 e0       	ldi	r29, 0x06	; 6
    2120:	88 81       	ld	r24, Y
    2122:	82 60       	ori	r24, 0x02	; 2
    2124:	88 83       	st	Y, r24
    2126:	8c 81       	ldd	r24, Y+4	; 0x04
    2128:	82 60       	ori	r24, 0x02	; 2
    212a:	8c 83       	std	Y+4, r24	; 0x04
    212c:	ec df       	rcall	.-40     	; 0x2106 <__portable_avr_delay_cycles.constprop.0>
    212e:	8c 81       	ldd	r24, Y+4	; 0x04
    2130:	8d 7f       	andi	r24, 0xFD	; 253
    2132:	8c 83       	std	Y+4, r24	; 0x04
    2134:	df 91       	pop	r29
    2136:	cf 91       	pop	r28
    2138:	08 95       	ret

0000213a <parachute_hotwire>:
    213a:	ee cf       	rjmp	.-36     	; 0x2118 <heatshield_detatch_hotwire>

0000213c <heatshield_hotwire>:
    213c:	ed cf       	rjmp	.-38     	; 0x2118 <heatshield_detatch_hotwire>

0000213e <buzzer_on>:
    213e:	e0 e0       	ldi	r30, 0x00	; 0
    2140:	f6 e0       	ldi	r31, 0x06	; 6
    2142:	80 81       	ld	r24, Z
    2144:	88 60       	ori	r24, 0x08	; 8
    2146:	80 83       	st	Z, r24
    2148:	84 81       	ldd	r24, Z+4	; 0x04
    214a:	88 60       	ori	r24, 0x08	; 8
    214c:	84 83       	std	Z+4, r24	; 0x04
    214e:	08 95       	ret

00002150 <buzzer_off>:
    2150:	e0 e0       	ldi	r30, 0x00	; 0
    2152:	f6 e0       	ldi	r31, 0x06	; 6
    2154:	80 81       	ld	r24, Z
    2156:	88 60       	ori	r24, 0x08	; 8
    2158:	80 83       	st	Z, r24
    215a:	84 81       	ldd	r24, Z+4	; 0x04
    215c:	87 7f       	andi	r24, 0xF7	; 247
    215e:	84 83       	std	Z+4, r24	; 0x04
    2160:	08 95       	ret

00002162 <camera_on>:
    2162:	e0 e8       	ldi	r30, 0x80	; 128
    2164:	f6 e0       	ldi	r31, 0x06	; 6
    2166:	80 81       	ld	r24, Z
    2168:	80 64       	ori	r24, 0x40	; 64
    216a:	80 83       	st	Z, r24
    216c:	84 81       	ldd	r24, Z+4	; 0x04
    216e:	80 64       	ori	r24, 0x40	; 64
    2170:	84 83       	std	Z+4, r24	; 0x04
    2172:	08 95       	ret

00002174 <__portable_avr_delay_cycles>:
    2174:	04 c0       	rjmp	.+8      	; 0x217e <__portable_avr_delay_cycles+0xa>
    2176:	61 50       	subi	r22, 0x01	; 1
    2178:	71 09       	sbc	r23, r1
    217a:	81 09       	sbc	r24, r1
    217c:	91 09       	sbc	r25, r1
    217e:	61 15       	cp	r22, r1
    2180:	71 05       	cpc	r23, r1
    2182:	81 05       	cpc	r24, r1
    2184:	91 05       	cpc	r25, r1
    2186:	b9 f7       	brne	.-18     	; 0x2176 <__portable_avr_delay_cycles+0x2>
    2188:	08 95       	ret

0000218a <SPI_init>:
    218a:	e0 e4       	ldi	r30, 0x40	; 64
    218c:	f6 e0       	ldi	r31, 0x06	; 6
    218e:	80 eb       	ldi	r24, 0xB0	; 176
    2190:	81 83       	std	Z+1, r24	; 0x01
    2192:	90 e4       	ldi	r25, 0x40	; 64
    2194:	92 83       	std	Z+2, r25	; 0x02
    2196:	85 83       	std	Z+5, r24	; 0x05
    2198:	83 e5       	ldi	r24, 0x53	; 83
    219a:	80 93 c0 08 	sts	0x08C0, r24	; 0x8008c0 <__TEXT_REGION_LENGTH__+0x7008c0>
    219e:	08 95       	ret

000021a0 <SPI_write>:
    21a0:	80 93 c3 08 	sts	0x08C3, r24	; 0x8008c3 <__TEXT_REGION_LENGTH__+0x7008c3>
    21a4:	80 91 c2 08 	lds	r24, 0x08C2	; 0x8008c2 <__TEXT_REGION_LENGTH__+0x7008c2>
    21a8:	87 ff       	sbrs	r24, 7
    21aa:	fc cf       	rjmp	.-8      	; 0x21a4 <SPI_write+0x4>
    21ac:	08 95       	ret

000021ae <spi_read>:
    21ae:	8f ef       	ldi	r24, 0xFF	; 255
    21b0:	f7 df       	rcall	.-18     	; 0x21a0 <SPI_write>
    21b2:	80 91 c3 08 	lds	r24, 0x08C3	; 0x8008c3 <__TEXT_REGION_LENGTH__+0x7008c3>
    21b6:	08 95       	ret

000021b8 <prom_read>:
    21b8:	ff 92       	push	r15
    21ba:	0f 93       	push	r16
    21bc:	1f 93       	push	r17
    21be:	cf 93       	push	r28
    21c0:	df 93       	push	r29
    21c2:	00 e4       	ldi	r16, 0x40	; 64
    21c4:	16 e0       	ldi	r17, 0x06	; 6
    21c6:	90 e1       	ldi	r25, 0x10	; 16
    21c8:	f9 2e       	mov	r15, r25
    21ca:	f8 01       	movw	r30, r16
    21cc:	f6 82       	std	Z+6, r15	; 0x06
    21ce:	e8 df       	rcall	.-48     	; 0x21a0 <SPI_write>
    21d0:	ee df       	rcall	.-36     	; 0x21ae <spi_read>
    21d2:	c8 2f       	mov	r28, r24
    21d4:	d0 e0       	ldi	r29, 0x00	; 0
    21d6:	dc 2f       	mov	r29, r28
    21d8:	cc 27       	eor	r28, r28
    21da:	e9 df       	rcall	.-46     	; 0x21ae <spi_read>
    21dc:	c8 0f       	add	r28, r24
    21de:	d1 1d       	adc	r29, r1
    21e0:	f8 01       	movw	r30, r16
    21e2:	f5 82       	std	Z+5, r15	; 0x05
    21e4:	66 ed       	ldi	r22, 0xD6	; 214
    21e6:	74 e1       	ldi	r23, 0x14	; 20
    21e8:	80 e0       	ldi	r24, 0x00	; 0
    21ea:	90 e0       	ldi	r25, 0x00	; 0
    21ec:	c3 df       	rcall	.-122    	; 0x2174 <__portable_avr_delay_cycles>
    21ee:	ce 01       	movw	r24, r28
    21f0:	df 91       	pop	r29
    21f2:	cf 91       	pop	r28
    21f4:	1f 91       	pop	r17
    21f6:	0f 91       	pop	r16
    21f8:	ff 90       	pop	r15
    21fa:	08 95       	ret

000021fc <ms5607_init>:
    21fc:	1f 93       	push	r17
    21fe:	cf 93       	push	r28
    2200:	df 93       	push	r29
    2202:	c0 e4       	ldi	r28, 0x40	; 64
    2204:	d6 e0       	ldi	r29, 0x06	; 6
    2206:	10 e1       	ldi	r17, 0x10	; 16
    2208:	1e 83       	std	Y+6, r17	; 0x06
    220a:	8e e1       	ldi	r24, 0x1E	; 30
    220c:	c9 df       	rcall	.-110    	; 0x21a0 <SPI_write>
    220e:	1d 83       	std	Y+5, r17	; 0x05
    2210:	66 e5       	ldi	r22, 0x56	; 86
    2212:	70 ed       	ldi	r23, 0xD0	; 208
    2214:	80 e0       	ldi	r24, 0x00	; 0
    2216:	90 e0       	ldi	r25, 0x00	; 0
    2218:	ad df       	rcall	.-166    	; 0x2174 <__portable_avr_delay_cycles>
    221a:	82 ea       	ldi	r24, 0xA2	; 162
    221c:	cd df       	rcall	.-102    	; 0x21b8 <prom_read>
    221e:	80 93 c5 20 	sts	0x20C5, r24	; 0x8020c5 <c1>
    2222:	90 93 c6 20 	sts	0x20C6, r25	; 0x8020c6 <c1+0x1>
    2226:	84 ea       	ldi	r24, 0xA4	; 164
    2228:	c7 df       	rcall	.-114    	; 0x21b8 <prom_read>
    222a:	80 93 c1 20 	sts	0x20C1, r24	; 0x8020c1 <c2>
    222e:	90 93 c2 20 	sts	0x20C2, r25	; 0x8020c2 <c2+0x1>
    2232:	86 ea       	ldi	r24, 0xA6	; 166
    2234:	c1 df       	rcall	.-126    	; 0x21b8 <prom_read>
    2236:	80 93 c7 20 	sts	0x20C7, r24	; 0x8020c7 <c3>
    223a:	90 93 c8 20 	sts	0x20C8, r25	; 0x8020c8 <c3+0x1>
    223e:	88 ea       	ldi	r24, 0xA8	; 168
    2240:	bb df       	rcall	.-138    	; 0x21b8 <prom_read>
    2242:	80 93 bf 20 	sts	0x20BF, r24	; 0x8020bf <c4>
    2246:	90 93 c0 20 	sts	0x20C0, r25	; 0x8020c0 <c4+0x1>
    224a:	8a ea       	ldi	r24, 0xAA	; 170
    224c:	b5 df       	rcall	.-150    	; 0x21b8 <prom_read>
    224e:	80 93 c3 20 	sts	0x20C3, r24	; 0x8020c3 <c5>
    2252:	90 93 c4 20 	sts	0x20C4, r25	; 0x8020c4 <c5+0x1>
    2256:	8c ea       	ldi	r24, 0xAC	; 172
    2258:	af df       	rcall	.-162    	; 0x21b8 <prom_read>
    225a:	80 93 bd 20 	sts	0x20BD, r24	; 0x8020bd <c6>
    225e:	90 93 be 20 	sts	0x20BE, r25	; 0x8020be <c6+0x1>
    2262:	df 91       	pop	r29
    2264:	cf 91       	pop	r28
    2266:	1f 91       	pop	r17
    2268:	08 95       	ret

0000226a <data_read>:
    226a:	8f 92       	push	r8
    226c:	9f 92       	push	r9
    226e:	af 92       	push	r10
    2270:	bf 92       	push	r11
    2272:	cf 92       	push	r12
    2274:	df 92       	push	r13
    2276:	ef 92       	push	r14
    2278:	ff 92       	push	r15
    227a:	1f 93       	push	r17
    227c:	cf 93       	push	r28
    227e:	df 93       	push	r29
    2280:	c0 e4       	ldi	r28, 0x40	; 64
    2282:	d6 e0       	ldi	r29, 0x06	; 6
    2284:	10 e1       	ldi	r17, 0x10	; 16
    2286:	1e 83       	std	Y+6, r17	; 0x06
    2288:	8b df       	rcall	.-234    	; 0x21a0 <SPI_write>
    228a:	1d 83       	std	Y+5, r17	; 0x05
    228c:	61 e8       	ldi	r22, 0x81	; 129
    228e:	7b eb       	ldi	r23, 0xBB	; 187
    2290:	80 e0       	ldi	r24, 0x00	; 0
    2292:	90 e0       	ldi	r25, 0x00	; 0
    2294:	6f df       	rcall	.-290    	; 0x2174 <__portable_avr_delay_cycles>
    2296:	1e 83       	std	Y+6, r17	; 0x06
    2298:	80 e0       	ldi	r24, 0x00	; 0
    229a:	82 df       	rcall	.-252    	; 0x21a0 <SPI_write>
    229c:	88 df       	rcall	.-240    	; 0x21ae <spi_read>
    229e:	c8 2e       	mov	r12, r24
    22a0:	d1 2c       	mov	r13, r1
    22a2:	e1 2c       	mov	r14, r1
    22a4:	f1 2c       	mov	r15, r1
    22a6:	56 01       	movw	r10, r12
    22a8:	99 24       	eor	r9, r9
    22aa:	88 24       	eor	r8, r8
    22ac:	80 df       	rcall	.-256    	; 0x21ae <spi_read>
    22ae:	c8 2e       	mov	r12, r24
    22b0:	d1 2c       	mov	r13, r1
    22b2:	e1 2c       	mov	r14, r1
    22b4:	f1 2c       	mov	r15, r1
    22b6:	fe 2c       	mov	r15, r14
    22b8:	ed 2c       	mov	r14, r13
    22ba:	dc 2c       	mov	r13, r12
    22bc:	cc 24       	eor	r12, r12
    22be:	c8 0c       	add	r12, r8
    22c0:	d9 1c       	adc	r13, r9
    22c2:	ea 1c       	adc	r14, r10
    22c4:	fb 1c       	adc	r15, r11
    22c6:	73 df       	rcall	.-282    	; 0x21ae <spi_read>
    22c8:	1d 83       	std	Y+5, r17	; 0x05
    22ca:	a7 01       	movw	r20, r14
    22cc:	96 01       	movw	r18, r12
    22ce:	28 0f       	add	r18, r24
    22d0:	31 1d       	adc	r19, r1
    22d2:	41 1d       	adc	r20, r1
    22d4:	51 1d       	adc	r21, r1
    22d6:	ca 01       	movw	r24, r20
    22d8:	b9 01       	movw	r22, r18
    22da:	df 91       	pop	r29
    22dc:	cf 91       	pop	r28
    22de:	1f 91       	pop	r17
    22e0:	ff 90       	pop	r15
    22e2:	ef 90       	pop	r14
    22e4:	df 90       	pop	r13
    22e6:	cf 90       	pop	r12
    22e8:	bf 90       	pop	r11
    22ea:	af 90       	pop	r10
    22ec:	9f 90       	pop	r9
    22ee:	8f 90       	pop	r8
    22f0:	08 95       	ret

000022f2 <get_pressure>:
    22f2:	2f 92       	push	r2
    22f4:	3f 92       	push	r3
    22f6:	4f 92       	push	r4
    22f8:	5f 92       	push	r5
    22fa:	6f 92       	push	r6
    22fc:	7f 92       	push	r7
    22fe:	8f 92       	push	r8
    2300:	9f 92       	push	r9
    2302:	af 92       	push	r10
    2304:	bf 92       	push	r11
    2306:	cf 92       	push	r12
    2308:	df 92       	push	r13
    230a:	ef 92       	push	r14
    230c:	ff 92       	push	r15
    230e:	0f 93       	push	r16
    2310:	1f 93       	push	r17
    2312:	cf 93       	push	r28
    2314:	df 93       	push	r29
    2316:	cd b7       	in	r28, 0x3d	; 61
    2318:	de b7       	in	r29, 0x3e	; 62
    231a:	62 97       	sbiw	r28, 0x12	; 18
    231c:	cd bf       	out	0x3d, r28	; 61
    231e:	de bf       	out	0x3e, r29	; 62
    2320:	88 e4       	ldi	r24, 0x48	; 72
    2322:	a3 df       	rcall	.-186    	; 0x226a <data_read>
    2324:	69 83       	std	Y+1, r22	; 0x01
    2326:	7a 83       	std	Y+2, r23	; 0x02
    2328:	8b 83       	std	Y+3, r24	; 0x03
    232a:	9c 83       	std	Y+4, r25	; 0x04
    232c:	88 e5       	ldi	r24, 0x58	; 88
    232e:	9d df       	rcall	.-198    	; 0x226a <data_read>
    2330:	20 91 c3 20 	lds	r18, 0x20C3	; 0x8020c3 <c5>
    2334:	30 91 c4 20 	lds	r19, 0x20C4	; 0x8020c4 <c5+0x1>
    2338:	89 01       	movw	r16, r18
    233a:	20 e0       	ldi	r18, 0x00	; 0
    233c:	30 e0       	ldi	r19, 0x00	; 0
    233e:	32 2f       	mov	r19, r18
    2340:	21 2f       	mov	r18, r17
    2342:	10 2f       	mov	r17, r16
    2344:	00 27       	eor	r16, r16
    2346:	2b 01       	movw	r4, r22
    2348:	3c 01       	movw	r6, r24
    234a:	40 1a       	sub	r4, r16
    234c:	51 0a       	sbc	r5, r17
    234e:	62 0a       	sbc	r6, r18
    2350:	73 0a       	sbc	r7, r19
    2352:	60 91 bd 20 	lds	r22, 0x20BD	; 0x8020bd <c6>
    2356:	70 91 be 20 	lds	r23, 0x20BE	; 0x8020be <c6+0x1>
    235a:	80 e0       	ldi	r24, 0x00	; 0
    235c:	90 e0       	ldi	r25, 0x00	; 0
    235e:	a3 01       	movw	r20, r6
    2360:	92 01       	movw	r18, r4
    2362:	0e 94 af 1a 	call	0x355e	; 0x355e <__mulsidi3>
    2366:	12 2f       	mov	r17, r18
    2368:	3a 87       	std	Y+10, r19	; 0x0a
    236a:	49 87       	std	Y+9, r20	; 0x09
    236c:	b5 2f       	mov	r27, r21
    236e:	f6 2f       	mov	r31, r22
    2370:	e7 2f       	mov	r30, r23
    2372:	f8 2e       	mov	r15, r24
    2374:	09 2f       	mov	r16, r25
    2376:	a0 e0       	ldi	r26, 0x00	; 0
    2378:	0e 94 2c 1b 	call	0x3658	; 0x3658 <__cmpdi2_s8>
    237c:	84 f4       	brge	.+32     	; 0x239e <get_pressure+0xac>
    237e:	21 50       	subi	r18, 0x01	; 1
    2380:	31 09       	sbc	r19, r1
    2382:	40 48       	sbci	r20, 0x80	; 128
    2384:	5f 4f       	sbci	r21, 0xFF	; 255
    2386:	6f 4f       	sbci	r22, 0xFF	; 255
    2388:	7f 4f       	sbci	r23, 0xFF	; 255
    238a:	8f 4f       	sbci	r24, 0xFF	; 255
    238c:	9f 4f       	sbci	r25, 0xFF	; 255
    238e:	12 2f       	mov	r17, r18
    2390:	3a 87       	std	Y+10, r19	; 0x0a
    2392:	49 87       	std	Y+9, r20	; 0x09
    2394:	b5 2f       	mov	r27, r21
    2396:	f6 2f       	mov	r31, r22
    2398:	e7 2f       	mov	r30, r23
    239a:	f8 2e       	mov	r15, r24
    239c:	09 2f       	mov	r16, r25
    239e:	21 2f       	mov	r18, r17
    23a0:	3a 85       	ldd	r19, Y+10	; 0x0a
    23a2:	49 85       	ldd	r20, Y+9	; 0x09
    23a4:	5b 2f       	mov	r21, r27
    23a6:	6f 2f       	mov	r22, r31
    23a8:	7e 2f       	mov	r23, r30
    23aa:	8f 2d       	mov	r24, r15
    23ac:	90 2f       	mov	r25, r16
    23ae:	07 e1       	ldi	r16, 0x17	; 23
    23b0:	0e 94 fc 1a 	call	0x35f8	; 0x35f8 <__ashrdi3>
    23b4:	49 01       	movw	r8, r18
    23b6:	00 e3       	ldi	r16, 0x30	; 48
    23b8:	80 1a       	sub	r8, r16
    23ba:	08 ef       	ldi	r16, 0xF8	; 248
    23bc:	90 0a       	sbc	r9, r16
    23be:	09 2c       	mov	r0, r9
    23c0:	00 0c       	add	r0, r0
    23c2:	aa 08       	sbc	r10, r10
    23c4:	bb 08       	sbc	r11, r11
    23c6:	80 92 b9 20 	sts	0x20B9, r8	; 0x8020b9 <TEMP>
    23ca:	90 92 ba 20 	sts	0x20BA, r9	; 0x8020ba <TEMP+0x1>
    23ce:	a0 92 bb 20 	sts	0x20BB, r10	; 0x8020bb <TEMP+0x2>
    23d2:	b0 92 bc 20 	sts	0x20BC, r11	; 0x8020bc <TEMP+0x3>
    23d6:	a0 91 c7 20 	lds	r26, 0x20C7	; 0x8020c7 <c3>
    23da:	b0 91 c8 20 	lds	r27, 0x20C8	; 0x8020c8 <c3+0x1>
    23de:	a3 01       	movw	r20, r6
    23e0:	92 01       	movw	r18, r4
    23e2:	0e 94 54 1a 	call	0x34a8	; 0x34a8 <__muluhisi3>
    23e6:	20 e8       	ldi	r18, 0x80	; 128
    23e8:	30 e0       	ldi	r19, 0x00	; 0
    23ea:	40 e0       	ldi	r20, 0x00	; 0
    23ec:	50 e0       	ldi	r21, 0x00	; 0
    23ee:	0e 94 38 1a 	call	0x3470	; 0x3470 <__divmodsi4>
    23f2:	49 01       	movw	r8, r18
    23f4:	5a 01       	movw	r10, r20
    23f6:	69 01       	movw	r12, r18
    23f8:	7a 01       	movw	r14, r20
    23fa:	ff 0c       	add	r15, r15
    23fc:	cc 08       	sbc	r12, r12
    23fe:	dc 2c       	mov	r13, r12
    2400:	76 01       	movw	r14, r12
    2402:	80 91 c5 20 	lds	r24, 0x20C5	; 0x8020c5 <c1>
    2406:	90 91 c6 20 	lds	r25, 0x20C6	; 0x8020c6 <c1+0x1>
    240a:	8c 01       	movw	r16, r24
    240c:	20 e0       	ldi	r18, 0x00	; 0
    240e:	30 e0       	ldi	r19, 0x00	; 0
    2410:	40 e0       	ldi	r20, 0x00	; 0
    2412:	50 e0       	ldi	r21, 0x00	; 0
    2414:	ba 01       	movw	r22, r20
    2416:	1b 87       	std	Y+11, r17	; 0x0b
    2418:	2c 87       	std	Y+12, r18	; 0x0c
    241a:	3d 87       	std	Y+13, r19	; 0x0d
    241c:	4e 87       	std	Y+14, r20	; 0x0e
    241e:	5f 87       	std	Y+15, r21	; 0x0f
    2420:	68 8b       	std	Y+16, r22	; 0x10
    2422:	79 8b       	std	Y+17, r23	; 0x11
    2424:	9c 01       	movw	r18, r24
    2426:	40 e0       	ldi	r20, 0x00	; 0
    2428:	50 e0       	ldi	r21, 0x00	; 0
    242a:	60 e0       	ldi	r22, 0x00	; 0
    242c:	70 e0       	ldi	r23, 0x00	; 0
    242e:	80 e0       	ldi	r24, 0x00	; 0
    2430:	90 e0       	ldi	r25, 0x00	; 0
    2432:	00 e1       	ldi	r16, 0x10	; 16
    2434:	0e 94 e3 1a 	call	0x35c6	; 0x35c6 <__ashldi3>
    2438:	2a 87       	std	Y+10, r18	; 0x0a
    243a:	39 87       	std	Y+9, r19	; 0x09
    243c:	b4 2f       	mov	r27, r20
    243e:	a5 2f       	mov	r26, r21
    2440:	f6 2f       	mov	r31, r22
    2442:	e7 2f       	mov	r30, r23
    2444:	8c 01       	movw	r16, r24
    2446:	94 01       	movw	r18, r8
    2448:	a5 01       	movw	r20, r10
    244a:	6c 2d       	mov	r22, r12
    244c:	7c 2d       	mov	r23, r12
    244e:	8c 2d       	mov	r24, r12
    2450:	9c 2d       	mov	r25, r12
    2452:	aa 84       	ldd	r10, Y+10	; 0x0a
    2454:	b9 84       	ldd	r11, Y+9	; 0x09
    2456:	cb 2e       	mov	r12, r27
    2458:	da 2e       	mov	r13, r26
    245a:	ef 2e       	mov	r14, r31
    245c:	fe 2e       	mov	r15, r30
    245e:	0e 94 1a 1b 	call	0x3634	; 0x3634 <__adddi3>
    2462:	c9 80       	ldd	r12, Y+1	; 0x01
    2464:	da 80       	ldd	r13, Y+2	; 0x02
    2466:	eb 80       	ldd	r14, Y+3	; 0x03
    2468:	fc 80       	ldd	r15, Y+4	; 0x04
    246a:	56 01       	movw	r10, r12
    246c:	67 01       	movw	r12, r14
    246e:	e1 2c       	mov	r14, r1
    2470:	f1 2c       	mov	r15, r1
    2472:	87 01       	movw	r16, r14
    2474:	a9 82       	std	Y+1, r10	; 0x01
    2476:	ba 82       	std	Y+2, r11	; 0x02
    2478:	cb 82       	std	Y+3, r12	; 0x03
    247a:	dc 82       	std	Y+4, r13	; 0x04
    247c:	ed 82       	std	Y+5, r14	; 0x05
    247e:	fe 82       	std	Y+6, r15	; 0x06
    2480:	0f 83       	std	Y+7, r16	; 0x07
    2482:	18 87       	std	Y+8, r17	; 0x08
    2484:	e1 2c       	mov	r14, r1
    2486:	f1 2c       	mov	r15, r1
    2488:	00 e0       	ldi	r16, 0x00	; 0
    248a:	10 e0       	ldi	r17, 0x00	; 0
    248c:	0e 94 5e 1a 	call	0x34bc	; 0x34bc <__muldi3>
    2490:	12 2f       	mov	r17, r18
    2492:	39 87       	std	Y+9, r19	; 0x09
    2494:	49 83       	std	Y+1, r20	; 0x01
    2496:	b5 2f       	mov	r27, r21
    2498:	f6 2f       	mov	r31, r22
    249a:	e7 2f       	mov	r30, r23
    249c:	f8 2e       	mov	r15, r24
    249e:	09 2f       	mov	r16, r25
    24a0:	a0 e0       	ldi	r26, 0x00	; 0
    24a2:	0e 94 2c 1b 	call	0x3658	; 0x3658 <__cmpdi2_s8>
    24a6:	84 f4       	brge	.+32     	; 0x24c8 <get_pressure+0x1d6>
    24a8:	21 50       	subi	r18, 0x01	; 1
    24aa:	31 09       	sbc	r19, r1
    24ac:	40 4e       	sbci	r20, 0xE0	; 224
    24ae:	5f 4f       	sbci	r21, 0xFF	; 255
    24b0:	6f 4f       	sbci	r22, 0xFF	; 255
    24b2:	7f 4f       	sbci	r23, 0xFF	; 255
    24b4:	8f 4f       	sbci	r24, 0xFF	; 255
    24b6:	9f 4f       	sbci	r25, 0xFF	; 255
    24b8:	12 2f       	mov	r17, r18
    24ba:	39 87       	std	Y+9, r19	; 0x09
    24bc:	49 83       	std	Y+1, r20	; 0x01
    24be:	b5 2f       	mov	r27, r21
    24c0:	f6 2f       	mov	r31, r22
    24c2:	e7 2f       	mov	r30, r23
    24c4:	f8 2e       	mov	r15, r24
    24c6:	09 2f       	mov	r16, r25
    24c8:	21 2f       	mov	r18, r17
    24ca:	39 85       	ldd	r19, Y+9	; 0x09
    24cc:	49 81       	ldd	r20, Y+1	; 0x01
    24ce:	5b 2f       	mov	r21, r27
    24d0:	6f 2f       	mov	r22, r31
    24d2:	7e 2f       	mov	r23, r30
    24d4:	8f 2d       	mov	r24, r15
    24d6:	90 2f       	mov	r25, r16
    24d8:	05 e1       	ldi	r16, 0x15	; 21
    24da:	0e 94 fc 1a 	call	0x35f8	; 0x35f8 <__ashrdi3>
    24de:	19 01       	movw	r2, r18
    24e0:	4a 01       	movw	r8, r20
    24e2:	6a 8b       	std	Y+18, r22	; 0x12
    24e4:	7a 87       	std	Y+10, r23	; 0x0a
    24e6:	89 83       	std	Y+1, r24	; 0x01
    24e8:	99 87       	std	Y+9, r25	; 0x09
    24ea:	a0 91 bf 20 	lds	r26, 0x20BF	; 0x8020bf <c4>
    24ee:	b0 91 c0 20 	lds	r27, 0x20C0	; 0x8020c0 <c4+0x1>
    24f2:	a3 01       	movw	r20, r6
    24f4:	92 01       	movw	r18, r4
    24f6:	d8 d7       	rcall	.+4016   	; 0x34a8 <__muluhisi3>
    24f8:	20 e4       	ldi	r18, 0x40	; 64
    24fa:	30 e0       	ldi	r19, 0x00	; 0
    24fc:	40 e0       	ldi	r20, 0x00	; 0
    24fe:	50 e0       	ldi	r21, 0x00	; 0
    2500:	b7 d7       	rcall	.+3950   	; 0x3470 <__divmodsi4>
    2502:	29 01       	movw	r4, r18
    2504:	3a 01       	movw	r6, r20
    2506:	69 01       	movw	r12, r18
    2508:	7a 01       	movw	r14, r20
    250a:	ff 0c       	add	r15, r15
    250c:	cc 08       	sbc	r12, r12
    250e:	dc 2c       	mov	r13, r12
    2510:	76 01       	movw	r14, r12
    2512:	20 91 c1 20 	lds	r18, 0x20C1	; 0x8020c1 <c2>
    2516:	30 91 c2 20 	lds	r19, 0x20C2	; 0x8020c2 <c2+0x1>
    251a:	40 e0       	ldi	r20, 0x00	; 0
    251c:	50 e0       	ldi	r21, 0x00	; 0
    251e:	60 e0       	ldi	r22, 0x00	; 0
    2520:	70 e0       	ldi	r23, 0x00	; 0
    2522:	80 e0       	ldi	r24, 0x00	; 0
    2524:	90 e0       	ldi	r25, 0x00	; 0
    2526:	01 e1       	ldi	r16, 0x11	; 17
    2528:	0e 94 e3 1a 	call	0x35c6	; 0x35c6 <__ashldi3>
    252c:	59 01       	movw	r10, r18
    252e:	b4 2f       	mov	r27, r20
    2530:	a5 2f       	mov	r26, r21
    2532:	f6 2f       	mov	r31, r22
    2534:	e7 2f       	mov	r30, r23
    2536:	8c 01       	movw	r16, r24
    2538:	92 01       	movw	r18, r4
    253a:	a3 01       	movw	r20, r6
    253c:	6c 2d       	mov	r22, r12
    253e:	7c 2d       	mov	r23, r12
    2540:	8c 2d       	mov	r24, r12
    2542:	9c 2d       	mov	r25, r12
    2544:	cb 2e       	mov	r12, r27
    2546:	da 2e       	mov	r13, r26
    2548:	ef 2e       	mov	r14, r31
    254a:	fe 2e       	mov	r15, r30
    254c:	0e 94 1a 1b 	call	0x3634	; 0x3634 <__adddi3>
    2550:	59 01       	movw	r10, r18
    2552:	6a 01       	movw	r12, r20
    2554:	7b 01       	movw	r14, r22
    2556:	8c 01       	movw	r16, r24
    2558:	91 01       	movw	r18, r2
    255a:	a4 01       	movw	r20, r8
    255c:	6a 89       	ldd	r22, Y+18	; 0x12
    255e:	7a 85       	ldd	r23, Y+10	; 0x0a
    2560:	89 81       	ldd	r24, Y+1	; 0x01
    2562:	99 85       	ldd	r25, Y+9	; 0x09
    2564:	0e 94 23 1b 	call	0x3646	; 0x3646 <__subdi3>
    2568:	12 2f       	mov	r17, r18
    256a:	39 87       	std	Y+9, r19	; 0x09
    256c:	49 83       	std	Y+1, r20	; 0x01
    256e:	b5 2f       	mov	r27, r21
    2570:	f6 2f       	mov	r31, r22
    2572:	e7 2f       	mov	r30, r23
    2574:	f8 2e       	mov	r15, r24
    2576:	09 2f       	mov	r16, r25
    2578:	a0 e0       	ldi	r26, 0x00	; 0
    257a:	0e 94 2c 1b 	call	0x3658	; 0x3658 <__cmpdi2_s8>
    257e:	84 f4       	brge	.+32     	; 0x25a0 <get_pressure+0x2ae>
    2580:	21 50       	subi	r18, 0x01	; 1
    2582:	30 48       	sbci	r19, 0x80	; 128
    2584:	4f 4f       	sbci	r20, 0xFF	; 255
    2586:	5f 4f       	sbci	r21, 0xFF	; 255
    2588:	6f 4f       	sbci	r22, 0xFF	; 255
    258a:	7f 4f       	sbci	r23, 0xFF	; 255
    258c:	8f 4f       	sbci	r24, 0xFF	; 255
    258e:	9f 4f       	sbci	r25, 0xFF	; 255
    2590:	12 2f       	mov	r17, r18
    2592:	39 87       	std	Y+9, r19	; 0x09
    2594:	49 83       	std	Y+1, r20	; 0x01
    2596:	b5 2f       	mov	r27, r21
    2598:	f6 2f       	mov	r31, r22
    259a:	e7 2f       	mov	r30, r23
    259c:	f8 2e       	mov	r15, r24
    259e:	09 2f       	mov	r16, r25
    25a0:	21 2f       	mov	r18, r17
    25a2:	39 85       	ldd	r19, Y+9	; 0x09
    25a4:	49 81       	ldd	r20, Y+1	; 0x01
    25a6:	5b 2f       	mov	r21, r27
    25a8:	6f 2f       	mov	r22, r31
    25aa:	7e 2f       	mov	r23, r30
    25ac:	8f 2d       	mov	r24, r15
    25ae:	90 2f       	mov	r25, r16
    25b0:	0f e0       	ldi	r16, 0x0F	; 15
    25b2:	0e 94 fc 1a 	call	0x35f8	; 0x35f8 <__ashrdi3>
    25b6:	b9 01       	movw	r22, r18
    25b8:	ca 01       	movw	r24, r20
    25ba:	62 96       	adiw	r28, 0x12	; 18
    25bc:	cd bf       	out	0x3d, r28	; 61
    25be:	de bf       	out	0x3e, r29	; 62
    25c0:	df 91       	pop	r29
    25c2:	cf 91       	pop	r28
    25c4:	1f 91       	pop	r17
    25c6:	0f 91       	pop	r16
    25c8:	ff 90       	pop	r15
    25ca:	ef 90       	pop	r14
    25cc:	df 90       	pop	r13
    25ce:	cf 90       	pop	r12
    25d0:	bf 90       	pop	r11
    25d2:	af 90       	pop	r10
    25d4:	9f 90       	pop	r9
    25d6:	8f 90       	pop	r8
    25d8:	7f 90       	pop	r7
    25da:	6f 90       	pop	r6
    25dc:	5f 90       	pop	r5
    25de:	4f 90       	pop	r4
    25e0:	3f 90       	pop	r3
    25e2:	2f 90       	pop	r2
    25e4:	08 95       	ret

000025e6 <adc_init>:
    25e6:	ff 92       	push	r15
    25e8:	0f 93       	push	r16
    25ea:	1f 93       	push	r17
    25ec:	cf 93       	push	r28
    25ee:	df 93       	push	r29
    25f0:	e0 e0       	ldi	r30, 0x00	; 0
    25f2:	f6 e0       	ldi	r31, 0x06	; 6
    25f4:	ff 24       	eor	r15, r15
    25f6:	f3 94       	inc	r15
    25f8:	f2 82       	std	Z+2, r15	; 0x02
    25fa:	8e ef       	ldi	r24, 0xFE	; 254
    25fc:	80 83       	st	Z, r24
    25fe:	c0 e0       	ldi	r28, 0x00	; 0
    2600:	d2 e0       	ldi	r29, 0x02	; 2
    2602:	f8 82       	st	Y, r15
    2604:	19 82       	std	Y+1, r1	; 0x01
    2606:	80 e1       	ldi	r24, 0x10	; 16
    2608:	8a 83       	std	Y+2, r24	; 0x02
    260a:	85 e0       	ldi	r24, 0x05	; 5
    260c:	8c 83       	std	Y+4, r24	; 0x04
    260e:	61 e2       	ldi	r22, 0x21	; 33
    2610:	70 e0       	ldi	r23, 0x00	; 0
    2612:	82 e0       	ldi	r24, 0x02	; 2
    2614:	0e 94 32 05 	call	0xa64	; 0xa64 <nvm_read_byte>
    2618:	08 2f       	mov	r16, r24
    261a:	10 e0       	ldi	r17, 0x00	; 0
    261c:	10 2f       	mov	r17, r16
    261e:	00 27       	eor	r16, r16
    2620:	60 e2       	ldi	r22, 0x20	; 32
    2622:	70 e0       	ldi	r23, 0x00	; 0
    2624:	82 e0       	ldi	r24, 0x02	; 2
    2626:	0e 94 32 05 	call	0xa64	; 0xa64 <nvm_read_byte>
    262a:	08 2b       	or	r16, r24
    262c:	0c 87       	std	Y+12, r16	; 0x0c
    262e:	1d 87       	std	Y+13, r17	; 0x0d
    2630:	f8 a2       	std	Y+32, r15	; 0x20
    2632:	86 e0       	ldi	r24, 0x06	; 6
    2634:	89 a3       	std	Y+33, r24	; 0x21
    2636:	df 91       	pop	r29
    2638:	cf 91       	pop	r28
    263a:	1f 91       	pop	r17
    263c:	0f 91       	pop	r16
    263e:	ff 90       	pop	r15
    2640:	08 95       	ret

00002642 <getVoltage>:
    2642:	80 91 20 02 	lds	r24, 0x0220	; 0x800220 <__TEXT_REGION_LENGTH__+0x700220>
    2646:	80 68       	ori	r24, 0x80	; 128
    2648:	80 93 20 02 	sts	0x0220, r24	; 0x800220 <__TEXT_REGION_LENGTH__+0x700220>
    264c:	80 91 23 02 	lds	r24, 0x0223	; 0x800223 <__TEXT_REGION_LENGTH__+0x700223>
    2650:	88 23       	and	r24, r24
    2652:	e1 f3       	breq	.-8      	; 0x264c <getVoltage+0xa>
    2654:	10 92 23 02 	sts	0x0223, r1	; 0x800223 <__TEXT_REGION_LENGTH__+0x700223>
    2658:	60 91 24 02 	lds	r22, 0x0224	; 0x800224 <__TEXT_REGION_LENGTH__+0x700224>
    265c:	70 91 25 02 	lds	r23, 0x0225	; 0x800225 <__TEXT_REGION_LENGTH__+0x700225>
    2660:	80 e0       	ldi	r24, 0x00	; 0
    2662:	90 e0       	ldi	r25, 0x00	; 0
    2664:	8d d4       	rcall	.+2330   	; 0x2f80 <__floatunsisf>
    2666:	22 ea       	ldi	r18, 0xA2	; 162
    2668:	3c e6       	ldi	r19, 0x6C	; 108
    266a:	40 e0       	ldi	r20, 0x00	; 0
    266c:	5a e3       	ldi	r21, 0x3A	; 58
    266e:	5b d5       	rcall	.+2742   	; 0x3126 <__mulsf3>
    2670:	25 e2       	ldi	r18, 0x25	; 37
    2672:	30 e6       	ldi	r19, 0x60	; 96
    2674:	4f ea       	ldi	r20, 0xAF	; 175
    2676:	5d e3       	ldi	r21, 0x3D	; 61
    2678:	85 c3       	rjmp	.+1802   	; 0x2d84 <__subsf3>

0000267a <getTemperature>:
    267a:	8f 92       	push	r8
    267c:	9f 92       	push	r9
    267e:	af 92       	push	r10
    2680:	bf 92       	push	r11
    2682:	cf 92       	push	r12
    2684:	df 92       	push	r13
    2686:	ef 92       	push	r14
    2688:	ff 92       	push	r15
    268a:	db df       	rcall	.-74     	; 0x2642 <getVoltage>
    268c:	6b 01       	movw	r12, r22
    268e:	7c 01       	movw	r14, r24
    2690:	20 e0       	ldi	r18, 0x00	; 0
    2692:	30 e4       	ldi	r19, 0x40	; 64
    2694:	4c e1       	ldi	r20, 0x1C	; 28
    2696:	56 e4       	ldi	r21, 0x46	; 70
    2698:	46 d5       	rcall	.+2700   	; 0x3126 <__mulsf3>
    269a:	4b 01       	movw	r8, r22
    269c:	5c 01       	movw	r10, r24
    269e:	23 e3       	ldi	r18, 0x33	; 51
    26a0:	33 e3       	ldi	r19, 0x33	; 51
    26a2:	43 e5       	ldi	r20, 0x53	; 83
    26a4:	50 e4       	ldi	r21, 0x40	; 64
    26a6:	c7 01       	movw	r24, r14
    26a8:	b6 01       	movw	r22, r12
    26aa:	6c d3       	rcall	.+1752   	; 0x2d84 <__subsf3>
    26ac:	9b 01       	movw	r18, r22
    26ae:	ac 01       	movw	r20, r24
    26b0:	c5 01       	movw	r24, r10
    26b2:	b4 01       	movw	r22, r8
    26b4:	cc d3       	rcall	.+1944   	; 0x2e4e <__divsf3>
    26b6:	2b e5       	ldi	r18, 0x5B	; 91
    26b8:	30 ef       	ldi	r19, 0xF0	; 240
    26ba:	43 e8       	ldi	r20, 0x83	; 131
    26bc:	5c e3       	ldi	r21, 0x3C	; 60
    26be:	c7 d3       	rcall	.+1934   	; 0x2e4e <__divsf3>
    26c0:	f2 d4       	rcall	.+2532   	; 0x30a6 <log>
    26c2:	9b 01       	movw	r18, r22
    26c4:	ac 01       	movw	r20, r24
    26c6:	60 e0       	ldi	r22, 0x00	; 0
    26c8:	70 e9       	ldi	r23, 0x90	; 144
    26ca:	88 e7       	ldi	r24, 0x78	; 120
    26cc:	95 e4       	ldi	r25, 0x45	; 69
    26ce:	bf d3       	rcall	.+1918   	; 0x2e4e <__divsf3>
    26d0:	2b d4       	rcall	.+2134   	; 0x2f28 <__fixunssfsi>
    26d2:	56 d4       	rcall	.+2220   	; 0x2f80 <__floatunsisf>
    26d4:	ff 90       	pop	r15
    26d6:	ef 90       	pop	r14
    26d8:	df 90       	pop	r13
    26da:	cf 90       	pop	r12
    26dc:	bf 90       	pop	r11
    26de:	af 90       	pop	r10
    26e0:	9f 90       	pop	r9
    26e2:	8f 90       	pop	r8
    26e4:	08 95       	ret

000026e6 <usart_serial_getchar>:
    26e6:	cf 93       	push	r28
    26e8:	df 93       	push	r29
    26ea:	eb 01       	movw	r28, r22
    26ec:	81 db       	rcall	.-2302   	; 0x1df0 <usart_getchar>
    26ee:	88 83       	st	Y, r24
    26f0:	df 91       	pop	r29
    26f2:	cf 91       	pop	r28
    26f4:	08 95       	ret

000026f6 <usart_serial_putchar>:
    26f6:	74 cb       	rjmp	.-2328   	; 0x1de0 <usart_putchar>

000026f8 <usart_serial_init>:
    26f8:	0f 93       	push	r16
    26fa:	1f 93       	push	r17
    26fc:	cf 93       	push	r28
    26fe:	df 93       	push	r29
    2700:	cd b7       	in	r28, 0x3d	; 61
    2702:	de b7       	in	r29, 0x3e	; 62
    2704:	27 97       	sbiw	r28, 0x07	; 7
    2706:	cd bf       	out	0x3d, r28	; 61
    2708:	de bf       	out	0x3e, r29	; 62
    270a:	8c 01       	movw	r16, r24
    270c:	fb 01       	movw	r30, r22
    270e:	84 81       	ldd	r24, Z+4	; 0x04
    2710:	8d 83       	std	Y+5, r24	; 0x05
    2712:	85 81       	ldd	r24, Z+5	; 0x05
    2714:	8e 83       	std	Y+6, r24	; 0x06
    2716:	86 81       	ldd	r24, Z+6	; 0x06
    2718:	8f 83       	std	Y+7, r24	; 0x07
    271a:	80 81       	ld	r24, Z
    271c:	91 81       	ldd	r25, Z+1	; 0x01
    271e:	a2 81       	ldd	r26, Z+2	; 0x02
    2720:	b3 81       	ldd	r27, Z+3	; 0x03
    2722:	89 83       	std	Y+1, r24	; 0x01
    2724:	9a 83       	std	Y+2, r25	; 0x02
    2726:	ab 83       	std	Y+3, r26	; 0x03
    2728:	bc 83       	std	Y+4, r27	; 0x04
    272a:	00 3a       	cpi	r16, 0xA0	; 160
    272c:	88 e0       	ldi	r24, 0x08	; 8
    272e:	18 07       	cpc	r17, r24
    2730:	29 f4       	brne	.+10     	; 0x273c <usart_serial_init+0x44>
    2732:	60 e1       	ldi	r22, 0x10	; 16
    2734:	83 e0       	ldi	r24, 0x03	; 3
    2736:	0e 94 08 03 	call	0x610	; 0x610 <sysclk_enable_module>
    273a:	24 c0       	rjmp	.+72     	; 0x2784 <usart_serial_init+0x8c>
    273c:	00 3b       	cpi	r16, 0xB0	; 176
    273e:	88 e0       	ldi	r24, 0x08	; 8
    2740:	18 07       	cpc	r17, r24
    2742:	29 f4       	brne	.+10     	; 0x274e <usart_serial_init+0x56>
    2744:	60 e2       	ldi	r22, 0x20	; 32
    2746:	83 e0       	ldi	r24, 0x03	; 3
    2748:	0e 94 08 03 	call	0x610	; 0x610 <sysclk_enable_module>
    274c:	1b c0       	rjmp	.+54     	; 0x2784 <usart_serial_init+0x8c>
    274e:	00 3a       	cpi	r16, 0xA0	; 160
    2750:	89 e0       	ldi	r24, 0x09	; 9
    2752:	18 07       	cpc	r17, r24
    2754:	29 f4       	brne	.+10     	; 0x2760 <usart_serial_init+0x68>
    2756:	60 e1       	ldi	r22, 0x10	; 16
    2758:	84 e0       	ldi	r24, 0x04	; 4
    275a:	0e 94 08 03 	call	0x610	; 0x610 <sysclk_enable_module>
    275e:	1b c0       	rjmp	.+54     	; 0x2796 <usart_serial_init+0x9e>
    2760:	00 3b       	cpi	r16, 0xB0	; 176
    2762:	89 e0       	ldi	r24, 0x09	; 9
    2764:	18 07       	cpc	r17, r24
    2766:	29 f4       	brne	.+10     	; 0x2772 <usart_serial_init+0x7a>
    2768:	60 e2       	ldi	r22, 0x20	; 32
    276a:	84 e0       	ldi	r24, 0x04	; 4
    276c:	0e 94 08 03 	call	0x610	; 0x610 <sysclk_enable_module>
    2770:	1b c0       	rjmp	.+54     	; 0x27a8 <usart_serial_init+0xb0>
    2772:	00 3a       	cpi	r16, 0xA0	; 160
    2774:	8a e0       	ldi	r24, 0x0A	; 10
    2776:	18 07       	cpc	r17, r24
    2778:	29 f4       	brne	.+10     	; 0x2784 <usart_serial_init+0x8c>
    277a:	60 e1       	ldi	r22, 0x10	; 16
    277c:	85 e0       	ldi	r24, 0x05	; 5
    277e:	0e 94 08 03 	call	0x610	; 0x610 <sysclk_enable_module>
    2782:	1a c0       	rjmp	.+52     	; 0x27b8 <usart_serial_init+0xc0>
    2784:	00 3b       	cpi	r16, 0xB0	; 176
    2786:	8a e0       	ldi	r24, 0x0A	; 10
    2788:	18 07       	cpc	r17, r24
    278a:	29 f4       	brne	.+10     	; 0x2796 <usart_serial_init+0x9e>
    278c:	60 e2       	ldi	r22, 0x20	; 32
    278e:	85 e0       	ldi	r24, 0x05	; 5
    2790:	0e 94 08 03 	call	0x610	; 0x610 <sysclk_enable_module>
    2794:	11 c0       	rjmp	.+34     	; 0x27b8 <usart_serial_init+0xc0>
    2796:	00 3a       	cpi	r16, 0xA0	; 160
    2798:	8b e0       	ldi	r24, 0x0B	; 11
    279a:	18 07       	cpc	r17, r24
    279c:	29 f4       	brne	.+10     	; 0x27a8 <usart_serial_init+0xb0>
    279e:	60 e1       	ldi	r22, 0x10	; 16
    27a0:	86 e0       	ldi	r24, 0x06	; 6
    27a2:	0e 94 08 03 	call	0x610	; 0x610 <sysclk_enable_module>
    27a6:	08 c0       	rjmp	.+16     	; 0x27b8 <usart_serial_init+0xc0>
    27a8:	00 3b       	cpi	r16, 0xB0	; 176
    27aa:	8b e0       	ldi	r24, 0x0B	; 11
    27ac:	18 07       	cpc	r17, r24
    27ae:	21 f4       	brne	.+8      	; 0x27b8 <usart_serial_init+0xc0>
    27b0:	60 e2       	ldi	r22, 0x20	; 32
    27b2:	86 e0       	ldi	r24, 0x06	; 6
    27b4:	0e 94 08 03 	call	0x610	; 0x610 <sysclk_enable_module>
    27b8:	be 01       	movw	r22, r28
    27ba:	6f 5f       	subi	r22, 0xFF	; 255
    27bc:	7f 4f       	sbci	r23, 0xFF	; 255
    27be:	c8 01       	movw	r24, r16
    27c0:	00 dc       	rcall	.-2048   	; 0x1fc2 <usart_init_rs232>
    27c2:	27 96       	adiw	r28, 0x07	; 7
    27c4:	cd bf       	out	0x3d, r28	; 61
    27c6:	de bf       	out	0x3e, r29	; 62
    27c8:	df 91       	pop	r29
    27ca:	cf 91       	pop	r28
    27cc:	1f 91       	pop	r17
    27ce:	0f 91       	pop	r16
    27d0:	08 95       	ret

000027d2 <usart_init>:
    27d2:	e0 e4       	ldi	r30, 0x40	; 64
    27d4:	f6 e0       	ldi	r31, 0x06	; 6
    27d6:	88 e0       	ldi	r24, 0x08	; 8
    27d8:	81 83       	std	Z+1, r24	; 0x01
    27da:	85 83       	std	Z+5, r24	; 0x05
    27dc:	e0 e6       	ldi	r30, 0x60	; 96
    27de:	f6 e0       	ldi	r31, 0x06	; 6
    27e0:	81 83       	std	Z+1, r24	; 0x01
    27e2:	85 83       	std	Z+5, r24	; 0x05
    27e4:	80 ea       	ldi	r24, 0xA0	; 160
    27e6:	98 e0       	ldi	r25, 0x08	; 8
    27e8:	80 93 b3 20 	sts	0x20B3, r24	; 0x8020b3 <stdio_base>
    27ec:	90 93 b4 20 	sts	0x20B4, r25	; 0x8020b4 <stdio_base+0x1>
    27f0:	8b e7       	ldi	r24, 0x7B	; 123
    27f2:	93 e1       	ldi	r25, 0x13	; 19
    27f4:	80 93 b1 20 	sts	0x20B1, r24	; 0x8020b1 <ptr_put>
    27f8:	90 93 b2 20 	sts	0x20B2, r25	; 0x8020b2 <ptr_put+0x1>
    27fc:	83 e7       	ldi	r24, 0x73	; 115
    27fe:	93 e1       	ldi	r25, 0x13	; 19
    2800:	80 93 af 20 	sts	0x20AF, r24	; 0x8020af <ptr_get>
    2804:	90 93 b0 20 	sts	0x20B0, r25	; 0x8020b0 <ptr_get+0x1>
    2808:	6d e0       	ldi	r22, 0x0D	; 13
    280a:	70 e2       	ldi	r23, 0x20	; 32
    280c:	80 ea       	ldi	r24, 0xA0	; 160
    280e:	98 e0       	ldi	r25, 0x08	; 8
    2810:	73 df       	rcall	.-282    	; 0x26f8 <usart_serial_init>
    2812:	69 e1       	ldi	r22, 0x19	; 25
    2814:	73 e0       	ldi	r23, 0x03	; 3
    2816:	82 e3       	ldi	r24, 0x32	; 50
    2818:	93 e0       	ldi	r25, 0x03	; 3
    281a:	39 d7       	rcall	.+3698   	; 0x368e <fdevopen>
    281c:	66 e0       	ldi	r22, 0x06	; 6
    281e:	70 e2       	ldi	r23, 0x20	; 32
    2820:	80 ea       	ldi	r24, 0xA0	; 160
    2822:	99 e0       	ldi	r25, 0x09	; 9
    2824:	69 cf       	rjmp	.-302    	; 0x26f8 <usart_serial_init>

00002826 <usart_tx>:
    2826:	ef 92       	push	r14
    2828:	ff 92       	push	r15
    282a:	0f 93       	push	r16
    282c:	1f 93       	push	r17
    282e:	cf 93       	push	r28
    2830:	df 93       	push	r29
    2832:	cd b7       	in	r28, 0x3d	; 61
    2834:	de b7       	in	r29, 0x3e	; 62
    2836:	da 95       	dec	r29
    2838:	cd bf       	out	0x3d, r28	; 61
    283a:	de bf       	out	0x3e, r29	; 62
    283c:	ae 01       	movw	r20, r28
    283e:	42 5f       	subi	r20, 0xF2	; 242
    2840:	5e 4f       	sbci	r21, 0xFE	; 254
    2842:	c4 5f       	subi	r28, 0xF4	; 244
    2844:	de 4f       	sbci	r29, 0xFE	; 254
    2846:	68 81       	ld	r22, Y
    2848:	79 81       	ldd	r23, Y+1	; 0x01
    284a:	cc 50       	subi	r28, 0x0C	; 12
    284c:	d1 40       	sbci	r29, 0x01	; 1
    284e:	ce 01       	movw	r24, r28
    2850:	01 96       	adiw	r24, 0x01	; 1
    2852:	d2 d7       	rcall	.+4004   	; 0x37f8 <vsprintf>
    2854:	81 e2       	ldi	r24, 0x21	; 33
    2856:	c0 50       	subi	r28, 0x00	; 0
    2858:	df 4f       	sbci	r29, 0xFF	; 255
    285a:	88 83       	st	Y, r24
    285c:	c0 50       	subi	r28, 0x00	; 0
    285e:	d1 40       	sbci	r29, 0x01	; 1
    2860:	8e 01       	movw	r16, r28
    2862:	0f 5f       	subi	r16, 0xFF	; 255
    2864:	1f 4f       	sbci	r17, 0xFF	; 255
    2866:	7e 01       	movw	r14, r28
    2868:	81 e0       	ldi	r24, 0x01	; 1
    286a:	e8 0e       	add	r14, r24
    286c:	f8 1e       	adc	r15, r24
    286e:	0e 15       	cp	r16, r14
    2870:	1f 05       	cpc	r17, r15
    2872:	59 f0       	breq	.+22     	; 0x288a <usart_tx+0x64>
    2874:	f8 01       	movw	r30, r16
    2876:	61 91       	ld	r22, Z+
    2878:	8f 01       	movw	r16, r30
    287a:	c6 5f       	subi	r28, 0xF6	; 246
    287c:	de 4f       	sbci	r29, 0xFE	; 254
    287e:	88 81       	ld	r24, Y
    2880:	99 81       	ldd	r25, Y+1	; 0x01
    2882:	ca 50       	subi	r28, 0x0A	; 10
    2884:	d1 40       	sbci	r29, 0x01	; 1
    2886:	ac da       	rcall	.-2728   	; 0x1de0 <usart_putchar>
    2888:	f2 cf       	rjmp	.-28     	; 0x286e <usart_tx+0x48>
    288a:	d3 95       	inc	r29
    288c:	cd bf       	out	0x3d, r28	; 61
    288e:	de bf       	out	0x3e, r29	; 62
    2890:	df 91       	pop	r29
    2892:	cf 91       	pop	r28
    2894:	1f 91       	pop	r17
    2896:	0f 91       	pop	r16
    2898:	ff 90       	pop	r15
    289a:	ef 90       	pop	r14
    289c:	08 95       	ret

0000289e <__vector_25>:
    289e:	1f 92       	push	r1
    28a0:	0f 92       	push	r0
    28a2:	0f b6       	in	r0, 0x3f	; 63
    28a4:	0f 92       	push	r0
    28a6:	11 24       	eor	r1, r1
    28a8:	08 b6       	in	r0, 0x38	; 56
    28aa:	0f 92       	push	r0
    28ac:	18 be       	out	0x38, r1	; 56
    28ae:	09 b6       	in	r0, 0x39	; 57
    28b0:	0f 92       	push	r0
    28b2:	19 be       	out	0x39, r1	; 57
    28b4:	0b b6       	in	r0, 0x3b	; 59
    28b6:	0f 92       	push	r0
    28b8:	1b be       	out	0x3b, r1	; 59
    28ba:	2f 93       	push	r18
    28bc:	3f 93       	push	r19
    28be:	4f 93       	push	r20
    28c0:	5f 93       	push	r21
    28c2:	6f 93       	push	r22
    28c4:	7f 93       	push	r23
    28c6:	8f 93       	push	r24
    28c8:	9f 93       	push	r25
    28ca:	af 93       	push	r26
    28cc:	bf 93       	push	r27
    28ce:	ef 93       	push	r30
    28d0:	ff 93       	push	r31
    28d2:	80 ea       	ldi	r24, 0xA0	; 160
    28d4:	98 e0       	ldi	r25, 0x08	; 8
    28d6:	8c da       	rcall	.-2792   	; 0x1df0 <usart_getchar>
    28d8:	80 93 c9 20 	sts	0x20C9, r24	; 0x8020c9 <xbee_rx_temporary>
    28dc:	80 91 c9 20 	lds	r24, 0x20C9	; 0x8020c9 <xbee_rx_temporary>
    28e0:	89 32       	cpi	r24, 0x29	; 41
    28e2:	c1 f0       	breq	.+48     	; 0x2914 <__vector_25+0x76>
    28e4:	4c f4       	brge	.+18     	; 0x28f8 <__vector_25+0x5a>
    28e6:	86 32       	cpi	r24, 0x26	; 38
    28e8:	89 f0       	breq	.+34     	; 0x290c <__vector_25+0x6e>
    28ea:	88 32       	cpi	r24, 0x28	; 40
    28ec:	89 f0       	breq	.+34     	; 0x2910 <__vector_25+0x72>
    28ee:	81 32       	cpi	r24, 0x21	; 33
    28f0:	a1 f4       	brne	.+40     	; 0x291a <__vector_25+0x7c>
    28f2:	0e 94 c9 02 	call	0x592	; 0x592 <wdt_reset_mcu>
    28f6:	11 c0       	rjmp	.+34     	; 0x291a <__vector_25+0x7c>
    28f8:	8e 35       	cpi	r24, 0x5E	; 94
    28fa:	31 f0       	breq	.+12     	; 0x2908 <__vector_25+0x6a>
    28fc:	8f 35       	cpi	r24, 0x5F	; 95
    28fe:	61 f0       	breq	.+24     	; 0x2918 <__vector_25+0x7a>
    2900:	8a 32       	cpi	r24, 0x2A	; 42
    2902:	59 f4       	brne	.+22     	; 0x291a <__vector_25+0x7c>
    2904:	09 dc       	rcall	.-2030   	; 0x2118 <heatshield_detatch_hotwire>
    2906:	09 c0       	rjmp	.+18     	; 0x291a <__vector_25+0x7c>
    2908:	19 dc       	rcall	.-1998   	; 0x213c <heatshield_hotwire>
    290a:	07 c0       	rjmp	.+14     	; 0x291a <__vector_25+0x7c>
    290c:	16 dc       	rcall	.-2004   	; 0x213a <parachute_hotwire>
    290e:	05 c0       	rjmp	.+10     	; 0x291a <__vector_25+0x7c>
    2910:	16 dc       	rcall	.-2004   	; 0x213e <buzzer_on>
    2912:	03 c0       	rjmp	.+6      	; 0x291a <__vector_25+0x7c>
    2914:	1d dc       	rcall	.-1990   	; 0x2150 <buzzer_off>
    2916:	01 c0       	rjmp	.+2      	; 0x291a <__vector_25+0x7c>
    2918:	24 dc       	rcall	.-1976   	; 0x2162 <camera_on>
    291a:	ff 91       	pop	r31
    291c:	ef 91       	pop	r30
    291e:	bf 91       	pop	r27
    2920:	af 91       	pop	r26
    2922:	9f 91       	pop	r25
    2924:	8f 91       	pop	r24
    2926:	7f 91       	pop	r23
    2928:	6f 91       	pop	r22
    292a:	5f 91       	pop	r21
    292c:	4f 91       	pop	r20
    292e:	3f 91       	pop	r19
    2930:	2f 91       	pop	r18
    2932:	0f 90       	pop	r0
    2934:	0b be       	out	0x3b, r0	; 59
    2936:	0f 90       	pop	r0
    2938:	09 be       	out	0x39, r0	; 57
    293a:	0f 90       	pop	r0
    293c:	08 be       	out	0x38, r0	; 56
    293e:	0f 90       	pop	r0
    2940:	0f be       	out	0x3f, r0	; 63
    2942:	0f 90       	pop	r0
    2944:	1f 90       	pop	r1
    2946:	18 95       	reti

00002948 <sysclk_enable_peripheral_clock>:
    2948:	00 97       	sbiw	r24, 0x00	; 0
    294a:	09 f4       	brne	.+2      	; 0x294e <sysclk_enable_peripheral_clock+0x6>
    294c:	36 c1       	rjmp	.+620    	; 0x2bba <sysclk_enable_peripheral_clock+0x272>
    294e:	80 3c       	cpi	r24, 0xC0	; 192
    2950:	91 05       	cpc	r25, r1
    2952:	21 f4       	brne	.+8      	; 0x295c <sysclk_enable_peripheral_clock+0x14>
    2954:	60 e1       	ldi	r22, 0x10	; 16
    2956:	80 e0       	ldi	r24, 0x00	; 0
    2958:	0c 94 08 03 	jmp	0x610	; 0x610 <sysclk_enable_module>
    295c:	80 34       	cpi	r24, 0x40	; 64
    295e:	24 e0       	ldi	r18, 0x04	; 4
    2960:	92 07       	cpc	r25, r18
    2962:	21 f4       	brne	.+8      	; 0x296c <sysclk_enable_peripheral_clock+0x24>
    2964:	68 e0       	ldi	r22, 0x08	; 8
    2966:	80 e0       	ldi	r24, 0x00	; 0
    2968:	0c 94 08 03 	jmp	0x610	; 0x610 <sysclk_enable_module>
    296c:	81 15       	cp	r24, r1
    296e:	24 e0       	ldi	r18, 0x04	; 4
    2970:	92 07       	cpc	r25, r18
    2972:	21 f4       	brne	.+8      	; 0x297c <sysclk_enable_peripheral_clock+0x34>
    2974:	64 e0       	ldi	r22, 0x04	; 4
    2976:	80 e0       	ldi	r24, 0x00	; 0
    2978:	0c 94 08 03 	jmp	0x610	; 0x610 <sysclk_enable_module>
    297c:	80 38       	cpi	r24, 0x80	; 128
    297e:	21 e0       	ldi	r18, 0x01	; 1
    2980:	92 07       	cpc	r25, r18
    2982:	21 f4       	brne	.+8      	; 0x298c <sysclk_enable_peripheral_clock+0x44>
    2984:	62 e0       	ldi	r22, 0x02	; 2
    2986:	80 e0       	ldi	r24, 0x00	; 0
    2988:	0c 94 08 03 	jmp	0x610	; 0x610 <sysclk_enable_module>
    298c:	81 15       	cp	r24, r1
    298e:	21 e0       	ldi	r18, 0x01	; 1
    2990:	92 07       	cpc	r25, r18
    2992:	21 f4       	brne	.+8      	; 0x299c <sysclk_enable_peripheral_clock+0x54>
    2994:	61 e0       	ldi	r22, 0x01	; 1
    2996:	80 e0       	ldi	r24, 0x00	; 0
    2998:	0c 94 08 03 	jmp	0x610	; 0x610 <sysclk_enable_module>
    299c:	80 38       	cpi	r24, 0x80	; 128
    299e:	23 e0       	ldi	r18, 0x03	; 3
    29a0:	92 07       	cpc	r25, r18
    29a2:	21 f4       	brne	.+8      	; 0x29ac <sysclk_enable_peripheral_clock+0x64>
    29a4:	61 e0       	ldi	r22, 0x01	; 1
    29a6:	81 e0       	ldi	r24, 0x01	; 1
    29a8:	0c 94 08 03 	jmp	0x610	; 0x610 <sysclk_enable_module>
    29ac:	80 39       	cpi	r24, 0x90	; 144
    29ae:	23 e0       	ldi	r18, 0x03	; 3
    29b0:	92 07       	cpc	r25, r18
    29b2:	21 f4       	brne	.+8      	; 0x29bc <sysclk_enable_peripheral_clock+0x74>
    29b4:	61 e0       	ldi	r22, 0x01	; 1
    29b6:	82 e0       	ldi	r24, 0x02	; 2
    29b8:	0c 94 08 03 	jmp	0x610	; 0x610 <sysclk_enable_module>
    29bc:	81 15       	cp	r24, r1
    29be:	22 e0       	ldi	r18, 0x02	; 2
    29c0:	92 07       	cpc	r25, r18
    29c2:	21 f4       	brne	.+8      	; 0x29cc <sysclk_enable_peripheral_clock+0x84>
    29c4:	62 e0       	ldi	r22, 0x02	; 2
    29c6:	81 e0       	ldi	r24, 0x01	; 1
    29c8:	0c 94 08 03 	jmp	0x610	; 0x610 <sysclk_enable_module>
    29cc:	80 34       	cpi	r24, 0x40	; 64
    29ce:	22 e0       	ldi	r18, 0x02	; 2
    29d0:	92 07       	cpc	r25, r18
    29d2:	21 f4       	brne	.+8      	; 0x29dc <sysclk_enable_peripheral_clock+0x94>
    29d4:	62 e0       	ldi	r22, 0x02	; 2
    29d6:	82 e0       	ldi	r24, 0x02	; 2
    29d8:	0c 94 08 03 	jmp	0x610	; 0x610 <sysclk_enable_module>
    29dc:	81 15       	cp	r24, r1
    29de:	23 e0       	ldi	r18, 0x03	; 3
    29e0:	92 07       	cpc	r25, r18
    29e2:	21 f4       	brne	.+8      	; 0x29ec <sysclk_enable_peripheral_clock+0xa4>
    29e4:	64 e0       	ldi	r22, 0x04	; 4
    29e6:	81 e0       	ldi	r24, 0x01	; 1
    29e8:	0c 94 08 03 	jmp	0x610	; 0x610 <sysclk_enable_module>
    29ec:	80 32       	cpi	r24, 0x20	; 32
    29ee:	23 e0       	ldi	r18, 0x03	; 3
    29f0:	92 07       	cpc	r25, r18
    29f2:	21 f4       	brne	.+8      	; 0x29fc <sysclk_enable_peripheral_clock+0xb4>
    29f4:	64 e0       	ldi	r22, 0x04	; 4
    29f6:	82 e0       	ldi	r24, 0x02	; 2
    29f8:	0c 94 08 03 	jmp	0x610	; 0x610 <sysclk_enable_module>
    29fc:	81 15       	cp	r24, r1
    29fe:	28 e0       	ldi	r18, 0x08	; 8
    2a00:	92 07       	cpc	r25, r18
    2a02:	21 f4       	brne	.+8      	; 0x2a0c <sysclk_enable_peripheral_clock+0xc4>
    2a04:	61 e0       	ldi	r22, 0x01	; 1
    2a06:	83 e0       	ldi	r24, 0x03	; 3
    2a08:	0c 94 08 03 	jmp	0x610	; 0x610 <sysclk_enable_module>
    2a0c:	81 15       	cp	r24, r1
    2a0e:	29 e0       	ldi	r18, 0x09	; 9
    2a10:	92 07       	cpc	r25, r18
    2a12:	21 f4       	brne	.+8      	; 0x2a1c <sysclk_enable_peripheral_clock+0xd4>
    2a14:	61 e0       	ldi	r22, 0x01	; 1
    2a16:	84 e0       	ldi	r24, 0x04	; 4
    2a18:	0c 94 08 03 	jmp	0x610	; 0x610 <sysclk_enable_module>
    2a1c:	81 15       	cp	r24, r1
    2a1e:	2a e0       	ldi	r18, 0x0A	; 10
    2a20:	92 07       	cpc	r25, r18
    2a22:	21 f4       	brne	.+8      	; 0x2a2c <sysclk_enable_peripheral_clock+0xe4>
    2a24:	61 e0       	ldi	r22, 0x01	; 1
    2a26:	85 e0       	ldi	r24, 0x05	; 5
    2a28:	0c 94 08 03 	jmp	0x610	; 0x610 <sysclk_enable_module>
    2a2c:	81 15       	cp	r24, r1
    2a2e:	2b e0       	ldi	r18, 0x0B	; 11
    2a30:	92 07       	cpc	r25, r18
    2a32:	21 f4       	brne	.+8      	; 0x2a3c <sysclk_enable_peripheral_clock+0xf4>
    2a34:	61 e0       	ldi	r22, 0x01	; 1
    2a36:	86 e0       	ldi	r24, 0x06	; 6
    2a38:	0c 94 08 03 	jmp	0x610	; 0x610 <sysclk_enable_module>
    2a3c:	80 34       	cpi	r24, 0x40	; 64
    2a3e:	28 e0       	ldi	r18, 0x08	; 8
    2a40:	92 07       	cpc	r25, r18
    2a42:	21 f4       	brne	.+8      	; 0x2a4c <sysclk_enable_peripheral_clock+0x104>
    2a44:	62 e0       	ldi	r22, 0x02	; 2
    2a46:	83 e0       	ldi	r24, 0x03	; 3
    2a48:	0c 94 08 03 	jmp	0x610	; 0x610 <sysclk_enable_module>
    2a4c:	80 34       	cpi	r24, 0x40	; 64
    2a4e:	29 e0       	ldi	r18, 0x09	; 9
    2a50:	92 07       	cpc	r25, r18
    2a52:	21 f4       	brne	.+8      	; 0x2a5c <sysclk_enable_peripheral_clock+0x114>
    2a54:	62 e0       	ldi	r22, 0x02	; 2
    2a56:	84 e0       	ldi	r24, 0x04	; 4
    2a58:	0c 94 08 03 	jmp	0x610	; 0x610 <sysclk_enable_module>
    2a5c:	80 34       	cpi	r24, 0x40	; 64
    2a5e:	2a e0       	ldi	r18, 0x0A	; 10
    2a60:	92 07       	cpc	r25, r18
    2a62:	21 f4       	brne	.+8      	; 0x2a6c <sysclk_enable_peripheral_clock+0x124>
    2a64:	62 e0       	ldi	r22, 0x02	; 2
    2a66:	85 e0       	ldi	r24, 0x05	; 5
    2a68:	0c 94 08 03 	jmp	0x610	; 0x610 <sysclk_enable_module>
    2a6c:	80 34       	cpi	r24, 0x40	; 64
    2a6e:	2b e0       	ldi	r18, 0x0B	; 11
    2a70:	92 07       	cpc	r25, r18
    2a72:	21 f4       	brne	.+8      	; 0x2a7c <sysclk_enable_peripheral_clock+0x134>
    2a74:	62 e0       	ldi	r22, 0x02	; 2
    2a76:	86 e0       	ldi	r24, 0x06	; 6
    2a78:	0c 94 08 03 	jmp	0x610	; 0x610 <sysclk_enable_module>
    2a7c:	80 39       	cpi	r24, 0x90	; 144
    2a7e:	28 e0       	ldi	r18, 0x08	; 8
    2a80:	92 07       	cpc	r25, r18
    2a82:	21 f4       	brne	.+8      	; 0x2a8c <sysclk_enable_peripheral_clock+0x144>
    2a84:	64 e0       	ldi	r22, 0x04	; 4
    2a86:	83 e0       	ldi	r24, 0x03	; 3
    2a88:	0c 94 08 03 	jmp	0x610	; 0x610 <sysclk_enable_module>
    2a8c:	80 39       	cpi	r24, 0x90	; 144
    2a8e:	29 e0       	ldi	r18, 0x09	; 9
    2a90:	92 07       	cpc	r25, r18
    2a92:	21 f4       	brne	.+8      	; 0x2a9c <sysclk_enable_peripheral_clock+0x154>
    2a94:	64 e0       	ldi	r22, 0x04	; 4
    2a96:	84 e0       	ldi	r24, 0x04	; 4
    2a98:	0c 94 08 03 	jmp	0x610	; 0x610 <sysclk_enable_module>
    2a9c:	80 39       	cpi	r24, 0x90	; 144
    2a9e:	2a e0       	ldi	r18, 0x0A	; 10
    2aa0:	92 07       	cpc	r25, r18
    2aa2:	21 f4       	brne	.+8      	; 0x2aac <sysclk_enable_peripheral_clock+0x164>
    2aa4:	64 e0       	ldi	r22, 0x04	; 4
    2aa6:	85 e0       	ldi	r24, 0x05	; 5
    2aa8:	0c 94 08 03 	jmp	0x610	; 0x610 <sysclk_enable_module>
    2aac:	80 39       	cpi	r24, 0x90	; 144
    2aae:	2b e0       	ldi	r18, 0x0B	; 11
    2ab0:	92 07       	cpc	r25, r18
    2ab2:	21 f4       	brne	.+8      	; 0x2abc <sysclk_enable_peripheral_clock+0x174>
    2ab4:	64 e0       	ldi	r22, 0x04	; 4
    2ab6:	86 e0       	ldi	r24, 0x06	; 6
    2ab8:	0c 94 08 03 	jmp	0x610	; 0x610 <sysclk_enable_module>
    2abc:	80 3c       	cpi	r24, 0xC0	; 192
    2abe:	28 e0       	ldi	r18, 0x08	; 8
    2ac0:	92 07       	cpc	r25, r18
    2ac2:	21 f4       	brne	.+8      	; 0x2acc <sysclk_enable_peripheral_clock+0x184>
    2ac4:	68 e0       	ldi	r22, 0x08	; 8
    2ac6:	83 e0       	ldi	r24, 0x03	; 3
    2ac8:	0c 94 08 03 	jmp	0x610	; 0x610 <sysclk_enable_module>
    2acc:	80 3c       	cpi	r24, 0xC0	; 192
    2ace:	29 e0       	ldi	r18, 0x09	; 9
    2ad0:	92 07       	cpc	r25, r18
    2ad2:	21 f4       	brne	.+8      	; 0x2adc <sysclk_enable_peripheral_clock+0x194>
    2ad4:	68 e0       	ldi	r22, 0x08	; 8
    2ad6:	84 e0       	ldi	r24, 0x04	; 4
    2ad8:	0c 94 08 03 	jmp	0x610	; 0x610 <sysclk_enable_module>
    2adc:	80 3c       	cpi	r24, 0xC0	; 192
    2ade:	2a e0       	ldi	r18, 0x0A	; 10
    2ae0:	92 07       	cpc	r25, r18
    2ae2:	21 f4       	brne	.+8      	; 0x2aec <sysclk_enable_peripheral_clock+0x1a4>
    2ae4:	68 e0       	ldi	r22, 0x08	; 8
    2ae6:	85 e0       	ldi	r24, 0x05	; 5
    2ae8:	0c 94 08 03 	jmp	0x610	; 0x610 <sysclk_enable_module>
    2aec:	80 3c       	cpi	r24, 0xC0	; 192
    2aee:	2b e0       	ldi	r18, 0x0B	; 11
    2af0:	92 07       	cpc	r25, r18
    2af2:	21 f4       	brne	.+8      	; 0x2afc <sysclk_enable_peripheral_clock+0x1b4>
    2af4:	68 e0       	ldi	r22, 0x08	; 8
    2af6:	86 e0       	ldi	r24, 0x06	; 6
    2af8:	0c 94 08 03 	jmp	0x610	; 0x610 <sysclk_enable_module>
    2afc:	80 3a       	cpi	r24, 0xA0	; 160
    2afe:	28 e0       	ldi	r18, 0x08	; 8
    2b00:	92 07       	cpc	r25, r18
    2b02:	21 f4       	brne	.+8      	; 0x2b0c <sysclk_enable_peripheral_clock+0x1c4>
    2b04:	60 e1       	ldi	r22, 0x10	; 16
    2b06:	83 e0       	ldi	r24, 0x03	; 3
    2b08:	0c 94 08 03 	jmp	0x610	; 0x610 <sysclk_enable_module>
    2b0c:	80 3a       	cpi	r24, 0xA0	; 160
    2b0e:	29 e0       	ldi	r18, 0x09	; 9
    2b10:	92 07       	cpc	r25, r18
    2b12:	21 f4       	brne	.+8      	; 0x2b1c <sysclk_enable_peripheral_clock+0x1d4>
    2b14:	60 e1       	ldi	r22, 0x10	; 16
    2b16:	84 e0       	ldi	r24, 0x04	; 4
    2b18:	0c 94 08 03 	jmp	0x610	; 0x610 <sysclk_enable_module>
    2b1c:	80 3a       	cpi	r24, 0xA0	; 160
    2b1e:	2a e0       	ldi	r18, 0x0A	; 10
    2b20:	92 07       	cpc	r25, r18
    2b22:	21 f4       	brne	.+8      	; 0x2b2c <sysclk_enable_peripheral_clock+0x1e4>
    2b24:	60 e1       	ldi	r22, 0x10	; 16
    2b26:	85 e0       	ldi	r24, 0x05	; 5
    2b28:	0c 94 08 03 	jmp	0x610	; 0x610 <sysclk_enable_module>
    2b2c:	80 3a       	cpi	r24, 0xA0	; 160
    2b2e:	2b e0       	ldi	r18, 0x0B	; 11
    2b30:	92 07       	cpc	r25, r18
    2b32:	21 f4       	brne	.+8      	; 0x2b3c <sysclk_enable_peripheral_clock+0x1f4>
    2b34:	60 e1       	ldi	r22, 0x10	; 16
    2b36:	86 e0       	ldi	r24, 0x06	; 6
    2b38:	0c 94 08 03 	jmp	0x610	; 0x610 <sysclk_enable_module>
    2b3c:	80 3b       	cpi	r24, 0xB0	; 176
    2b3e:	28 e0       	ldi	r18, 0x08	; 8
    2b40:	92 07       	cpc	r25, r18
    2b42:	21 f4       	brne	.+8      	; 0x2b4c <sysclk_enable_peripheral_clock+0x204>
    2b44:	60 e2       	ldi	r22, 0x20	; 32
    2b46:	83 e0       	ldi	r24, 0x03	; 3
    2b48:	0c 94 08 03 	jmp	0x610	; 0x610 <sysclk_enable_module>
    2b4c:	80 3b       	cpi	r24, 0xB0	; 176
    2b4e:	29 e0       	ldi	r18, 0x09	; 9
    2b50:	92 07       	cpc	r25, r18
    2b52:	21 f4       	brne	.+8      	; 0x2b5c <sysclk_enable_peripheral_clock+0x214>
    2b54:	60 e2       	ldi	r22, 0x20	; 32
    2b56:	84 e0       	ldi	r24, 0x04	; 4
    2b58:	0c 94 08 03 	jmp	0x610	; 0x610 <sysclk_enable_module>
    2b5c:	80 3b       	cpi	r24, 0xB0	; 176
    2b5e:	2a e0       	ldi	r18, 0x0A	; 10
    2b60:	92 07       	cpc	r25, r18
    2b62:	21 f4       	brne	.+8      	; 0x2b6c <sysclk_enable_peripheral_clock+0x224>
    2b64:	60 e2       	ldi	r22, 0x20	; 32
    2b66:	85 e0       	ldi	r24, 0x05	; 5
    2b68:	0c 94 08 03 	jmp	0x610	; 0x610 <sysclk_enable_module>
    2b6c:	80 3b       	cpi	r24, 0xB0	; 176
    2b6e:	2b e0       	ldi	r18, 0x0B	; 11
    2b70:	92 07       	cpc	r25, r18
    2b72:	21 f4       	brne	.+8      	; 0x2b7c <sysclk_enable_peripheral_clock+0x234>
    2b74:	60 e2       	ldi	r22, 0x20	; 32
    2b76:	86 e0       	ldi	r24, 0x06	; 6
    2b78:	0c 94 08 03 	jmp	0x610	; 0x610 <sysclk_enable_module>
    2b7c:	80 38       	cpi	r24, 0x80	; 128
    2b7e:	24 e0       	ldi	r18, 0x04	; 4
    2b80:	92 07       	cpc	r25, r18
    2b82:	21 f4       	brne	.+8      	; 0x2b8c <sysclk_enable_peripheral_clock+0x244>
    2b84:	60 e4       	ldi	r22, 0x40	; 64
    2b86:	83 e0       	ldi	r24, 0x03	; 3
    2b88:	0c 94 08 03 	jmp	0x610	; 0x610 <sysclk_enable_module>
    2b8c:	80 39       	cpi	r24, 0x90	; 144
    2b8e:	24 e0       	ldi	r18, 0x04	; 4
    2b90:	92 07       	cpc	r25, r18
    2b92:	21 f4       	brne	.+8      	; 0x2b9c <sysclk_enable_peripheral_clock+0x254>
    2b94:	60 e4       	ldi	r22, 0x40	; 64
    2b96:	84 e0       	ldi	r24, 0x04	; 4
    2b98:	0c 94 08 03 	jmp	0x610	; 0x610 <sysclk_enable_module>
    2b9c:	80 3a       	cpi	r24, 0xA0	; 160
    2b9e:	24 e0       	ldi	r18, 0x04	; 4
    2ba0:	92 07       	cpc	r25, r18
    2ba2:	21 f4       	brne	.+8      	; 0x2bac <sysclk_enable_peripheral_clock+0x264>
    2ba4:	60 e4       	ldi	r22, 0x40	; 64
    2ba6:	85 e0       	ldi	r24, 0x05	; 5
    2ba8:	0c 94 08 03 	jmp	0x610	; 0x610 <sysclk_enable_module>
    2bac:	80 3b       	cpi	r24, 0xB0	; 176
    2bae:	94 40       	sbci	r25, 0x04	; 4
    2bb0:	21 f4       	brne	.+8      	; 0x2bba <sysclk_enable_peripheral_clock+0x272>
    2bb2:	60 e4       	ldi	r22, 0x40	; 64
    2bb4:	86 e0       	ldi	r24, 0x06	; 6
    2bb6:	0c 94 08 03 	jmp	0x610	; 0x610 <sysclk_enable_module>
    2bba:	08 95       	ret

00002bbc <__portable_avr_delay_cycles.constprop.1>:
    2bbc:	81 e8       	ldi	r24, 0x81	; 129
    2bbe:	98 e3       	ldi	r25, 0x38	; 56
    2bc0:	a1 e0       	ldi	r26, 0x01	; 1
    2bc2:	b0 e0       	ldi	r27, 0x00	; 0
    2bc4:	01 97       	sbiw	r24, 0x01	; 1
    2bc6:	a1 09       	sbc	r26, r1
    2bc8:	b1 09       	sbc	r27, r1
    2bca:	e1 f7       	brne	.-8      	; 0x2bc4 <__portable_avr_delay_cycles.constprop.1+0x8>
    2bcc:	08 95       	ret

00002bce <main>:
    2bce:	cf 93       	push	r28
    2bd0:	df 93       	push	r29
    2bd2:	cd b7       	in	r28, 0x3d	; 61
    2bd4:	de b7       	in	r29, 0x3e	; 62
    2bd6:	28 97       	sbiw	r28, 0x08	; 8
    2bd8:	cd bf       	out	0x3d, r28	; 61
    2bda:	de bf       	out	0x3e, r29	; 62
    2bdc:	0e 94 e2 02 	call	0x5c4	; 0x5c4 <sysclk_init>
    2be0:	80 e0       	ldi	r24, 0x00	; 0
    2be2:	9b e0       	ldi	r25, 0x0B	; 11
    2be4:	b1 de       	rcall	.-670    	; 0x2948 <sysclk_enable_peripheral_clock>
    2be6:	80 e0       	ldi	r24, 0x00	; 0
    2be8:	99 e0       	ldi	r25, 0x09	; 9
    2bea:	ae de       	rcall	.-676    	; 0x2948 <sysclk_enable_peripheral_clock>
    2bec:	64 e0       	ldi	r22, 0x04	; 4
    2bee:	86 e0       	ldi	r24, 0x06	; 6
    2bf0:	0e 94 08 03 	call	0x610	; 0x610 <sysclk_enable_module>
    2bf4:	64 e0       	ldi	r22, 0x04	; 4
    2bf6:	84 e0       	ldi	r24, 0x04	; 4
    2bf8:	0e 94 08 03 	call	0x610	; 0x610 <sysclk_enable_module>
    2bfc:	68 e0       	ldi	r22, 0x08	; 8
    2bfe:	83 e0       	ldi	r24, 0x03	; 3
    2c00:	0e 94 08 03 	call	0x610	; 0x610 <sysclk_enable_module>
    2c04:	80 ea       	ldi	r24, 0xA0	; 160
    2c06:	98 e0       	ldi	r25, 0x08	; 8
    2c08:	9f de       	rcall	.-706    	; 0x2948 <sysclk_enable_peripheral_clock>
    2c0a:	e3 dd       	rcall	.-1082   	; 0x27d2 <usart_init>
    2c0c:	80 ec       	ldi	r24, 0xC0	; 192
    2c0e:	98 e0       	ldi	r25, 0x08	; 8
    2c10:	9b de       	rcall	.-714    	; 0x2948 <sysclk_enable_peripheral_clock>
    2c12:	bb da       	rcall	.-2698   	; 0x218a <SPI_init>
    2c14:	f3 da       	rcall	.-2586   	; 0x21fc <ms5607_init>
    2c16:	80 e0       	ldi	r24, 0x00	; 0
    2c18:	92 e0       	ldi	r25, 0x02	; 2
    2c1a:	96 de       	rcall	.-724    	; 0x2948 <sysclk_enable_peripheral_clock>
    2c1c:	e4 dc       	rcall	.-1592   	; 0x25e6 <adc_init>
    2c1e:	69 db       	rcall	.-2350   	; 0x22f2 <get_pressure>
    2c20:	6d 83       	std	Y+5, r22	; 0x05
    2c22:	7e 83       	std	Y+6, r23	; 0x06
    2c24:	8f 83       	std	Y+7, r24	; 0x07
    2c26:	98 87       	std	Y+8, r25	; 0x08
    2c28:	1b 82       	std	Y+3, r1	; 0x03
    2c2a:	81 2c       	mov	r8, r1
    2c2c:	91 2c       	mov	r9, r1
    2c2e:	54 01       	movw	r10, r8
    2c30:	88 e0       	ldi	r24, 0x08	; 8
    2c32:	38 2e       	mov	r3, r24
    2c34:	5e db       	rcall	.-2372   	; 0x22f2 <get_pressure>
    2c36:	6c 83       	std	Y+4, r22	; 0x04
    2c38:	27 2e       	mov	r2, r23
    2c3a:	6c 01       	movw	r12, r24
    2c3c:	1e dd       	rcall	.-1476   	; 0x267a <getTemperature>
    2c3e:	74 d1       	rcall	.+744    	; 0x2f28 <__fixunssfsi>
    2c40:	7b 01       	movw	r14, r22
    2c42:	8c 01       	movw	r16, r24
    2c44:	2c 81       	ldd	r18, Y+4	; 0x04
    2c46:	32 2d       	mov	r19, r2
    2c48:	a6 01       	movw	r20, r12
    2c4a:	6d 81       	ldd	r22, Y+5	; 0x05
    2c4c:	7e 81       	ldd	r23, Y+6	; 0x06
    2c4e:	8f 81       	ldd	r24, Y+7	; 0x07
    2c50:	98 85       	ldd	r25, Y+8	; 0x08
    2c52:	e0 d9       	rcall	.-3136   	; 0x2014 <Get_altitude>
    2c54:	64 d1       	rcall	.+712    	; 0x2f1e <__fixsfsi>
    2c56:	6b 01       	movw	r12, r22
    2c58:	7c 01       	movw	r14, r24
    2c5a:	94 d1       	rcall	.+808    	; 0x2f84 <__floatsisf>
    2c5c:	26 e6       	ldi	r18, 0x66	; 102
    2c5e:	36 e6       	ldi	r19, 0x66	; 102
    2c60:	46 e6       	ldi	r20, 0x66	; 102
    2c62:	5f e3       	ldi	r21, 0x3F	; 63
    2c64:	60 d2       	rcall	.+1216   	; 0x3126 <__mulsf3>
    2c66:	2b 01       	movw	r4, r22
    2c68:	3c 01       	movw	r6, r24
    2c6a:	c5 01       	movw	r24, r10
    2c6c:	b4 01       	movw	r22, r8
    2c6e:	8a d1       	rcall	.+788    	; 0x2f84 <__floatsisf>
    2c70:	20 ed       	ldi	r18, 0xD0	; 208
    2c72:	3c ec       	ldi	r19, 0xCC	; 204
    2c74:	4c ec       	ldi	r20, 0xCC	; 204
    2c76:	5d e3       	ldi	r21, 0x3D	; 61
    2c78:	56 d2       	rcall	.+1196   	; 0x3126 <__mulsf3>
    2c7a:	9b 01       	movw	r18, r22
    2c7c:	ac 01       	movw	r20, r24
    2c7e:	c3 01       	movw	r24, r6
    2c80:	b2 01       	movw	r22, r4
    2c82:	81 d0       	rcall	.+258    	; 0x2d86 <__addsf3>
    2c84:	4c d1       	rcall	.+664    	; 0x2f1e <__fixsfsi>
    2c86:	4b 01       	movw	r8, r22
    2c88:	5c 01       	movw	r10, r24
    2c8a:	98 df       	rcall	.-208    	; 0x2bbc <__portable_avr_delay_cycles.constprop.1>
    2c8c:	2f 92       	push	r2
    2c8e:	2c 81       	ldd	r18, Y+4	; 0x04
    2c90:	2f 93       	push	r18
    2c92:	85 e2       	ldi	r24, 0x25	; 37
    2c94:	90 e2       	ldi	r25, 0x20	; 32
    2c96:	9f 93       	push	r25
    2c98:	8f 93       	push	r24
    2c9a:	86 d5       	rcall	.+2828   	; 0x37a8 <sprintf>
    2c9c:	89 83       	std	Y+1, r24	; 0x01
    2c9e:	9a 83       	std	Y+2, r25	; 0x02
    2ca0:	81 e0       	ldi	r24, 0x01	; 1
    2ca2:	90 e0       	ldi	r25, 0x00	; 0
    2ca4:	8c 0f       	add	r24, r28
    2ca6:	9d 1f       	adc	r25, r29
    2ca8:	9f 93       	push	r25
    2caa:	8f 93       	push	r24
    2cac:	3f 92       	push	r3
    2cae:	90 ea       	ldi	r25, 0xA0	; 160
    2cb0:	9f 93       	push	r25
    2cb2:	b9 dd       	rcall	.-1166   	; 0x2826 <usart_tx>
    2cb4:	cd bf       	out	0x3d, r28	; 61
    2cb6:	de bf       	out	0x3e, r29	; 62
    2cb8:	9b 81       	ldd	r25, Y+3	; 0x03
    2cba:	91 11       	cpse	r25, r1
    2cbc:	21 c0       	rjmp	.+66     	; 0x2d00 <main+0x132>
    2cbe:	25 e5       	ldi	r18, 0x55	; 85
    2cc0:	20 93 81 06 	sts	0x0681, r18	; 0x800681 <__TEXT_REGION_LENGTH__+0x700681>
    2cc4:	20 93 85 06 	sts	0x0685, r18	; 0x800685 <__TEXT_REGION_LENGTH__+0x700685>
    2cc8:	30 92 04 06 	sts	0x0604, r3	; 0x800604 <__TEXT_REGION_LENGTH__+0x700604>
    2ccc:	d5 01       	movw	r26, r10
    2cce:	c4 01       	movw	r24, r8
    2cd0:	8c 19       	sub	r24, r12
    2cd2:	9d 09       	sbc	r25, r13
    2cd4:	ae 09       	sbc	r26, r14
    2cd6:	bf 09       	sbc	r27, r15
    2cd8:	b7 ff       	sbrs	r27, 7
    2cda:	ac cf       	rjmp	.-168    	; 0x2c34 <main+0x66>
    2cdc:	d5 01       	movw	r26, r10
    2cde:	c4 01       	movw	r24, r8
    2ce0:	89 55       	subi	r24, 0x59	; 89
    2ce2:	92 40       	sbci	r25, 0x02	; 2
    2ce4:	a1 09       	sbc	r26, r1
    2ce6:	b1 09       	sbc	r27, r1
    2ce8:	87 3c       	cpi	r24, 0xC7	; 199
    2cea:	91 05       	cpc	r25, r1
    2cec:	a1 05       	cpc	r26, r1
    2cee:	b1 05       	cpc	r27, r1
    2cf0:	08 f0       	brcs	.+2      	; 0x2cf4 <main+0x126>
    2cf2:	a0 cf       	rjmp	.-192    	; 0x2c34 <main+0x66>
    2cf4:	81 e0       	ldi	r24, 0x01	; 1
    2cf6:	80 93 81 06 	sts	0x0681, r24	; 0x800681 <__TEXT_REGION_LENGTH__+0x700681>
    2cfa:	80 93 85 06 	sts	0x0685, r24	; 0x800685 <__TEXT_REGION_LENGTH__+0x700685>
    2cfe:	03 c0       	rjmp	.+6      	; 0x2d06 <main+0x138>
    2d00:	8b 81       	ldd	r24, Y+3	; 0x03
    2d02:	81 30       	cpi	r24, 0x01	; 1
    2d04:	a9 f4       	brne	.+42     	; 0x2d30 <main+0x162>
    2d06:	84 e3       	ldi	r24, 0x34	; 52
    2d08:	90 e2       	ldi	r25, 0x20	; 32
    2d0a:	1e d5       	rcall	.+2620   	; 0x3748 <puts>
    2d0c:	9c e2       	ldi	r25, 0x2C	; 44
    2d0e:	89 16       	cp	r8, r25
    2d10:	91 e0       	ldi	r25, 0x01	; 1
    2d12:	99 06       	cpc	r9, r25
    2d14:	a1 04       	cpc	r10, r1
    2d16:	b1 04       	cpc	r11, r1
    2d18:	4c f5       	brge	.+82     	; 0x2d6c <main+0x19e>
    2d1a:	82 e0       	ldi	r24, 0x02	; 2
    2d1c:	80 93 81 06 	sts	0x0681, r24	; 0x800681 <__TEXT_REGION_LENGTH__+0x700681>
    2d20:	80 93 85 06 	sts	0x0685, r24	; 0x800685 <__TEXT_REGION_LENGTH__+0x700685>
    2d24:	20 e8       	ldi	r18, 0x80	; 128
    2d26:	20 93 01 06 	sts	0x0601, r18	; 0x800601 <__TEXT_REGION_LENGTH__+0x700601>
    2d2a:	20 93 05 06 	sts	0x0605, r18	; 0x800605 <__TEXT_REGION_LENGTH__+0x700605>
    2d2e:	03 c0       	rjmp	.+6      	; 0x2d36 <main+0x168>
    2d30:	8b 81       	ldd	r24, Y+3	; 0x03
    2d32:	82 30       	cpi	r24, 0x02	; 2
    2d34:	f1 f4       	brne	.+60     	; 0x2d72 <main+0x1a4>
    2d36:	84 e4       	ldi	r24, 0x44	; 68
    2d38:	90 e2       	ldi	r25, 0x20	; 32
    2d3a:	06 d5       	rcall	.+2572   	; 0x3748 <puts>
    2d3c:	d5 01       	movw	r26, r10
    2d3e:	c4 01       	movw	r24, r8
    2d40:	8c 19       	sub	r24, r12
    2d42:	9d 09       	sbc	r25, r13
    2d44:	ae 09       	sbc	r26, r14
    2d46:	bf 09       	sbc	r27, r15
    2d48:	18 16       	cp	r1, r24
    2d4a:	19 06       	cpc	r1, r25
    2d4c:	1a 06       	cpc	r1, r26
    2d4e:	1b 06       	cpc	r1, r27
    2d50:	9c f0       	brlt	.+38     	; 0x2d78 <main+0x1aa>
    2d52:	94 e6       	ldi	r25, 0x64	; 100
    2d54:	c9 16       	cp	r12, r25
    2d56:	d1 04       	cpc	r13, r1
    2d58:	e1 04       	cpc	r14, r1
    2d5a:	f1 04       	cpc	r15, r1
    2d5c:	84 f4       	brge	.+32     	; 0x2d7e <main+0x1b0>
    2d5e:	30 92 01 06 	sts	0x0601, r3	; 0x800601 <__TEXT_REGION_LENGTH__+0x700601>
    2d62:	30 92 05 06 	sts	0x0605, r3	; 0x800605 <__TEXT_REGION_LENGTH__+0x700605>
    2d66:	23 e0       	ldi	r18, 0x03	; 3
    2d68:	2b 83       	std	Y+3, r18	; 0x03
    2d6a:	64 cf       	rjmp	.-312    	; 0x2c34 <main+0x66>
    2d6c:	81 e0       	ldi	r24, 0x01	; 1
    2d6e:	8b 83       	std	Y+3, r24	; 0x03
    2d70:	61 cf       	rjmp	.-318    	; 0x2c34 <main+0x66>
    2d72:	93 e0       	ldi	r25, 0x03	; 3
    2d74:	9b 83       	std	Y+3, r25	; 0x03
    2d76:	5e cf       	rjmp	.-324    	; 0x2c34 <main+0x66>
    2d78:	22 e0       	ldi	r18, 0x02	; 2
    2d7a:	2b 83       	std	Y+3, r18	; 0x03
    2d7c:	5b cf       	rjmp	.-330    	; 0x2c34 <main+0x66>
    2d7e:	82 e0       	ldi	r24, 0x02	; 2
    2d80:	8b 83       	std	Y+3, r24	; 0x03
    2d82:	58 cf       	rjmp	.-336    	; 0x2c34 <main+0x66>

00002d84 <__subsf3>:
    2d84:	50 58       	subi	r21, 0x80	; 128

00002d86 <__addsf3>:
    2d86:	bb 27       	eor	r27, r27
    2d88:	aa 27       	eor	r26, r26
    2d8a:	0e d0       	rcall	.+28     	; 0x2da8 <__addsf3x>
    2d8c:	4d c1       	rjmp	.+666    	; 0x3028 <__fp_round>
    2d8e:	3e d1       	rcall	.+636    	; 0x300c <__fp_pscA>
    2d90:	30 f0       	brcs	.+12     	; 0x2d9e <__addsf3+0x18>
    2d92:	43 d1       	rcall	.+646    	; 0x301a <__fp_pscB>
    2d94:	20 f0       	brcs	.+8      	; 0x2d9e <__addsf3+0x18>
    2d96:	31 f4       	brne	.+12     	; 0x2da4 <__addsf3+0x1e>
    2d98:	9f 3f       	cpi	r25, 0xFF	; 255
    2d9a:	11 f4       	brne	.+4      	; 0x2da0 <__addsf3+0x1a>
    2d9c:	1e f4       	brtc	.+6      	; 0x2da4 <__addsf3+0x1e>
    2d9e:	33 c1       	rjmp	.+614    	; 0x3006 <__fp_nan>
    2da0:	0e f4       	brtc	.+2      	; 0x2da4 <__addsf3+0x1e>
    2da2:	e0 95       	com	r30
    2da4:	e7 fb       	bst	r30, 7
    2da6:	29 c1       	rjmp	.+594    	; 0x2ffa <__fp_inf>

00002da8 <__addsf3x>:
    2da8:	e9 2f       	mov	r30, r25
    2daa:	4f d1       	rcall	.+670    	; 0x304a <__fp_split3>
    2dac:	80 f3       	brcs	.-32     	; 0x2d8e <__addsf3+0x8>
    2dae:	ba 17       	cp	r27, r26
    2db0:	62 07       	cpc	r22, r18
    2db2:	73 07       	cpc	r23, r19
    2db4:	84 07       	cpc	r24, r20
    2db6:	95 07       	cpc	r25, r21
    2db8:	18 f0       	brcs	.+6      	; 0x2dc0 <__addsf3x+0x18>
    2dba:	71 f4       	brne	.+28     	; 0x2dd8 <__addsf3x+0x30>
    2dbc:	9e f5       	brtc	.+102    	; 0x2e24 <__addsf3x+0x7c>
    2dbe:	67 c1       	rjmp	.+718    	; 0x308e <__fp_zero>
    2dc0:	0e f4       	brtc	.+2      	; 0x2dc4 <__addsf3x+0x1c>
    2dc2:	e0 95       	com	r30
    2dc4:	0b 2e       	mov	r0, r27
    2dc6:	ba 2f       	mov	r27, r26
    2dc8:	a0 2d       	mov	r26, r0
    2dca:	0b 01       	movw	r0, r22
    2dcc:	b9 01       	movw	r22, r18
    2dce:	90 01       	movw	r18, r0
    2dd0:	0c 01       	movw	r0, r24
    2dd2:	ca 01       	movw	r24, r20
    2dd4:	a0 01       	movw	r20, r0
    2dd6:	11 24       	eor	r1, r1
    2dd8:	ff 27       	eor	r31, r31
    2dda:	59 1b       	sub	r21, r25
    2ddc:	99 f0       	breq	.+38     	; 0x2e04 <__addsf3x+0x5c>
    2dde:	59 3f       	cpi	r21, 0xF9	; 249
    2de0:	50 f4       	brcc	.+20     	; 0x2df6 <__addsf3x+0x4e>
    2de2:	50 3e       	cpi	r21, 0xE0	; 224
    2de4:	68 f1       	brcs	.+90     	; 0x2e40 <__addsf3x+0x98>
    2de6:	1a 16       	cp	r1, r26
    2de8:	f0 40       	sbci	r31, 0x00	; 0
    2dea:	a2 2f       	mov	r26, r18
    2dec:	23 2f       	mov	r18, r19
    2dee:	34 2f       	mov	r19, r20
    2df0:	44 27       	eor	r20, r20
    2df2:	58 5f       	subi	r21, 0xF8	; 248
    2df4:	f3 cf       	rjmp	.-26     	; 0x2ddc <__addsf3x+0x34>
    2df6:	46 95       	lsr	r20
    2df8:	37 95       	ror	r19
    2dfa:	27 95       	ror	r18
    2dfc:	a7 95       	ror	r26
    2dfe:	f0 40       	sbci	r31, 0x00	; 0
    2e00:	53 95       	inc	r21
    2e02:	c9 f7       	brne	.-14     	; 0x2df6 <__addsf3x+0x4e>
    2e04:	7e f4       	brtc	.+30     	; 0x2e24 <__addsf3x+0x7c>
    2e06:	1f 16       	cp	r1, r31
    2e08:	ba 0b       	sbc	r27, r26
    2e0a:	62 0b       	sbc	r22, r18
    2e0c:	73 0b       	sbc	r23, r19
    2e0e:	84 0b       	sbc	r24, r20
    2e10:	ba f0       	brmi	.+46     	; 0x2e40 <__addsf3x+0x98>
    2e12:	91 50       	subi	r25, 0x01	; 1
    2e14:	a1 f0       	breq	.+40     	; 0x2e3e <__addsf3x+0x96>
    2e16:	ff 0f       	add	r31, r31
    2e18:	bb 1f       	adc	r27, r27
    2e1a:	66 1f       	adc	r22, r22
    2e1c:	77 1f       	adc	r23, r23
    2e1e:	88 1f       	adc	r24, r24
    2e20:	c2 f7       	brpl	.-16     	; 0x2e12 <__addsf3x+0x6a>
    2e22:	0e c0       	rjmp	.+28     	; 0x2e40 <__addsf3x+0x98>
    2e24:	ba 0f       	add	r27, r26
    2e26:	62 1f       	adc	r22, r18
    2e28:	73 1f       	adc	r23, r19
    2e2a:	84 1f       	adc	r24, r20
    2e2c:	48 f4       	brcc	.+18     	; 0x2e40 <__addsf3x+0x98>
    2e2e:	87 95       	ror	r24
    2e30:	77 95       	ror	r23
    2e32:	67 95       	ror	r22
    2e34:	b7 95       	ror	r27
    2e36:	f7 95       	ror	r31
    2e38:	9e 3f       	cpi	r25, 0xFE	; 254
    2e3a:	08 f0       	brcs	.+2      	; 0x2e3e <__addsf3x+0x96>
    2e3c:	b3 cf       	rjmp	.-154    	; 0x2da4 <__addsf3+0x1e>
    2e3e:	93 95       	inc	r25
    2e40:	88 0f       	add	r24, r24
    2e42:	08 f0       	brcs	.+2      	; 0x2e46 <__addsf3x+0x9e>
    2e44:	99 27       	eor	r25, r25
    2e46:	ee 0f       	add	r30, r30
    2e48:	97 95       	ror	r25
    2e4a:	87 95       	ror	r24
    2e4c:	08 95       	ret

00002e4e <__divsf3>:
    2e4e:	0c d0       	rcall	.+24     	; 0x2e68 <__divsf3x>
    2e50:	eb c0       	rjmp	.+470    	; 0x3028 <__fp_round>
    2e52:	e3 d0       	rcall	.+454    	; 0x301a <__fp_pscB>
    2e54:	40 f0       	brcs	.+16     	; 0x2e66 <__divsf3+0x18>
    2e56:	da d0       	rcall	.+436    	; 0x300c <__fp_pscA>
    2e58:	30 f0       	brcs	.+12     	; 0x2e66 <__divsf3+0x18>
    2e5a:	21 f4       	brne	.+8      	; 0x2e64 <__divsf3+0x16>
    2e5c:	5f 3f       	cpi	r21, 0xFF	; 255
    2e5e:	19 f0       	breq	.+6      	; 0x2e66 <__divsf3+0x18>
    2e60:	cc c0       	rjmp	.+408    	; 0x2ffa <__fp_inf>
    2e62:	51 11       	cpse	r21, r1
    2e64:	15 c1       	rjmp	.+554    	; 0x3090 <__fp_szero>
    2e66:	cf c0       	rjmp	.+414    	; 0x3006 <__fp_nan>

00002e68 <__divsf3x>:
    2e68:	f0 d0       	rcall	.+480    	; 0x304a <__fp_split3>
    2e6a:	98 f3       	brcs	.-26     	; 0x2e52 <__divsf3+0x4>

00002e6c <__divsf3_pse>:
    2e6c:	99 23       	and	r25, r25
    2e6e:	c9 f3       	breq	.-14     	; 0x2e62 <__divsf3+0x14>
    2e70:	55 23       	and	r21, r21
    2e72:	b1 f3       	breq	.-20     	; 0x2e60 <__divsf3+0x12>
    2e74:	95 1b       	sub	r25, r21
    2e76:	55 0b       	sbc	r21, r21
    2e78:	bb 27       	eor	r27, r27
    2e7a:	aa 27       	eor	r26, r26
    2e7c:	62 17       	cp	r22, r18
    2e7e:	73 07       	cpc	r23, r19
    2e80:	84 07       	cpc	r24, r20
    2e82:	38 f0       	brcs	.+14     	; 0x2e92 <__divsf3_pse+0x26>
    2e84:	9f 5f       	subi	r25, 0xFF	; 255
    2e86:	5f 4f       	sbci	r21, 0xFF	; 255
    2e88:	22 0f       	add	r18, r18
    2e8a:	33 1f       	adc	r19, r19
    2e8c:	44 1f       	adc	r20, r20
    2e8e:	aa 1f       	adc	r26, r26
    2e90:	a9 f3       	breq	.-22     	; 0x2e7c <__divsf3_pse+0x10>
    2e92:	33 d0       	rcall	.+102    	; 0x2efa <__divsf3_pse+0x8e>
    2e94:	0e 2e       	mov	r0, r30
    2e96:	3a f0       	brmi	.+14     	; 0x2ea6 <__divsf3_pse+0x3a>
    2e98:	e0 e8       	ldi	r30, 0x80	; 128
    2e9a:	30 d0       	rcall	.+96     	; 0x2efc <__divsf3_pse+0x90>
    2e9c:	91 50       	subi	r25, 0x01	; 1
    2e9e:	50 40       	sbci	r21, 0x00	; 0
    2ea0:	e6 95       	lsr	r30
    2ea2:	00 1c       	adc	r0, r0
    2ea4:	ca f7       	brpl	.-14     	; 0x2e98 <__divsf3_pse+0x2c>
    2ea6:	29 d0       	rcall	.+82     	; 0x2efa <__divsf3_pse+0x8e>
    2ea8:	fe 2f       	mov	r31, r30
    2eaa:	27 d0       	rcall	.+78     	; 0x2efa <__divsf3_pse+0x8e>
    2eac:	66 0f       	add	r22, r22
    2eae:	77 1f       	adc	r23, r23
    2eb0:	88 1f       	adc	r24, r24
    2eb2:	bb 1f       	adc	r27, r27
    2eb4:	26 17       	cp	r18, r22
    2eb6:	37 07       	cpc	r19, r23
    2eb8:	48 07       	cpc	r20, r24
    2eba:	ab 07       	cpc	r26, r27
    2ebc:	b0 e8       	ldi	r27, 0x80	; 128
    2ebe:	09 f0       	breq	.+2      	; 0x2ec2 <__divsf3_pse+0x56>
    2ec0:	bb 0b       	sbc	r27, r27
    2ec2:	80 2d       	mov	r24, r0
    2ec4:	bf 01       	movw	r22, r30
    2ec6:	ff 27       	eor	r31, r31
    2ec8:	93 58       	subi	r25, 0x83	; 131
    2eca:	5f 4f       	sbci	r21, 0xFF	; 255
    2ecc:	2a f0       	brmi	.+10     	; 0x2ed8 <__divsf3_pse+0x6c>
    2ece:	9e 3f       	cpi	r25, 0xFE	; 254
    2ed0:	51 05       	cpc	r21, r1
    2ed2:	68 f0       	brcs	.+26     	; 0x2eee <__divsf3_pse+0x82>
    2ed4:	92 c0       	rjmp	.+292    	; 0x2ffa <__fp_inf>
    2ed6:	dc c0       	rjmp	.+440    	; 0x3090 <__fp_szero>
    2ed8:	5f 3f       	cpi	r21, 0xFF	; 255
    2eda:	ec f3       	brlt	.-6      	; 0x2ed6 <__divsf3_pse+0x6a>
    2edc:	98 3e       	cpi	r25, 0xE8	; 232
    2ede:	dc f3       	brlt	.-10     	; 0x2ed6 <__divsf3_pse+0x6a>
    2ee0:	86 95       	lsr	r24
    2ee2:	77 95       	ror	r23
    2ee4:	67 95       	ror	r22
    2ee6:	b7 95       	ror	r27
    2ee8:	f7 95       	ror	r31
    2eea:	9f 5f       	subi	r25, 0xFF	; 255
    2eec:	c9 f7       	brne	.-14     	; 0x2ee0 <__divsf3_pse+0x74>
    2eee:	88 0f       	add	r24, r24
    2ef0:	91 1d       	adc	r25, r1
    2ef2:	96 95       	lsr	r25
    2ef4:	87 95       	ror	r24
    2ef6:	97 f9       	bld	r25, 7
    2ef8:	08 95       	ret
    2efa:	e1 e0       	ldi	r30, 0x01	; 1
    2efc:	66 0f       	add	r22, r22
    2efe:	77 1f       	adc	r23, r23
    2f00:	88 1f       	adc	r24, r24
    2f02:	bb 1f       	adc	r27, r27
    2f04:	62 17       	cp	r22, r18
    2f06:	73 07       	cpc	r23, r19
    2f08:	84 07       	cpc	r24, r20
    2f0a:	ba 07       	cpc	r27, r26
    2f0c:	20 f0       	brcs	.+8      	; 0x2f16 <__divsf3_pse+0xaa>
    2f0e:	62 1b       	sub	r22, r18
    2f10:	73 0b       	sbc	r23, r19
    2f12:	84 0b       	sbc	r24, r20
    2f14:	ba 0b       	sbc	r27, r26
    2f16:	ee 1f       	adc	r30, r30
    2f18:	88 f7       	brcc	.-30     	; 0x2efc <__divsf3_pse+0x90>
    2f1a:	e0 95       	com	r30
    2f1c:	08 95       	ret

00002f1e <__fixsfsi>:
    2f1e:	04 d0       	rcall	.+8      	; 0x2f28 <__fixunssfsi>
    2f20:	68 94       	set
    2f22:	b1 11       	cpse	r27, r1
    2f24:	b5 c0       	rjmp	.+362    	; 0x3090 <__fp_szero>
    2f26:	08 95       	ret

00002f28 <__fixunssfsi>:
    2f28:	98 d0       	rcall	.+304    	; 0x305a <__fp_splitA>
    2f2a:	88 f0       	brcs	.+34     	; 0x2f4e <__fixunssfsi+0x26>
    2f2c:	9f 57       	subi	r25, 0x7F	; 127
    2f2e:	90 f0       	brcs	.+36     	; 0x2f54 <__fixunssfsi+0x2c>
    2f30:	b9 2f       	mov	r27, r25
    2f32:	99 27       	eor	r25, r25
    2f34:	b7 51       	subi	r27, 0x17	; 23
    2f36:	a0 f0       	brcs	.+40     	; 0x2f60 <__fixunssfsi+0x38>
    2f38:	d1 f0       	breq	.+52     	; 0x2f6e <__fixunssfsi+0x46>
    2f3a:	66 0f       	add	r22, r22
    2f3c:	77 1f       	adc	r23, r23
    2f3e:	88 1f       	adc	r24, r24
    2f40:	99 1f       	adc	r25, r25
    2f42:	1a f0       	brmi	.+6      	; 0x2f4a <__fixunssfsi+0x22>
    2f44:	ba 95       	dec	r27
    2f46:	c9 f7       	brne	.-14     	; 0x2f3a <__fixunssfsi+0x12>
    2f48:	12 c0       	rjmp	.+36     	; 0x2f6e <__fixunssfsi+0x46>
    2f4a:	b1 30       	cpi	r27, 0x01	; 1
    2f4c:	81 f0       	breq	.+32     	; 0x2f6e <__fixunssfsi+0x46>
    2f4e:	9f d0       	rcall	.+318    	; 0x308e <__fp_zero>
    2f50:	b1 e0       	ldi	r27, 0x01	; 1
    2f52:	08 95       	ret
    2f54:	9c c0       	rjmp	.+312    	; 0x308e <__fp_zero>
    2f56:	67 2f       	mov	r22, r23
    2f58:	78 2f       	mov	r23, r24
    2f5a:	88 27       	eor	r24, r24
    2f5c:	b8 5f       	subi	r27, 0xF8	; 248
    2f5e:	39 f0       	breq	.+14     	; 0x2f6e <__fixunssfsi+0x46>
    2f60:	b9 3f       	cpi	r27, 0xF9	; 249
    2f62:	cc f3       	brlt	.-14     	; 0x2f56 <__fixunssfsi+0x2e>
    2f64:	86 95       	lsr	r24
    2f66:	77 95       	ror	r23
    2f68:	67 95       	ror	r22
    2f6a:	b3 95       	inc	r27
    2f6c:	d9 f7       	brne	.-10     	; 0x2f64 <__fixunssfsi+0x3c>
    2f6e:	3e f4       	brtc	.+14     	; 0x2f7e <__fixunssfsi+0x56>
    2f70:	90 95       	com	r25
    2f72:	80 95       	com	r24
    2f74:	70 95       	com	r23
    2f76:	61 95       	neg	r22
    2f78:	7f 4f       	sbci	r23, 0xFF	; 255
    2f7a:	8f 4f       	sbci	r24, 0xFF	; 255
    2f7c:	9f 4f       	sbci	r25, 0xFF	; 255
    2f7e:	08 95       	ret

00002f80 <__floatunsisf>:
    2f80:	e8 94       	clt
    2f82:	09 c0       	rjmp	.+18     	; 0x2f96 <__floatsisf+0x12>

00002f84 <__floatsisf>:
    2f84:	97 fb       	bst	r25, 7
    2f86:	3e f4       	brtc	.+14     	; 0x2f96 <__floatsisf+0x12>
    2f88:	90 95       	com	r25
    2f8a:	80 95       	com	r24
    2f8c:	70 95       	com	r23
    2f8e:	61 95       	neg	r22
    2f90:	7f 4f       	sbci	r23, 0xFF	; 255
    2f92:	8f 4f       	sbci	r24, 0xFF	; 255
    2f94:	9f 4f       	sbci	r25, 0xFF	; 255
    2f96:	99 23       	and	r25, r25
    2f98:	a9 f0       	breq	.+42     	; 0x2fc4 <__floatsisf+0x40>
    2f9a:	f9 2f       	mov	r31, r25
    2f9c:	96 e9       	ldi	r25, 0x96	; 150
    2f9e:	bb 27       	eor	r27, r27
    2fa0:	93 95       	inc	r25
    2fa2:	f6 95       	lsr	r31
    2fa4:	87 95       	ror	r24
    2fa6:	77 95       	ror	r23
    2fa8:	67 95       	ror	r22
    2faa:	b7 95       	ror	r27
    2fac:	f1 11       	cpse	r31, r1
    2fae:	f8 cf       	rjmp	.-16     	; 0x2fa0 <__floatsisf+0x1c>
    2fb0:	fa f4       	brpl	.+62     	; 0x2ff0 <__floatsisf+0x6c>
    2fb2:	bb 0f       	add	r27, r27
    2fb4:	11 f4       	brne	.+4      	; 0x2fba <__floatsisf+0x36>
    2fb6:	60 ff       	sbrs	r22, 0
    2fb8:	1b c0       	rjmp	.+54     	; 0x2ff0 <__floatsisf+0x6c>
    2fba:	6f 5f       	subi	r22, 0xFF	; 255
    2fbc:	7f 4f       	sbci	r23, 0xFF	; 255
    2fbe:	8f 4f       	sbci	r24, 0xFF	; 255
    2fc0:	9f 4f       	sbci	r25, 0xFF	; 255
    2fc2:	16 c0       	rjmp	.+44     	; 0x2ff0 <__floatsisf+0x6c>
    2fc4:	88 23       	and	r24, r24
    2fc6:	11 f0       	breq	.+4      	; 0x2fcc <__floatsisf+0x48>
    2fc8:	96 e9       	ldi	r25, 0x96	; 150
    2fca:	11 c0       	rjmp	.+34     	; 0x2fee <__floatsisf+0x6a>
    2fcc:	77 23       	and	r23, r23
    2fce:	21 f0       	breq	.+8      	; 0x2fd8 <__floatsisf+0x54>
    2fd0:	9e e8       	ldi	r25, 0x8E	; 142
    2fd2:	87 2f       	mov	r24, r23
    2fd4:	76 2f       	mov	r23, r22
    2fd6:	05 c0       	rjmp	.+10     	; 0x2fe2 <__floatsisf+0x5e>
    2fd8:	66 23       	and	r22, r22
    2fda:	71 f0       	breq	.+28     	; 0x2ff8 <__floatsisf+0x74>
    2fdc:	96 e8       	ldi	r25, 0x86	; 134
    2fde:	86 2f       	mov	r24, r22
    2fe0:	70 e0       	ldi	r23, 0x00	; 0
    2fe2:	60 e0       	ldi	r22, 0x00	; 0
    2fe4:	2a f0       	brmi	.+10     	; 0x2ff0 <__floatsisf+0x6c>
    2fe6:	9a 95       	dec	r25
    2fe8:	66 0f       	add	r22, r22
    2fea:	77 1f       	adc	r23, r23
    2fec:	88 1f       	adc	r24, r24
    2fee:	da f7       	brpl	.-10     	; 0x2fe6 <__floatsisf+0x62>
    2ff0:	88 0f       	add	r24, r24
    2ff2:	96 95       	lsr	r25
    2ff4:	87 95       	ror	r24
    2ff6:	97 f9       	bld	r25, 7
    2ff8:	08 95       	ret

00002ffa <__fp_inf>:
    2ffa:	97 f9       	bld	r25, 7
    2ffc:	9f 67       	ori	r25, 0x7F	; 127
    2ffe:	80 e8       	ldi	r24, 0x80	; 128
    3000:	70 e0       	ldi	r23, 0x00	; 0
    3002:	60 e0       	ldi	r22, 0x00	; 0
    3004:	08 95       	ret

00003006 <__fp_nan>:
    3006:	9f ef       	ldi	r25, 0xFF	; 255
    3008:	80 ec       	ldi	r24, 0xC0	; 192
    300a:	08 95       	ret

0000300c <__fp_pscA>:
    300c:	00 24       	eor	r0, r0
    300e:	0a 94       	dec	r0
    3010:	16 16       	cp	r1, r22
    3012:	17 06       	cpc	r1, r23
    3014:	18 06       	cpc	r1, r24
    3016:	09 06       	cpc	r0, r25
    3018:	08 95       	ret

0000301a <__fp_pscB>:
    301a:	00 24       	eor	r0, r0
    301c:	0a 94       	dec	r0
    301e:	12 16       	cp	r1, r18
    3020:	13 06       	cpc	r1, r19
    3022:	14 06       	cpc	r1, r20
    3024:	05 06       	cpc	r0, r21
    3026:	08 95       	ret

00003028 <__fp_round>:
    3028:	09 2e       	mov	r0, r25
    302a:	03 94       	inc	r0
    302c:	00 0c       	add	r0, r0
    302e:	11 f4       	brne	.+4      	; 0x3034 <__fp_round+0xc>
    3030:	88 23       	and	r24, r24
    3032:	52 f0       	brmi	.+20     	; 0x3048 <__fp_round+0x20>
    3034:	bb 0f       	add	r27, r27
    3036:	40 f4       	brcc	.+16     	; 0x3048 <__fp_round+0x20>
    3038:	bf 2b       	or	r27, r31
    303a:	11 f4       	brne	.+4      	; 0x3040 <__fp_round+0x18>
    303c:	60 ff       	sbrs	r22, 0
    303e:	04 c0       	rjmp	.+8      	; 0x3048 <__fp_round+0x20>
    3040:	6f 5f       	subi	r22, 0xFF	; 255
    3042:	7f 4f       	sbci	r23, 0xFF	; 255
    3044:	8f 4f       	sbci	r24, 0xFF	; 255
    3046:	9f 4f       	sbci	r25, 0xFF	; 255
    3048:	08 95       	ret

0000304a <__fp_split3>:
    304a:	57 fd       	sbrc	r21, 7
    304c:	90 58       	subi	r25, 0x80	; 128
    304e:	44 0f       	add	r20, r20
    3050:	55 1f       	adc	r21, r21
    3052:	59 f0       	breq	.+22     	; 0x306a <__fp_splitA+0x10>
    3054:	5f 3f       	cpi	r21, 0xFF	; 255
    3056:	71 f0       	breq	.+28     	; 0x3074 <__fp_splitA+0x1a>
    3058:	47 95       	ror	r20

0000305a <__fp_splitA>:
    305a:	88 0f       	add	r24, r24
    305c:	97 fb       	bst	r25, 7
    305e:	99 1f       	adc	r25, r25
    3060:	61 f0       	breq	.+24     	; 0x307a <__fp_splitA+0x20>
    3062:	9f 3f       	cpi	r25, 0xFF	; 255
    3064:	79 f0       	breq	.+30     	; 0x3084 <__fp_splitA+0x2a>
    3066:	87 95       	ror	r24
    3068:	08 95       	ret
    306a:	12 16       	cp	r1, r18
    306c:	13 06       	cpc	r1, r19
    306e:	14 06       	cpc	r1, r20
    3070:	55 1f       	adc	r21, r21
    3072:	f2 cf       	rjmp	.-28     	; 0x3058 <__fp_split3+0xe>
    3074:	46 95       	lsr	r20
    3076:	f1 df       	rcall	.-30     	; 0x305a <__fp_splitA>
    3078:	08 c0       	rjmp	.+16     	; 0x308a <__fp_splitA+0x30>
    307a:	16 16       	cp	r1, r22
    307c:	17 06       	cpc	r1, r23
    307e:	18 06       	cpc	r1, r24
    3080:	99 1f       	adc	r25, r25
    3082:	f1 cf       	rjmp	.-30     	; 0x3066 <__fp_splitA+0xc>
    3084:	86 95       	lsr	r24
    3086:	71 05       	cpc	r23, r1
    3088:	61 05       	cpc	r22, r1
    308a:	08 94       	sec
    308c:	08 95       	ret

0000308e <__fp_zero>:
    308e:	e8 94       	clt

00003090 <__fp_szero>:
    3090:	bb 27       	eor	r27, r27
    3092:	66 27       	eor	r22, r22
    3094:	77 27       	eor	r23, r23
    3096:	cb 01       	movw	r24, r22
    3098:	97 f9       	bld	r25, 7
    309a:	08 95       	ret
    309c:	0e f0       	brts	.+2      	; 0x30a0 <__fp_szero+0x10>
    309e:	23 c1       	rjmp	.+582    	; 0x32e6 <__fp_mpack>
    30a0:	b2 cf       	rjmp	.-156    	; 0x3006 <__fp_nan>
    30a2:	68 94       	set
    30a4:	aa cf       	rjmp	.-172    	; 0x2ffa <__fp_inf>

000030a6 <log>:
    30a6:	d9 df       	rcall	.-78     	; 0x305a <__fp_splitA>
    30a8:	c8 f3       	brcs	.-14     	; 0x309c <__fp_szero+0xc>
    30aa:	99 23       	and	r25, r25
    30ac:	d1 f3       	breq	.-12     	; 0x30a2 <__fp_szero+0x12>
    30ae:	c6 f3       	brts	.-16     	; 0x30a0 <__fp_szero+0x10>
    30b0:	df 93       	push	r29
    30b2:	cf 93       	push	r28
    30b4:	1f 93       	push	r17
    30b6:	0f 93       	push	r16
    30b8:	ff 92       	push	r15
    30ba:	c9 2f       	mov	r28, r25
    30bc:	dd 27       	eor	r29, r29
    30be:	88 23       	and	r24, r24
    30c0:	2a f0       	brmi	.+10     	; 0x30cc <log+0x26>
    30c2:	21 97       	sbiw	r28, 0x01	; 1
    30c4:	66 0f       	add	r22, r22
    30c6:	77 1f       	adc	r23, r23
    30c8:	88 1f       	adc	r24, r24
    30ca:	da f7       	brpl	.-10     	; 0x30c2 <log+0x1c>
    30cc:	20 e0       	ldi	r18, 0x00	; 0
    30ce:	30 e0       	ldi	r19, 0x00	; 0
    30d0:	40 e8       	ldi	r20, 0x80	; 128
    30d2:	5f eb       	ldi	r21, 0xBF	; 191
    30d4:	9f e3       	ldi	r25, 0x3F	; 63
    30d6:	88 39       	cpi	r24, 0x98	; 152
    30d8:	20 f0       	brcs	.+8      	; 0x30e2 <log+0x3c>
    30da:	80 3e       	cpi	r24, 0xE0	; 224
    30dc:	30 f0       	brcs	.+12     	; 0x30ea <log+0x44>
    30de:	21 96       	adiw	r28, 0x01	; 1
    30e0:	8f 77       	andi	r24, 0x7F	; 127
    30e2:	51 de       	rcall	.-862    	; 0x2d86 <__addsf3>
    30e4:	ec ef       	ldi	r30, 0xFC	; 252
    30e6:	f1 e0       	ldi	r31, 0x01	; 1
    30e8:	03 c0       	rjmp	.+6      	; 0x30f0 <log+0x4a>
    30ea:	4d de       	rcall	.-870    	; 0x2d86 <__addsf3>
    30ec:	e9 e2       	ldi	r30, 0x29	; 41
    30ee:	f2 e0       	ldi	r31, 0x02	; 2
    30f0:	08 d1       	rcall	.+528    	; 0x3302 <__fp_powser>
    30f2:	8b 01       	movw	r16, r22
    30f4:	be 01       	movw	r22, r28
    30f6:	ec 01       	movw	r28, r24
    30f8:	fb 2e       	mov	r15, r27
    30fa:	6f 57       	subi	r22, 0x7F	; 127
    30fc:	71 09       	sbc	r23, r1
    30fe:	75 95       	asr	r23
    3100:	77 1f       	adc	r23, r23
    3102:	88 0b       	sbc	r24, r24
    3104:	99 0b       	sbc	r25, r25
    3106:	3e df       	rcall	.-388    	; 0x2f84 <__floatsisf>
    3108:	28 e1       	ldi	r18, 0x18	; 24
    310a:	32 e7       	ldi	r19, 0x72	; 114
    310c:	41 e3       	ldi	r20, 0x31	; 49
    310e:	5f e3       	ldi	r21, 0x3F	; 63
    3110:	16 d0       	rcall	.+44     	; 0x313e <__mulsf3x>
    3112:	af 2d       	mov	r26, r15
    3114:	98 01       	movw	r18, r16
    3116:	ae 01       	movw	r20, r28
    3118:	ff 90       	pop	r15
    311a:	0f 91       	pop	r16
    311c:	1f 91       	pop	r17
    311e:	cf 91       	pop	r28
    3120:	df 91       	pop	r29
    3122:	42 de       	rcall	.-892    	; 0x2da8 <__addsf3x>
    3124:	81 cf       	rjmp	.-254    	; 0x3028 <__fp_round>

00003126 <__mulsf3>:
    3126:	0b d0       	rcall	.+22     	; 0x313e <__mulsf3x>
    3128:	7f cf       	rjmp	.-258    	; 0x3028 <__fp_round>
    312a:	70 df       	rcall	.-288    	; 0x300c <__fp_pscA>
    312c:	28 f0       	brcs	.+10     	; 0x3138 <__mulsf3+0x12>
    312e:	75 df       	rcall	.-278    	; 0x301a <__fp_pscB>
    3130:	18 f0       	brcs	.+6      	; 0x3138 <__mulsf3+0x12>
    3132:	95 23       	and	r25, r21
    3134:	09 f0       	breq	.+2      	; 0x3138 <__mulsf3+0x12>
    3136:	61 cf       	rjmp	.-318    	; 0x2ffa <__fp_inf>
    3138:	66 cf       	rjmp	.-308    	; 0x3006 <__fp_nan>
    313a:	11 24       	eor	r1, r1
    313c:	a9 cf       	rjmp	.-174    	; 0x3090 <__fp_szero>

0000313e <__mulsf3x>:
    313e:	85 df       	rcall	.-246    	; 0x304a <__fp_split3>
    3140:	a0 f3       	brcs	.-24     	; 0x312a <__mulsf3+0x4>

00003142 <__mulsf3_pse>:
    3142:	95 9f       	mul	r25, r21
    3144:	d1 f3       	breq	.-12     	; 0x313a <__mulsf3+0x14>
    3146:	95 0f       	add	r25, r21
    3148:	50 e0       	ldi	r21, 0x00	; 0
    314a:	55 1f       	adc	r21, r21
    314c:	62 9f       	mul	r22, r18
    314e:	f0 01       	movw	r30, r0
    3150:	72 9f       	mul	r23, r18
    3152:	bb 27       	eor	r27, r27
    3154:	f0 0d       	add	r31, r0
    3156:	b1 1d       	adc	r27, r1
    3158:	63 9f       	mul	r22, r19
    315a:	aa 27       	eor	r26, r26
    315c:	f0 0d       	add	r31, r0
    315e:	b1 1d       	adc	r27, r1
    3160:	aa 1f       	adc	r26, r26
    3162:	64 9f       	mul	r22, r20
    3164:	66 27       	eor	r22, r22
    3166:	b0 0d       	add	r27, r0
    3168:	a1 1d       	adc	r26, r1
    316a:	66 1f       	adc	r22, r22
    316c:	82 9f       	mul	r24, r18
    316e:	22 27       	eor	r18, r18
    3170:	b0 0d       	add	r27, r0
    3172:	a1 1d       	adc	r26, r1
    3174:	62 1f       	adc	r22, r18
    3176:	73 9f       	mul	r23, r19
    3178:	b0 0d       	add	r27, r0
    317a:	a1 1d       	adc	r26, r1
    317c:	62 1f       	adc	r22, r18
    317e:	83 9f       	mul	r24, r19
    3180:	a0 0d       	add	r26, r0
    3182:	61 1d       	adc	r22, r1
    3184:	22 1f       	adc	r18, r18
    3186:	74 9f       	mul	r23, r20
    3188:	33 27       	eor	r19, r19
    318a:	a0 0d       	add	r26, r0
    318c:	61 1d       	adc	r22, r1
    318e:	23 1f       	adc	r18, r19
    3190:	84 9f       	mul	r24, r20
    3192:	60 0d       	add	r22, r0
    3194:	21 1d       	adc	r18, r1
    3196:	82 2f       	mov	r24, r18
    3198:	76 2f       	mov	r23, r22
    319a:	6a 2f       	mov	r22, r26
    319c:	11 24       	eor	r1, r1
    319e:	9f 57       	subi	r25, 0x7F	; 127
    31a0:	50 40       	sbci	r21, 0x00	; 0
    31a2:	8a f0       	brmi	.+34     	; 0x31c6 <__mulsf3_pse+0x84>
    31a4:	e1 f0       	breq	.+56     	; 0x31de <__mulsf3_pse+0x9c>
    31a6:	88 23       	and	r24, r24
    31a8:	4a f0       	brmi	.+18     	; 0x31bc <__mulsf3_pse+0x7a>
    31aa:	ee 0f       	add	r30, r30
    31ac:	ff 1f       	adc	r31, r31
    31ae:	bb 1f       	adc	r27, r27
    31b0:	66 1f       	adc	r22, r22
    31b2:	77 1f       	adc	r23, r23
    31b4:	88 1f       	adc	r24, r24
    31b6:	91 50       	subi	r25, 0x01	; 1
    31b8:	50 40       	sbci	r21, 0x00	; 0
    31ba:	a9 f7       	brne	.-22     	; 0x31a6 <__mulsf3_pse+0x64>
    31bc:	9e 3f       	cpi	r25, 0xFE	; 254
    31be:	51 05       	cpc	r21, r1
    31c0:	70 f0       	brcs	.+28     	; 0x31de <__mulsf3_pse+0x9c>
    31c2:	1b cf       	rjmp	.-458    	; 0x2ffa <__fp_inf>
    31c4:	65 cf       	rjmp	.-310    	; 0x3090 <__fp_szero>
    31c6:	5f 3f       	cpi	r21, 0xFF	; 255
    31c8:	ec f3       	brlt	.-6      	; 0x31c4 <__mulsf3_pse+0x82>
    31ca:	98 3e       	cpi	r25, 0xE8	; 232
    31cc:	dc f3       	brlt	.-10     	; 0x31c4 <__mulsf3_pse+0x82>
    31ce:	86 95       	lsr	r24
    31d0:	77 95       	ror	r23
    31d2:	67 95       	ror	r22
    31d4:	b7 95       	ror	r27
    31d6:	f7 95       	ror	r31
    31d8:	e7 95       	ror	r30
    31da:	9f 5f       	subi	r25, 0xFF	; 255
    31dc:	c1 f7       	brne	.-16     	; 0x31ce <__mulsf3_pse+0x8c>
    31de:	fe 2b       	or	r31, r30
    31e0:	88 0f       	add	r24, r24
    31e2:	91 1d       	adc	r25, r1
    31e4:	96 95       	lsr	r25
    31e6:	87 95       	ror	r24
    31e8:	97 f9       	bld	r25, 7
    31ea:	08 95       	ret

000031ec <pow>:
    31ec:	fa 01       	movw	r30, r20
    31ee:	ee 0f       	add	r30, r30
    31f0:	ff 1f       	adc	r31, r31
    31f2:	30 96       	adiw	r30, 0x00	; 0
    31f4:	21 05       	cpc	r18, r1
    31f6:	31 05       	cpc	r19, r1
    31f8:	99 f1       	breq	.+102    	; 0x3260 <pow+0x74>
    31fa:	61 15       	cp	r22, r1
    31fc:	71 05       	cpc	r23, r1
    31fe:	61 f4       	brne	.+24     	; 0x3218 <pow+0x2c>
    3200:	80 38       	cpi	r24, 0x80	; 128
    3202:	bf e3       	ldi	r27, 0x3F	; 63
    3204:	9b 07       	cpc	r25, r27
    3206:	49 f1       	breq	.+82     	; 0x325a <pow+0x6e>
    3208:	68 94       	set
    320a:	90 38       	cpi	r25, 0x80	; 128
    320c:	81 05       	cpc	r24, r1
    320e:	61 f0       	breq	.+24     	; 0x3228 <pow+0x3c>
    3210:	80 38       	cpi	r24, 0x80	; 128
    3212:	bf ef       	ldi	r27, 0xFF	; 255
    3214:	9b 07       	cpc	r25, r27
    3216:	41 f0       	breq	.+16     	; 0x3228 <pow+0x3c>
    3218:	99 23       	and	r25, r25
    321a:	42 f5       	brpl	.+80     	; 0x326c <pow+0x80>
    321c:	ff 3f       	cpi	r31, 0xFF	; 255
    321e:	e1 05       	cpc	r30, r1
    3220:	31 05       	cpc	r19, r1
    3222:	21 05       	cpc	r18, r1
    3224:	11 f1       	breq	.+68     	; 0x326a <pow+0x7e>
    3226:	e8 94       	clt
    3228:	08 94       	sec
    322a:	e7 95       	ror	r30
    322c:	d9 01       	movw	r26, r18
    322e:	aa 23       	and	r26, r26
    3230:	29 f4       	brne	.+10     	; 0x323c <pow+0x50>
    3232:	ab 2f       	mov	r26, r27
    3234:	be 2f       	mov	r27, r30
    3236:	f8 5f       	subi	r31, 0xF8	; 248
    3238:	d0 f3       	brcs	.-12     	; 0x322e <pow+0x42>
    323a:	10 c0       	rjmp	.+32     	; 0x325c <pow+0x70>
    323c:	ff 5f       	subi	r31, 0xFF	; 255
    323e:	70 f4       	brcc	.+28     	; 0x325c <pow+0x70>
    3240:	a6 95       	lsr	r26
    3242:	e0 f7       	brcc	.-8      	; 0x323c <pow+0x50>
    3244:	f7 39       	cpi	r31, 0x97	; 151
    3246:	50 f0       	brcs	.+20     	; 0x325c <pow+0x70>
    3248:	19 f0       	breq	.+6      	; 0x3250 <pow+0x64>
    324a:	ff 3a       	cpi	r31, 0xAF	; 175
    324c:	38 f4       	brcc	.+14     	; 0x325c <pow+0x70>
    324e:	9f 77       	andi	r25, 0x7F	; 127
    3250:	9f 93       	push	r25
    3252:	0c d0       	rcall	.+24     	; 0x326c <pow+0x80>
    3254:	0f 90       	pop	r0
    3256:	07 fc       	sbrc	r0, 7
    3258:	90 58       	subi	r25, 0x80	; 128
    325a:	08 95       	ret
    325c:	3e f0       	brts	.+14     	; 0x326c <pow+0x80>
    325e:	d3 ce       	rjmp	.-602    	; 0x3006 <__fp_nan>
    3260:	60 e0       	ldi	r22, 0x00	; 0
    3262:	70 e0       	ldi	r23, 0x00	; 0
    3264:	80 e8       	ldi	r24, 0x80	; 128
    3266:	9f e3       	ldi	r25, 0x3F	; 63
    3268:	08 95       	ret
    326a:	4f e7       	ldi	r20, 0x7F	; 127
    326c:	9f 77       	andi	r25, 0x7F	; 127
    326e:	5f 93       	push	r21
    3270:	4f 93       	push	r20
    3272:	3f 93       	push	r19
    3274:	2f 93       	push	r18
    3276:	17 df       	rcall	.-466    	; 0x30a6 <log>
    3278:	2f 91       	pop	r18
    327a:	3f 91       	pop	r19
    327c:	4f 91       	pop	r20
    327e:	5f 91       	pop	r21
    3280:	52 df       	rcall	.-348    	; 0x3126 <__mulsf3>
    3282:	05 c0       	rjmp	.+10     	; 0x328e <exp>
    3284:	19 f4       	brne	.+6      	; 0x328c <pow+0xa0>
    3286:	0e f0       	brts	.+2      	; 0x328a <pow+0x9e>
    3288:	b8 ce       	rjmp	.-656    	; 0x2ffa <__fp_inf>
    328a:	01 cf       	rjmp	.-510    	; 0x308e <__fp_zero>
    328c:	bc ce       	rjmp	.-648    	; 0x3006 <__fp_nan>

0000328e <exp>:
    328e:	e5 de       	rcall	.-566    	; 0x305a <__fp_splitA>
    3290:	c8 f3       	brcs	.-14     	; 0x3284 <pow+0x98>
    3292:	96 38       	cpi	r25, 0x86	; 134
    3294:	c0 f7       	brcc	.-16     	; 0x3286 <pow+0x9a>
    3296:	07 f8       	bld	r0, 7
    3298:	0f 92       	push	r0
    329a:	e8 94       	clt
    329c:	2b e3       	ldi	r18, 0x3B	; 59
    329e:	3a ea       	ldi	r19, 0xAA	; 170
    32a0:	48 eb       	ldi	r20, 0xB8	; 184
    32a2:	5f e7       	ldi	r21, 0x7F	; 127
    32a4:	4e df       	rcall	.-356    	; 0x3142 <__mulsf3_pse>
    32a6:	0f 92       	push	r0
    32a8:	0f 92       	push	r0
    32aa:	0f 92       	push	r0
    32ac:	4d b7       	in	r20, 0x3d	; 61
    32ae:	5e b7       	in	r21, 0x3e	; 62
    32b0:	0f 92       	push	r0
    32b2:	89 d0       	rcall	.+274    	; 0x33c6 <modf>
    32b4:	e6 e5       	ldi	r30, 0x56	; 86
    32b6:	f2 e0       	ldi	r31, 0x02	; 2
    32b8:	24 d0       	rcall	.+72     	; 0x3302 <__fp_powser>
    32ba:	4f 91       	pop	r20
    32bc:	5f 91       	pop	r21
    32be:	ef 91       	pop	r30
    32c0:	ff 91       	pop	r31
    32c2:	e5 95       	asr	r30
    32c4:	ee 1f       	adc	r30, r30
    32c6:	ff 1f       	adc	r31, r31
    32c8:	49 f0       	breq	.+18     	; 0x32dc <exp+0x4e>
    32ca:	fe 57       	subi	r31, 0x7E	; 126
    32cc:	e0 68       	ori	r30, 0x80	; 128
    32ce:	44 27       	eor	r20, r20
    32d0:	ee 0f       	add	r30, r30
    32d2:	44 1f       	adc	r20, r20
    32d4:	fa 95       	dec	r31
    32d6:	e1 f7       	brne	.-8      	; 0x32d0 <exp+0x42>
    32d8:	41 95       	neg	r20
    32da:	55 0b       	sbc	r21, r21
    32dc:	40 d0       	rcall	.+128    	; 0x335e <ldexp>
    32de:	0f 90       	pop	r0
    32e0:	07 fe       	sbrs	r0, 7
    32e2:	34 c0       	rjmp	.+104    	; 0x334c <inverse>
    32e4:	08 95       	ret

000032e6 <__fp_mpack>:
    32e6:	9f 3f       	cpi	r25, 0xFF	; 255
    32e8:	31 f0       	breq	.+12     	; 0x32f6 <__fp_mpack_finite+0xc>

000032ea <__fp_mpack_finite>:
    32ea:	91 50       	subi	r25, 0x01	; 1
    32ec:	20 f4       	brcc	.+8      	; 0x32f6 <__fp_mpack_finite+0xc>
    32ee:	87 95       	ror	r24
    32f0:	77 95       	ror	r23
    32f2:	67 95       	ror	r22
    32f4:	b7 95       	ror	r27
    32f6:	88 0f       	add	r24, r24
    32f8:	91 1d       	adc	r25, r1
    32fa:	96 95       	lsr	r25
    32fc:	87 95       	ror	r24
    32fe:	97 f9       	bld	r25, 7
    3300:	08 95       	ret

00003302 <__fp_powser>:
    3302:	df 93       	push	r29
    3304:	cf 93       	push	r28
    3306:	1f 93       	push	r17
    3308:	0f 93       	push	r16
    330a:	ff 92       	push	r15
    330c:	ef 92       	push	r14
    330e:	df 92       	push	r13
    3310:	7b 01       	movw	r14, r22
    3312:	8c 01       	movw	r16, r24
    3314:	68 94       	set
    3316:	05 c0       	rjmp	.+10     	; 0x3322 <__fp_powser+0x20>
    3318:	da 2e       	mov	r13, r26
    331a:	ef 01       	movw	r28, r30
    331c:	10 df       	rcall	.-480    	; 0x313e <__mulsf3x>
    331e:	fe 01       	movw	r30, r28
    3320:	e8 94       	clt
    3322:	a5 91       	lpm	r26, Z+
    3324:	25 91       	lpm	r18, Z+
    3326:	35 91       	lpm	r19, Z+
    3328:	45 91       	lpm	r20, Z+
    332a:	55 91       	lpm	r21, Z+
    332c:	ae f3       	brts	.-22     	; 0x3318 <__fp_powser+0x16>
    332e:	ef 01       	movw	r28, r30
    3330:	3b dd       	rcall	.-1418   	; 0x2da8 <__addsf3x>
    3332:	fe 01       	movw	r30, r28
    3334:	97 01       	movw	r18, r14
    3336:	a8 01       	movw	r20, r16
    3338:	da 94       	dec	r13
    333a:	79 f7       	brne	.-34     	; 0x331a <__fp_powser+0x18>
    333c:	df 90       	pop	r13
    333e:	ef 90       	pop	r14
    3340:	ff 90       	pop	r15
    3342:	0f 91       	pop	r16
    3344:	1f 91       	pop	r17
    3346:	cf 91       	pop	r28
    3348:	df 91       	pop	r29
    334a:	08 95       	ret

0000334c <inverse>:
    334c:	9b 01       	movw	r18, r22
    334e:	ac 01       	movw	r20, r24
    3350:	60 e0       	ldi	r22, 0x00	; 0
    3352:	70 e0       	ldi	r23, 0x00	; 0
    3354:	80 e8       	ldi	r24, 0x80	; 128
    3356:	9f e3       	ldi	r25, 0x3F	; 63
    3358:	7a cd       	rjmp	.-1292   	; 0x2e4e <__divsf3>
    335a:	4f ce       	rjmp	.-866    	; 0x2ffa <__fp_inf>
    335c:	c4 cf       	rjmp	.-120    	; 0x32e6 <__fp_mpack>

0000335e <ldexp>:
    335e:	7d de       	rcall	.-774    	; 0x305a <__fp_splitA>
    3360:	e8 f3       	brcs	.-6      	; 0x335c <inverse+0x10>
    3362:	99 23       	and	r25, r25
    3364:	d9 f3       	breq	.-10     	; 0x335c <inverse+0x10>
    3366:	94 0f       	add	r25, r20
    3368:	51 1d       	adc	r21, r1
    336a:	bb f3       	brvs	.-18     	; 0x335a <inverse+0xe>
    336c:	91 50       	subi	r25, 0x01	; 1
    336e:	50 40       	sbci	r21, 0x00	; 0
    3370:	94 f0       	brlt	.+36     	; 0x3396 <ldexp+0x38>
    3372:	59 f0       	breq	.+22     	; 0x338a <ldexp+0x2c>
    3374:	88 23       	and	r24, r24
    3376:	32 f0       	brmi	.+12     	; 0x3384 <ldexp+0x26>
    3378:	66 0f       	add	r22, r22
    337a:	77 1f       	adc	r23, r23
    337c:	88 1f       	adc	r24, r24
    337e:	91 50       	subi	r25, 0x01	; 1
    3380:	50 40       	sbci	r21, 0x00	; 0
    3382:	c1 f7       	brne	.-16     	; 0x3374 <ldexp+0x16>
    3384:	9e 3f       	cpi	r25, 0xFE	; 254
    3386:	51 05       	cpc	r21, r1
    3388:	44 f7       	brge	.-48     	; 0x335a <inverse+0xe>
    338a:	88 0f       	add	r24, r24
    338c:	91 1d       	adc	r25, r1
    338e:	96 95       	lsr	r25
    3390:	87 95       	ror	r24
    3392:	97 f9       	bld	r25, 7
    3394:	08 95       	ret
    3396:	5f 3f       	cpi	r21, 0xFF	; 255
    3398:	ac f0       	brlt	.+42     	; 0x33c4 <ldexp+0x66>
    339a:	98 3e       	cpi	r25, 0xE8	; 232
    339c:	9c f0       	brlt	.+38     	; 0x33c4 <ldexp+0x66>
    339e:	bb 27       	eor	r27, r27
    33a0:	86 95       	lsr	r24
    33a2:	77 95       	ror	r23
    33a4:	67 95       	ror	r22
    33a6:	b7 95       	ror	r27
    33a8:	08 f4       	brcc	.+2      	; 0x33ac <ldexp+0x4e>
    33aa:	b1 60       	ori	r27, 0x01	; 1
    33ac:	93 95       	inc	r25
    33ae:	c1 f7       	brne	.-16     	; 0x33a0 <ldexp+0x42>
    33b0:	bb 0f       	add	r27, r27
    33b2:	58 f7       	brcc	.-42     	; 0x338a <ldexp+0x2c>
    33b4:	11 f4       	brne	.+4      	; 0x33ba <ldexp+0x5c>
    33b6:	60 ff       	sbrs	r22, 0
    33b8:	e8 cf       	rjmp	.-48     	; 0x338a <ldexp+0x2c>
    33ba:	6f 5f       	subi	r22, 0xFF	; 255
    33bc:	7f 4f       	sbci	r23, 0xFF	; 255
    33be:	8f 4f       	sbci	r24, 0xFF	; 255
    33c0:	9f 4f       	sbci	r25, 0xFF	; 255
    33c2:	e3 cf       	rjmp	.-58     	; 0x338a <ldexp+0x2c>
    33c4:	65 ce       	rjmp	.-822    	; 0x3090 <__fp_szero>

000033c6 <modf>:
    33c6:	fa 01       	movw	r30, r20
    33c8:	dc 01       	movw	r26, r24
    33ca:	aa 0f       	add	r26, r26
    33cc:	bb 1f       	adc	r27, r27
    33ce:	9b 01       	movw	r18, r22
    33d0:	ac 01       	movw	r20, r24
    33d2:	bf 57       	subi	r27, 0x7F	; 127
    33d4:	28 f4       	brcc	.+10     	; 0x33e0 <modf+0x1a>
    33d6:	22 27       	eor	r18, r18
    33d8:	33 27       	eor	r19, r19
    33da:	44 27       	eor	r20, r20
    33dc:	50 78       	andi	r21, 0x80	; 128
    33de:	1f c0       	rjmp	.+62     	; 0x341e <modf+0x58>
    33e0:	b7 51       	subi	r27, 0x17	; 23
    33e2:	88 f4       	brcc	.+34     	; 0x3406 <modf+0x40>
    33e4:	ab 2f       	mov	r26, r27
    33e6:	00 24       	eor	r0, r0
    33e8:	46 95       	lsr	r20
    33ea:	37 95       	ror	r19
    33ec:	27 95       	ror	r18
    33ee:	01 1c       	adc	r0, r1
    33f0:	a3 95       	inc	r26
    33f2:	d2 f3       	brmi	.-12     	; 0x33e8 <modf+0x22>
    33f4:	00 20       	and	r0, r0
    33f6:	69 f0       	breq	.+26     	; 0x3412 <modf+0x4c>
    33f8:	22 0f       	add	r18, r18
    33fa:	33 1f       	adc	r19, r19
    33fc:	44 1f       	adc	r20, r20
    33fe:	b3 95       	inc	r27
    3400:	da f3       	brmi	.-10     	; 0x33f8 <modf+0x32>
    3402:	0d d0       	rcall	.+26     	; 0x341e <modf+0x58>
    3404:	bf cc       	rjmp	.-1666   	; 0x2d84 <__subsf3>
    3406:	61 30       	cpi	r22, 0x01	; 1
    3408:	71 05       	cpc	r23, r1
    340a:	a0 e8       	ldi	r26, 0x80	; 128
    340c:	8a 07       	cpc	r24, r26
    340e:	b9 46       	sbci	r27, 0x69	; 105
    3410:	30 f4       	brcc	.+12     	; 0x341e <modf+0x58>
    3412:	9b 01       	movw	r18, r22
    3414:	ac 01       	movw	r20, r24
    3416:	66 27       	eor	r22, r22
    3418:	77 27       	eor	r23, r23
    341a:	88 27       	eor	r24, r24
    341c:	90 78       	andi	r25, 0x80	; 128
    341e:	30 96       	adiw	r30, 0x00	; 0
    3420:	21 f0       	breq	.+8      	; 0x342a <modf+0x64>
    3422:	20 83       	st	Z, r18
    3424:	31 83       	std	Z+1, r19	; 0x01
    3426:	42 83       	std	Z+2, r20	; 0x02
    3428:	53 83       	std	Z+3, r21	; 0x03
    342a:	08 95       	ret

0000342c <__udivmodsi4>:
    342c:	a1 e2       	ldi	r26, 0x21	; 33
    342e:	1a 2e       	mov	r1, r26
    3430:	aa 1b       	sub	r26, r26
    3432:	bb 1b       	sub	r27, r27
    3434:	fd 01       	movw	r30, r26
    3436:	0d c0       	rjmp	.+26     	; 0x3452 <__udivmodsi4_ep>

00003438 <__udivmodsi4_loop>:
    3438:	aa 1f       	adc	r26, r26
    343a:	bb 1f       	adc	r27, r27
    343c:	ee 1f       	adc	r30, r30
    343e:	ff 1f       	adc	r31, r31
    3440:	a2 17       	cp	r26, r18
    3442:	b3 07       	cpc	r27, r19
    3444:	e4 07       	cpc	r30, r20
    3446:	f5 07       	cpc	r31, r21
    3448:	20 f0       	brcs	.+8      	; 0x3452 <__udivmodsi4_ep>
    344a:	a2 1b       	sub	r26, r18
    344c:	b3 0b       	sbc	r27, r19
    344e:	e4 0b       	sbc	r30, r20
    3450:	f5 0b       	sbc	r31, r21

00003452 <__udivmodsi4_ep>:
    3452:	66 1f       	adc	r22, r22
    3454:	77 1f       	adc	r23, r23
    3456:	88 1f       	adc	r24, r24
    3458:	99 1f       	adc	r25, r25
    345a:	1a 94       	dec	r1
    345c:	69 f7       	brne	.-38     	; 0x3438 <__udivmodsi4_loop>
    345e:	60 95       	com	r22
    3460:	70 95       	com	r23
    3462:	80 95       	com	r24
    3464:	90 95       	com	r25
    3466:	9b 01       	movw	r18, r22
    3468:	ac 01       	movw	r20, r24
    346a:	bd 01       	movw	r22, r26
    346c:	cf 01       	movw	r24, r30
    346e:	08 95       	ret

00003470 <__divmodsi4>:
    3470:	05 2e       	mov	r0, r21
    3472:	97 fb       	bst	r25, 7
    3474:	16 f4       	brtc	.+4      	; 0x347a <__divmodsi4+0xa>
    3476:	00 94       	com	r0
    3478:	0f d0       	rcall	.+30     	; 0x3498 <__negsi2>
    347a:	57 fd       	sbrc	r21, 7
    347c:	05 d0       	rcall	.+10     	; 0x3488 <__divmodsi4_neg2>
    347e:	d6 df       	rcall	.-84     	; 0x342c <__udivmodsi4>
    3480:	07 fc       	sbrc	r0, 7
    3482:	02 d0       	rcall	.+4      	; 0x3488 <__divmodsi4_neg2>
    3484:	46 f4       	brtc	.+16     	; 0x3496 <__divmodsi4_exit>
    3486:	08 c0       	rjmp	.+16     	; 0x3498 <__negsi2>

00003488 <__divmodsi4_neg2>:
    3488:	50 95       	com	r21
    348a:	40 95       	com	r20
    348c:	30 95       	com	r19
    348e:	21 95       	neg	r18
    3490:	3f 4f       	sbci	r19, 0xFF	; 255
    3492:	4f 4f       	sbci	r20, 0xFF	; 255
    3494:	5f 4f       	sbci	r21, 0xFF	; 255

00003496 <__divmodsi4_exit>:
    3496:	08 95       	ret

00003498 <__negsi2>:
    3498:	90 95       	com	r25
    349a:	80 95       	com	r24
    349c:	70 95       	com	r23
    349e:	61 95       	neg	r22
    34a0:	7f 4f       	sbci	r23, 0xFF	; 255
    34a2:	8f 4f       	sbci	r24, 0xFF	; 255
    34a4:	9f 4f       	sbci	r25, 0xFF	; 255
    34a6:	08 95       	ret

000034a8 <__muluhisi3>:
    34a8:	e3 d0       	rcall	.+454    	; 0x3670 <__umulhisi3>
    34aa:	a5 9f       	mul	r26, r21
    34ac:	90 0d       	add	r25, r0
    34ae:	b4 9f       	mul	r27, r20
    34b0:	90 0d       	add	r25, r0
    34b2:	a4 9f       	mul	r26, r20
    34b4:	80 0d       	add	r24, r0
    34b6:	91 1d       	adc	r25, r1
    34b8:	11 24       	eor	r1, r1
    34ba:	08 95       	ret

000034bc <__muldi3>:
    34bc:	df 93       	push	r29
    34be:	cf 93       	push	r28
    34c0:	1f 93       	push	r17
    34c2:	0f 93       	push	r16
    34c4:	9a 9d       	mul	r25, r10
    34c6:	f0 2d       	mov	r31, r0
    34c8:	21 9f       	mul	r18, r17
    34ca:	f0 0d       	add	r31, r0
    34cc:	8b 9d       	mul	r24, r11
    34ce:	f0 0d       	add	r31, r0
    34d0:	8a 9d       	mul	r24, r10
    34d2:	e0 2d       	mov	r30, r0
    34d4:	f1 0d       	add	r31, r1
    34d6:	03 9f       	mul	r16, r19
    34d8:	f0 0d       	add	r31, r0
    34da:	02 9f       	mul	r16, r18
    34dc:	e0 0d       	add	r30, r0
    34de:	f1 1d       	adc	r31, r1
    34e0:	4e 9d       	mul	r20, r14
    34e2:	e0 0d       	add	r30, r0
    34e4:	f1 1d       	adc	r31, r1
    34e6:	5e 9d       	mul	r21, r14
    34e8:	f0 0d       	add	r31, r0
    34ea:	4f 9d       	mul	r20, r15
    34ec:	f0 0d       	add	r31, r0
    34ee:	7f 93       	push	r23
    34f0:	6f 93       	push	r22
    34f2:	bf 92       	push	r11
    34f4:	af 92       	push	r10
    34f6:	5f 93       	push	r21
    34f8:	4f 93       	push	r20
    34fa:	d5 01       	movw	r26, r10
    34fc:	b9 d0       	rcall	.+370    	; 0x3670 <__umulhisi3>
    34fe:	8b 01       	movw	r16, r22
    3500:	ac 01       	movw	r20, r24
    3502:	d7 01       	movw	r26, r14
    3504:	b5 d0       	rcall	.+362    	; 0x3670 <__umulhisi3>
    3506:	eb 01       	movw	r28, r22
    3508:	e8 0f       	add	r30, r24
    350a:	f9 1f       	adc	r31, r25
    350c:	d6 01       	movw	r26, r12
    350e:	1f d0       	rcall	.+62     	; 0x354e <__muldi3_6>
    3510:	2f 91       	pop	r18
    3512:	3f 91       	pop	r19
    3514:	d6 01       	movw	r26, r12
    3516:	ac d0       	rcall	.+344    	; 0x3670 <__umulhisi3>
    3518:	c6 0f       	add	r28, r22
    351a:	d7 1f       	adc	r29, r23
    351c:	e8 1f       	adc	r30, r24
    351e:	f9 1f       	adc	r31, r25
    3520:	af 91       	pop	r26
    3522:	bf 91       	pop	r27
    3524:	14 d0       	rcall	.+40     	; 0x354e <__muldi3_6>
    3526:	2f 91       	pop	r18
    3528:	3f 91       	pop	r19
    352a:	a2 d0       	rcall	.+324    	; 0x3670 <__umulhisi3>
    352c:	c6 0f       	add	r28, r22
    352e:	d7 1f       	adc	r29, r23
    3530:	e8 1f       	adc	r30, r24
    3532:	f9 1f       	adc	r31, r25
    3534:	d6 01       	movw	r26, r12
    3536:	9c d0       	rcall	.+312    	; 0x3670 <__umulhisi3>
    3538:	e6 0f       	add	r30, r22
    353a:	f7 1f       	adc	r31, r23
    353c:	98 01       	movw	r18, r16
    353e:	be 01       	movw	r22, r28
    3540:	cf 01       	movw	r24, r30
    3542:	11 24       	eor	r1, r1
    3544:	0f 91       	pop	r16
    3546:	1f 91       	pop	r17
    3548:	cf 91       	pop	r28
    354a:	df 91       	pop	r29
    354c:	08 95       	ret

0000354e <__muldi3_6>:
    354e:	90 d0       	rcall	.+288    	; 0x3670 <__umulhisi3>
    3550:	46 0f       	add	r20, r22
    3552:	57 1f       	adc	r21, r23
    3554:	c8 1f       	adc	r28, r24
    3556:	d9 1f       	adc	r29, r25
    3558:	08 f4       	brcc	.+2      	; 0x355c <__muldi3_6+0xe>
    355a:	31 96       	adiw	r30, 0x01	; 1
    355c:	08 95       	ret

0000355e <__mulsidi3>:
    355e:	97 fb       	bst	r25, 7
    3560:	57 ff       	sbrs	r21, 7
    3562:	0b c0       	rjmp	.+22     	; 0x357a <__umulsidi3_helper>
    3564:	9f 93       	push	r25
    3566:	8f 93       	push	r24
    3568:	08 d0       	rcall	.+16     	; 0x357a <__umulsidi3_helper>
    356a:	6e 1b       	sub	r22, r30
    356c:	7f 0b       	sbc	r23, r31
    356e:	af 91       	pop	r26
    3570:	bf 91       	pop	r27
    3572:	8a 0b       	sbc	r24, r26
    3574:	9b 0b       	sbc	r25, r27
    3576:	08 95       	ret

00003578 <__umulsidi3>:
    3578:	e8 94       	clt

0000357a <__umulsidi3_helper>:
    357a:	df 93       	push	r29
    357c:	cf 93       	push	r28
    357e:	fc 01       	movw	r30, r24
    3580:	db 01       	movw	r26, r22
    3582:	76 d0       	rcall	.+236    	; 0x3670 <__umulhisi3>
    3584:	7f 93       	push	r23
    3586:	6f 93       	push	r22
    3588:	e9 01       	movw	r28, r18
    358a:	9a 01       	movw	r18, r20
    358c:	ac 01       	movw	r20, r24
    358e:	bf 93       	push	r27
    3590:	af 93       	push	r26
    3592:	3f 93       	push	r19
    3594:	2f 93       	push	r18
    3596:	df 01       	movw	r26, r30
    3598:	6b d0       	rcall	.+214    	; 0x3670 <__umulhisi3>
    359a:	26 f4       	brtc	.+8      	; 0x35a4 <__umulsidi3_helper+0x2a>
    359c:	6c 1b       	sub	r22, r28
    359e:	7d 0b       	sbc	r23, r29
    35a0:	82 0b       	sbc	r24, r18
    35a2:	93 0b       	sbc	r25, r19
    35a4:	9e 01       	movw	r18, r28
    35a6:	eb 01       	movw	r28, r22
    35a8:	fc 01       	movw	r30, r24
    35aa:	d1 df       	rcall	.-94     	; 0x354e <__muldi3_6>
    35ac:	af 91       	pop	r26
    35ae:	bf 91       	pop	r27
    35b0:	2f 91       	pop	r18
    35b2:	3f 91       	pop	r19
    35b4:	cc df       	rcall	.-104    	; 0x354e <__muldi3_6>
    35b6:	be 01       	movw	r22, r28
    35b8:	cf 01       	movw	r24, r30
    35ba:	f9 01       	movw	r30, r18
    35bc:	2f 91       	pop	r18
    35be:	3f 91       	pop	r19
    35c0:	cf 91       	pop	r28
    35c2:	df 91       	pop	r29
    35c4:	08 95       	ret

000035c6 <__ashldi3>:
    35c6:	0f 93       	push	r16
    35c8:	08 30       	cpi	r16, 0x08	; 8
    35ca:	90 f0       	brcs	.+36     	; 0x35f0 <__ashldi3+0x2a>
    35cc:	98 2f       	mov	r25, r24
    35ce:	87 2f       	mov	r24, r23
    35d0:	76 2f       	mov	r23, r22
    35d2:	65 2f       	mov	r22, r21
    35d4:	54 2f       	mov	r21, r20
    35d6:	43 2f       	mov	r20, r19
    35d8:	32 2f       	mov	r19, r18
    35da:	22 27       	eor	r18, r18
    35dc:	08 50       	subi	r16, 0x08	; 8
    35de:	f4 cf       	rjmp	.-24     	; 0x35c8 <__ashldi3+0x2>
    35e0:	22 0f       	add	r18, r18
    35e2:	33 1f       	adc	r19, r19
    35e4:	44 1f       	adc	r20, r20
    35e6:	55 1f       	adc	r21, r21
    35e8:	66 1f       	adc	r22, r22
    35ea:	77 1f       	adc	r23, r23
    35ec:	88 1f       	adc	r24, r24
    35ee:	99 1f       	adc	r25, r25
    35f0:	0a 95       	dec	r16
    35f2:	b2 f7       	brpl	.-20     	; 0x35e0 <__ashldi3+0x1a>
    35f4:	0f 91       	pop	r16
    35f6:	08 95       	ret

000035f8 <__ashrdi3>:
    35f8:	97 fb       	bst	r25, 7
    35fa:	10 f8       	bld	r1, 0

000035fc <__lshrdi3>:
    35fc:	16 94       	lsr	r1
    35fe:	00 08       	sbc	r0, r0
    3600:	0f 93       	push	r16
    3602:	08 30       	cpi	r16, 0x08	; 8
    3604:	98 f0       	brcs	.+38     	; 0x362c <__lshrdi3+0x30>
    3606:	08 50       	subi	r16, 0x08	; 8
    3608:	23 2f       	mov	r18, r19
    360a:	34 2f       	mov	r19, r20
    360c:	45 2f       	mov	r20, r21
    360e:	56 2f       	mov	r21, r22
    3610:	67 2f       	mov	r22, r23
    3612:	78 2f       	mov	r23, r24
    3614:	89 2f       	mov	r24, r25
    3616:	90 2d       	mov	r25, r0
    3618:	f4 cf       	rjmp	.-24     	; 0x3602 <__lshrdi3+0x6>
    361a:	05 94       	asr	r0
    361c:	97 95       	ror	r25
    361e:	87 95       	ror	r24
    3620:	77 95       	ror	r23
    3622:	67 95       	ror	r22
    3624:	57 95       	ror	r21
    3626:	47 95       	ror	r20
    3628:	37 95       	ror	r19
    362a:	27 95       	ror	r18
    362c:	0a 95       	dec	r16
    362e:	aa f7       	brpl	.-22     	; 0x361a <__lshrdi3+0x1e>
    3630:	0f 91       	pop	r16
    3632:	08 95       	ret

00003634 <__adddi3>:
    3634:	2a 0d       	add	r18, r10
    3636:	3b 1d       	adc	r19, r11
    3638:	4c 1d       	adc	r20, r12
    363a:	5d 1d       	adc	r21, r13
    363c:	6e 1d       	adc	r22, r14
    363e:	7f 1d       	adc	r23, r15
    3640:	80 1f       	adc	r24, r16
    3642:	91 1f       	adc	r25, r17
    3644:	08 95       	ret

00003646 <__subdi3>:
    3646:	2a 19       	sub	r18, r10
    3648:	3b 09       	sbc	r19, r11
    364a:	4c 09       	sbc	r20, r12
    364c:	5d 09       	sbc	r21, r13
    364e:	6e 09       	sbc	r22, r14
    3650:	7f 09       	sbc	r23, r15
    3652:	80 0b       	sbc	r24, r16
    3654:	91 0b       	sbc	r25, r17
    3656:	08 95       	ret

00003658 <__cmpdi2_s8>:
    3658:	00 24       	eor	r0, r0
    365a:	a7 fd       	sbrc	r26, 7
    365c:	00 94       	com	r0
    365e:	2a 17       	cp	r18, r26
    3660:	30 05       	cpc	r19, r0
    3662:	40 05       	cpc	r20, r0
    3664:	50 05       	cpc	r21, r0
    3666:	60 05       	cpc	r22, r0
    3668:	70 05       	cpc	r23, r0
    366a:	80 05       	cpc	r24, r0
    366c:	90 05       	cpc	r25, r0
    366e:	08 95       	ret

00003670 <__umulhisi3>:
    3670:	a2 9f       	mul	r26, r18
    3672:	b0 01       	movw	r22, r0
    3674:	b3 9f       	mul	r27, r19
    3676:	c0 01       	movw	r24, r0
    3678:	a3 9f       	mul	r26, r19
    367a:	70 0d       	add	r23, r0
    367c:	81 1d       	adc	r24, r1
    367e:	11 24       	eor	r1, r1
    3680:	91 1d       	adc	r25, r1
    3682:	b2 9f       	mul	r27, r18
    3684:	70 0d       	add	r23, r0
    3686:	81 1d       	adc	r24, r1
    3688:	11 24       	eor	r1, r1
    368a:	91 1d       	adc	r25, r1
    368c:	08 95       	ret

0000368e <fdevopen>:
    368e:	0f 93       	push	r16
    3690:	1f 93       	push	r17
    3692:	cf 93       	push	r28
    3694:	df 93       	push	r29
    3696:	00 97       	sbiw	r24, 0x00	; 0
    3698:	31 f4       	brne	.+12     	; 0x36a6 <fdevopen+0x18>
    369a:	61 15       	cp	r22, r1
    369c:	71 05       	cpc	r23, r1
    369e:	19 f4       	brne	.+6      	; 0x36a6 <fdevopen+0x18>
    36a0:	80 e0       	ldi	r24, 0x00	; 0
    36a2:	90 e0       	ldi	r25, 0x00	; 0
    36a4:	39 c0       	rjmp	.+114    	; 0x3718 <fdevopen+0x8a>
    36a6:	8b 01       	movw	r16, r22
    36a8:	ec 01       	movw	r28, r24
    36aa:	6e e0       	ldi	r22, 0x0E	; 14
    36ac:	70 e0       	ldi	r23, 0x00	; 0
    36ae:	81 e0       	ldi	r24, 0x01	; 1
    36b0:	90 e0       	ldi	r25, 0x00	; 0
    36b2:	bb d2       	rcall	.+1398   	; 0x3c2a <calloc>
    36b4:	fc 01       	movw	r30, r24
    36b6:	89 2b       	or	r24, r25
    36b8:	99 f3       	breq	.-26     	; 0x36a0 <fdevopen+0x12>
    36ba:	80 e8       	ldi	r24, 0x80	; 128
    36bc:	83 83       	std	Z+3, r24	; 0x03
    36be:	01 15       	cp	r16, r1
    36c0:	11 05       	cpc	r17, r1
    36c2:	71 f0       	breq	.+28     	; 0x36e0 <fdevopen+0x52>
    36c4:	02 87       	std	Z+10, r16	; 0x0a
    36c6:	13 87       	std	Z+11, r17	; 0x0b
    36c8:	81 e8       	ldi	r24, 0x81	; 129
    36ca:	83 83       	std	Z+3, r24	; 0x03
    36cc:	80 91 ca 20 	lds	r24, 0x20CA	; 0x8020ca <__iob>
    36d0:	90 91 cb 20 	lds	r25, 0x20CB	; 0x8020cb <__iob+0x1>
    36d4:	89 2b       	or	r24, r25
    36d6:	21 f4       	brne	.+8      	; 0x36e0 <fdevopen+0x52>
    36d8:	e0 93 ca 20 	sts	0x20CA, r30	; 0x8020ca <__iob>
    36dc:	f0 93 cb 20 	sts	0x20CB, r31	; 0x8020cb <__iob+0x1>
    36e0:	20 97       	sbiw	r28, 0x00	; 0
    36e2:	c9 f0       	breq	.+50     	; 0x3716 <fdevopen+0x88>
    36e4:	c0 87       	std	Z+8, r28	; 0x08
    36e6:	d1 87       	std	Z+9, r29	; 0x09
    36e8:	83 81       	ldd	r24, Z+3	; 0x03
    36ea:	82 60       	ori	r24, 0x02	; 2
    36ec:	83 83       	std	Z+3, r24	; 0x03
    36ee:	80 91 cc 20 	lds	r24, 0x20CC	; 0x8020cc <__iob+0x2>
    36f2:	90 91 cd 20 	lds	r25, 0x20CD	; 0x8020cd <__iob+0x3>
    36f6:	89 2b       	or	r24, r25
    36f8:	71 f4       	brne	.+28     	; 0x3716 <fdevopen+0x88>
    36fa:	e0 93 cc 20 	sts	0x20CC, r30	; 0x8020cc <__iob+0x2>
    36fe:	f0 93 cd 20 	sts	0x20CD, r31	; 0x8020cd <__iob+0x3>
    3702:	80 91 ce 20 	lds	r24, 0x20CE	; 0x8020ce <__iob+0x4>
    3706:	90 91 cf 20 	lds	r25, 0x20CF	; 0x8020cf <__iob+0x5>
    370a:	89 2b       	or	r24, r25
    370c:	21 f4       	brne	.+8      	; 0x3716 <fdevopen+0x88>
    370e:	e0 93 ce 20 	sts	0x20CE, r30	; 0x8020ce <__iob+0x4>
    3712:	f0 93 cf 20 	sts	0x20CF, r31	; 0x8020cf <__iob+0x5>
    3716:	cf 01       	movw	r24, r30
    3718:	df 91       	pop	r29
    371a:	cf 91       	pop	r28
    371c:	1f 91       	pop	r17
    371e:	0f 91       	pop	r16
    3720:	08 95       	ret

00003722 <printf>:
    3722:	cf 93       	push	r28
    3724:	df 93       	push	r29
    3726:	cd b7       	in	r28, 0x3d	; 61
    3728:	de b7       	in	r29, 0x3e	; 62
    372a:	ae 01       	movw	r20, r28
    372c:	4a 5f       	subi	r20, 0xFA	; 250
    372e:	5f 4f       	sbci	r21, 0xFF	; 255
    3730:	fa 01       	movw	r30, r20
    3732:	61 91       	ld	r22, Z+
    3734:	71 91       	ld	r23, Z+
    3736:	af 01       	movw	r20, r30
    3738:	80 91 cc 20 	lds	r24, 0x20CC	; 0x8020cc <__iob+0x2>
    373c:	90 91 cd 20 	lds	r25, 0x20CD	; 0x8020cd <__iob+0x3>
    3740:	7d d0       	rcall	.+250    	; 0x383c <vfprintf>
    3742:	df 91       	pop	r29
    3744:	cf 91       	pop	r28
    3746:	08 95       	ret

00003748 <puts>:
    3748:	0f 93       	push	r16
    374a:	1f 93       	push	r17
    374c:	cf 93       	push	r28
    374e:	df 93       	push	r29
    3750:	e0 91 cc 20 	lds	r30, 0x20CC	; 0x8020cc <__iob+0x2>
    3754:	f0 91 cd 20 	lds	r31, 0x20CD	; 0x8020cd <__iob+0x3>
    3758:	23 81       	ldd	r18, Z+3	; 0x03
    375a:	21 ff       	sbrs	r18, 1
    375c:	1b c0       	rjmp	.+54     	; 0x3794 <puts+0x4c>
    375e:	8c 01       	movw	r16, r24
    3760:	d0 e0       	ldi	r29, 0x00	; 0
    3762:	c0 e0       	ldi	r28, 0x00	; 0
    3764:	f8 01       	movw	r30, r16
    3766:	81 91       	ld	r24, Z+
    3768:	8f 01       	movw	r16, r30
    376a:	60 91 cc 20 	lds	r22, 0x20CC	; 0x8020cc <__iob+0x2>
    376e:	70 91 cd 20 	lds	r23, 0x20CD	; 0x8020cd <__iob+0x3>
    3772:	db 01       	movw	r26, r22
    3774:	18 96       	adiw	r26, 0x08	; 8
    3776:	ed 91       	ld	r30, X+
    3778:	fc 91       	ld	r31, X
    377a:	19 97       	sbiw	r26, 0x09	; 9
    377c:	88 23       	and	r24, r24
    377e:	31 f0       	breq	.+12     	; 0x378c <puts+0x44>
    3780:	19 95       	eicall
    3782:	89 2b       	or	r24, r25
    3784:	79 f3       	breq	.-34     	; 0x3764 <puts+0x1c>
    3786:	df ef       	ldi	r29, 0xFF	; 255
    3788:	cf ef       	ldi	r28, 0xFF	; 255
    378a:	ec cf       	rjmp	.-40     	; 0x3764 <puts+0x1c>
    378c:	8a e0       	ldi	r24, 0x0A	; 10
    378e:	19 95       	eicall
    3790:	89 2b       	or	r24, r25
    3792:	19 f0       	breq	.+6      	; 0x379a <puts+0x52>
    3794:	8f ef       	ldi	r24, 0xFF	; 255
    3796:	9f ef       	ldi	r25, 0xFF	; 255
    3798:	02 c0       	rjmp	.+4      	; 0x379e <puts+0x56>
    379a:	8d 2f       	mov	r24, r29
    379c:	9c 2f       	mov	r25, r28
    379e:	df 91       	pop	r29
    37a0:	cf 91       	pop	r28
    37a2:	1f 91       	pop	r17
    37a4:	0f 91       	pop	r16
    37a6:	08 95       	ret

000037a8 <sprintf>:
    37a8:	0f 93       	push	r16
    37aa:	1f 93       	push	r17
    37ac:	cf 93       	push	r28
    37ae:	df 93       	push	r29
    37b0:	cd b7       	in	r28, 0x3d	; 61
    37b2:	de b7       	in	r29, 0x3e	; 62
    37b4:	2e 97       	sbiw	r28, 0x0e	; 14
    37b6:	cd bf       	out	0x3d, r28	; 61
    37b8:	de bf       	out	0x3e, r29	; 62
    37ba:	0e 89       	ldd	r16, Y+22	; 0x16
    37bc:	1f 89       	ldd	r17, Y+23	; 0x17
    37be:	86 e0       	ldi	r24, 0x06	; 6
    37c0:	8c 83       	std	Y+4, r24	; 0x04
    37c2:	09 83       	std	Y+1, r16	; 0x01
    37c4:	1a 83       	std	Y+2, r17	; 0x02
    37c6:	8f ef       	ldi	r24, 0xFF	; 255
    37c8:	9f e7       	ldi	r25, 0x7F	; 127
    37ca:	8d 83       	std	Y+5, r24	; 0x05
    37cc:	9e 83       	std	Y+6, r25	; 0x06
    37ce:	ae 01       	movw	r20, r28
    37d0:	46 5e       	subi	r20, 0xE6	; 230
    37d2:	5f 4f       	sbci	r21, 0xFF	; 255
    37d4:	68 8d       	ldd	r22, Y+24	; 0x18
    37d6:	79 8d       	ldd	r23, Y+25	; 0x19
    37d8:	ce 01       	movw	r24, r28
    37da:	01 96       	adiw	r24, 0x01	; 1
    37dc:	2f d0       	rcall	.+94     	; 0x383c <vfprintf>
    37de:	ef 81       	ldd	r30, Y+7	; 0x07
    37e0:	f8 85       	ldd	r31, Y+8	; 0x08
    37e2:	e0 0f       	add	r30, r16
    37e4:	f1 1f       	adc	r31, r17
    37e6:	10 82       	st	Z, r1
    37e8:	2e 96       	adiw	r28, 0x0e	; 14
    37ea:	cd bf       	out	0x3d, r28	; 61
    37ec:	de bf       	out	0x3e, r29	; 62
    37ee:	df 91       	pop	r29
    37f0:	cf 91       	pop	r28
    37f2:	1f 91       	pop	r17
    37f4:	0f 91       	pop	r16
    37f6:	08 95       	ret

000037f8 <vsprintf>:
    37f8:	0f 93       	push	r16
    37fa:	1f 93       	push	r17
    37fc:	cf 93       	push	r28
    37fe:	df 93       	push	r29
    3800:	cd b7       	in	r28, 0x3d	; 61
    3802:	de b7       	in	r29, 0x3e	; 62
    3804:	2e 97       	sbiw	r28, 0x0e	; 14
    3806:	cd bf       	out	0x3d, r28	; 61
    3808:	de bf       	out	0x3e, r29	; 62
    380a:	8c 01       	movw	r16, r24
    380c:	86 e0       	ldi	r24, 0x06	; 6
    380e:	8c 83       	std	Y+4, r24	; 0x04
    3810:	09 83       	std	Y+1, r16	; 0x01
    3812:	1a 83       	std	Y+2, r17	; 0x02
    3814:	8f ef       	ldi	r24, 0xFF	; 255
    3816:	9f e7       	ldi	r25, 0x7F	; 127
    3818:	8d 83       	std	Y+5, r24	; 0x05
    381a:	9e 83       	std	Y+6, r25	; 0x06
    381c:	ce 01       	movw	r24, r28
    381e:	01 96       	adiw	r24, 0x01	; 1
    3820:	0d d0       	rcall	.+26     	; 0x383c <vfprintf>
    3822:	ef 81       	ldd	r30, Y+7	; 0x07
    3824:	f8 85       	ldd	r31, Y+8	; 0x08
    3826:	e0 0f       	add	r30, r16
    3828:	f1 1f       	adc	r31, r17
    382a:	10 82       	st	Z, r1
    382c:	2e 96       	adiw	r28, 0x0e	; 14
    382e:	cd bf       	out	0x3d, r28	; 61
    3830:	de bf       	out	0x3e, r29	; 62
    3832:	df 91       	pop	r29
    3834:	cf 91       	pop	r28
    3836:	1f 91       	pop	r17
    3838:	0f 91       	pop	r16
    383a:	08 95       	ret

0000383c <vfprintf>:
    383c:	2f 92       	push	r2
    383e:	3f 92       	push	r3
    3840:	4f 92       	push	r4
    3842:	5f 92       	push	r5
    3844:	6f 92       	push	r6
    3846:	7f 92       	push	r7
    3848:	8f 92       	push	r8
    384a:	9f 92       	push	r9
    384c:	af 92       	push	r10
    384e:	bf 92       	push	r11
    3850:	cf 92       	push	r12
    3852:	df 92       	push	r13
    3854:	ef 92       	push	r14
    3856:	ff 92       	push	r15
    3858:	0f 93       	push	r16
    385a:	1f 93       	push	r17
    385c:	cf 93       	push	r28
    385e:	df 93       	push	r29
    3860:	cd b7       	in	r28, 0x3d	; 61
    3862:	de b7       	in	r29, 0x3e	; 62
    3864:	2b 97       	sbiw	r28, 0x0b	; 11
    3866:	cd bf       	out	0x3d, r28	; 61
    3868:	de bf       	out	0x3e, r29	; 62
    386a:	6c 01       	movw	r12, r24
    386c:	7b 01       	movw	r14, r22
    386e:	8a 01       	movw	r16, r20
    3870:	fc 01       	movw	r30, r24
    3872:	16 82       	std	Z+6, r1	; 0x06
    3874:	17 82       	std	Z+7, r1	; 0x07
    3876:	83 81       	ldd	r24, Z+3	; 0x03
    3878:	81 ff       	sbrs	r24, 1
    387a:	bf c1       	rjmp	.+894    	; 0x3bfa <vfprintf+0x3be>
    387c:	ce 01       	movw	r24, r28
    387e:	01 96       	adiw	r24, 0x01	; 1
    3880:	3c 01       	movw	r6, r24
    3882:	f6 01       	movw	r30, r12
    3884:	93 81       	ldd	r25, Z+3	; 0x03
    3886:	f7 01       	movw	r30, r14
    3888:	93 fd       	sbrc	r25, 3
    388a:	85 91       	lpm	r24, Z+
    388c:	93 ff       	sbrs	r25, 3
    388e:	81 91       	ld	r24, Z+
    3890:	7f 01       	movw	r14, r30
    3892:	88 23       	and	r24, r24
    3894:	09 f4       	brne	.+2      	; 0x3898 <vfprintf+0x5c>
    3896:	ad c1       	rjmp	.+858    	; 0x3bf2 <vfprintf+0x3b6>
    3898:	85 32       	cpi	r24, 0x25	; 37
    389a:	39 f4       	brne	.+14     	; 0x38aa <vfprintf+0x6e>
    389c:	93 fd       	sbrc	r25, 3
    389e:	85 91       	lpm	r24, Z+
    38a0:	93 ff       	sbrs	r25, 3
    38a2:	81 91       	ld	r24, Z+
    38a4:	7f 01       	movw	r14, r30
    38a6:	85 32       	cpi	r24, 0x25	; 37
    38a8:	21 f4       	brne	.+8      	; 0x38b2 <vfprintf+0x76>
    38aa:	b6 01       	movw	r22, r12
    38ac:	90 e0       	ldi	r25, 0x00	; 0
    38ae:	15 d3       	rcall	.+1578   	; 0x3eda <fputc>
    38b0:	e8 cf       	rjmp	.-48     	; 0x3882 <vfprintf+0x46>
    38b2:	91 2c       	mov	r9, r1
    38b4:	21 2c       	mov	r2, r1
    38b6:	31 2c       	mov	r3, r1
    38b8:	ff e1       	ldi	r31, 0x1F	; 31
    38ba:	f3 15       	cp	r31, r3
    38bc:	d8 f0       	brcs	.+54     	; 0x38f4 <vfprintf+0xb8>
    38be:	8b 32       	cpi	r24, 0x2B	; 43
    38c0:	79 f0       	breq	.+30     	; 0x38e0 <vfprintf+0xa4>
    38c2:	38 f4       	brcc	.+14     	; 0x38d2 <vfprintf+0x96>
    38c4:	80 32       	cpi	r24, 0x20	; 32
    38c6:	79 f0       	breq	.+30     	; 0x38e6 <vfprintf+0xaa>
    38c8:	83 32       	cpi	r24, 0x23	; 35
    38ca:	a1 f4       	brne	.+40     	; 0x38f4 <vfprintf+0xb8>
    38cc:	23 2d       	mov	r18, r3
    38ce:	20 61       	ori	r18, 0x10	; 16
    38d0:	1d c0       	rjmp	.+58     	; 0x390c <vfprintf+0xd0>
    38d2:	8d 32       	cpi	r24, 0x2D	; 45
    38d4:	61 f0       	breq	.+24     	; 0x38ee <vfprintf+0xb2>
    38d6:	80 33       	cpi	r24, 0x30	; 48
    38d8:	69 f4       	brne	.+26     	; 0x38f4 <vfprintf+0xb8>
    38da:	23 2d       	mov	r18, r3
    38dc:	21 60       	ori	r18, 0x01	; 1
    38de:	16 c0       	rjmp	.+44     	; 0x390c <vfprintf+0xd0>
    38e0:	83 2d       	mov	r24, r3
    38e2:	82 60       	ori	r24, 0x02	; 2
    38e4:	38 2e       	mov	r3, r24
    38e6:	e3 2d       	mov	r30, r3
    38e8:	e4 60       	ori	r30, 0x04	; 4
    38ea:	3e 2e       	mov	r3, r30
    38ec:	2a c0       	rjmp	.+84     	; 0x3942 <vfprintf+0x106>
    38ee:	f3 2d       	mov	r31, r3
    38f0:	f8 60       	ori	r31, 0x08	; 8
    38f2:	1d c0       	rjmp	.+58     	; 0x392e <vfprintf+0xf2>
    38f4:	37 fc       	sbrc	r3, 7
    38f6:	2d c0       	rjmp	.+90     	; 0x3952 <vfprintf+0x116>
    38f8:	20 ed       	ldi	r18, 0xD0	; 208
    38fa:	28 0f       	add	r18, r24
    38fc:	2a 30       	cpi	r18, 0x0A	; 10
    38fe:	40 f0       	brcs	.+16     	; 0x3910 <vfprintf+0xd4>
    3900:	8e 32       	cpi	r24, 0x2E	; 46
    3902:	b9 f4       	brne	.+46     	; 0x3932 <vfprintf+0xf6>
    3904:	36 fc       	sbrc	r3, 6
    3906:	75 c1       	rjmp	.+746    	; 0x3bf2 <vfprintf+0x3b6>
    3908:	23 2d       	mov	r18, r3
    390a:	20 64       	ori	r18, 0x40	; 64
    390c:	32 2e       	mov	r3, r18
    390e:	19 c0       	rjmp	.+50     	; 0x3942 <vfprintf+0x106>
    3910:	36 fe       	sbrs	r3, 6
    3912:	06 c0       	rjmp	.+12     	; 0x3920 <vfprintf+0xe4>
    3914:	8a e0       	ldi	r24, 0x0A	; 10
    3916:	98 9e       	mul	r9, r24
    3918:	20 0d       	add	r18, r0
    391a:	11 24       	eor	r1, r1
    391c:	92 2e       	mov	r9, r18
    391e:	11 c0       	rjmp	.+34     	; 0x3942 <vfprintf+0x106>
    3920:	ea e0       	ldi	r30, 0x0A	; 10
    3922:	2e 9e       	mul	r2, r30
    3924:	20 0d       	add	r18, r0
    3926:	11 24       	eor	r1, r1
    3928:	22 2e       	mov	r2, r18
    392a:	f3 2d       	mov	r31, r3
    392c:	f0 62       	ori	r31, 0x20	; 32
    392e:	3f 2e       	mov	r3, r31
    3930:	08 c0       	rjmp	.+16     	; 0x3942 <vfprintf+0x106>
    3932:	8c 36       	cpi	r24, 0x6C	; 108
    3934:	21 f4       	brne	.+8      	; 0x393e <vfprintf+0x102>
    3936:	83 2d       	mov	r24, r3
    3938:	80 68       	ori	r24, 0x80	; 128
    393a:	38 2e       	mov	r3, r24
    393c:	02 c0       	rjmp	.+4      	; 0x3942 <vfprintf+0x106>
    393e:	88 36       	cpi	r24, 0x68	; 104
    3940:	41 f4       	brne	.+16     	; 0x3952 <vfprintf+0x116>
    3942:	f7 01       	movw	r30, r14
    3944:	93 fd       	sbrc	r25, 3
    3946:	85 91       	lpm	r24, Z+
    3948:	93 ff       	sbrs	r25, 3
    394a:	81 91       	ld	r24, Z+
    394c:	7f 01       	movw	r14, r30
    394e:	81 11       	cpse	r24, r1
    3950:	b3 cf       	rjmp	.-154    	; 0x38b8 <vfprintf+0x7c>
    3952:	98 2f       	mov	r25, r24
    3954:	9f 7d       	andi	r25, 0xDF	; 223
    3956:	95 54       	subi	r25, 0x45	; 69
    3958:	93 30       	cpi	r25, 0x03	; 3
    395a:	28 f4       	brcc	.+10     	; 0x3966 <vfprintf+0x12a>
    395c:	0c 5f       	subi	r16, 0xFC	; 252
    395e:	1f 4f       	sbci	r17, 0xFF	; 255
    3960:	9f e3       	ldi	r25, 0x3F	; 63
    3962:	99 83       	std	Y+1, r25	; 0x01
    3964:	0d c0       	rjmp	.+26     	; 0x3980 <vfprintf+0x144>
    3966:	83 36       	cpi	r24, 0x63	; 99
    3968:	31 f0       	breq	.+12     	; 0x3976 <vfprintf+0x13a>
    396a:	83 37       	cpi	r24, 0x73	; 115
    396c:	71 f0       	breq	.+28     	; 0x398a <vfprintf+0x14e>
    396e:	83 35       	cpi	r24, 0x53	; 83
    3970:	09 f0       	breq	.+2      	; 0x3974 <vfprintf+0x138>
    3972:	55 c0       	rjmp	.+170    	; 0x3a1e <vfprintf+0x1e2>
    3974:	20 c0       	rjmp	.+64     	; 0x39b6 <vfprintf+0x17a>
    3976:	f8 01       	movw	r30, r16
    3978:	80 81       	ld	r24, Z
    397a:	89 83       	std	Y+1, r24	; 0x01
    397c:	0e 5f       	subi	r16, 0xFE	; 254
    397e:	1f 4f       	sbci	r17, 0xFF	; 255
    3980:	88 24       	eor	r8, r8
    3982:	83 94       	inc	r8
    3984:	91 2c       	mov	r9, r1
    3986:	53 01       	movw	r10, r6
    3988:	12 c0       	rjmp	.+36     	; 0x39ae <vfprintf+0x172>
    398a:	28 01       	movw	r4, r16
    398c:	f2 e0       	ldi	r31, 0x02	; 2
    398e:	4f 0e       	add	r4, r31
    3990:	51 1c       	adc	r5, r1
    3992:	f8 01       	movw	r30, r16
    3994:	a0 80       	ld	r10, Z
    3996:	b1 80       	ldd	r11, Z+1	; 0x01
    3998:	36 fe       	sbrs	r3, 6
    399a:	03 c0       	rjmp	.+6      	; 0x39a2 <vfprintf+0x166>
    399c:	69 2d       	mov	r22, r9
    399e:	70 e0       	ldi	r23, 0x00	; 0
    39a0:	02 c0       	rjmp	.+4      	; 0x39a6 <vfprintf+0x16a>
    39a2:	6f ef       	ldi	r22, 0xFF	; 255
    39a4:	7f ef       	ldi	r23, 0xFF	; 255
    39a6:	c5 01       	movw	r24, r10
    39a8:	8d d2       	rcall	.+1306   	; 0x3ec4 <strnlen>
    39aa:	4c 01       	movw	r8, r24
    39ac:	82 01       	movw	r16, r4
    39ae:	f3 2d       	mov	r31, r3
    39b0:	ff 77       	andi	r31, 0x7F	; 127
    39b2:	3f 2e       	mov	r3, r31
    39b4:	15 c0       	rjmp	.+42     	; 0x39e0 <vfprintf+0x1a4>
    39b6:	28 01       	movw	r4, r16
    39b8:	22 e0       	ldi	r18, 0x02	; 2
    39ba:	42 0e       	add	r4, r18
    39bc:	51 1c       	adc	r5, r1
    39be:	f8 01       	movw	r30, r16
    39c0:	a0 80       	ld	r10, Z
    39c2:	b1 80       	ldd	r11, Z+1	; 0x01
    39c4:	36 fe       	sbrs	r3, 6
    39c6:	03 c0       	rjmp	.+6      	; 0x39ce <vfprintf+0x192>
    39c8:	69 2d       	mov	r22, r9
    39ca:	70 e0       	ldi	r23, 0x00	; 0
    39cc:	02 c0       	rjmp	.+4      	; 0x39d2 <vfprintf+0x196>
    39ce:	6f ef       	ldi	r22, 0xFF	; 255
    39d0:	7f ef       	ldi	r23, 0xFF	; 255
    39d2:	c5 01       	movw	r24, r10
    39d4:	65 d2       	rcall	.+1226   	; 0x3ea0 <strnlen_P>
    39d6:	4c 01       	movw	r8, r24
    39d8:	f3 2d       	mov	r31, r3
    39da:	f0 68       	ori	r31, 0x80	; 128
    39dc:	3f 2e       	mov	r3, r31
    39de:	82 01       	movw	r16, r4
    39e0:	33 fc       	sbrc	r3, 3
    39e2:	19 c0       	rjmp	.+50     	; 0x3a16 <vfprintf+0x1da>
    39e4:	82 2d       	mov	r24, r2
    39e6:	90 e0       	ldi	r25, 0x00	; 0
    39e8:	88 16       	cp	r8, r24
    39ea:	99 06       	cpc	r9, r25
    39ec:	a0 f4       	brcc	.+40     	; 0x3a16 <vfprintf+0x1da>
    39ee:	b6 01       	movw	r22, r12
    39f0:	80 e2       	ldi	r24, 0x20	; 32
    39f2:	90 e0       	ldi	r25, 0x00	; 0
    39f4:	72 d2       	rcall	.+1252   	; 0x3eda <fputc>
    39f6:	2a 94       	dec	r2
    39f8:	f5 cf       	rjmp	.-22     	; 0x39e4 <vfprintf+0x1a8>
    39fa:	f5 01       	movw	r30, r10
    39fc:	37 fc       	sbrc	r3, 7
    39fe:	85 91       	lpm	r24, Z+
    3a00:	37 fe       	sbrs	r3, 7
    3a02:	81 91       	ld	r24, Z+
    3a04:	5f 01       	movw	r10, r30
    3a06:	b6 01       	movw	r22, r12
    3a08:	90 e0       	ldi	r25, 0x00	; 0
    3a0a:	67 d2       	rcall	.+1230   	; 0x3eda <fputc>
    3a0c:	21 10       	cpse	r2, r1
    3a0e:	2a 94       	dec	r2
    3a10:	21 e0       	ldi	r18, 0x01	; 1
    3a12:	82 1a       	sub	r8, r18
    3a14:	91 08       	sbc	r9, r1
    3a16:	81 14       	cp	r8, r1
    3a18:	91 04       	cpc	r9, r1
    3a1a:	79 f7       	brne	.-34     	; 0x39fa <vfprintf+0x1be>
    3a1c:	e1 c0       	rjmp	.+450    	; 0x3be0 <vfprintf+0x3a4>
    3a1e:	84 36       	cpi	r24, 0x64	; 100
    3a20:	11 f0       	breq	.+4      	; 0x3a26 <vfprintf+0x1ea>
    3a22:	89 36       	cpi	r24, 0x69	; 105
    3a24:	39 f5       	brne	.+78     	; 0x3a74 <vfprintf+0x238>
    3a26:	f8 01       	movw	r30, r16
    3a28:	37 fe       	sbrs	r3, 7
    3a2a:	07 c0       	rjmp	.+14     	; 0x3a3a <vfprintf+0x1fe>
    3a2c:	60 81       	ld	r22, Z
    3a2e:	71 81       	ldd	r23, Z+1	; 0x01
    3a30:	82 81       	ldd	r24, Z+2	; 0x02
    3a32:	93 81       	ldd	r25, Z+3	; 0x03
    3a34:	0c 5f       	subi	r16, 0xFC	; 252
    3a36:	1f 4f       	sbci	r17, 0xFF	; 255
    3a38:	08 c0       	rjmp	.+16     	; 0x3a4a <vfprintf+0x20e>
    3a3a:	60 81       	ld	r22, Z
    3a3c:	71 81       	ldd	r23, Z+1	; 0x01
    3a3e:	07 2e       	mov	r0, r23
    3a40:	00 0c       	add	r0, r0
    3a42:	88 0b       	sbc	r24, r24
    3a44:	99 0b       	sbc	r25, r25
    3a46:	0e 5f       	subi	r16, 0xFE	; 254
    3a48:	1f 4f       	sbci	r17, 0xFF	; 255
    3a4a:	f3 2d       	mov	r31, r3
    3a4c:	ff 76       	andi	r31, 0x6F	; 111
    3a4e:	3f 2e       	mov	r3, r31
    3a50:	97 ff       	sbrs	r25, 7
    3a52:	09 c0       	rjmp	.+18     	; 0x3a66 <vfprintf+0x22a>
    3a54:	90 95       	com	r25
    3a56:	80 95       	com	r24
    3a58:	70 95       	com	r23
    3a5a:	61 95       	neg	r22
    3a5c:	7f 4f       	sbci	r23, 0xFF	; 255
    3a5e:	8f 4f       	sbci	r24, 0xFF	; 255
    3a60:	9f 4f       	sbci	r25, 0xFF	; 255
    3a62:	f0 68       	ori	r31, 0x80	; 128
    3a64:	3f 2e       	mov	r3, r31
    3a66:	2a e0       	ldi	r18, 0x0A	; 10
    3a68:	30 e0       	ldi	r19, 0x00	; 0
    3a6a:	a3 01       	movw	r20, r6
    3a6c:	72 d2       	rcall	.+1252   	; 0x3f52 <__ultoa_invert>
    3a6e:	88 2e       	mov	r8, r24
    3a70:	86 18       	sub	r8, r6
    3a72:	44 c0       	rjmp	.+136    	; 0x3afc <vfprintf+0x2c0>
    3a74:	85 37       	cpi	r24, 0x75	; 117
    3a76:	31 f4       	brne	.+12     	; 0x3a84 <vfprintf+0x248>
    3a78:	23 2d       	mov	r18, r3
    3a7a:	2f 7e       	andi	r18, 0xEF	; 239
    3a7c:	b2 2e       	mov	r11, r18
    3a7e:	2a e0       	ldi	r18, 0x0A	; 10
    3a80:	30 e0       	ldi	r19, 0x00	; 0
    3a82:	25 c0       	rjmp	.+74     	; 0x3ace <vfprintf+0x292>
    3a84:	93 2d       	mov	r25, r3
    3a86:	99 7f       	andi	r25, 0xF9	; 249
    3a88:	b9 2e       	mov	r11, r25
    3a8a:	8f 36       	cpi	r24, 0x6F	; 111
    3a8c:	c1 f0       	breq	.+48     	; 0x3abe <vfprintf+0x282>
    3a8e:	18 f4       	brcc	.+6      	; 0x3a96 <vfprintf+0x25a>
    3a90:	88 35       	cpi	r24, 0x58	; 88
    3a92:	79 f0       	breq	.+30     	; 0x3ab2 <vfprintf+0x276>
    3a94:	ae c0       	rjmp	.+348    	; 0x3bf2 <vfprintf+0x3b6>
    3a96:	80 37       	cpi	r24, 0x70	; 112
    3a98:	19 f0       	breq	.+6      	; 0x3aa0 <vfprintf+0x264>
    3a9a:	88 37       	cpi	r24, 0x78	; 120
    3a9c:	21 f0       	breq	.+8      	; 0x3aa6 <vfprintf+0x26a>
    3a9e:	a9 c0       	rjmp	.+338    	; 0x3bf2 <vfprintf+0x3b6>
    3aa0:	e9 2f       	mov	r30, r25
    3aa2:	e0 61       	ori	r30, 0x10	; 16
    3aa4:	be 2e       	mov	r11, r30
    3aa6:	b4 fe       	sbrs	r11, 4
    3aa8:	0d c0       	rjmp	.+26     	; 0x3ac4 <vfprintf+0x288>
    3aaa:	fb 2d       	mov	r31, r11
    3aac:	f4 60       	ori	r31, 0x04	; 4
    3aae:	bf 2e       	mov	r11, r31
    3ab0:	09 c0       	rjmp	.+18     	; 0x3ac4 <vfprintf+0x288>
    3ab2:	34 fe       	sbrs	r3, 4
    3ab4:	0a c0       	rjmp	.+20     	; 0x3aca <vfprintf+0x28e>
    3ab6:	29 2f       	mov	r18, r25
    3ab8:	26 60       	ori	r18, 0x06	; 6
    3aba:	b2 2e       	mov	r11, r18
    3abc:	06 c0       	rjmp	.+12     	; 0x3aca <vfprintf+0x28e>
    3abe:	28 e0       	ldi	r18, 0x08	; 8
    3ac0:	30 e0       	ldi	r19, 0x00	; 0
    3ac2:	05 c0       	rjmp	.+10     	; 0x3ace <vfprintf+0x292>
    3ac4:	20 e1       	ldi	r18, 0x10	; 16
    3ac6:	30 e0       	ldi	r19, 0x00	; 0
    3ac8:	02 c0       	rjmp	.+4      	; 0x3ace <vfprintf+0x292>
    3aca:	20 e1       	ldi	r18, 0x10	; 16
    3acc:	32 e0       	ldi	r19, 0x02	; 2
    3ace:	f8 01       	movw	r30, r16
    3ad0:	b7 fe       	sbrs	r11, 7
    3ad2:	07 c0       	rjmp	.+14     	; 0x3ae2 <vfprintf+0x2a6>
    3ad4:	60 81       	ld	r22, Z
    3ad6:	71 81       	ldd	r23, Z+1	; 0x01
    3ad8:	82 81       	ldd	r24, Z+2	; 0x02
    3ada:	93 81       	ldd	r25, Z+3	; 0x03
    3adc:	0c 5f       	subi	r16, 0xFC	; 252
    3ade:	1f 4f       	sbci	r17, 0xFF	; 255
    3ae0:	06 c0       	rjmp	.+12     	; 0x3aee <vfprintf+0x2b2>
    3ae2:	60 81       	ld	r22, Z
    3ae4:	71 81       	ldd	r23, Z+1	; 0x01
    3ae6:	80 e0       	ldi	r24, 0x00	; 0
    3ae8:	90 e0       	ldi	r25, 0x00	; 0
    3aea:	0e 5f       	subi	r16, 0xFE	; 254
    3aec:	1f 4f       	sbci	r17, 0xFF	; 255
    3aee:	a3 01       	movw	r20, r6
    3af0:	30 d2       	rcall	.+1120   	; 0x3f52 <__ultoa_invert>
    3af2:	88 2e       	mov	r8, r24
    3af4:	86 18       	sub	r8, r6
    3af6:	fb 2d       	mov	r31, r11
    3af8:	ff 77       	andi	r31, 0x7F	; 127
    3afa:	3f 2e       	mov	r3, r31
    3afc:	36 fe       	sbrs	r3, 6
    3afe:	0d c0       	rjmp	.+26     	; 0x3b1a <vfprintf+0x2de>
    3b00:	23 2d       	mov	r18, r3
    3b02:	2e 7f       	andi	r18, 0xFE	; 254
    3b04:	a2 2e       	mov	r10, r18
    3b06:	89 14       	cp	r8, r9
    3b08:	58 f4       	brcc	.+22     	; 0x3b20 <vfprintf+0x2e4>
    3b0a:	34 fe       	sbrs	r3, 4
    3b0c:	0b c0       	rjmp	.+22     	; 0x3b24 <vfprintf+0x2e8>
    3b0e:	32 fc       	sbrc	r3, 2
    3b10:	09 c0       	rjmp	.+18     	; 0x3b24 <vfprintf+0x2e8>
    3b12:	83 2d       	mov	r24, r3
    3b14:	8e 7e       	andi	r24, 0xEE	; 238
    3b16:	a8 2e       	mov	r10, r24
    3b18:	05 c0       	rjmp	.+10     	; 0x3b24 <vfprintf+0x2e8>
    3b1a:	b8 2c       	mov	r11, r8
    3b1c:	a3 2c       	mov	r10, r3
    3b1e:	03 c0       	rjmp	.+6      	; 0x3b26 <vfprintf+0x2ea>
    3b20:	b8 2c       	mov	r11, r8
    3b22:	01 c0       	rjmp	.+2      	; 0x3b26 <vfprintf+0x2ea>
    3b24:	b9 2c       	mov	r11, r9
    3b26:	a4 fe       	sbrs	r10, 4
    3b28:	0f c0       	rjmp	.+30     	; 0x3b48 <vfprintf+0x30c>
    3b2a:	fe 01       	movw	r30, r28
    3b2c:	e8 0d       	add	r30, r8
    3b2e:	f1 1d       	adc	r31, r1
    3b30:	80 81       	ld	r24, Z
    3b32:	80 33       	cpi	r24, 0x30	; 48
    3b34:	21 f4       	brne	.+8      	; 0x3b3e <vfprintf+0x302>
    3b36:	9a 2d       	mov	r25, r10
    3b38:	99 7e       	andi	r25, 0xE9	; 233
    3b3a:	a9 2e       	mov	r10, r25
    3b3c:	09 c0       	rjmp	.+18     	; 0x3b50 <vfprintf+0x314>
    3b3e:	a2 fe       	sbrs	r10, 2
    3b40:	06 c0       	rjmp	.+12     	; 0x3b4e <vfprintf+0x312>
    3b42:	b3 94       	inc	r11
    3b44:	b3 94       	inc	r11
    3b46:	04 c0       	rjmp	.+8      	; 0x3b50 <vfprintf+0x314>
    3b48:	8a 2d       	mov	r24, r10
    3b4a:	86 78       	andi	r24, 0x86	; 134
    3b4c:	09 f0       	breq	.+2      	; 0x3b50 <vfprintf+0x314>
    3b4e:	b3 94       	inc	r11
    3b50:	a3 fc       	sbrc	r10, 3
    3b52:	10 c0       	rjmp	.+32     	; 0x3b74 <vfprintf+0x338>
    3b54:	a0 fe       	sbrs	r10, 0
    3b56:	06 c0       	rjmp	.+12     	; 0x3b64 <vfprintf+0x328>
    3b58:	b2 14       	cp	r11, r2
    3b5a:	80 f4       	brcc	.+32     	; 0x3b7c <vfprintf+0x340>
    3b5c:	28 0c       	add	r2, r8
    3b5e:	92 2c       	mov	r9, r2
    3b60:	9b 18       	sub	r9, r11
    3b62:	0d c0       	rjmp	.+26     	; 0x3b7e <vfprintf+0x342>
    3b64:	b2 14       	cp	r11, r2
    3b66:	58 f4       	brcc	.+22     	; 0x3b7e <vfprintf+0x342>
    3b68:	b6 01       	movw	r22, r12
    3b6a:	80 e2       	ldi	r24, 0x20	; 32
    3b6c:	90 e0       	ldi	r25, 0x00	; 0
    3b6e:	b5 d1       	rcall	.+874    	; 0x3eda <fputc>
    3b70:	b3 94       	inc	r11
    3b72:	f8 cf       	rjmp	.-16     	; 0x3b64 <vfprintf+0x328>
    3b74:	b2 14       	cp	r11, r2
    3b76:	18 f4       	brcc	.+6      	; 0x3b7e <vfprintf+0x342>
    3b78:	2b 18       	sub	r2, r11
    3b7a:	02 c0       	rjmp	.+4      	; 0x3b80 <vfprintf+0x344>
    3b7c:	98 2c       	mov	r9, r8
    3b7e:	21 2c       	mov	r2, r1
    3b80:	a4 fe       	sbrs	r10, 4
    3b82:	0f c0       	rjmp	.+30     	; 0x3ba2 <vfprintf+0x366>
    3b84:	b6 01       	movw	r22, r12
    3b86:	80 e3       	ldi	r24, 0x30	; 48
    3b88:	90 e0       	ldi	r25, 0x00	; 0
    3b8a:	a7 d1       	rcall	.+846    	; 0x3eda <fputc>
    3b8c:	a2 fe       	sbrs	r10, 2
    3b8e:	16 c0       	rjmp	.+44     	; 0x3bbc <vfprintf+0x380>
    3b90:	a1 fc       	sbrc	r10, 1
    3b92:	03 c0       	rjmp	.+6      	; 0x3b9a <vfprintf+0x35e>
    3b94:	88 e7       	ldi	r24, 0x78	; 120
    3b96:	90 e0       	ldi	r25, 0x00	; 0
    3b98:	02 c0       	rjmp	.+4      	; 0x3b9e <vfprintf+0x362>
    3b9a:	88 e5       	ldi	r24, 0x58	; 88
    3b9c:	90 e0       	ldi	r25, 0x00	; 0
    3b9e:	b6 01       	movw	r22, r12
    3ba0:	0c c0       	rjmp	.+24     	; 0x3bba <vfprintf+0x37e>
    3ba2:	8a 2d       	mov	r24, r10
    3ba4:	86 78       	andi	r24, 0x86	; 134
    3ba6:	51 f0       	breq	.+20     	; 0x3bbc <vfprintf+0x380>
    3ba8:	a1 fe       	sbrs	r10, 1
    3baa:	02 c0       	rjmp	.+4      	; 0x3bb0 <vfprintf+0x374>
    3bac:	8b e2       	ldi	r24, 0x2B	; 43
    3bae:	01 c0       	rjmp	.+2      	; 0x3bb2 <vfprintf+0x376>
    3bb0:	80 e2       	ldi	r24, 0x20	; 32
    3bb2:	a7 fc       	sbrc	r10, 7
    3bb4:	8d e2       	ldi	r24, 0x2D	; 45
    3bb6:	b6 01       	movw	r22, r12
    3bb8:	90 e0       	ldi	r25, 0x00	; 0
    3bba:	8f d1       	rcall	.+798    	; 0x3eda <fputc>
    3bbc:	89 14       	cp	r8, r9
    3bbe:	30 f4       	brcc	.+12     	; 0x3bcc <vfprintf+0x390>
    3bc0:	b6 01       	movw	r22, r12
    3bc2:	80 e3       	ldi	r24, 0x30	; 48
    3bc4:	90 e0       	ldi	r25, 0x00	; 0
    3bc6:	89 d1       	rcall	.+786    	; 0x3eda <fputc>
    3bc8:	9a 94       	dec	r9
    3bca:	f8 cf       	rjmp	.-16     	; 0x3bbc <vfprintf+0x380>
    3bcc:	8a 94       	dec	r8
    3bce:	f3 01       	movw	r30, r6
    3bd0:	e8 0d       	add	r30, r8
    3bd2:	f1 1d       	adc	r31, r1
    3bd4:	80 81       	ld	r24, Z
    3bd6:	b6 01       	movw	r22, r12
    3bd8:	90 e0       	ldi	r25, 0x00	; 0
    3bda:	7f d1       	rcall	.+766    	; 0x3eda <fputc>
    3bdc:	81 10       	cpse	r8, r1
    3bde:	f6 cf       	rjmp	.-20     	; 0x3bcc <vfprintf+0x390>
    3be0:	22 20       	and	r2, r2
    3be2:	09 f4       	brne	.+2      	; 0x3be6 <vfprintf+0x3aa>
    3be4:	4e ce       	rjmp	.-868    	; 0x3882 <vfprintf+0x46>
    3be6:	b6 01       	movw	r22, r12
    3be8:	80 e2       	ldi	r24, 0x20	; 32
    3bea:	90 e0       	ldi	r25, 0x00	; 0
    3bec:	76 d1       	rcall	.+748    	; 0x3eda <fputc>
    3bee:	2a 94       	dec	r2
    3bf0:	f7 cf       	rjmp	.-18     	; 0x3be0 <vfprintf+0x3a4>
    3bf2:	f6 01       	movw	r30, r12
    3bf4:	86 81       	ldd	r24, Z+6	; 0x06
    3bf6:	97 81       	ldd	r25, Z+7	; 0x07
    3bf8:	02 c0       	rjmp	.+4      	; 0x3bfe <vfprintf+0x3c2>
    3bfa:	8f ef       	ldi	r24, 0xFF	; 255
    3bfc:	9f ef       	ldi	r25, 0xFF	; 255
    3bfe:	2b 96       	adiw	r28, 0x0b	; 11
    3c00:	cd bf       	out	0x3d, r28	; 61
    3c02:	de bf       	out	0x3e, r29	; 62
    3c04:	df 91       	pop	r29
    3c06:	cf 91       	pop	r28
    3c08:	1f 91       	pop	r17
    3c0a:	0f 91       	pop	r16
    3c0c:	ff 90       	pop	r15
    3c0e:	ef 90       	pop	r14
    3c10:	df 90       	pop	r13
    3c12:	cf 90       	pop	r12
    3c14:	bf 90       	pop	r11
    3c16:	af 90       	pop	r10
    3c18:	9f 90       	pop	r9
    3c1a:	8f 90       	pop	r8
    3c1c:	7f 90       	pop	r7
    3c1e:	6f 90       	pop	r6
    3c20:	5f 90       	pop	r5
    3c22:	4f 90       	pop	r4
    3c24:	3f 90       	pop	r3
    3c26:	2f 90       	pop	r2
    3c28:	08 95       	ret

00003c2a <calloc>:
    3c2a:	0f 93       	push	r16
    3c2c:	1f 93       	push	r17
    3c2e:	cf 93       	push	r28
    3c30:	df 93       	push	r29
    3c32:	86 9f       	mul	r24, r22
    3c34:	80 01       	movw	r16, r0
    3c36:	87 9f       	mul	r24, r23
    3c38:	10 0d       	add	r17, r0
    3c3a:	96 9f       	mul	r25, r22
    3c3c:	10 0d       	add	r17, r0
    3c3e:	11 24       	eor	r1, r1
    3c40:	c8 01       	movw	r24, r16
    3c42:	0d d0       	rcall	.+26     	; 0x3c5e <malloc>
    3c44:	ec 01       	movw	r28, r24
    3c46:	00 97       	sbiw	r24, 0x00	; 0
    3c48:	21 f0       	breq	.+8      	; 0x3c52 <calloc+0x28>
    3c4a:	a8 01       	movw	r20, r16
    3c4c:	60 e0       	ldi	r22, 0x00	; 0
    3c4e:	70 e0       	ldi	r23, 0x00	; 0
    3c50:	32 d1       	rcall	.+612    	; 0x3eb6 <memset>
    3c52:	ce 01       	movw	r24, r28
    3c54:	df 91       	pop	r29
    3c56:	cf 91       	pop	r28
    3c58:	1f 91       	pop	r17
    3c5a:	0f 91       	pop	r16
    3c5c:	08 95       	ret

00003c5e <malloc>:
    3c5e:	0f 93       	push	r16
    3c60:	1f 93       	push	r17
    3c62:	cf 93       	push	r28
    3c64:	df 93       	push	r29
    3c66:	82 30       	cpi	r24, 0x02	; 2
    3c68:	91 05       	cpc	r25, r1
    3c6a:	10 f4       	brcc	.+4      	; 0x3c70 <malloc+0x12>
    3c6c:	82 e0       	ldi	r24, 0x02	; 2
    3c6e:	90 e0       	ldi	r25, 0x00	; 0
    3c70:	e0 91 d2 20 	lds	r30, 0x20D2	; 0x8020d2 <__flp>
    3c74:	f0 91 d3 20 	lds	r31, 0x20D3	; 0x8020d3 <__flp+0x1>
    3c78:	20 e0       	ldi	r18, 0x00	; 0
    3c7a:	30 e0       	ldi	r19, 0x00	; 0
    3c7c:	a0 e0       	ldi	r26, 0x00	; 0
    3c7e:	b0 e0       	ldi	r27, 0x00	; 0
    3c80:	30 97       	sbiw	r30, 0x00	; 0
    3c82:	19 f1       	breq	.+70     	; 0x3cca <malloc+0x6c>
    3c84:	40 81       	ld	r20, Z
    3c86:	51 81       	ldd	r21, Z+1	; 0x01
    3c88:	02 81       	ldd	r16, Z+2	; 0x02
    3c8a:	13 81       	ldd	r17, Z+3	; 0x03
    3c8c:	48 17       	cp	r20, r24
    3c8e:	59 07       	cpc	r21, r25
    3c90:	c8 f0       	brcs	.+50     	; 0x3cc4 <malloc+0x66>
    3c92:	84 17       	cp	r24, r20
    3c94:	95 07       	cpc	r25, r21
    3c96:	69 f4       	brne	.+26     	; 0x3cb2 <malloc+0x54>
    3c98:	10 97       	sbiw	r26, 0x00	; 0
    3c9a:	31 f0       	breq	.+12     	; 0x3ca8 <malloc+0x4a>
    3c9c:	12 96       	adiw	r26, 0x02	; 2
    3c9e:	0c 93       	st	X, r16
    3ca0:	12 97       	sbiw	r26, 0x02	; 2
    3ca2:	13 96       	adiw	r26, 0x03	; 3
    3ca4:	1c 93       	st	X, r17
    3ca6:	27 c0       	rjmp	.+78     	; 0x3cf6 <malloc+0x98>
    3ca8:	00 93 d2 20 	sts	0x20D2, r16	; 0x8020d2 <__flp>
    3cac:	10 93 d3 20 	sts	0x20D3, r17	; 0x8020d3 <__flp+0x1>
    3cb0:	22 c0       	rjmp	.+68     	; 0x3cf6 <malloc+0x98>
    3cb2:	21 15       	cp	r18, r1
    3cb4:	31 05       	cpc	r19, r1
    3cb6:	19 f0       	breq	.+6      	; 0x3cbe <malloc+0x60>
    3cb8:	42 17       	cp	r20, r18
    3cba:	53 07       	cpc	r21, r19
    3cbc:	18 f4       	brcc	.+6      	; 0x3cc4 <malloc+0x66>
    3cbe:	9a 01       	movw	r18, r20
    3cc0:	bd 01       	movw	r22, r26
    3cc2:	ef 01       	movw	r28, r30
    3cc4:	df 01       	movw	r26, r30
    3cc6:	f8 01       	movw	r30, r16
    3cc8:	db cf       	rjmp	.-74     	; 0x3c80 <malloc+0x22>
    3cca:	21 15       	cp	r18, r1
    3ccc:	31 05       	cpc	r19, r1
    3cce:	f9 f0       	breq	.+62     	; 0x3d0e <malloc+0xb0>
    3cd0:	28 1b       	sub	r18, r24
    3cd2:	39 0b       	sbc	r19, r25
    3cd4:	24 30       	cpi	r18, 0x04	; 4
    3cd6:	31 05       	cpc	r19, r1
    3cd8:	80 f4       	brcc	.+32     	; 0x3cfa <malloc+0x9c>
    3cda:	8a 81       	ldd	r24, Y+2	; 0x02
    3cdc:	9b 81       	ldd	r25, Y+3	; 0x03
    3cde:	61 15       	cp	r22, r1
    3ce0:	71 05       	cpc	r23, r1
    3ce2:	21 f0       	breq	.+8      	; 0x3cec <malloc+0x8e>
    3ce4:	fb 01       	movw	r30, r22
    3ce6:	82 83       	std	Z+2, r24	; 0x02
    3ce8:	93 83       	std	Z+3, r25	; 0x03
    3cea:	04 c0       	rjmp	.+8      	; 0x3cf4 <malloc+0x96>
    3cec:	80 93 d2 20 	sts	0x20D2, r24	; 0x8020d2 <__flp>
    3cf0:	90 93 d3 20 	sts	0x20D3, r25	; 0x8020d3 <__flp+0x1>
    3cf4:	fe 01       	movw	r30, r28
    3cf6:	32 96       	adiw	r30, 0x02	; 2
    3cf8:	44 c0       	rjmp	.+136    	; 0x3d82 <malloc+0x124>
    3cfa:	fe 01       	movw	r30, r28
    3cfc:	e2 0f       	add	r30, r18
    3cfe:	f3 1f       	adc	r31, r19
    3d00:	81 93       	st	Z+, r24
    3d02:	91 93       	st	Z+, r25
    3d04:	22 50       	subi	r18, 0x02	; 2
    3d06:	31 09       	sbc	r19, r1
    3d08:	28 83       	st	Y, r18
    3d0a:	39 83       	std	Y+1, r19	; 0x01
    3d0c:	3a c0       	rjmp	.+116    	; 0x3d82 <malloc+0x124>
    3d0e:	20 91 d0 20 	lds	r18, 0x20D0	; 0x8020d0 <__brkval>
    3d12:	30 91 d1 20 	lds	r19, 0x20D1	; 0x8020d1 <__brkval+0x1>
    3d16:	23 2b       	or	r18, r19
    3d18:	41 f4       	brne	.+16     	; 0x3d2a <malloc+0xcc>
    3d1a:	20 91 02 20 	lds	r18, 0x2002	; 0x802002 <__malloc_heap_start>
    3d1e:	30 91 03 20 	lds	r19, 0x2003	; 0x802003 <__malloc_heap_start+0x1>
    3d22:	20 93 d0 20 	sts	0x20D0, r18	; 0x8020d0 <__brkval>
    3d26:	30 93 d1 20 	sts	0x20D1, r19	; 0x8020d1 <__brkval+0x1>
    3d2a:	20 91 00 20 	lds	r18, 0x2000	; 0x802000 <__data_start>
    3d2e:	30 91 01 20 	lds	r19, 0x2001	; 0x802001 <__data_start+0x1>
    3d32:	21 15       	cp	r18, r1
    3d34:	31 05       	cpc	r19, r1
    3d36:	41 f4       	brne	.+16     	; 0x3d48 <malloc+0xea>
    3d38:	2d b7       	in	r18, 0x3d	; 61
    3d3a:	3e b7       	in	r19, 0x3e	; 62
    3d3c:	40 91 04 20 	lds	r20, 0x2004	; 0x802004 <__malloc_margin>
    3d40:	50 91 05 20 	lds	r21, 0x2005	; 0x802005 <__malloc_margin+0x1>
    3d44:	24 1b       	sub	r18, r20
    3d46:	35 0b       	sbc	r19, r21
    3d48:	e0 91 d0 20 	lds	r30, 0x20D0	; 0x8020d0 <__brkval>
    3d4c:	f0 91 d1 20 	lds	r31, 0x20D1	; 0x8020d1 <__brkval+0x1>
    3d50:	e2 17       	cp	r30, r18
    3d52:	f3 07       	cpc	r31, r19
    3d54:	a0 f4       	brcc	.+40     	; 0x3d7e <malloc+0x120>
    3d56:	2e 1b       	sub	r18, r30
    3d58:	3f 0b       	sbc	r19, r31
    3d5a:	28 17       	cp	r18, r24
    3d5c:	39 07       	cpc	r19, r25
    3d5e:	78 f0       	brcs	.+30     	; 0x3d7e <malloc+0x120>
    3d60:	ac 01       	movw	r20, r24
    3d62:	4e 5f       	subi	r20, 0xFE	; 254
    3d64:	5f 4f       	sbci	r21, 0xFF	; 255
    3d66:	24 17       	cp	r18, r20
    3d68:	35 07       	cpc	r19, r21
    3d6a:	48 f0       	brcs	.+18     	; 0x3d7e <malloc+0x120>
    3d6c:	4e 0f       	add	r20, r30
    3d6e:	5f 1f       	adc	r21, r31
    3d70:	40 93 d0 20 	sts	0x20D0, r20	; 0x8020d0 <__brkval>
    3d74:	50 93 d1 20 	sts	0x20D1, r21	; 0x8020d1 <__brkval+0x1>
    3d78:	81 93       	st	Z+, r24
    3d7a:	91 93       	st	Z+, r25
    3d7c:	02 c0       	rjmp	.+4      	; 0x3d82 <malloc+0x124>
    3d7e:	e0 e0       	ldi	r30, 0x00	; 0
    3d80:	f0 e0       	ldi	r31, 0x00	; 0
    3d82:	cf 01       	movw	r24, r30
    3d84:	df 91       	pop	r29
    3d86:	cf 91       	pop	r28
    3d88:	1f 91       	pop	r17
    3d8a:	0f 91       	pop	r16
    3d8c:	08 95       	ret

00003d8e <free>:
    3d8e:	cf 93       	push	r28
    3d90:	df 93       	push	r29
    3d92:	00 97       	sbiw	r24, 0x00	; 0
    3d94:	09 f4       	brne	.+2      	; 0x3d98 <free+0xa>
    3d96:	81 c0       	rjmp	.+258    	; 0x3e9a <free+0x10c>
    3d98:	fc 01       	movw	r30, r24
    3d9a:	32 97       	sbiw	r30, 0x02	; 2
    3d9c:	12 82       	std	Z+2, r1	; 0x02
    3d9e:	13 82       	std	Z+3, r1	; 0x03
    3da0:	a0 91 d2 20 	lds	r26, 0x20D2	; 0x8020d2 <__flp>
    3da4:	b0 91 d3 20 	lds	r27, 0x20D3	; 0x8020d3 <__flp+0x1>
    3da8:	10 97       	sbiw	r26, 0x00	; 0
    3daa:	81 f4       	brne	.+32     	; 0x3dcc <free+0x3e>
    3dac:	20 81       	ld	r18, Z
    3dae:	31 81       	ldd	r19, Z+1	; 0x01
    3db0:	82 0f       	add	r24, r18
    3db2:	93 1f       	adc	r25, r19
    3db4:	20 91 d0 20 	lds	r18, 0x20D0	; 0x8020d0 <__brkval>
    3db8:	30 91 d1 20 	lds	r19, 0x20D1	; 0x8020d1 <__brkval+0x1>
    3dbc:	28 17       	cp	r18, r24
    3dbe:	39 07       	cpc	r19, r25
    3dc0:	51 f5       	brne	.+84     	; 0x3e16 <free+0x88>
    3dc2:	e0 93 d0 20 	sts	0x20D0, r30	; 0x8020d0 <__brkval>
    3dc6:	f0 93 d1 20 	sts	0x20D1, r31	; 0x8020d1 <__brkval+0x1>
    3dca:	67 c0       	rjmp	.+206    	; 0x3e9a <free+0x10c>
    3dcc:	ed 01       	movw	r28, r26
    3dce:	20 e0       	ldi	r18, 0x00	; 0
    3dd0:	30 e0       	ldi	r19, 0x00	; 0
    3dd2:	ce 17       	cp	r28, r30
    3dd4:	df 07       	cpc	r29, r31
    3dd6:	40 f4       	brcc	.+16     	; 0x3de8 <free+0x5a>
    3dd8:	4a 81       	ldd	r20, Y+2	; 0x02
    3dda:	5b 81       	ldd	r21, Y+3	; 0x03
    3ddc:	9e 01       	movw	r18, r28
    3dde:	41 15       	cp	r20, r1
    3de0:	51 05       	cpc	r21, r1
    3de2:	f1 f0       	breq	.+60     	; 0x3e20 <free+0x92>
    3de4:	ea 01       	movw	r28, r20
    3de6:	f5 cf       	rjmp	.-22     	; 0x3dd2 <free+0x44>
    3de8:	c2 83       	std	Z+2, r28	; 0x02
    3dea:	d3 83       	std	Z+3, r29	; 0x03
    3dec:	40 81       	ld	r20, Z
    3dee:	51 81       	ldd	r21, Z+1	; 0x01
    3df0:	84 0f       	add	r24, r20
    3df2:	95 1f       	adc	r25, r21
    3df4:	c8 17       	cp	r28, r24
    3df6:	d9 07       	cpc	r29, r25
    3df8:	59 f4       	brne	.+22     	; 0x3e10 <free+0x82>
    3dfa:	88 81       	ld	r24, Y
    3dfc:	99 81       	ldd	r25, Y+1	; 0x01
    3dfe:	84 0f       	add	r24, r20
    3e00:	95 1f       	adc	r25, r21
    3e02:	02 96       	adiw	r24, 0x02	; 2
    3e04:	80 83       	st	Z, r24
    3e06:	91 83       	std	Z+1, r25	; 0x01
    3e08:	8a 81       	ldd	r24, Y+2	; 0x02
    3e0a:	9b 81       	ldd	r25, Y+3	; 0x03
    3e0c:	82 83       	std	Z+2, r24	; 0x02
    3e0e:	93 83       	std	Z+3, r25	; 0x03
    3e10:	21 15       	cp	r18, r1
    3e12:	31 05       	cpc	r19, r1
    3e14:	29 f4       	brne	.+10     	; 0x3e20 <free+0x92>
    3e16:	e0 93 d2 20 	sts	0x20D2, r30	; 0x8020d2 <__flp>
    3e1a:	f0 93 d3 20 	sts	0x20D3, r31	; 0x8020d3 <__flp+0x1>
    3e1e:	3d c0       	rjmp	.+122    	; 0x3e9a <free+0x10c>
    3e20:	e9 01       	movw	r28, r18
    3e22:	ea 83       	std	Y+2, r30	; 0x02
    3e24:	fb 83       	std	Y+3, r31	; 0x03
    3e26:	49 91       	ld	r20, Y+
    3e28:	59 91       	ld	r21, Y+
    3e2a:	c4 0f       	add	r28, r20
    3e2c:	d5 1f       	adc	r29, r21
    3e2e:	ec 17       	cp	r30, r28
    3e30:	fd 07       	cpc	r31, r29
    3e32:	61 f4       	brne	.+24     	; 0x3e4c <free+0xbe>
    3e34:	80 81       	ld	r24, Z
    3e36:	91 81       	ldd	r25, Z+1	; 0x01
    3e38:	84 0f       	add	r24, r20
    3e3a:	95 1f       	adc	r25, r21
    3e3c:	02 96       	adiw	r24, 0x02	; 2
    3e3e:	e9 01       	movw	r28, r18
    3e40:	88 83       	st	Y, r24
    3e42:	99 83       	std	Y+1, r25	; 0x01
    3e44:	82 81       	ldd	r24, Z+2	; 0x02
    3e46:	93 81       	ldd	r25, Z+3	; 0x03
    3e48:	8a 83       	std	Y+2, r24	; 0x02
    3e4a:	9b 83       	std	Y+3, r25	; 0x03
    3e4c:	e0 e0       	ldi	r30, 0x00	; 0
    3e4e:	f0 e0       	ldi	r31, 0x00	; 0
    3e50:	12 96       	adiw	r26, 0x02	; 2
    3e52:	8d 91       	ld	r24, X+
    3e54:	9c 91       	ld	r25, X
    3e56:	13 97       	sbiw	r26, 0x03	; 3
    3e58:	00 97       	sbiw	r24, 0x00	; 0
    3e5a:	19 f0       	breq	.+6      	; 0x3e62 <free+0xd4>
    3e5c:	fd 01       	movw	r30, r26
    3e5e:	dc 01       	movw	r26, r24
    3e60:	f7 cf       	rjmp	.-18     	; 0x3e50 <free+0xc2>
    3e62:	8d 91       	ld	r24, X+
    3e64:	9c 91       	ld	r25, X
    3e66:	11 97       	sbiw	r26, 0x01	; 1
    3e68:	9d 01       	movw	r18, r26
    3e6a:	2e 5f       	subi	r18, 0xFE	; 254
    3e6c:	3f 4f       	sbci	r19, 0xFF	; 255
    3e6e:	82 0f       	add	r24, r18
    3e70:	93 1f       	adc	r25, r19
    3e72:	20 91 d0 20 	lds	r18, 0x20D0	; 0x8020d0 <__brkval>
    3e76:	30 91 d1 20 	lds	r19, 0x20D1	; 0x8020d1 <__brkval+0x1>
    3e7a:	28 17       	cp	r18, r24
    3e7c:	39 07       	cpc	r19, r25
    3e7e:	69 f4       	brne	.+26     	; 0x3e9a <free+0x10c>
    3e80:	30 97       	sbiw	r30, 0x00	; 0
    3e82:	29 f4       	brne	.+10     	; 0x3e8e <free+0x100>
    3e84:	10 92 d2 20 	sts	0x20D2, r1	; 0x8020d2 <__flp>
    3e88:	10 92 d3 20 	sts	0x20D3, r1	; 0x8020d3 <__flp+0x1>
    3e8c:	02 c0       	rjmp	.+4      	; 0x3e92 <free+0x104>
    3e8e:	12 82       	std	Z+2, r1	; 0x02
    3e90:	13 82       	std	Z+3, r1	; 0x03
    3e92:	a0 93 d0 20 	sts	0x20D0, r26	; 0x8020d0 <__brkval>
    3e96:	b0 93 d1 20 	sts	0x20D1, r27	; 0x8020d1 <__brkval+0x1>
    3e9a:	df 91       	pop	r29
    3e9c:	cf 91       	pop	r28
    3e9e:	08 95       	ret

00003ea0 <strnlen_P>:
    3ea0:	fc 01       	movw	r30, r24
    3ea2:	05 90       	lpm	r0, Z+
    3ea4:	61 50       	subi	r22, 0x01	; 1
    3ea6:	70 40       	sbci	r23, 0x00	; 0
    3ea8:	01 10       	cpse	r0, r1
    3eaa:	d8 f7       	brcc	.-10     	; 0x3ea2 <strnlen_P+0x2>
    3eac:	80 95       	com	r24
    3eae:	90 95       	com	r25
    3eb0:	8e 0f       	add	r24, r30
    3eb2:	9f 1f       	adc	r25, r31
    3eb4:	08 95       	ret

00003eb6 <memset>:
    3eb6:	dc 01       	movw	r26, r24
    3eb8:	01 c0       	rjmp	.+2      	; 0x3ebc <memset+0x6>
    3eba:	6d 93       	st	X+, r22
    3ebc:	41 50       	subi	r20, 0x01	; 1
    3ebe:	50 40       	sbci	r21, 0x00	; 0
    3ec0:	e0 f7       	brcc	.-8      	; 0x3eba <memset+0x4>
    3ec2:	08 95       	ret

00003ec4 <strnlen>:
    3ec4:	fc 01       	movw	r30, r24
    3ec6:	61 50       	subi	r22, 0x01	; 1
    3ec8:	70 40       	sbci	r23, 0x00	; 0
    3eca:	01 90       	ld	r0, Z+
    3ecc:	01 10       	cpse	r0, r1
    3ece:	d8 f7       	brcc	.-10     	; 0x3ec6 <strnlen+0x2>
    3ed0:	80 95       	com	r24
    3ed2:	90 95       	com	r25
    3ed4:	8e 0f       	add	r24, r30
    3ed6:	9f 1f       	adc	r25, r31
    3ed8:	08 95       	ret

00003eda <fputc>:
    3eda:	0f 93       	push	r16
    3edc:	1f 93       	push	r17
    3ede:	cf 93       	push	r28
    3ee0:	df 93       	push	r29
    3ee2:	fb 01       	movw	r30, r22
    3ee4:	23 81       	ldd	r18, Z+3	; 0x03
    3ee6:	21 fd       	sbrc	r18, 1
    3ee8:	03 c0       	rjmp	.+6      	; 0x3ef0 <fputc+0x16>
    3eea:	8f ef       	ldi	r24, 0xFF	; 255
    3eec:	9f ef       	ldi	r25, 0xFF	; 255
    3eee:	2c c0       	rjmp	.+88     	; 0x3f48 <fputc+0x6e>
    3ef0:	22 ff       	sbrs	r18, 2
    3ef2:	16 c0       	rjmp	.+44     	; 0x3f20 <fputc+0x46>
    3ef4:	46 81       	ldd	r20, Z+6	; 0x06
    3ef6:	57 81       	ldd	r21, Z+7	; 0x07
    3ef8:	24 81       	ldd	r18, Z+4	; 0x04
    3efa:	35 81       	ldd	r19, Z+5	; 0x05
    3efc:	42 17       	cp	r20, r18
    3efe:	53 07       	cpc	r21, r19
    3f00:	44 f4       	brge	.+16     	; 0x3f12 <fputc+0x38>
    3f02:	a0 81       	ld	r26, Z
    3f04:	b1 81       	ldd	r27, Z+1	; 0x01
    3f06:	9d 01       	movw	r18, r26
    3f08:	2f 5f       	subi	r18, 0xFF	; 255
    3f0a:	3f 4f       	sbci	r19, 0xFF	; 255
    3f0c:	20 83       	st	Z, r18
    3f0e:	31 83       	std	Z+1, r19	; 0x01
    3f10:	8c 93       	st	X, r24
    3f12:	26 81       	ldd	r18, Z+6	; 0x06
    3f14:	37 81       	ldd	r19, Z+7	; 0x07
    3f16:	2f 5f       	subi	r18, 0xFF	; 255
    3f18:	3f 4f       	sbci	r19, 0xFF	; 255
    3f1a:	26 83       	std	Z+6, r18	; 0x06
    3f1c:	37 83       	std	Z+7, r19	; 0x07
    3f1e:	14 c0       	rjmp	.+40     	; 0x3f48 <fputc+0x6e>
    3f20:	8b 01       	movw	r16, r22
    3f22:	ec 01       	movw	r28, r24
    3f24:	fb 01       	movw	r30, r22
    3f26:	00 84       	ldd	r0, Z+8	; 0x08
    3f28:	f1 85       	ldd	r31, Z+9	; 0x09
    3f2a:	e0 2d       	mov	r30, r0
    3f2c:	19 95       	eicall
    3f2e:	89 2b       	or	r24, r25
    3f30:	e1 f6       	brne	.-72     	; 0x3eea <fputc+0x10>
    3f32:	d8 01       	movw	r26, r16
    3f34:	16 96       	adiw	r26, 0x06	; 6
    3f36:	8d 91       	ld	r24, X+
    3f38:	9c 91       	ld	r25, X
    3f3a:	17 97       	sbiw	r26, 0x07	; 7
    3f3c:	01 96       	adiw	r24, 0x01	; 1
    3f3e:	16 96       	adiw	r26, 0x06	; 6
    3f40:	8d 93       	st	X+, r24
    3f42:	9c 93       	st	X, r25
    3f44:	17 97       	sbiw	r26, 0x07	; 7
    3f46:	ce 01       	movw	r24, r28
    3f48:	df 91       	pop	r29
    3f4a:	cf 91       	pop	r28
    3f4c:	1f 91       	pop	r17
    3f4e:	0f 91       	pop	r16
    3f50:	08 95       	ret

00003f52 <__ultoa_invert>:
    3f52:	fa 01       	movw	r30, r20
    3f54:	aa 27       	eor	r26, r26
    3f56:	28 30       	cpi	r18, 0x08	; 8
    3f58:	51 f1       	breq	.+84     	; 0x3fae <__ultoa_invert+0x5c>
    3f5a:	20 31       	cpi	r18, 0x10	; 16
    3f5c:	81 f1       	breq	.+96     	; 0x3fbe <__ultoa_invert+0x6c>
    3f5e:	e8 94       	clt
    3f60:	6f 93       	push	r22
    3f62:	6e 7f       	andi	r22, 0xFE	; 254
    3f64:	6e 5f       	subi	r22, 0xFE	; 254
    3f66:	7f 4f       	sbci	r23, 0xFF	; 255
    3f68:	8f 4f       	sbci	r24, 0xFF	; 255
    3f6a:	9f 4f       	sbci	r25, 0xFF	; 255
    3f6c:	af 4f       	sbci	r26, 0xFF	; 255
    3f6e:	b1 e0       	ldi	r27, 0x01	; 1
    3f70:	3e d0       	rcall	.+124    	; 0x3fee <__ultoa_invert+0x9c>
    3f72:	b4 e0       	ldi	r27, 0x04	; 4
    3f74:	3c d0       	rcall	.+120    	; 0x3fee <__ultoa_invert+0x9c>
    3f76:	67 0f       	add	r22, r23
    3f78:	78 1f       	adc	r23, r24
    3f7a:	89 1f       	adc	r24, r25
    3f7c:	9a 1f       	adc	r25, r26
    3f7e:	a1 1d       	adc	r26, r1
    3f80:	68 0f       	add	r22, r24
    3f82:	79 1f       	adc	r23, r25
    3f84:	8a 1f       	adc	r24, r26
    3f86:	91 1d       	adc	r25, r1
    3f88:	a1 1d       	adc	r26, r1
    3f8a:	6a 0f       	add	r22, r26
    3f8c:	71 1d       	adc	r23, r1
    3f8e:	81 1d       	adc	r24, r1
    3f90:	91 1d       	adc	r25, r1
    3f92:	a1 1d       	adc	r26, r1
    3f94:	20 d0       	rcall	.+64     	; 0x3fd6 <__ultoa_invert+0x84>
    3f96:	09 f4       	brne	.+2      	; 0x3f9a <__ultoa_invert+0x48>
    3f98:	68 94       	set
    3f9a:	3f 91       	pop	r19
    3f9c:	2a e0       	ldi	r18, 0x0A	; 10
    3f9e:	26 9f       	mul	r18, r22
    3fa0:	11 24       	eor	r1, r1
    3fa2:	30 19       	sub	r19, r0
    3fa4:	30 5d       	subi	r19, 0xD0	; 208
    3fa6:	31 93       	st	Z+, r19
    3fa8:	de f6       	brtc	.-74     	; 0x3f60 <__ultoa_invert+0xe>
    3faa:	cf 01       	movw	r24, r30
    3fac:	08 95       	ret
    3fae:	46 2f       	mov	r20, r22
    3fb0:	47 70       	andi	r20, 0x07	; 7
    3fb2:	40 5d       	subi	r20, 0xD0	; 208
    3fb4:	41 93       	st	Z+, r20
    3fb6:	b3 e0       	ldi	r27, 0x03	; 3
    3fb8:	0f d0       	rcall	.+30     	; 0x3fd8 <__ultoa_invert+0x86>
    3fba:	c9 f7       	brne	.-14     	; 0x3fae <__ultoa_invert+0x5c>
    3fbc:	f6 cf       	rjmp	.-20     	; 0x3faa <__ultoa_invert+0x58>
    3fbe:	46 2f       	mov	r20, r22
    3fc0:	4f 70       	andi	r20, 0x0F	; 15
    3fc2:	40 5d       	subi	r20, 0xD0	; 208
    3fc4:	4a 33       	cpi	r20, 0x3A	; 58
    3fc6:	18 f0       	brcs	.+6      	; 0x3fce <__ultoa_invert+0x7c>
    3fc8:	49 5d       	subi	r20, 0xD9	; 217
    3fca:	31 fd       	sbrc	r19, 1
    3fcc:	40 52       	subi	r20, 0x20	; 32
    3fce:	41 93       	st	Z+, r20
    3fd0:	02 d0       	rcall	.+4      	; 0x3fd6 <__ultoa_invert+0x84>
    3fd2:	a9 f7       	brne	.-22     	; 0x3fbe <__ultoa_invert+0x6c>
    3fd4:	ea cf       	rjmp	.-44     	; 0x3faa <__ultoa_invert+0x58>
    3fd6:	b4 e0       	ldi	r27, 0x04	; 4
    3fd8:	a6 95       	lsr	r26
    3fda:	97 95       	ror	r25
    3fdc:	87 95       	ror	r24
    3fde:	77 95       	ror	r23
    3fe0:	67 95       	ror	r22
    3fe2:	ba 95       	dec	r27
    3fe4:	c9 f7       	brne	.-14     	; 0x3fd8 <__ultoa_invert+0x86>
    3fe6:	00 97       	sbiw	r24, 0x00	; 0
    3fe8:	61 05       	cpc	r22, r1
    3fea:	71 05       	cpc	r23, r1
    3fec:	08 95       	ret
    3fee:	9b 01       	movw	r18, r22
    3ff0:	ac 01       	movw	r20, r24
    3ff2:	0a 2e       	mov	r0, r26
    3ff4:	06 94       	lsr	r0
    3ff6:	57 95       	ror	r21
    3ff8:	47 95       	ror	r20
    3ffa:	37 95       	ror	r19
    3ffc:	27 95       	ror	r18
    3ffe:	ba 95       	dec	r27
    4000:	c9 f7       	brne	.-14     	; 0x3ff4 <__ultoa_invert+0xa2>
    4002:	62 0f       	add	r22, r18
    4004:	73 1f       	adc	r23, r19
    4006:	84 1f       	adc	r24, r20
    4008:	95 1f       	adc	r25, r21
    400a:	a0 1d       	adc	r26, r0
    400c:	08 95       	ret

0000400e <_exit>:
    400e:	f8 94       	cli

00004010 <__stop_program>:
    4010:	ff cf       	rjmp	.-2      	; 0x4010 <__stop_program>
