
CanSat Probe Code.elf:     file format elf32-avr

Sections:
Idx Name          Size      VMA       LMA       File off  Algn
  0 .text         00004990  00000000  00000000  00000094  2**1
                  CONTENTS, ALLOC, LOAD, READONLY, CODE
  1 .data         00000066  00802000  00004990  00004a24  2**0
                  CONTENTS, ALLOC, LOAD, DATA
  2 .bss          00000080  00802066  00802066  00004a8a  2**0
                  ALLOC
  3 .comment      0000005c  00000000  00000000  00004a8a  2**0
                  CONTENTS, READONLY
  4 .note.gnu.avr.deviceinfo 00000040  00000000  00000000  00004ae8  2**2
                  CONTENTS, READONLY
  5 .debug_aranges 00000598  00000000  00000000  00004b28  2**3
                  CONTENTS, READONLY, DEBUGGING
  6 .debug_info   00010cab  00000000  00000000  000050c0  2**0
                  CONTENTS, READONLY, DEBUGGING
  7 .debug_abbrev 00005e1f  00000000  00000000  00015d6b  2**0
                  CONTENTS, READONLY, DEBUGGING
  8 .debug_line   000093b1  00000000  00000000  0001bb8a  2**0
                  CONTENTS, READONLY, DEBUGGING
  9 .debug_frame  00001c78  00000000  00000000  00024f3c  2**2
                  CONTENTS, READONLY, DEBUGGING
 10 .debug_str    00034c8f  00000000  00000000  00026bb4  2**0
                  CONTENTS, READONLY, DEBUGGING
 11 .debug_loc    00005fdc  00000000  00000000  0005b843  2**0
                  CONTENTS, READONLY, DEBUGGING
 12 .debug_ranges 00000500  00000000  00000000  00061820  2**3
                  CONTENTS, READONLY, DEBUGGING
 13 .debug_macro  0000c280  00000000  00000000  00061d20  2**0
                  CONTENTS, READONLY, DEBUGGING

Disassembly of section .text:

00000000 <__vectors>:
       0:	fe c1       	rjmp	.+1020   	; 0x3fe <__ctors_end>
       2:	00 00       	nop
       4:	22 c2       	rjmp	.+1092   	; 0x44a <__bad_interrupt>
       6:	00 00       	nop
       8:	20 c2       	rjmp	.+1088   	; 0x44a <__bad_interrupt>
       a:	00 00       	nop
       c:	1e c2       	rjmp	.+1084   	; 0x44a <__bad_interrupt>
       e:	00 00       	nop
      10:	1c c2       	rjmp	.+1080   	; 0x44a <__bad_interrupt>
      12:	00 00       	nop
      14:	1a c2       	rjmp	.+1076   	; 0x44a <__bad_interrupt>
      16:	00 00       	nop
      18:	18 c2       	rjmp	.+1072   	; 0x44a <__bad_interrupt>
      1a:	00 00       	nop
      1c:	16 c2       	rjmp	.+1068   	; 0x44a <__bad_interrupt>
      1e:	00 00       	nop
      20:	14 c2       	rjmp	.+1064   	; 0x44a <__bad_interrupt>
      22:	00 00       	nop
      24:	12 c2       	rjmp	.+1060   	; 0x44a <__bad_interrupt>
      26:	00 00       	nop
      28:	10 c2       	rjmp	.+1056   	; 0x44a <__bad_interrupt>
      2a:	00 00       	nop
      2c:	0e c2       	rjmp	.+1052   	; 0x44a <__bad_interrupt>
      2e:	00 00       	nop
      30:	0c c2       	rjmp	.+1048   	; 0x44a <__bad_interrupt>
      32:	00 00       	nop
      34:	a2 c2       	rjmp	.+1348   	; 0x57a <__vector_13>
      36:	00 00       	nop
      38:	ea c5       	rjmp	.+3028   	; 0xc0e <__vector_14>
      3a:	00 00       	nop
      3c:	20 c6       	rjmp	.+3136   	; 0xc7e <__vector_15>
      3e:	00 00       	nop
      40:	56 c6       	rjmp	.+3244   	; 0xcee <__vector_16>
      42:	00 00       	nop
      44:	8c c6       	rjmp	.+3352   	; 0xd5e <__vector_17>
      46:	00 00       	nop
      48:	c2 c6       	rjmp	.+3460   	; 0xdce <__vector_18>
      4a:	00 00       	nop
      4c:	f8 c6       	rjmp	.+3568   	; 0xe3e <__vector_19>
      4e:	00 00       	nop
      50:	2e c7       	rjmp	.+3676   	; 0xeae <__vector_20>
      52:	00 00       	nop
      54:	64 c7       	rjmp	.+3784   	; 0xf1e <__vector_21>
      56:	00 00       	nop
      58:	9a c7       	rjmp	.+3892   	; 0xf8e <__vector_22>
      5a:	00 00       	nop
      5c:	d0 c7       	rjmp	.+4000   	; 0xffe <__vector_23>
      5e:	00 00       	nop
      60:	f4 c1       	rjmp	.+1000   	; 0x44a <__bad_interrupt>
      62:	00 00       	nop
      64:	f2 c1       	rjmp	.+996    	; 0x44a <__bad_interrupt>
      66:	00 00       	nop
      68:	f0 c1       	rjmp	.+992    	; 0x44a <__bad_interrupt>
      6a:	00 00       	nop
      6c:	ee c1       	rjmp	.+988    	; 0x44a <__bad_interrupt>
      6e:	00 00       	nop
      70:	ec c1       	rjmp	.+984    	; 0x44a <__bad_interrupt>
      72:	00 00       	nop
      74:	ea c1       	rjmp	.+980    	; 0x44a <__bad_interrupt>
      76:	00 00       	nop
      78:	e8 c1       	rjmp	.+976    	; 0x44a <__bad_interrupt>
      7a:	00 00       	nop
      7c:	e6 c1       	rjmp	.+972    	; 0x44a <__bad_interrupt>
      7e:	00 00       	nop
      80:	e4 c1       	rjmp	.+968    	; 0x44a <__bad_interrupt>
      82:	00 00       	nop
      84:	e2 c1       	rjmp	.+964    	; 0x44a <__bad_interrupt>
      86:	00 00       	nop
      88:	e0 c1       	rjmp	.+960    	; 0x44a <__bad_interrupt>
      8a:	00 00       	nop
      8c:	de c1       	rjmp	.+956    	; 0x44a <__bad_interrupt>
      8e:	00 00       	nop
      90:	dc c1       	rjmp	.+952    	; 0x44a <__bad_interrupt>
      92:	00 00       	nop
      94:	da c1       	rjmp	.+948    	; 0x44a <__bad_interrupt>
      96:	00 00       	nop
      98:	d8 c1       	rjmp	.+944    	; 0x44a <__bad_interrupt>
      9a:	00 00       	nop
      9c:	b4 c4       	rjmp	.+2408   	; 0xa06 <__vector_39>
      9e:	00 00       	nop
      a0:	ef c4       	rjmp	.+2526   	; 0xa80 <__vector_40>
      a2:	00 00       	nop
      a4:	2a c5       	rjmp	.+2644   	; 0xafa <__vector_41>
      a6:	00 00       	nop
      a8:	65 c5       	rjmp	.+2762   	; 0xb74 <__vector_42>
      aa:	00 00       	nop
      ac:	ce c1       	rjmp	.+924    	; 0x44a <__bad_interrupt>
      ae:	00 00       	nop
      b0:	cc c1       	rjmp	.+920    	; 0x44a <__bad_interrupt>
      b2:	00 00       	nop
      b4:	ca c1       	rjmp	.+916    	; 0x44a <__bad_interrupt>
      b6:	00 00       	nop
      b8:	c4 c2       	rjmp	.+1416   	; 0x642 <__vector_46>
      ba:	00 00       	nop
      bc:	0c 94 67 0a 	jmp	0x14ce	; 0x14ce <__vector_47>
      c0:	0c 94 9f 0a 	jmp	0x153e	; 0x153e <__vector_48>
      c4:	0c 94 d7 0a 	jmp	0x15ae	; 0x15ae <__vector_49>
      c8:	0c 94 0f 0b 	jmp	0x161e	; 0x161e <__vector_50>
      cc:	0c 94 47 0b 	jmp	0x168e	; 0x168e <__vector_51>
      d0:	0c 94 7f 0b 	jmp	0x16fe	; 0x16fe <__vector_52>
      d4:	0c 94 b7 0b 	jmp	0x176e	; 0x176e <__vector_53>
      d8:	0c 94 ef 0b 	jmp	0x17de	; 0x17de <__vector_54>
      dc:	0c 94 27 0c 	jmp	0x184e	; 0x184e <__vector_55>
      e0:	0c 94 5f 0c 	jmp	0x18be	; 0x18be <__vector_56>
      e4:	b2 c1       	rjmp	.+868    	; 0x44a <__bad_interrupt>
      e6:	00 00       	nop
      e8:	b0 c1       	rjmp	.+864    	; 0x44a <__bad_interrupt>
      ea:	00 00       	nop
      ec:	ae c1       	rjmp	.+860    	; 0x44a <__bad_interrupt>
      ee:	00 00       	nop
      f0:	ac c1       	rjmp	.+856    	; 0x44a <__bad_interrupt>
      f2:	00 00       	nop
      f4:	aa c1       	rjmp	.+852    	; 0x44a <__bad_interrupt>
      f6:	00 00       	nop
      f8:	a8 c1       	rjmp	.+848    	; 0x44a <__bad_interrupt>
      fa:	00 00       	nop
      fc:	a6 c1       	rjmp	.+844    	; 0x44a <__bad_interrupt>
      fe:	00 00       	nop
     100:	a4 c1       	rjmp	.+840    	; 0x44a <__bad_interrupt>
     102:	00 00       	nop
     104:	a2 c1       	rjmp	.+836    	; 0x44a <__bad_interrupt>
     106:	00 00       	nop
     108:	a0 c1       	rjmp	.+832    	; 0x44a <__bad_interrupt>
     10a:	00 00       	nop
     10c:	9e c1       	rjmp	.+828    	; 0x44a <__bad_interrupt>
     10e:	00 00       	nop
     110:	9c c1       	rjmp	.+824    	; 0x44a <__bad_interrupt>
     112:	00 00       	nop
     114:	9a c1       	rjmp	.+820    	; 0x44a <__bad_interrupt>
     116:	00 00       	nop
     118:	98 c1       	rjmp	.+816    	; 0x44a <__bad_interrupt>
     11a:	00 00       	nop
     11c:	80 c3       	rjmp	.+1792   	; 0x81e <__vector_71>
     11e:	00 00       	nop
     120:	bb c3       	rjmp	.+1910   	; 0x898 <__vector_72>
     122:	00 00       	nop
     124:	f6 c3       	rjmp	.+2028   	; 0x912 <__vector_73>
     126:	00 00       	nop
     128:	31 c4       	rjmp	.+2146   	; 0x98c <__vector_74>
     12a:	00 00       	nop
     12c:	8e c1       	rjmp	.+796    	; 0x44a <__bad_interrupt>
     12e:	00 00       	nop
     130:	56 c2       	rjmp	.+1196   	; 0x5de <__vector_76>
     132:	00 00       	nop
     134:	9c c7       	rjmp	.+3896   	; 0x106e <__vector_77>
     136:	00 00       	nop
     138:	d2 c7       	rjmp	.+4004   	; 0x10de <__vector_78>
     13a:	00 00       	nop
     13c:	0c 94 a7 08 	jmp	0x114e	; 0x114e <__vector_79>
     140:	0c 94 df 08 	jmp	0x11be	; 0x11be <__vector_80>
     144:	0c 94 17 09 	jmp	0x122e	; 0x122e <__vector_81>
     148:	0c 94 4f 09 	jmp	0x129e	; 0x129e <__vector_82>
     14c:	0c 94 87 09 	jmp	0x130e	; 0x130e <__vector_83>
     150:	0c 94 bf 09 	jmp	0x137e	; 0x137e <__vector_84>
     154:	0c 94 f7 09 	jmp	0x13ee	; 0x13ee <__vector_85>
     158:	0c 94 2f 0a 	jmp	0x145e	; 0x145e <__vector_86>
     15c:	76 c1       	rjmp	.+748    	; 0x44a <__bad_interrupt>
     15e:	00 00       	nop
     160:	0c 94 25 16 	jmp	0x2c4a	; 0x2c4a <__vector_88>
     164:	72 c1       	rjmp	.+740    	; 0x44a <__bad_interrupt>
     166:	00 00       	nop
     168:	70 c1       	rjmp	.+736    	; 0x44a <__bad_interrupt>
     16a:	00 00       	nop
     16c:	6e c1       	rjmp	.+732    	; 0x44a <__bad_interrupt>
     16e:	00 00       	nop
     170:	6c c1       	rjmp	.+728    	; 0x44a <__bad_interrupt>
     172:	00 00       	nop
     174:	6a c1       	rjmp	.+724    	; 0x44a <__bad_interrupt>
     176:	00 00       	nop
     178:	68 c1       	rjmp	.+720    	; 0x44a <__bad_interrupt>
     17a:	00 00       	nop
     17c:	66 c1       	rjmp	.+716    	; 0x44a <__bad_interrupt>
     17e:	00 00       	nop
     180:	64 c1       	rjmp	.+712    	; 0x44a <__bad_interrupt>
     182:	00 00       	nop
     184:	62 c1       	rjmp	.+708    	; 0x44a <__bad_interrupt>
     186:	00 00       	nop
     188:	60 c1       	rjmp	.+704    	; 0x44a <__bad_interrupt>
     18a:	00 00       	nop
     18c:	5e c1       	rjmp	.+700    	; 0x44a <__bad_interrupt>
     18e:	00 00       	nop
     190:	5c c1       	rjmp	.+696    	; 0x44a <__bad_interrupt>
     192:	00 00       	nop
     194:	5a c1       	rjmp	.+692    	; 0x44a <__bad_interrupt>
     196:	00 00       	nop
     198:	58 c1       	rjmp	.+688    	; 0x44a <__bad_interrupt>
     19a:	00 00       	nop
     19c:	56 c1       	rjmp	.+684    	; 0x44a <__bad_interrupt>
     19e:	00 00       	nop
     1a0:	54 c1       	rjmp	.+680    	; 0x44a <__bad_interrupt>
     1a2:	00 00       	nop
     1a4:	52 c1       	rjmp	.+676    	; 0x44a <__bad_interrupt>
     1a6:	00 00       	nop
     1a8:	50 c1       	rjmp	.+672    	; 0x44a <__bad_interrupt>
     1aa:	00 00       	nop
     1ac:	7c c2       	rjmp	.+1272   	; 0x6a6 <__vector_107>
     1ae:	00 00       	nop
     1b0:	0c 94 97 0c 	jmp	0x192e	; 0x192e <__vector_108>
     1b4:	0c 94 cf 0c 	jmp	0x199e	; 0x199e <__vector_109>
     1b8:	0c 94 07 0d 	jmp	0x1a0e	; 0x1a0e <__vector_110>
     1bc:	0c 94 3f 0d 	jmp	0x1a7e	; 0x1a7e <__vector_111>
     1c0:	0c 94 77 0d 	jmp	0x1aee	; 0x1aee <__vector_112>
     1c4:	0c 94 af 0d 	jmp	0x1b5e	; 0x1b5e <__vector_113>
     1c8:	0c 94 e7 0d 	jmp	0x1bce	; 0x1bce <__vector_114>
     1cc:	0c 94 1f 0e 	jmp	0x1c3e	; 0x1c3e <__vector_115>
     1d0:	0c 94 57 0e 	jmp	0x1cae	; 0x1cae <__vector_116>
     1d4:	0c 94 8f 0e 	jmp	0x1d1e	; 0x1d1e <__vector_117>
     1d8:	38 c1       	rjmp	.+624    	; 0x44a <__bad_interrupt>
     1da:	00 00       	nop
     1dc:	36 c1       	rjmp	.+620    	; 0x44a <__bad_interrupt>
     1de:	00 00       	nop
     1e0:	34 c1       	rjmp	.+616    	; 0x44a <__bad_interrupt>
     1e2:	00 00       	nop
     1e4:	32 c1       	rjmp	.+612    	; 0x44a <__bad_interrupt>
     1e6:	00 00       	nop
     1e8:	30 c1       	rjmp	.+608    	; 0x44a <__bad_interrupt>
     1ea:	00 00       	nop
     1ec:	2e c1       	rjmp	.+604    	; 0x44a <__bad_interrupt>
     1ee:	00 00       	nop
     1f0:	2c c1       	rjmp	.+600    	; 0x44a <__bad_interrupt>
     1f2:	00 00       	nop
     1f4:	2a c1       	rjmp	.+596    	; 0x44a <__bad_interrupt>
     1f6:	00 00       	nop
     1f8:	28 c1       	rjmp	.+592    	; 0x44a <__bad_interrupt>
     1fa:	00 00       	nop
     1fc:	56 16       	cp	r5, r22
     1fe:	64 16       	cp	r6, r20
     200:	64 16       	cp	r6, r20
     202:	64 16       	cp	r6, r20
     204:	64 16       	cp	r6, r20
     206:	5b 16       	cp	r5, r27
     208:	64 16       	cp	r6, r20
     20a:	5f 16       	cp	r5, r31
     20c:	61 16       	cp	r6, r17
     20e:	5d 16       	cp	r5, r29
     210:	64 16       	cp	r6, r20
     212:	64 16       	cp	r6, r20
     214:	64 16       	cp	r6, r20
     216:	64 16       	cp	r6, r20
     218:	64 16       	cp	r6, r20
     21a:	64 16       	cp	r6, r20
     21c:	64 16       	cp	r6, r20
     21e:	64 16       	cp	r6, r20
     220:	64 16       	cp	r6, r20
     222:	64 16       	cp	r6, r20
     224:	64 16       	cp	r6, r20
     226:	64 16       	cp	r6, r20
     228:	64 16       	cp	r6, r20
     22a:	64 16       	cp	r6, r20
     22c:	64 16       	cp	r6, r20
     22e:	64 16       	cp	r6, r20
     230:	64 16       	cp	r6, r20
     232:	64 16       	cp	r6, r20
     234:	64 16       	cp	r6, r20
     236:	64 16       	cp	r6, r20
     238:	64 16       	cp	r6, r20
     23a:	64 16       	cp	r6, r20
     23c:	64 16       	cp	r6, r20
     23e:	64 16       	cp	r6, r20
     240:	64 16       	cp	r6, r20
     242:	64 16       	cp	r6, r20
     244:	64 16       	cp	r6, r20
     246:	64 16       	cp	r6, r20
     248:	64 16       	cp	r6, r20
     24a:	64 16       	cp	r6, r20
     24c:	64 16       	cp	r6, r20
     24e:	64 16       	cp	r6, r20
     250:	64 16       	cp	r6, r20
     252:	64 16       	cp	r6, r20
     254:	64 16       	cp	r6, r20
     256:	64 16       	cp	r6, r20
     258:	64 16       	cp	r6, r20
     25a:	64 16       	cp	r6, r20
     25c:	64 16       	cp	r6, r20
     25e:	64 16       	cp	r6, r20
     260:	64 16       	cp	r6, r20
     262:	64 16       	cp	r6, r20
     264:	64 16       	cp	r6, r20
     266:	64 16       	cp	r6, r20
     268:	64 16       	cp	r6, r20
     26a:	64 16       	cp	r6, r20
     26c:	64 16       	cp	r6, r20
     26e:	64 16       	cp	r6, r20
     270:	64 16       	cp	r6, r20
     272:	64 16       	cp	r6, r20
     274:	64 16       	cp	r6, r20
     276:	59 16       	cp	r5, r25
     278:	63 16       	cp	r6, r19
     27a:	08 00       	.word	0x0008	; ????
     27c:	00 00       	nop
     27e:	be 92       	st	-X, r11
     280:	24 49       	sbci	r18, 0x94	; 148
     282:	12 3e       	cpi	r17, 0xE2	; 226
     284:	ab aa       	std	Y+51, r10	; 0x33
     286:	aa 2a       	or	r10, r26
     288:	be cd       	rjmp	.-1156   	; 0xfffffe06 <__eeprom_end+0xff7efe06>
     28a:	cc cc       	rjmp	.-1640   	; 0xfffffc24 <__eeprom_end+0xff7efc24>
     28c:	4c 3e       	cpi	r20, 0xEC	; 236
     28e:	00 00       	nop
     290:	00 80       	ld	r0, Z
     292:	be ab       	std	Y+54, r27	; 0x36
     294:	aa aa       	std	Y+50, r10	; 0x32
     296:	aa 3e       	cpi	r26, 0xEA	; 234
     298:	00 00       	nop
     29a:	00 00       	nop
     29c:	bf 00       	.word	0x00bf	; ????
     29e:	00 00       	nop
     2a0:	80 3f       	cpi	r24, 0xF0	; 240
     2a2:	00 00       	nop
     2a4:	00 00       	nop
     2a6:	00 08       	sbc	r0, r0
     2a8:	41 78       	andi	r20, 0x81	; 129
     2aa:	d3 bb       	out	0x13, r29	; 19
     2ac:	43 87       	std	Z+11, r20	; 0x0b
     2ae:	d1 13       	cpse	r29, r17
     2b0:	3d 19       	sub	r19, r13
     2b2:	0e 3c       	cpi	r16, 0xCE	; 206
     2b4:	c3 bd       	out	0x23, r28	; 35
     2b6:	42 82       	std	Z+2, r4	; 0x02
     2b8:	ad 2b       	or	r26, r29
     2ba:	3e 68       	ori	r19, 0x8E	; 142
     2bc:	ec 82       	std	Y+4, r14	; 0x04
     2be:	76 be       	out	0x36, r7	; 54
     2c0:	d9 8f       	std	Y+25, r29	; 0x19
     2c2:	e1 a9       	ldd	r30, Z+49	; 0x31
     2c4:	3e 4c       	sbci	r19, 0xCE	; 206
     2c6:	80 ef       	ldi	r24, 0xF0	; 240
     2c8:	ff be       	out	0x3f, r15	; 63
     2ca:	01 c4       	rjmp	.+2050   	; 0xace <__vector_40+0x4e>
     2cc:	ff 7f       	andi	r31, 0xFF	; 255
     2ce:	3f 00       	.word	0x003f	; ????
     2d0:	00 00       	nop
     2d2:	00 00       	nop
     2d4:	07 63       	ori	r16, 0x37	; 55
     2d6:	42 36       	cpi	r20, 0x62	; 98
     2d8:	b7 9b       	sbis	0x16, 7	; 22
     2da:	d8 a7       	std	Y+40, r29	; 0x28
     2dc:	1a 39       	cpi	r17, 0x9A	; 154
     2de:	68 56       	subi	r22, 0x68	; 104
     2e0:	18 ae       	std	Y+56, r1	; 0x38
     2e2:	ba ab       	std	Y+50, r27	; 0x32
     2e4:	55 8c       	ldd	r5, Z+29	; 0x1d
     2e6:	1d 3c       	cpi	r17, 0xCD	; 205
     2e8:	b7 cc       	rjmp	.-1682   	; 0xfffffc58 <__eeprom_end+0xff7efc58>
     2ea:	57 63       	ori	r21, 0x37	; 55
     2ec:	bd 6d       	ori	r27, 0xDD	; 221
     2ee:	ed fd       	.word	0xfded	; ????
     2f0:	75 3e       	cpi	r23, 0xE5	; 229
     2f2:	f6 17       	cp	r31, r22
     2f4:	72 31       	cpi	r23, 0x12	; 18
     2f6:	bf 00       	.word	0x00bf	; ????
     2f8:	00 00       	nop
     2fa:	80 3f       	cpi	r24, 0xF0	; 240

000002fc <__trampolines_end>:
     2fc:	6e 61       	ori	r22, 0x1E	; 30
     2fe:	6e 00       	.word	0x006e	; ????

00000300 <__c.2332>:
     300:	69 6e 66 00 00 40 7a 10 f3 5a 00 a0 72 4e 18 09     inf..@z..Z..rN..
     310:	00 10 a5 d4 e8 00 00 e8 76 48 17 00 00 e4 0b 54     ........vH.....T
     320:	02 00 00 ca 9a 3b 00 00 00 e1 f5 05 00 00 80 96     .....;..........
     330:	98 00 00 00 40 42 0f 00 00 00 a0 86 01 00 00 00     ....@B..........
     340:	10 27 00 00 00 00 e8 03 00 00 00 00 64 00 00 00     .'..........d...
     350:	00 00 0a 00 00 00 00 00 01 00 00 00 00 00 2c 76     ..............,v
     360:	d8 88 dc 67 4f 08 23 df c1 df ae 59 e1 b1 b7 96     ...gO.#....Y....
     370:	e5 e3 e4 53 c6 3a e6 51 99 76 96 e8 e6 c2 84 26     ...S.:.Q.v.....&
     380:	eb 89 8c 9b 62 ed 40 7c 6f fc ef bc 9c 9f 40 f2     ....b.@|o.....@.
     390:	ba a5 6f a5 f4 90 05 5a 2a f7 5c 93 6b 6c f9 67     ..o....Z*.\.kl.g
     3a0:	6d c1 1b fc e0 e4 0d 47 fe f5 20 e6 b5 00 d0 ed     m......G.. .....
     3b0:	90 2e 03 00 94 35 77 05 00 80 84 1e 08 00 00 20     .....5w........ 
     3c0:	4e 0a 00 00 00 c8 0c 33 33 33 33 0f 98 6e 12 83     N......3333..n..
     3d0:	11 41 ef 8d 21 14 89 3b e6 55 16 cf fe e6 db 18     .A..!..;.U......
     3e0:	d1 84 4b 38 1b f7 7c 1d 90 1d a4 bb e4 24 20 32     ..K8..|......$ 2
     3f0:	84 72 5e 22 81 00 c9 f1 24 ec a1 e5 3d 27           .r^"....$...='

000003fe <__ctors_end>:
     3fe:	11 24       	eor	r1, r1
     400:	1f be       	out	0x3f, r1	; 63
     402:	cf ef       	ldi	r28, 0xFF	; 255
     404:	cd bf       	out	0x3d, r28	; 61
     406:	df e3       	ldi	r29, 0x3F	; 63
     408:	de bf       	out	0x3e, r29	; 62
     40a:	00 e0       	ldi	r16, 0x00	; 0
     40c:	0c bf       	out	0x3c, r16	; 60
     40e:	18 be       	out	0x38, r1	; 56
     410:	19 be       	out	0x39, r1	; 57
     412:	1a be       	out	0x3a, r1	; 58
     414:	1b be       	out	0x3b, r1	; 59

00000416 <__do_copy_data>:
     416:	10 e2       	ldi	r17, 0x20	; 32
     418:	a0 e0       	ldi	r26, 0x00	; 0
     41a:	b0 e2       	ldi	r27, 0x20	; 32
     41c:	e0 e9       	ldi	r30, 0x90	; 144
     41e:	f9 e4       	ldi	r31, 0x49	; 73
     420:	00 e0       	ldi	r16, 0x00	; 0
     422:	0b bf       	out	0x3b, r16	; 59
     424:	02 c0       	rjmp	.+4      	; 0x42a <__do_copy_data+0x14>
     426:	07 90       	elpm	r0, Z+
     428:	0d 92       	st	X+, r0
     42a:	a6 36       	cpi	r26, 0x66	; 102
     42c:	b1 07       	cpc	r27, r17
     42e:	d9 f7       	brne	.-10     	; 0x426 <__do_copy_data+0x10>
     430:	1b be       	out	0x3b, r1	; 59

00000432 <__do_clear_bss>:
     432:	20 e2       	ldi	r18, 0x20	; 32
     434:	a6 e6       	ldi	r26, 0x66	; 102
     436:	b0 e2       	ldi	r27, 0x20	; 32
     438:	01 c0       	rjmp	.+2      	; 0x43c <.do_clear_bss_start>

0000043a <.do_clear_bss_loop>:
     43a:	1d 92       	st	X+, r1

0000043c <.do_clear_bss_start>:
     43c:	a6 3e       	cpi	r26, 0xE6	; 230
     43e:	b2 07       	cpc	r27, r18
     440:	e1 f7       	brne	.-8      	; 0x43a <.do_clear_bss_loop>
     442:	0e 94 e6 17 	call	0x2fcc	; 0x2fcc <main>
     446:	0c 94 c6 24 	jmp	0x498c	; 0x498c <_exit>

0000044a <__bad_interrupt>:
     44a:	da cd       	rjmp	.-1100   	; 0x0 <__vectors>

0000044c <twim_interrupt_handler>:
 * \brief Common TWI master interrupt service routine.
 *
 *  Check current status and calls the appropriate handler.
 */
static void twim_interrupt_handler(void)
{
     44c:	cf 93       	push	r28
     44e:	df 93       	push	r29
	uint8_t const master_status = transfer.bus->MASTER.STATUS;
     450:	e0 91 66 20 	lds	r30, 0x2066	; 0x802066 <__data_end>
     454:	f0 91 67 20 	lds	r31, 0x2067	; 0x802067 <__data_end+0x1>
     458:	84 81       	ldd	r24, Z+4	; 0x04

	if (master_status & TWI_MASTER_ARBLOST_bm) {
     45a:	83 ff       	sbrs	r24, 3
     45c:	08 c0       	rjmp	.+16     	; 0x46e <twim_interrupt_handler+0x22>

		transfer.bus->MASTER.STATUS = master_status | TWI_MASTER_ARBLOST_bm;
     45e:	88 60       	ori	r24, 0x08	; 8
     460:	84 83       	std	Z+4, r24	; 0x04
		transfer.bus->MASTER.CTRLC  = TWI_MASTER_CMD_STOP_gc;
     462:	83 e0       	ldi	r24, 0x03	; 3
     464:	83 83       	std	Z+3, r24	; 0x03
		transfer.status = ERR_BUSY;
     466:	86 ef       	ldi	r24, 0xF6	; 246
     468:	80 93 70 20 	sts	0x2070, r24	; 0x802070 <__data_end+0xa>
     46c:	83 c0       	rjmp	.+262    	; 0x574 <twim_interrupt_handler+0x128>

	} else if ((master_status & TWI_MASTER_BUSERR_bm) ||
     46e:	98 2f       	mov	r25, r24
     470:	94 71       	andi	r25, 0x14	; 20
     472:	31 f0       	breq	.+12     	; 0x480 <twim_interrupt_handler+0x34>
		(master_status & TWI_MASTER_RXACK_bm)) {

		transfer.bus->MASTER.CTRLC = TWI_MASTER_CMD_STOP_gc;
     474:	83 e0       	ldi	r24, 0x03	; 3
     476:	83 83       	std	Z+3, r24	; 0x03
		transfer.status = ERR_IO_ERROR;
     478:	8f ef       	ldi	r24, 0xFF	; 255
     47a:	80 93 70 20 	sts	0x2070, r24	; 0x802070 <__data_end+0xa>
     47e:	7a c0       	rjmp	.+244    	; 0x574 <twim_interrupt_handler+0x128>

	} else if (master_status & TWI_MASTER_WIF_bm) {
     480:	86 ff       	sbrs	r24, 6
     482:	43 c0       	rjmp	.+134    	; 0x50a <twim_interrupt_handler+0xbe>
 *  Handles TWI transactions (master write) and responses to (N)ACK.
 */
static inline void twim_write_handler(void)
{
	TWI_t * const         bus = transfer.bus;
	twi_package_t * const pkg = transfer.pkg;
     484:	c6 e6       	ldi	r28, 0x66	; 102
     486:	d0 e2       	ldi	r29, 0x20	; 32
     488:	aa 81       	ldd	r26, Y+2	; 0x02
     48a:	bb 81       	ldd	r27, Y+3	; 0x03

	if (transfer.addr_count < pkg->addr_length) {
     48c:	8c 81       	ldd	r24, Y+4	; 0x04
     48e:	9d 81       	ldd	r25, Y+5	; 0x05
     490:	14 96       	adiw	r26, 0x04	; 4
     492:	2d 91       	ld	r18, X+
     494:	3c 91       	ld	r19, X
     496:	15 97       	sbiw	r26, 0x05	; 5
     498:	82 17       	cp	r24, r18
     49a:	93 07       	cpc	r25, r19
     49c:	6c f4       	brge	.+26     	; 0x4b8 <twim_interrupt_handler+0x6c>

		const uint8_t * const data = pkg->addr;
		bus->MASTER.DATA = data[transfer.addr_count++];
     49e:	9c 01       	movw	r18, r24
     4a0:	2f 5f       	subi	r18, 0xFF	; 255
     4a2:	3f 4f       	sbci	r19, 0xFF	; 255
     4a4:	20 93 6a 20 	sts	0x206A, r18	; 0x80206a <__data_end+0x4>
     4a8:	30 93 6b 20 	sts	0x206B, r19	; 0x80206b <__data_end+0x5>
     4ac:	a8 0f       	add	r26, r24
     4ae:	b9 1f       	adc	r27, r25
     4b0:	11 96       	adiw	r26, 0x01	; 1
     4b2:	8c 91       	ld	r24, X
     4b4:	87 83       	std	Z+7, r24	; 0x07
     4b6:	5e c0       	rjmp	.+188    	; 0x574 <twim_interrupt_handler+0x128>

	} else if (transfer.data_count < pkg->length) {
     4b8:	80 91 6c 20 	lds	r24, 0x206C	; 0x80206c <__data_end+0x6>
     4bc:	90 91 6d 20 	lds	r25, 0x206D	; 0x80206d <__data_end+0x7>
     4c0:	18 96       	adiw	r26, 0x08	; 8
     4c2:	2d 91       	ld	r18, X+
     4c4:	3c 91       	ld	r19, X
     4c6:	19 97       	sbiw	r26, 0x09	; 9
     4c8:	82 17       	cp	r24, r18
     4ca:	93 07       	cpc	r25, r19
     4cc:	c8 f4       	brcc	.+50     	; 0x500 <twim_interrupt_handler+0xb4>

		if (transfer.read) {
     4ce:	20 91 6e 20 	lds	r18, 0x206E	; 0x80206e <__data_end+0x8>
     4d2:	22 23       	and	r18, r18
     4d4:	21 f0       	breq	.+8      	; 0x4de <twim_interrupt_handler+0x92>

			/* Send repeated START condition (Address|R/W=1). */

			bus->MASTER.ADDR |= 0x01;
     4d6:	86 81       	ldd	r24, Z+6	; 0x06
     4d8:	81 60       	ori	r24, 0x01	; 1
     4da:	86 83       	std	Z+6, r24	; 0x06
     4dc:	4b c0       	rjmp	.+150    	; 0x574 <twim_interrupt_handler+0x128>

		} else {
			const uint8_t * const data = pkg->buffer;
     4de:	16 96       	adiw	r26, 0x06	; 6
     4e0:	2d 91       	ld	r18, X+
     4e2:	3c 91       	ld	r19, X
     4e4:	17 97       	sbiw	r26, 0x07	; 7
			bus->MASTER.DATA = data[transfer.data_count++];
     4e6:	ac 01       	movw	r20, r24
     4e8:	4f 5f       	subi	r20, 0xFF	; 255
     4ea:	5f 4f       	sbci	r21, 0xFF	; 255
     4ec:	40 93 6c 20 	sts	0x206C, r20	; 0x80206c <__data_end+0x6>
     4f0:	50 93 6d 20 	sts	0x206D, r21	; 0x80206d <__data_end+0x7>
     4f4:	d9 01       	movw	r26, r18
     4f6:	a8 0f       	add	r26, r24
     4f8:	b9 1f       	adc	r27, r25
     4fa:	8c 91       	ld	r24, X
     4fc:	87 83       	std	Z+7, r24	; 0x07
     4fe:	3a c0       	rjmp	.+116    	; 0x574 <twim_interrupt_handler+0x128>

	} else {

		/* Send STOP condition to complete the transaction. */

		bus->MASTER.CTRLC = TWI_MASTER_CMD_STOP_gc;
     500:	83 e0       	ldi	r24, 0x03	; 3
     502:	83 83       	std	Z+3, r24	; 0x03
		transfer.status = STATUS_OK;
     504:	10 92 70 20 	sts	0x2070, r1	; 0x802070 <__data_end+0xa>
     508:	35 c0       	rjmp	.+106    	; 0x574 <twim_interrupt_handler+0x128>

	} else if (master_status & TWI_MASTER_WIF_bm) {

		twim_write_handler();

	} else if (master_status & TWI_MASTER_RIF_bm) {
     50a:	88 23       	and	r24, r24
     50c:	84 f5       	brge	.+96     	; 0x56e <twim_interrupt_handler+0x122>
 *  reading bytes from the TWI slave.
 */
static inline void twim_read_handler(void)
{
	TWI_t * const         bus = transfer.bus;
	twi_package_t * const pkg = transfer.pkg;
     50e:	a6 e6       	ldi	r26, 0x66	; 102
     510:	b0 e2       	ldi	r27, 0x20	; 32
     512:	12 96       	adiw	r26, 0x02	; 2
     514:	cd 91       	ld	r28, X+
     516:	dc 91       	ld	r29, X
     518:	13 97       	sbiw	r26, 0x03	; 3

	if (transfer.data_count < pkg->length) {
     51a:	16 96       	adiw	r26, 0x06	; 6
     51c:	8d 91       	ld	r24, X+
     51e:	9c 91       	ld	r25, X
     520:	17 97       	sbiw	r26, 0x07	; 7
     522:	28 85       	ldd	r18, Y+8	; 0x08
     524:	39 85       	ldd	r19, Y+9	; 0x09
     526:	82 17       	cp	r24, r18
     528:	93 07       	cpc	r25, r19
     52a:	d8 f4       	brcc	.+54     	; 0x562 <twim_interrupt_handler+0x116>

		uint8_t * const data = pkg->buffer;
     52c:	6e 81       	ldd	r22, Y+6	; 0x06
     52e:	7f 81       	ldd	r23, Y+7	; 0x07
		data[transfer.data_count++] = bus->MASTER.DATA;
     530:	9c 01       	movw	r18, r24
     532:	2f 5f       	subi	r18, 0xFF	; 255
     534:	3f 4f       	sbci	r19, 0xFF	; 255
     536:	20 93 6c 20 	sts	0x206C, r18	; 0x80206c <__data_end+0x6>
     53a:	30 93 6d 20 	sts	0x206D, r19	; 0x80206d <__data_end+0x7>
     53e:	47 81       	ldd	r20, Z+7	; 0x07
     540:	db 01       	movw	r26, r22
     542:	a8 0f       	add	r26, r24
     544:	b9 1f       	adc	r27, r25
     546:	4c 93       	st	X, r20

		/* If there is more to read, issue ACK and start a byte read.
		 * Otherwise, issue NACK and STOP to complete the transaction.
		 */
		if (transfer.data_count < pkg->length) {
     548:	88 85       	ldd	r24, Y+8	; 0x08
     54a:	99 85       	ldd	r25, Y+9	; 0x09
     54c:	28 17       	cp	r18, r24
     54e:	39 07       	cpc	r19, r25
     550:	18 f4       	brcc	.+6      	; 0x558 <twim_interrupt_handler+0x10c>

			bus->MASTER.CTRLC = TWI_MASTER_CMD_RECVTRANS_gc;
     552:	82 e0       	ldi	r24, 0x02	; 2
     554:	83 83       	std	Z+3, r24	; 0x03
     556:	0e c0       	rjmp	.+28     	; 0x574 <twim_interrupt_handler+0x128>

		} else {

			bus->MASTER.CTRLC = TWI_MASTER_ACKACT_bm | TWI_MASTER_CMD_STOP_gc;
     558:	87 e0       	ldi	r24, 0x07	; 7
     55a:	83 83       	std	Z+3, r24	; 0x03
			transfer.status = STATUS_OK;
     55c:	10 92 70 20 	sts	0x2070, r1	; 0x802070 <__data_end+0xa>
     560:	09 c0       	rjmp	.+18     	; 0x574 <twim_interrupt_handler+0x128>

	} else {

		/* Issue STOP and buffer overflow condition. */

		bus->MASTER.CTRLC = TWI_MASTER_CMD_STOP_gc;
     562:	83 e0       	ldi	r24, 0x03	; 3
     564:	83 83       	std	Z+3, r24	; 0x03
		transfer.status = ERR_NO_MEMORY;
     566:	89 ef       	ldi	r24, 0xF9	; 249
     568:	80 93 70 20 	sts	0x2070, r24	; 0x802070 <__data_end+0xa>
     56c:	03 c0       	rjmp	.+6      	; 0x574 <twim_interrupt_handler+0x128>

		twim_read_handler();

	} else {

		transfer.status = ERR_PROTOCOL;
     56e:	8b ef       	ldi	r24, 0xFB	; 251
     570:	80 93 70 20 	sts	0x2070, r24	; 0x802070 <__data_end+0xa>
	}
}
     574:	df 91       	pop	r29
     576:	cf 91       	pop	r28
     578:	08 95       	ret

0000057a <__vector_13>:
 * parameters specified in the global \c transfer structure.
 */
static void twim_interrupt_handler(void);

#ifdef TWIC
ISR(TWIC_TWIM_vect) { twim_interrupt_handler(); }
     57a:	1f 92       	push	r1
     57c:	0f 92       	push	r0
     57e:	0f b6       	in	r0, 0x3f	; 63
     580:	0f 92       	push	r0
     582:	11 24       	eor	r1, r1
     584:	08 b6       	in	r0, 0x38	; 56
     586:	0f 92       	push	r0
     588:	18 be       	out	0x38, r1	; 56
     58a:	09 b6       	in	r0, 0x39	; 57
     58c:	0f 92       	push	r0
     58e:	19 be       	out	0x39, r1	; 57
     590:	0b b6       	in	r0, 0x3b	; 59
     592:	0f 92       	push	r0
     594:	1b be       	out	0x3b, r1	; 59
     596:	2f 93       	push	r18
     598:	3f 93       	push	r19
     59a:	4f 93       	push	r20
     59c:	5f 93       	push	r21
     59e:	6f 93       	push	r22
     5a0:	7f 93       	push	r23
     5a2:	8f 93       	push	r24
     5a4:	9f 93       	push	r25
     5a6:	af 93       	push	r26
     5a8:	bf 93       	push	r27
     5aa:	ef 93       	push	r30
     5ac:	ff 93       	push	r31
     5ae:	4e df       	rcall	.-356    	; 0x44c <twim_interrupt_handler>
     5b0:	ff 91       	pop	r31
     5b2:	ef 91       	pop	r30
     5b4:	bf 91       	pop	r27
     5b6:	af 91       	pop	r26
     5b8:	9f 91       	pop	r25
     5ba:	8f 91       	pop	r24
     5bc:	7f 91       	pop	r23
     5be:	6f 91       	pop	r22
     5c0:	5f 91       	pop	r21
     5c2:	4f 91       	pop	r20
     5c4:	3f 91       	pop	r19
     5c6:	2f 91       	pop	r18
     5c8:	0f 90       	pop	r0
     5ca:	0b be       	out	0x3b, r0	; 59
     5cc:	0f 90       	pop	r0
     5ce:	09 be       	out	0x39, r0	; 57
     5d0:	0f 90       	pop	r0
     5d2:	08 be       	out	0x38, r0	; 56
     5d4:	0f 90       	pop	r0
     5d6:	0f be       	out	0x3f, r0	; 63
     5d8:	0f 90       	pop	r0
     5da:	1f 90       	pop	r1
     5dc:	18 95       	reti

000005de <__vector_76>:
#endif
#ifdef TWID
ISR(TWID_TWIM_vect) { twim_interrupt_handler(); }
     5de:	1f 92       	push	r1
     5e0:	0f 92       	push	r0
     5e2:	0f b6       	in	r0, 0x3f	; 63
     5e4:	0f 92       	push	r0
     5e6:	11 24       	eor	r1, r1
     5e8:	08 b6       	in	r0, 0x38	; 56
     5ea:	0f 92       	push	r0
     5ec:	18 be       	out	0x38, r1	; 56
     5ee:	09 b6       	in	r0, 0x39	; 57
     5f0:	0f 92       	push	r0
     5f2:	19 be       	out	0x39, r1	; 57
     5f4:	0b b6       	in	r0, 0x3b	; 59
     5f6:	0f 92       	push	r0
     5f8:	1b be       	out	0x3b, r1	; 59
     5fa:	2f 93       	push	r18
     5fc:	3f 93       	push	r19
     5fe:	4f 93       	push	r20
     600:	5f 93       	push	r21
     602:	6f 93       	push	r22
     604:	7f 93       	push	r23
     606:	8f 93       	push	r24
     608:	9f 93       	push	r25
     60a:	af 93       	push	r26
     60c:	bf 93       	push	r27
     60e:	ef 93       	push	r30
     610:	ff 93       	push	r31
     612:	1c df       	rcall	.-456    	; 0x44c <twim_interrupt_handler>
     614:	ff 91       	pop	r31
     616:	ef 91       	pop	r30
     618:	bf 91       	pop	r27
     61a:	af 91       	pop	r26
     61c:	9f 91       	pop	r25
     61e:	8f 91       	pop	r24
     620:	7f 91       	pop	r23
     622:	6f 91       	pop	r22
     624:	5f 91       	pop	r21
     626:	4f 91       	pop	r20
     628:	3f 91       	pop	r19
     62a:	2f 91       	pop	r18
     62c:	0f 90       	pop	r0
     62e:	0b be       	out	0x3b, r0	; 59
     630:	0f 90       	pop	r0
     632:	09 be       	out	0x39, r0	; 57
     634:	0f 90       	pop	r0
     636:	08 be       	out	0x38, r0	; 56
     638:	0f 90       	pop	r0
     63a:	0f be       	out	0x3f, r0	; 63
     63c:	0f 90       	pop	r0
     63e:	1f 90       	pop	r1
     640:	18 95       	reti

00000642 <__vector_46>:
#endif
#ifdef TWIE
ISR(TWIE_TWIM_vect) { twim_interrupt_handler(); }
     642:	1f 92       	push	r1
     644:	0f 92       	push	r0
     646:	0f b6       	in	r0, 0x3f	; 63
     648:	0f 92       	push	r0
     64a:	11 24       	eor	r1, r1
     64c:	08 b6       	in	r0, 0x38	; 56
     64e:	0f 92       	push	r0
     650:	18 be       	out	0x38, r1	; 56
     652:	09 b6       	in	r0, 0x39	; 57
     654:	0f 92       	push	r0
     656:	19 be       	out	0x39, r1	; 57
     658:	0b b6       	in	r0, 0x3b	; 59
     65a:	0f 92       	push	r0
     65c:	1b be       	out	0x3b, r1	; 59
     65e:	2f 93       	push	r18
     660:	3f 93       	push	r19
     662:	4f 93       	push	r20
     664:	5f 93       	push	r21
     666:	6f 93       	push	r22
     668:	7f 93       	push	r23
     66a:	8f 93       	push	r24
     66c:	9f 93       	push	r25
     66e:	af 93       	push	r26
     670:	bf 93       	push	r27
     672:	ef 93       	push	r30
     674:	ff 93       	push	r31
     676:	ea de       	rcall	.-556    	; 0x44c <twim_interrupt_handler>
     678:	ff 91       	pop	r31
     67a:	ef 91       	pop	r30
     67c:	bf 91       	pop	r27
     67e:	af 91       	pop	r26
     680:	9f 91       	pop	r25
     682:	8f 91       	pop	r24
     684:	7f 91       	pop	r23
     686:	6f 91       	pop	r22
     688:	5f 91       	pop	r21
     68a:	4f 91       	pop	r20
     68c:	3f 91       	pop	r19
     68e:	2f 91       	pop	r18
     690:	0f 90       	pop	r0
     692:	0b be       	out	0x3b, r0	; 59
     694:	0f 90       	pop	r0
     696:	09 be       	out	0x39, r0	; 57
     698:	0f 90       	pop	r0
     69a:	08 be       	out	0x38, r0	; 56
     69c:	0f 90       	pop	r0
     69e:	0f be       	out	0x3f, r0	; 63
     6a0:	0f 90       	pop	r0
     6a2:	1f 90       	pop	r1
     6a4:	18 95       	reti

000006a6 <__vector_107>:
#endif
#ifdef TWIF
ISR(TWIF_TWIM_vect) { twim_interrupt_handler(); }
     6a6:	1f 92       	push	r1
     6a8:	0f 92       	push	r0
     6aa:	0f b6       	in	r0, 0x3f	; 63
     6ac:	0f 92       	push	r0
     6ae:	11 24       	eor	r1, r1
     6b0:	08 b6       	in	r0, 0x38	; 56
     6b2:	0f 92       	push	r0
     6b4:	18 be       	out	0x38, r1	; 56
     6b6:	09 b6       	in	r0, 0x39	; 57
     6b8:	0f 92       	push	r0
     6ba:	19 be       	out	0x39, r1	; 57
     6bc:	0b b6       	in	r0, 0x3b	; 59
     6be:	0f 92       	push	r0
     6c0:	1b be       	out	0x3b, r1	; 59
     6c2:	2f 93       	push	r18
     6c4:	3f 93       	push	r19
     6c6:	4f 93       	push	r20
     6c8:	5f 93       	push	r21
     6ca:	6f 93       	push	r22
     6cc:	7f 93       	push	r23
     6ce:	8f 93       	push	r24
     6d0:	9f 93       	push	r25
     6d2:	af 93       	push	r26
     6d4:	bf 93       	push	r27
     6d6:	ef 93       	push	r30
     6d8:	ff 93       	push	r31
     6da:	b8 de       	rcall	.-656    	; 0x44c <twim_interrupt_handler>
     6dc:	ff 91       	pop	r31
     6de:	ef 91       	pop	r30
     6e0:	bf 91       	pop	r27
     6e2:	af 91       	pop	r26
     6e4:	9f 91       	pop	r25
     6e6:	8f 91       	pop	r24
     6e8:	7f 91       	pop	r23
     6ea:	6f 91       	pop	r22
     6ec:	5f 91       	pop	r21
     6ee:	4f 91       	pop	r20
     6f0:	3f 91       	pop	r19
     6f2:	2f 91       	pop	r18
     6f4:	0f 90       	pop	r0
     6f6:	0b be       	out	0x3b, r0	; 59
     6f8:	0f 90       	pop	r0
     6fa:	09 be       	out	0x39, r0	; 57
     6fc:	0f 90       	pop	r0
     6fe:	08 be       	out	0x38, r0	; 56
     700:	0f 90       	pop	r0
     702:	0f be       	out	0x3f, r0	; 63
     704:	0f 90       	pop	r0
     706:	1f 90       	pop	r1
     708:	18 95       	reti

0000070a <wdt_reset_mcu>:
uint8_t temp;
	/*
	 * WDT enabled (minimum timeout period for max. security)
	 */
	temp = WDT_PER_8CLK_gc | (1 << WDT_ENABLE_bp) | (1 << WDT_CEN_bp);
	ccp_write_io((void *)&WDT.CTRL, temp);
     70a:	63 e0       	ldi	r22, 0x03	; 3
     70c:	80 e8       	ldi	r24, 0x80	; 128
     70e:	90 e0       	ldi	r25, 0x00	; 0
     710:	6e d2       	rcall	.+1244   	; 0xbee <ccp_write_io>
/*! \brief Wait until WD settings are synchronized to the WD clock domain.
 *
 */
static inline void wdt_wait_while_busy(void)
{
	while ((WDT.STATUS & WDT_SYNCBUSY_bm) == WDT_SYNCBUSY_bm) {
     712:	e0 e8       	ldi	r30, 0x80	; 128
     714:	f0 e0       	ldi	r31, 0x00	; 0
     716:	82 81       	ldd	r24, Z+2	; 0x02
     718:	80 fd       	sbrc	r24, 0
     71a:	fd cf       	rjmp	.-6      	; 0x716 <wdt_reset_mcu+0xc>
	wdt_wait_while_busy();
	/*
	 * WDT enabled (maximum window period for max. security)
	 */
	temp = WDT_WPER_8KCLK_gc | (1 << WDT_WEN_bp) | (1 << WDT_WCEN_bp);
	ccp_write_io((void *)&WDT.WINCTRL, temp);
     71c:	6b e2       	ldi	r22, 0x2B	; 43
     71e:	81 e8       	ldi	r24, 0x81	; 129
     720:	90 e0       	ldi	r25, 0x00	; 0
     722:	65 d2       	rcall	.+1226   	; 0xbee <ccp_write_io>
     724:	e0 e8       	ldi	r30, 0x80	; 128
     726:	f0 e0       	ldi	r31, 0x00	; 0
     728:	82 81       	ldd	r24, Z+2	; 0x02
     72a:	80 fd       	sbrc	r24, 0
     72c:	fd cf       	rjmp	.-6      	; 0x728 <wdt_reset_mcu+0x1e>
	wdt_wait_while_busy();
	/*
	 * WDT Reset during window => WDT generates an Hard Reset.
	 */
	wdt_reset();
     72e:	a8 95       	wdr
     730:	ff cf       	rjmp	.-2      	; 0x730 <wdt_reset_mcu+0x26>

00000732 <sysclk_init>:
#  include <nvm.h>
#endif


void sysclk_init(void)
{
     732:	cf 93       	push	r28
     734:	df 93       	push	r29
     736:	1f 92       	push	r1
     738:	1f 92       	push	r1
     73a:	cd b7       	in	r28, 0x3d	; 61
     73c:	de b7       	in	r29, 0x3e	; 62
#endif
	bool need_rc2mhz = false;

	/* Turn off all peripheral clocks that can be turned off. */
	for (i = 0; i <= SYSCLK_PORT_F; i++) {
		*(reg++) = 0xff;
     73e:	8f ef       	ldi	r24, 0xFF	; 255
     740:	80 93 70 00 	sts	0x0070, r24	; 0x800070 <__TEXT_REGION_LENGTH__+0x700070>
     744:	80 93 71 00 	sts	0x0071, r24	; 0x800071 <__TEXT_REGION_LENGTH__+0x700071>
     748:	80 93 72 00 	sts	0x0072, r24	; 0x800072 <__TEXT_REGION_LENGTH__+0x700072>
     74c:	80 93 73 00 	sts	0x0073, r24	; 0x800073 <__TEXT_REGION_LENGTH__+0x700073>
     750:	80 93 74 00 	sts	0x0074, r24	; 0x800074 <__TEXT_REGION_LENGTH__+0x700074>
     754:	80 93 75 00 	sts	0x0075, r24	; 0x800075 <__TEXT_REGION_LENGTH__+0x700075>
     758:	80 93 76 00 	sts	0x0076, r24	; 0x800076 <__TEXT_REGION_LENGTH__+0x700076>

typedef uint8_t irqflags_t;

static inline irqflags_t cpu_irq_save(void)
{
	volatile irqflags_t flags = SREG;
     75c:	8f b7       	in	r24, 0x3f	; 63
     75e:	8a 83       	std	Y+2, r24	; 0x02
	cpu_irq_disable();
     760:	f8 94       	cli
	return flags;
     762:	9a 81       	ldd	r25, Y+2	; 0x02
	irqflags_t flags;

	Assert(id != OSC_ID_USBSOF);

	flags = cpu_irq_save();
	OSC.CTRL |= id;
     764:	e0 e5       	ldi	r30, 0x50	; 80
     766:	f0 e0       	ldi	r31, 0x00	; 0
     768:	80 81       	ld	r24, Z
     76a:	82 60       	ori	r24, 0x02	; 2
     76c:	80 83       	st	Z, r24
}

static inline void cpu_irq_restore(irqflags_t flags)
{
	barrier();
	SREG = flags;
     76e:	9f bf       	out	0x3f, r25	; 63

static inline bool osc_is_ready(uint8_t id)
{
	Assert(id != OSC_ID_USBSOF);

	return OSC.STATUS & id;
     770:	81 81       	ldd	r24, Z+1	; 0x01
 *
 * \param id A number identifying the oscillator to wait for.
 */
static inline void osc_wait_ready(uint8_t id)
{
	while (!osc_is_ready(id)) {
     772:	81 ff       	sbrs	r24, 1
     774:	fd cf       	rjmp	.-6      	; 0x770 <sysclk_init+0x3e>
		default:
			//unhandled_case(CONFIG_SYSCLK_SOURCE);
			return;
		}

		ccp_write_io((uint8_t *)&CLK.CTRL, CONFIG_SYSCLK_SOURCE);
     776:	61 e0       	ldi	r22, 0x01	; 1
     778:	80 e4       	ldi	r24, 0x40	; 64
     77a:	90 e0       	ldi	r25, 0x00	; 0
     77c:	38 d2       	rcall	.+1136   	; 0xbee <ccp_write_io>

typedef uint8_t irqflags_t;

static inline irqflags_t cpu_irq_save(void)
{
	volatile irqflags_t flags = SREG;
     77e:	8f b7       	in	r24, 0x3f	; 63
     780:	89 83       	std	Y+1, r24	; 0x01
	cpu_irq_disable();
     782:	f8 94       	cli
	return flags;
     784:	99 81       	ldd	r25, Y+1	; 0x01
	irqflags_t flags;

	Assert(id != OSC_ID_USBSOF);

	flags = cpu_irq_save();
	OSC.CTRL &= ~id;
     786:	e0 e5       	ldi	r30, 0x50	; 80
     788:	f0 e0       	ldi	r31, 0x00	; 0
     78a:	80 81       	ld	r24, Z
     78c:	8e 7f       	andi	r24, 0xFE	; 254
     78e:	80 83       	st	Z, r24
}

static inline void cpu_irq_restore(irqflags_t flags)
{
	barrier();
	SREG = flags;
     790:	9f bf       	out	0x3f, r25	; 63
	}

#ifdef CONFIG_RTC_SOURCE
	sysclk_rtcsrc_enable(CONFIG_RTC_SOURCE);
#endif
}
     792:	0f 90       	pop	r0
     794:	0f 90       	pop	r0
     796:	df 91       	pop	r29
     798:	cf 91       	pop	r28
     79a:	08 95       	ret

0000079c <sysclk_enable_module>:

void sysclk_enable_module(enum sysclk_port_id port, uint8_t id)
{
     79c:	cf 93       	push	r28
     79e:	df 93       	push	r29
     7a0:	1f 92       	push	r1
     7a2:	cd b7       	in	r28, 0x3d	; 61
     7a4:	de b7       	in	r29, 0x3e	; 62

typedef uint8_t irqflags_t;

static inline irqflags_t cpu_irq_save(void)
{
	volatile irqflags_t flags = SREG;
     7a6:	9f b7       	in	r25, 0x3f	; 63
     7a8:	99 83       	std	Y+1, r25	; 0x01
	cpu_irq_disable();
     7aa:	f8 94       	cli
	return flags;
     7ac:	99 81       	ldd	r25, Y+1	; 0x01
	irqflags_t flags = cpu_irq_save();

	*((uint8_t *)&PR.PRGEN + port) &= ~id;
     7ae:	e8 2f       	mov	r30, r24
     7b0:	f0 e0       	ldi	r31, 0x00	; 0
     7b2:	e0 59       	subi	r30, 0x90	; 144
     7b4:	ff 4f       	sbci	r31, 0xFF	; 255
     7b6:	60 95       	com	r22
     7b8:	80 81       	ld	r24, Z
     7ba:	68 23       	and	r22, r24
     7bc:	60 83       	st	Z, r22
}

static inline void cpu_irq_restore(irqflags_t flags)
{
	barrier();
	SREG = flags;
     7be:	9f bf       	out	0x3f, r25	; 63

	cpu_irq_restore(flags);
}
     7c0:	0f 90       	pop	r0
     7c2:	df 91       	pop	r29
     7c4:	cf 91       	pop	r28
     7c6:	08 95       	ret

000007c8 <_read>:
#elif (defined(__GNUC__) && (XMEGA || MEGA) )

int _read (int *f); // Remove GCC compiler warning

int _read (int *f)
{
     7c8:	cf 93       	push	r28
     7ca:	df 93       	push	r29
     7cc:	1f 92       	push	r1
     7ce:	cd b7       	in	r28, 0x3d	; 61
     7d0:	de b7       	in	r29, 0x3e	; 62
	char c;
	ptr_get(stdio_base,&c);
     7d2:	80 91 c5 20 	lds	r24, 0x20C5	; 0x8020c5 <stdio_base>
     7d6:	90 91 c6 20 	lds	r25, 0x20C6	; 0x8020c6 <stdio_base+0x1>
     7da:	e0 91 c1 20 	lds	r30, 0x20C1	; 0x8020c1 <ptr_get>
     7de:	f0 91 c2 20 	lds	r31, 0x20C2	; 0x8020c2 <ptr_get+0x1>
     7e2:	be 01       	movw	r22, r28
     7e4:	6f 5f       	subi	r22, 0xFF	; 255
     7e6:	7f 4f       	sbci	r23, 0xFF	; 255
     7e8:	19 95       	eicall
	return c;
     7ea:	89 81       	ldd	r24, Y+1	; 0x01
}
     7ec:	08 2e       	mov	r0, r24
     7ee:	00 0c       	add	r0, r0
     7f0:	99 0b       	sbc	r25, r25
     7f2:	0f 90       	pop	r0
     7f4:	df 91       	pop	r29
     7f6:	cf 91       	pop	r28
     7f8:	08 95       	ret

000007fa <_write>:
#elif (defined(__GNUC__) && (XMEGA || MEGA))

int _write (char c, int *f);

int _write (char c, int *f)
{
     7fa:	68 2f       	mov	r22, r24
	if (ptr_put(stdio_base, c) < 0) {
     7fc:	80 91 c5 20 	lds	r24, 0x20C5	; 0x8020c5 <stdio_base>
     800:	90 91 c6 20 	lds	r25, 0x20C6	; 0x8020c6 <stdio_base+0x1>
     804:	e0 91 c3 20 	lds	r30, 0x20C3	; 0x8020c3 <ptr_put>
     808:	f0 91 c4 20 	lds	r31, 0x20C4	; 0x8020c4 <ptr_put+0x1>
     80c:	19 95       	eicall
     80e:	99 23       	and	r25, r25
     810:	1c f0       	brlt	.+6      	; 0x818 <_write+0x1e>
		return -1;
	}
	return 1;
     812:	81 e0       	ldi	r24, 0x01	; 1
     814:	90 e0       	ldi	r25, 0x00	; 0
     816:	08 95       	ret
int _write (char c, int *f);

int _write (char c, int *f)
{
	if (ptr_put(stdio_base, c) < 0) {
		return -1;
     818:	8f ef       	ldi	r24, 0xFF	; 255
     81a:	9f ef       	ldi	r25, 0xFF	; 255
	}
	return 1;
}
     81c:	08 95       	ret

0000081e <__vector_71>:
 *
 * Calls the callback function that has been set for the ADC when the channel's
 * interrupt flag is set, if its interrupt has been enabled.
 */
ISR(ADCA_CH0_vect)
{
     81e:	1f 92       	push	r1
     820:	0f 92       	push	r0
     822:	0f b6       	in	r0, 0x3f	; 63
     824:	0f 92       	push	r0
     826:	11 24       	eor	r1, r1
     828:	08 b6       	in	r0, 0x38	; 56
     82a:	0f 92       	push	r0
     82c:	18 be       	out	0x38, r1	; 56
     82e:	09 b6       	in	r0, 0x39	; 57
     830:	0f 92       	push	r0
     832:	19 be       	out	0x39, r1	; 57
     834:	0b b6       	in	r0, 0x3b	; 59
     836:	0f 92       	push	r0
     838:	1b be       	out	0x3b, r1	; 59
     83a:	2f 93       	push	r18
     83c:	3f 93       	push	r19
     83e:	4f 93       	push	r20
     840:	5f 93       	push	r21
     842:	6f 93       	push	r22
     844:	7f 93       	push	r23
     846:	8f 93       	push	r24
     848:	9f 93       	push	r25
     84a:	af 93       	push	r26
     84c:	bf 93       	push	r27
     84e:	ef 93       	push	r30
     850:	ff 93       	push	r31
	adca_callback(&ADCA, ADC_CH0, adc_get_result(&ADCA, ADC_CH0));
     852:	40 91 24 02 	lds	r20, 0x0224	; 0x800224 <__TEXT_REGION_LENGTH__+0x700224>
     856:	50 91 25 02 	lds	r21, 0x0225	; 0x800225 <__TEXT_REGION_LENGTH__+0x700225>
     85a:	e0 91 c9 20 	lds	r30, 0x20C9	; 0x8020c9 <adca_callback>
     85e:	f0 91 ca 20 	lds	r31, 0x20CA	; 0x8020ca <adca_callback+0x1>
     862:	61 e0       	ldi	r22, 0x01	; 1
     864:	80 e0       	ldi	r24, 0x00	; 0
     866:	92 e0       	ldi	r25, 0x02	; 2
     868:	19 95       	eicall
}
     86a:	ff 91       	pop	r31
     86c:	ef 91       	pop	r30
     86e:	bf 91       	pop	r27
     870:	af 91       	pop	r26
     872:	9f 91       	pop	r25
     874:	8f 91       	pop	r24
     876:	7f 91       	pop	r23
     878:	6f 91       	pop	r22
     87a:	5f 91       	pop	r21
     87c:	4f 91       	pop	r20
     87e:	3f 91       	pop	r19
     880:	2f 91       	pop	r18
     882:	0f 90       	pop	r0
     884:	0b be       	out	0x3b, r0	; 59
     886:	0f 90       	pop	r0
     888:	09 be       	out	0x39, r0	; 57
     88a:	0f 90       	pop	r0
     88c:	08 be       	out	0x38, r0	; 56
     88e:	0f 90       	pop	r0
     890:	0f be       	out	0x3f, r0	; 63
     892:	0f 90       	pop	r0
     894:	1f 90       	pop	r1
     896:	18 95       	reti

00000898 <__vector_72>:
 *
 * Calls the callback function that has been set for the ADC when the channel's
 * interrupt flag is set, if its interrupt has been enabled.
 */
ISR(ADCA_CH1_vect)
{
     898:	1f 92       	push	r1
     89a:	0f 92       	push	r0
     89c:	0f b6       	in	r0, 0x3f	; 63
     89e:	0f 92       	push	r0
     8a0:	11 24       	eor	r1, r1
     8a2:	08 b6       	in	r0, 0x38	; 56
     8a4:	0f 92       	push	r0
     8a6:	18 be       	out	0x38, r1	; 56
     8a8:	09 b6       	in	r0, 0x39	; 57
     8aa:	0f 92       	push	r0
     8ac:	19 be       	out	0x39, r1	; 57
     8ae:	0b b6       	in	r0, 0x3b	; 59
     8b0:	0f 92       	push	r0
     8b2:	1b be       	out	0x3b, r1	; 59
     8b4:	2f 93       	push	r18
     8b6:	3f 93       	push	r19
     8b8:	4f 93       	push	r20
     8ba:	5f 93       	push	r21
     8bc:	6f 93       	push	r22
     8be:	7f 93       	push	r23
     8c0:	8f 93       	push	r24
     8c2:	9f 93       	push	r25
     8c4:	af 93       	push	r26
     8c6:	bf 93       	push	r27
     8c8:	ef 93       	push	r30
     8ca:	ff 93       	push	r31
	adca_callback(&ADCA, ADC_CH1, adc_get_result(&ADCA, ADC_CH1));
     8cc:	40 91 2c 02 	lds	r20, 0x022C	; 0x80022c <__TEXT_REGION_LENGTH__+0x70022c>
     8d0:	50 91 2d 02 	lds	r21, 0x022D	; 0x80022d <__TEXT_REGION_LENGTH__+0x70022d>
     8d4:	e0 91 c9 20 	lds	r30, 0x20C9	; 0x8020c9 <adca_callback>
     8d8:	f0 91 ca 20 	lds	r31, 0x20CA	; 0x8020ca <adca_callback+0x1>
     8dc:	62 e0       	ldi	r22, 0x02	; 2
     8de:	80 e0       	ldi	r24, 0x00	; 0
     8e0:	92 e0       	ldi	r25, 0x02	; 2
     8e2:	19 95       	eicall
}
     8e4:	ff 91       	pop	r31
     8e6:	ef 91       	pop	r30
     8e8:	bf 91       	pop	r27
     8ea:	af 91       	pop	r26
     8ec:	9f 91       	pop	r25
     8ee:	8f 91       	pop	r24
     8f0:	7f 91       	pop	r23
     8f2:	6f 91       	pop	r22
     8f4:	5f 91       	pop	r21
     8f6:	4f 91       	pop	r20
     8f8:	3f 91       	pop	r19
     8fa:	2f 91       	pop	r18
     8fc:	0f 90       	pop	r0
     8fe:	0b be       	out	0x3b, r0	; 59
     900:	0f 90       	pop	r0
     902:	09 be       	out	0x39, r0	; 57
     904:	0f 90       	pop	r0
     906:	08 be       	out	0x38, r0	; 56
     908:	0f 90       	pop	r0
     90a:	0f be       	out	0x3f, r0	; 63
     90c:	0f 90       	pop	r0
     90e:	1f 90       	pop	r1
     910:	18 95       	reti

00000912 <__vector_73>:
 *
 * Calls the callback function that has been set for the ADC when the channel's
 * interrupt flag is set, if its interrupt has been enabled.
 */
ISR(ADCA_CH2_vect)
{
     912:	1f 92       	push	r1
     914:	0f 92       	push	r0
     916:	0f b6       	in	r0, 0x3f	; 63
     918:	0f 92       	push	r0
     91a:	11 24       	eor	r1, r1
     91c:	08 b6       	in	r0, 0x38	; 56
     91e:	0f 92       	push	r0
     920:	18 be       	out	0x38, r1	; 56
     922:	09 b6       	in	r0, 0x39	; 57
     924:	0f 92       	push	r0
     926:	19 be       	out	0x39, r1	; 57
     928:	0b b6       	in	r0, 0x3b	; 59
     92a:	0f 92       	push	r0
     92c:	1b be       	out	0x3b, r1	; 59
     92e:	2f 93       	push	r18
     930:	3f 93       	push	r19
     932:	4f 93       	push	r20
     934:	5f 93       	push	r21
     936:	6f 93       	push	r22
     938:	7f 93       	push	r23
     93a:	8f 93       	push	r24
     93c:	9f 93       	push	r25
     93e:	af 93       	push	r26
     940:	bf 93       	push	r27
     942:	ef 93       	push	r30
     944:	ff 93       	push	r31
	adca_callback(&ADCA, ADC_CH2, adc_get_result(&ADCA, ADC_CH2));
     946:	40 91 34 02 	lds	r20, 0x0234	; 0x800234 <__TEXT_REGION_LENGTH__+0x700234>
     94a:	50 91 35 02 	lds	r21, 0x0235	; 0x800235 <__TEXT_REGION_LENGTH__+0x700235>
     94e:	e0 91 c9 20 	lds	r30, 0x20C9	; 0x8020c9 <adca_callback>
     952:	f0 91 ca 20 	lds	r31, 0x20CA	; 0x8020ca <adca_callback+0x1>
     956:	64 e0       	ldi	r22, 0x04	; 4
     958:	80 e0       	ldi	r24, 0x00	; 0
     95a:	92 e0       	ldi	r25, 0x02	; 2
     95c:	19 95       	eicall
}
     95e:	ff 91       	pop	r31
     960:	ef 91       	pop	r30
     962:	bf 91       	pop	r27
     964:	af 91       	pop	r26
     966:	9f 91       	pop	r25
     968:	8f 91       	pop	r24
     96a:	7f 91       	pop	r23
     96c:	6f 91       	pop	r22
     96e:	5f 91       	pop	r21
     970:	4f 91       	pop	r20
     972:	3f 91       	pop	r19
     974:	2f 91       	pop	r18
     976:	0f 90       	pop	r0
     978:	0b be       	out	0x3b, r0	; 59
     97a:	0f 90       	pop	r0
     97c:	09 be       	out	0x39, r0	; 57
     97e:	0f 90       	pop	r0
     980:	08 be       	out	0x38, r0	; 56
     982:	0f 90       	pop	r0
     984:	0f be       	out	0x3f, r0	; 63
     986:	0f 90       	pop	r0
     988:	1f 90       	pop	r1
     98a:	18 95       	reti

0000098c <__vector_74>:
 *
 * Calls the callback function that has been set for the ADC when the channel's
 * interrupt flag is set, if its interrupt has been enabled.
 */
ISR(ADCA_CH3_vect)
{
     98c:	1f 92       	push	r1
     98e:	0f 92       	push	r0
     990:	0f b6       	in	r0, 0x3f	; 63
     992:	0f 92       	push	r0
     994:	11 24       	eor	r1, r1
     996:	08 b6       	in	r0, 0x38	; 56
     998:	0f 92       	push	r0
     99a:	18 be       	out	0x38, r1	; 56
     99c:	09 b6       	in	r0, 0x39	; 57
     99e:	0f 92       	push	r0
     9a0:	19 be       	out	0x39, r1	; 57
     9a2:	0b b6       	in	r0, 0x3b	; 59
     9a4:	0f 92       	push	r0
     9a6:	1b be       	out	0x3b, r1	; 59
     9a8:	2f 93       	push	r18
     9aa:	3f 93       	push	r19
     9ac:	4f 93       	push	r20
     9ae:	5f 93       	push	r21
     9b0:	6f 93       	push	r22
     9b2:	7f 93       	push	r23
     9b4:	8f 93       	push	r24
     9b6:	9f 93       	push	r25
     9b8:	af 93       	push	r26
     9ba:	bf 93       	push	r27
     9bc:	ef 93       	push	r30
     9be:	ff 93       	push	r31
	adca_callback(&ADCA, ADC_CH3, adc_get_result(&ADCA, ADC_CH3));
     9c0:	40 91 3c 02 	lds	r20, 0x023C	; 0x80023c <__TEXT_REGION_LENGTH__+0x70023c>
     9c4:	50 91 3d 02 	lds	r21, 0x023D	; 0x80023d <__TEXT_REGION_LENGTH__+0x70023d>
     9c8:	e0 91 c9 20 	lds	r30, 0x20C9	; 0x8020c9 <adca_callback>
     9cc:	f0 91 ca 20 	lds	r31, 0x20CA	; 0x8020ca <adca_callback+0x1>
     9d0:	68 e0       	ldi	r22, 0x08	; 8
     9d2:	80 e0       	ldi	r24, 0x00	; 0
     9d4:	92 e0       	ldi	r25, 0x02	; 2
     9d6:	19 95       	eicall
}
     9d8:	ff 91       	pop	r31
     9da:	ef 91       	pop	r30
     9dc:	bf 91       	pop	r27
     9de:	af 91       	pop	r26
     9e0:	9f 91       	pop	r25
     9e2:	8f 91       	pop	r24
     9e4:	7f 91       	pop	r23
     9e6:	6f 91       	pop	r22
     9e8:	5f 91       	pop	r21
     9ea:	4f 91       	pop	r20
     9ec:	3f 91       	pop	r19
     9ee:	2f 91       	pop	r18
     9f0:	0f 90       	pop	r0
     9f2:	0b be       	out	0x3b, r0	; 59
     9f4:	0f 90       	pop	r0
     9f6:	09 be       	out	0x39, r0	; 57
     9f8:	0f 90       	pop	r0
     9fa:	08 be       	out	0x38, r0	; 56
     9fc:	0f 90       	pop	r0
     9fe:	0f be       	out	0x3f, r0	; 63
     a00:	0f 90       	pop	r0
     a02:	1f 90       	pop	r1
     a04:	18 95       	reti

00000a06 <__vector_39>:
 *
 * Calls the callback function that has been set for the ADC when the channel's
 * interrupt flag is set, if its interrupt has been enabled.
 */
ISR(ADCB_CH0_vect)
{
     a06:	1f 92       	push	r1
     a08:	0f 92       	push	r0
     a0a:	0f b6       	in	r0, 0x3f	; 63
     a0c:	0f 92       	push	r0
     a0e:	11 24       	eor	r1, r1
     a10:	08 b6       	in	r0, 0x38	; 56
     a12:	0f 92       	push	r0
     a14:	18 be       	out	0x38, r1	; 56
     a16:	09 b6       	in	r0, 0x39	; 57
     a18:	0f 92       	push	r0
     a1a:	19 be       	out	0x39, r1	; 57
     a1c:	0b b6       	in	r0, 0x3b	; 59
     a1e:	0f 92       	push	r0
     a20:	1b be       	out	0x3b, r1	; 59
     a22:	2f 93       	push	r18
     a24:	3f 93       	push	r19
     a26:	4f 93       	push	r20
     a28:	5f 93       	push	r21
     a2a:	6f 93       	push	r22
     a2c:	7f 93       	push	r23
     a2e:	8f 93       	push	r24
     a30:	9f 93       	push	r25
     a32:	af 93       	push	r26
     a34:	bf 93       	push	r27
     a36:	ef 93       	push	r30
     a38:	ff 93       	push	r31
	adcb_callback(&ADCB, ADC_CH0, adc_get_result(&ADCB, ADC_CH0));
     a3a:	40 91 64 02 	lds	r20, 0x0264	; 0x800264 <__TEXT_REGION_LENGTH__+0x700264>
     a3e:	50 91 65 02 	lds	r21, 0x0265	; 0x800265 <__TEXT_REGION_LENGTH__+0x700265>
     a42:	e0 91 c7 20 	lds	r30, 0x20C7	; 0x8020c7 <adcb_callback>
     a46:	f0 91 c8 20 	lds	r31, 0x20C8	; 0x8020c8 <adcb_callback+0x1>
     a4a:	61 e0       	ldi	r22, 0x01	; 1
     a4c:	80 e4       	ldi	r24, 0x40	; 64
     a4e:	92 e0       	ldi	r25, 0x02	; 2
     a50:	19 95       	eicall
}
     a52:	ff 91       	pop	r31
     a54:	ef 91       	pop	r30
     a56:	bf 91       	pop	r27
     a58:	af 91       	pop	r26
     a5a:	9f 91       	pop	r25
     a5c:	8f 91       	pop	r24
     a5e:	7f 91       	pop	r23
     a60:	6f 91       	pop	r22
     a62:	5f 91       	pop	r21
     a64:	4f 91       	pop	r20
     a66:	3f 91       	pop	r19
     a68:	2f 91       	pop	r18
     a6a:	0f 90       	pop	r0
     a6c:	0b be       	out	0x3b, r0	; 59
     a6e:	0f 90       	pop	r0
     a70:	09 be       	out	0x39, r0	; 57
     a72:	0f 90       	pop	r0
     a74:	08 be       	out	0x38, r0	; 56
     a76:	0f 90       	pop	r0
     a78:	0f be       	out	0x3f, r0	; 63
     a7a:	0f 90       	pop	r0
     a7c:	1f 90       	pop	r1
     a7e:	18 95       	reti

00000a80 <__vector_40>:
 *
 * Calls the callback function that has been set for the ADC when the channel's
 * interrupt flag is set, if its interrupt has been enabled.
 */
ISR(ADCB_CH1_vect)
{
     a80:	1f 92       	push	r1
     a82:	0f 92       	push	r0
     a84:	0f b6       	in	r0, 0x3f	; 63
     a86:	0f 92       	push	r0
     a88:	11 24       	eor	r1, r1
     a8a:	08 b6       	in	r0, 0x38	; 56
     a8c:	0f 92       	push	r0
     a8e:	18 be       	out	0x38, r1	; 56
     a90:	09 b6       	in	r0, 0x39	; 57
     a92:	0f 92       	push	r0
     a94:	19 be       	out	0x39, r1	; 57
     a96:	0b b6       	in	r0, 0x3b	; 59
     a98:	0f 92       	push	r0
     a9a:	1b be       	out	0x3b, r1	; 59
     a9c:	2f 93       	push	r18
     a9e:	3f 93       	push	r19
     aa0:	4f 93       	push	r20
     aa2:	5f 93       	push	r21
     aa4:	6f 93       	push	r22
     aa6:	7f 93       	push	r23
     aa8:	8f 93       	push	r24
     aaa:	9f 93       	push	r25
     aac:	af 93       	push	r26
     aae:	bf 93       	push	r27
     ab0:	ef 93       	push	r30
     ab2:	ff 93       	push	r31
	adcb_callback(&ADCB, ADC_CH1, adc_get_result(&ADCB, ADC_CH1));
     ab4:	40 91 6c 02 	lds	r20, 0x026C	; 0x80026c <__TEXT_REGION_LENGTH__+0x70026c>
     ab8:	50 91 6d 02 	lds	r21, 0x026D	; 0x80026d <__TEXT_REGION_LENGTH__+0x70026d>
     abc:	e0 91 c7 20 	lds	r30, 0x20C7	; 0x8020c7 <adcb_callback>
     ac0:	f0 91 c8 20 	lds	r31, 0x20C8	; 0x8020c8 <adcb_callback+0x1>
     ac4:	62 e0       	ldi	r22, 0x02	; 2
     ac6:	80 e4       	ldi	r24, 0x40	; 64
     ac8:	92 e0       	ldi	r25, 0x02	; 2
     aca:	19 95       	eicall
}
     acc:	ff 91       	pop	r31
     ace:	ef 91       	pop	r30
     ad0:	bf 91       	pop	r27
     ad2:	af 91       	pop	r26
     ad4:	9f 91       	pop	r25
     ad6:	8f 91       	pop	r24
     ad8:	7f 91       	pop	r23
     ada:	6f 91       	pop	r22
     adc:	5f 91       	pop	r21
     ade:	4f 91       	pop	r20
     ae0:	3f 91       	pop	r19
     ae2:	2f 91       	pop	r18
     ae4:	0f 90       	pop	r0
     ae6:	0b be       	out	0x3b, r0	; 59
     ae8:	0f 90       	pop	r0
     aea:	09 be       	out	0x39, r0	; 57
     aec:	0f 90       	pop	r0
     aee:	08 be       	out	0x38, r0	; 56
     af0:	0f 90       	pop	r0
     af2:	0f be       	out	0x3f, r0	; 63
     af4:	0f 90       	pop	r0
     af6:	1f 90       	pop	r1
     af8:	18 95       	reti

00000afa <__vector_41>:
 *
 * Calls the callback function that has been set for the ADC when the channel's
 * interrupt flag is set, if its interrupt has been enabled.
 */
ISR(ADCB_CH2_vect)
{
     afa:	1f 92       	push	r1
     afc:	0f 92       	push	r0
     afe:	0f b6       	in	r0, 0x3f	; 63
     b00:	0f 92       	push	r0
     b02:	11 24       	eor	r1, r1
     b04:	08 b6       	in	r0, 0x38	; 56
     b06:	0f 92       	push	r0
     b08:	18 be       	out	0x38, r1	; 56
     b0a:	09 b6       	in	r0, 0x39	; 57
     b0c:	0f 92       	push	r0
     b0e:	19 be       	out	0x39, r1	; 57
     b10:	0b b6       	in	r0, 0x3b	; 59
     b12:	0f 92       	push	r0
     b14:	1b be       	out	0x3b, r1	; 59
     b16:	2f 93       	push	r18
     b18:	3f 93       	push	r19
     b1a:	4f 93       	push	r20
     b1c:	5f 93       	push	r21
     b1e:	6f 93       	push	r22
     b20:	7f 93       	push	r23
     b22:	8f 93       	push	r24
     b24:	9f 93       	push	r25
     b26:	af 93       	push	r26
     b28:	bf 93       	push	r27
     b2a:	ef 93       	push	r30
     b2c:	ff 93       	push	r31
	adcb_callback(&ADCB, ADC_CH2, adc_get_result(&ADCB, ADC_CH2));
     b2e:	40 91 74 02 	lds	r20, 0x0274	; 0x800274 <__TEXT_REGION_LENGTH__+0x700274>
     b32:	50 91 75 02 	lds	r21, 0x0275	; 0x800275 <__TEXT_REGION_LENGTH__+0x700275>
     b36:	e0 91 c7 20 	lds	r30, 0x20C7	; 0x8020c7 <adcb_callback>
     b3a:	f0 91 c8 20 	lds	r31, 0x20C8	; 0x8020c8 <adcb_callback+0x1>
     b3e:	64 e0       	ldi	r22, 0x04	; 4
     b40:	80 e4       	ldi	r24, 0x40	; 64
     b42:	92 e0       	ldi	r25, 0x02	; 2
     b44:	19 95       	eicall
}
     b46:	ff 91       	pop	r31
     b48:	ef 91       	pop	r30
     b4a:	bf 91       	pop	r27
     b4c:	af 91       	pop	r26
     b4e:	9f 91       	pop	r25
     b50:	8f 91       	pop	r24
     b52:	7f 91       	pop	r23
     b54:	6f 91       	pop	r22
     b56:	5f 91       	pop	r21
     b58:	4f 91       	pop	r20
     b5a:	3f 91       	pop	r19
     b5c:	2f 91       	pop	r18
     b5e:	0f 90       	pop	r0
     b60:	0b be       	out	0x3b, r0	; 59
     b62:	0f 90       	pop	r0
     b64:	09 be       	out	0x39, r0	; 57
     b66:	0f 90       	pop	r0
     b68:	08 be       	out	0x38, r0	; 56
     b6a:	0f 90       	pop	r0
     b6c:	0f be       	out	0x3f, r0	; 63
     b6e:	0f 90       	pop	r0
     b70:	1f 90       	pop	r1
     b72:	18 95       	reti

00000b74 <__vector_42>:
 *
 * Calls the callback function that has been set for the ADC when the channel's
 * interrupt flag is set, if its interrupt has been enabled.
 */
ISR(ADCB_CH3_vect)
{
     b74:	1f 92       	push	r1
     b76:	0f 92       	push	r0
     b78:	0f b6       	in	r0, 0x3f	; 63
     b7a:	0f 92       	push	r0
     b7c:	11 24       	eor	r1, r1
     b7e:	08 b6       	in	r0, 0x38	; 56
     b80:	0f 92       	push	r0
     b82:	18 be       	out	0x38, r1	; 56
     b84:	09 b6       	in	r0, 0x39	; 57
     b86:	0f 92       	push	r0
     b88:	19 be       	out	0x39, r1	; 57
     b8a:	0b b6       	in	r0, 0x3b	; 59
     b8c:	0f 92       	push	r0
     b8e:	1b be       	out	0x3b, r1	; 59
     b90:	2f 93       	push	r18
     b92:	3f 93       	push	r19
     b94:	4f 93       	push	r20
     b96:	5f 93       	push	r21
     b98:	6f 93       	push	r22
     b9a:	7f 93       	push	r23
     b9c:	8f 93       	push	r24
     b9e:	9f 93       	push	r25
     ba0:	af 93       	push	r26
     ba2:	bf 93       	push	r27
     ba4:	ef 93       	push	r30
     ba6:	ff 93       	push	r31
	adcb_callback(&ADCB, ADC_CH3, adc_get_result(&ADCB, ADC_CH3));
     ba8:	40 91 7c 02 	lds	r20, 0x027C	; 0x80027c <__TEXT_REGION_LENGTH__+0x70027c>
     bac:	50 91 7d 02 	lds	r21, 0x027D	; 0x80027d <__TEXT_REGION_LENGTH__+0x70027d>
     bb0:	e0 91 c7 20 	lds	r30, 0x20C7	; 0x8020c7 <adcb_callback>
     bb4:	f0 91 c8 20 	lds	r31, 0x20C8	; 0x8020c8 <adcb_callback+0x1>
     bb8:	68 e0       	ldi	r22, 0x08	; 8
     bba:	80 e4       	ldi	r24, 0x40	; 64
     bbc:	92 e0       	ldi	r25, 0x02	; 2
     bbe:	19 95       	eicall
}
     bc0:	ff 91       	pop	r31
     bc2:	ef 91       	pop	r30
     bc4:	bf 91       	pop	r27
     bc6:	af 91       	pop	r26
     bc8:	9f 91       	pop	r25
     bca:	8f 91       	pop	r24
     bcc:	7f 91       	pop	r23
     bce:	6f 91       	pop	r22
     bd0:	5f 91       	pop	r21
     bd2:	4f 91       	pop	r20
     bd4:	3f 91       	pop	r19
     bd6:	2f 91       	pop	r18
     bd8:	0f 90       	pop	r0
     bda:	0b be       	out	0x3b, r0	; 59
     bdc:	0f 90       	pop	r0
     bde:	09 be       	out	0x39, r0	; 57
     be0:	0f 90       	pop	r0
     be2:	08 be       	out	0x38, r0	; 56
     be4:	0f 90       	pop	r0
     be6:	0f be       	out	0x3f, r0	; 63
     be8:	0f 90       	pop	r0
     bea:	1f 90       	pop	r1
     bec:	18 95       	reti

00000bee <ccp_write_io>:

	PUBLIC_FUNCTION(ccp_write_io)

#if defined(__GNUC__)

	out     RAMPZ, r1               // Reset bits 23:16 of Z
     bee:	1b be       	out	0x3b, r1	; 59
	movw    r30, r24                // Load addr into Z
     bf0:	fc 01       	movw	r30, r24
	ldi     r18, CCP_IOREG          // Load magic CCP value
     bf2:	28 ed       	ldi	r18, 0xD8	; 216
	out     CCP, r18                // Start CCP handshake
     bf4:	24 bf       	out	0x34, r18	; 52
	st      Z, r22                  // Write value to I/O register
     bf6:	60 83       	st	Z, r22
	ret                             // Return to caller
     bf8:	08 95       	ret

00000bfa <nvm_read_byte>:
#endif

#ifndef __DOXYGEN__
	PUBLIC_FUNCTION(nvm_read_byte)
#if defined(__GNUC__)
	lds r20, NVM_CMD          ; Store NVM command register
     bfa:	40 91 ca 01 	lds	r20, 0x01CA	; 0x8001ca <__TEXT_REGION_LENGTH__+0x7001ca>
	mov ZL, r22               ; Load byte index into low byte of Z.
     bfe:	e6 2f       	mov	r30, r22
	mov ZH, r23               ; Load high byte into Z.
     c00:	f7 2f       	mov	r31, r23
	sts NVM_CMD, r24          ; Load prepared command into NVM Command register.
     c02:	80 93 ca 01 	sts	0x01CA, r24	; 0x8001ca <__TEXT_REGION_LENGTH__+0x7001ca>
	lpm r24, Z                ; Perform an LPM to read out byte
     c06:	84 91       	lpm	r24, Z
	sts NVM_CMD, r20          ; Restore NVM command register
     c08:	40 93 ca 01 	sts	0x01CA, r20	; 0x8001ca <__TEXT_REGION_LENGTH__+0x7001ca>
	sts NVM_CMD, r16          ; Load prepared command into NVM Command register.
	lpm r16, Z                ; Perform an LPM to read out byte
	sts NVM_CMD, r20          ; Restore NVM command register
#endif

	ret
     c0c:	08 95       	ret

00000c0e <__vector_14>:
 *
 * This function will handle interrupt on Timer Counter CO overflow and
 * call the callback function.
 */
ISR(TCC0_OVF_vect)
{
     c0e:	1f 92       	push	r1
     c10:	0f 92       	push	r0
     c12:	0f b6       	in	r0, 0x3f	; 63
     c14:	0f 92       	push	r0
     c16:	11 24       	eor	r1, r1
     c18:	08 b6       	in	r0, 0x38	; 56
     c1a:	0f 92       	push	r0
     c1c:	18 be       	out	0x38, r1	; 56
     c1e:	09 b6       	in	r0, 0x39	; 57
     c20:	0f 92       	push	r0
     c22:	19 be       	out	0x39, r1	; 57
     c24:	0b b6       	in	r0, 0x3b	; 59
     c26:	0f 92       	push	r0
     c28:	1b be       	out	0x3b, r1	; 59
     c2a:	2f 93       	push	r18
     c2c:	3f 93       	push	r19
     c2e:	4f 93       	push	r20
     c30:	5f 93       	push	r21
     c32:	6f 93       	push	r22
     c34:	7f 93       	push	r23
     c36:	8f 93       	push	r24
     c38:	9f 93       	push	r25
     c3a:	af 93       	push	r26
     c3c:	bf 93       	push	r27
     c3e:	ef 93       	push	r30
     c40:	ff 93       	push	r31
	if (tc_tcc0_ovf_callback) {
     c42:	e0 91 bf 20 	lds	r30, 0x20BF	; 0x8020bf <tc_tcc0_ovf_callback>
     c46:	f0 91 c0 20 	lds	r31, 0x20C0	; 0x8020c0 <tc_tcc0_ovf_callback+0x1>
     c4a:	30 97       	sbiw	r30, 0x00	; 0
     c4c:	09 f0       	breq	.+2      	; 0xc50 <__vector_14+0x42>
		tc_tcc0_ovf_callback();
     c4e:	19 95       	eicall
	}
}
     c50:	ff 91       	pop	r31
     c52:	ef 91       	pop	r30
     c54:	bf 91       	pop	r27
     c56:	af 91       	pop	r26
     c58:	9f 91       	pop	r25
     c5a:	8f 91       	pop	r24
     c5c:	7f 91       	pop	r23
     c5e:	6f 91       	pop	r22
     c60:	5f 91       	pop	r21
     c62:	4f 91       	pop	r20
     c64:	3f 91       	pop	r19
     c66:	2f 91       	pop	r18
     c68:	0f 90       	pop	r0
     c6a:	0b be       	out	0x3b, r0	; 59
     c6c:	0f 90       	pop	r0
     c6e:	09 be       	out	0x39, r0	; 57
     c70:	0f 90       	pop	r0
     c72:	08 be       	out	0x38, r0	; 56
     c74:	0f 90       	pop	r0
     c76:	0f be       	out	0x3f, r0	; 63
     c78:	0f 90       	pop	r0
     c7a:	1f 90       	pop	r1
     c7c:	18 95       	reti

00000c7e <__vector_15>:
 *
 * This function will handle interrupt on Timer Counter CO error and
 * call the callback function.
 */
ISR(TCC0_ERR_vect)
{
     c7e:	1f 92       	push	r1
     c80:	0f 92       	push	r0
     c82:	0f b6       	in	r0, 0x3f	; 63
     c84:	0f 92       	push	r0
     c86:	11 24       	eor	r1, r1
     c88:	08 b6       	in	r0, 0x38	; 56
     c8a:	0f 92       	push	r0
     c8c:	18 be       	out	0x38, r1	; 56
     c8e:	09 b6       	in	r0, 0x39	; 57
     c90:	0f 92       	push	r0
     c92:	19 be       	out	0x39, r1	; 57
     c94:	0b b6       	in	r0, 0x3b	; 59
     c96:	0f 92       	push	r0
     c98:	1b be       	out	0x3b, r1	; 59
     c9a:	2f 93       	push	r18
     c9c:	3f 93       	push	r19
     c9e:	4f 93       	push	r20
     ca0:	5f 93       	push	r21
     ca2:	6f 93       	push	r22
     ca4:	7f 93       	push	r23
     ca6:	8f 93       	push	r24
     ca8:	9f 93       	push	r25
     caa:	af 93       	push	r26
     cac:	bf 93       	push	r27
     cae:	ef 93       	push	r30
     cb0:	ff 93       	push	r31
	if (tc_tcc0_err_callback) {
     cb2:	e0 91 bd 20 	lds	r30, 0x20BD	; 0x8020bd <tc_tcc0_err_callback>
     cb6:	f0 91 be 20 	lds	r31, 0x20BE	; 0x8020be <tc_tcc0_err_callback+0x1>
     cba:	30 97       	sbiw	r30, 0x00	; 0
     cbc:	09 f0       	breq	.+2      	; 0xcc0 <__vector_15+0x42>
		tc_tcc0_err_callback();
     cbe:	19 95       	eicall
	}
}
     cc0:	ff 91       	pop	r31
     cc2:	ef 91       	pop	r30
     cc4:	bf 91       	pop	r27
     cc6:	af 91       	pop	r26
     cc8:	9f 91       	pop	r25
     cca:	8f 91       	pop	r24
     ccc:	7f 91       	pop	r23
     cce:	6f 91       	pop	r22
     cd0:	5f 91       	pop	r21
     cd2:	4f 91       	pop	r20
     cd4:	3f 91       	pop	r19
     cd6:	2f 91       	pop	r18
     cd8:	0f 90       	pop	r0
     cda:	0b be       	out	0x3b, r0	; 59
     cdc:	0f 90       	pop	r0
     cde:	09 be       	out	0x39, r0	; 57
     ce0:	0f 90       	pop	r0
     ce2:	08 be       	out	0x38, r0	; 56
     ce4:	0f 90       	pop	r0
     ce6:	0f be       	out	0x3f, r0	; 63
     ce8:	0f 90       	pop	r0
     cea:	1f 90       	pop	r1
     cec:	18 95       	reti

00000cee <__vector_16>:
 *
 * This function will handle interrupt on Timer Counter CO Compare/CaptureA and
 * call the callback function.
 */
ISR(TCC0_CCA_vect)
{
     cee:	1f 92       	push	r1
     cf0:	0f 92       	push	r0
     cf2:	0f b6       	in	r0, 0x3f	; 63
     cf4:	0f 92       	push	r0
     cf6:	11 24       	eor	r1, r1
     cf8:	08 b6       	in	r0, 0x38	; 56
     cfa:	0f 92       	push	r0
     cfc:	18 be       	out	0x38, r1	; 56
     cfe:	09 b6       	in	r0, 0x39	; 57
     d00:	0f 92       	push	r0
     d02:	19 be       	out	0x39, r1	; 57
     d04:	0b b6       	in	r0, 0x3b	; 59
     d06:	0f 92       	push	r0
     d08:	1b be       	out	0x3b, r1	; 59
     d0a:	2f 93       	push	r18
     d0c:	3f 93       	push	r19
     d0e:	4f 93       	push	r20
     d10:	5f 93       	push	r21
     d12:	6f 93       	push	r22
     d14:	7f 93       	push	r23
     d16:	8f 93       	push	r24
     d18:	9f 93       	push	r25
     d1a:	af 93       	push	r26
     d1c:	bf 93       	push	r27
     d1e:	ef 93       	push	r30
     d20:	ff 93       	push	r31
	if (tc_tcc0_cca_callback) {
     d22:	e0 91 bb 20 	lds	r30, 0x20BB	; 0x8020bb <tc_tcc0_cca_callback>
     d26:	f0 91 bc 20 	lds	r31, 0x20BC	; 0x8020bc <tc_tcc0_cca_callback+0x1>
     d2a:	30 97       	sbiw	r30, 0x00	; 0
     d2c:	09 f0       	breq	.+2      	; 0xd30 <__vector_16+0x42>
		tc_tcc0_cca_callback();
     d2e:	19 95       	eicall
	}
}
     d30:	ff 91       	pop	r31
     d32:	ef 91       	pop	r30
     d34:	bf 91       	pop	r27
     d36:	af 91       	pop	r26
     d38:	9f 91       	pop	r25
     d3a:	8f 91       	pop	r24
     d3c:	7f 91       	pop	r23
     d3e:	6f 91       	pop	r22
     d40:	5f 91       	pop	r21
     d42:	4f 91       	pop	r20
     d44:	3f 91       	pop	r19
     d46:	2f 91       	pop	r18
     d48:	0f 90       	pop	r0
     d4a:	0b be       	out	0x3b, r0	; 59
     d4c:	0f 90       	pop	r0
     d4e:	09 be       	out	0x39, r0	; 57
     d50:	0f 90       	pop	r0
     d52:	08 be       	out	0x38, r0	; 56
     d54:	0f 90       	pop	r0
     d56:	0f be       	out	0x3f, r0	; 63
     d58:	0f 90       	pop	r0
     d5a:	1f 90       	pop	r1
     d5c:	18 95       	reti

00000d5e <__vector_17>:
 *
 * This function will handle interrupt on Timer Counter CO Compare/CaptureB and
 * call the callback function.
 */
ISR(TCC0_CCB_vect)
{
     d5e:	1f 92       	push	r1
     d60:	0f 92       	push	r0
     d62:	0f b6       	in	r0, 0x3f	; 63
     d64:	0f 92       	push	r0
     d66:	11 24       	eor	r1, r1
     d68:	08 b6       	in	r0, 0x38	; 56
     d6a:	0f 92       	push	r0
     d6c:	18 be       	out	0x38, r1	; 56
     d6e:	09 b6       	in	r0, 0x39	; 57
     d70:	0f 92       	push	r0
     d72:	19 be       	out	0x39, r1	; 57
     d74:	0b b6       	in	r0, 0x3b	; 59
     d76:	0f 92       	push	r0
     d78:	1b be       	out	0x3b, r1	; 59
     d7a:	2f 93       	push	r18
     d7c:	3f 93       	push	r19
     d7e:	4f 93       	push	r20
     d80:	5f 93       	push	r21
     d82:	6f 93       	push	r22
     d84:	7f 93       	push	r23
     d86:	8f 93       	push	r24
     d88:	9f 93       	push	r25
     d8a:	af 93       	push	r26
     d8c:	bf 93       	push	r27
     d8e:	ef 93       	push	r30
     d90:	ff 93       	push	r31
	if (tc_tcc0_ccb_callback) {
     d92:	e0 91 b9 20 	lds	r30, 0x20B9	; 0x8020b9 <tc_tcc0_ccb_callback>
     d96:	f0 91 ba 20 	lds	r31, 0x20BA	; 0x8020ba <tc_tcc0_ccb_callback+0x1>
     d9a:	30 97       	sbiw	r30, 0x00	; 0
     d9c:	09 f0       	breq	.+2      	; 0xda0 <__vector_17+0x42>
		tc_tcc0_ccb_callback();
     d9e:	19 95       	eicall
	}
}
     da0:	ff 91       	pop	r31
     da2:	ef 91       	pop	r30
     da4:	bf 91       	pop	r27
     da6:	af 91       	pop	r26
     da8:	9f 91       	pop	r25
     daa:	8f 91       	pop	r24
     dac:	7f 91       	pop	r23
     dae:	6f 91       	pop	r22
     db0:	5f 91       	pop	r21
     db2:	4f 91       	pop	r20
     db4:	3f 91       	pop	r19
     db6:	2f 91       	pop	r18
     db8:	0f 90       	pop	r0
     dba:	0b be       	out	0x3b, r0	; 59
     dbc:	0f 90       	pop	r0
     dbe:	09 be       	out	0x39, r0	; 57
     dc0:	0f 90       	pop	r0
     dc2:	08 be       	out	0x38, r0	; 56
     dc4:	0f 90       	pop	r0
     dc6:	0f be       	out	0x3f, r0	; 63
     dc8:	0f 90       	pop	r0
     dca:	1f 90       	pop	r1
     dcc:	18 95       	reti

00000dce <__vector_18>:
 *
 * This function will handle interrupt on Timer Counter CO Compare/CaptureC and
 * call the callback function.
 */
ISR(TCC0_CCC_vect)
{
     dce:	1f 92       	push	r1
     dd0:	0f 92       	push	r0
     dd2:	0f b6       	in	r0, 0x3f	; 63
     dd4:	0f 92       	push	r0
     dd6:	11 24       	eor	r1, r1
     dd8:	08 b6       	in	r0, 0x38	; 56
     dda:	0f 92       	push	r0
     ddc:	18 be       	out	0x38, r1	; 56
     dde:	09 b6       	in	r0, 0x39	; 57
     de0:	0f 92       	push	r0
     de2:	19 be       	out	0x39, r1	; 57
     de4:	0b b6       	in	r0, 0x3b	; 59
     de6:	0f 92       	push	r0
     de8:	1b be       	out	0x3b, r1	; 59
     dea:	2f 93       	push	r18
     dec:	3f 93       	push	r19
     dee:	4f 93       	push	r20
     df0:	5f 93       	push	r21
     df2:	6f 93       	push	r22
     df4:	7f 93       	push	r23
     df6:	8f 93       	push	r24
     df8:	9f 93       	push	r25
     dfa:	af 93       	push	r26
     dfc:	bf 93       	push	r27
     dfe:	ef 93       	push	r30
     e00:	ff 93       	push	r31
	if (tc_tcc0_ccc_callback) {
     e02:	e0 91 b7 20 	lds	r30, 0x20B7	; 0x8020b7 <tc_tcc0_ccc_callback>
     e06:	f0 91 b8 20 	lds	r31, 0x20B8	; 0x8020b8 <tc_tcc0_ccc_callback+0x1>
     e0a:	30 97       	sbiw	r30, 0x00	; 0
     e0c:	09 f0       	breq	.+2      	; 0xe10 <__vector_18+0x42>
		tc_tcc0_ccc_callback();
     e0e:	19 95       	eicall
	}
}
     e10:	ff 91       	pop	r31
     e12:	ef 91       	pop	r30
     e14:	bf 91       	pop	r27
     e16:	af 91       	pop	r26
     e18:	9f 91       	pop	r25
     e1a:	8f 91       	pop	r24
     e1c:	7f 91       	pop	r23
     e1e:	6f 91       	pop	r22
     e20:	5f 91       	pop	r21
     e22:	4f 91       	pop	r20
     e24:	3f 91       	pop	r19
     e26:	2f 91       	pop	r18
     e28:	0f 90       	pop	r0
     e2a:	0b be       	out	0x3b, r0	; 59
     e2c:	0f 90       	pop	r0
     e2e:	09 be       	out	0x39, r0	; 57
     e30:	0f 90       	pop	r0
     e32:	08 be       	out	0x38, r0	; 56
     e34:	0f 90       	pop	r0
     e36:	0f be       	out	0x3f, r0	; 63
     e38:	0f 90       	pop	r0
     e3a:	1f 90       	pop	r1
     e3c:	18 95       	reti

00000e3e <__vector_19>:
 *
 * This function will handle interrupt on Timer Counter CO Compare/CaptureD and
 * call the callback function.
 */
ISR(TCC0_CCD_vect)
{
     e3e:	1f 92       	push	r1
     e40:	0f 92       	push	r0
     e42:	0f b6       	in	r0, 0x3f	; 63
     e44:	0f 92       	push	r0
     e46:	11 24       	eor	r1, r1
     e48:	08 b6       	in	r0, 0x38	; 56
     e4a:	0f 92       	push	r0
     e4c:	18 be       	out	0x38, r1	; 56
     e4e:	09 b6       	in	r0, 0x39	; 57
     e50:	0f 92       	push	r0
     e52:	19 be       	out	0x39, r1	; 57
     e54:	0b b6       	in	r0, 0x3b	; 59
     e56:	0f 92       	push	r0
     e58:	1b be       	out	0x3b, r1	; 59
     e5a:	2f 93       	push	r18
     e5c:	3f 93       	push	r19
     e5e:	4f 93       	push	r20
     e60:	5f 93       	push	r21
     e62:	6f 93       	push	r22
     e64:	7f 93       	push	r23
     e66:	8f 93       	push	r24
     e68:	9f 93       	push	r25
     e6a:	af 93       	push	r26
     e6c:	bf 93       	push	r27
     e6e:	ef 93       	push	r30
     e70:	ff 93       	push	r31
	if (tc_tcc0_ccd_callback) {
     e72:	e0 91 b5 20 	lds	r30, 0x20B5	; 0x8020b5 <tc_tcc0_ccd_callback>
     e76:	f0 91 b6 20 	lds	r31, 0x20B6	; 0x8020b6 <tc_tcc0_ccd_callback+0x1>
     e7a:	30 97       	sbiw	r30, 0x00	; 0
     e7c:	09 f0       	breq	.+2      	; 0xe80 <__vector_19+0x42>
		tc_tcc0_ccd_callback();
     e7e:	19 95       	eicall
	}
}
     e80:	ff 91       	pop	r31
     e82:	ef 91       	pop	r30
     e84:	bf 91       	pop	r27
     e86:	af 91       	pop	r26
     e88:	9f 91       	pop	r25
     e8a:	8f 91       	pop	r24
     e8c:	7f 91       	pop	r23
     e8e:	6f 91       	pop	r22
     e90:	5f 91       	pop	r21
     e92:	4f 91       	pop	r20
     e94:	3f 91       	pop	r19
     e96:	2f 91       	pop	r18
     e98:	0f 90       	pop	r0
     e9a:	0b be       	out	0x3b, r0	; 59
     e9c:	0f 90       	pop	r0
     e9e:	09 be       	out	0x39, r0	; 57
     ea0:	0f 90       	pop	r0
     ea2:	08 be       	out	0x38, r0	; 56
     ea4:	0f 90       	pop	r0
     ea6:	0f be       	out	0x3f, r0	; 63
     ea8:	0f 90       	pop	r0
     eaa:	1f 90       	pop	r1
     eac:	18 95       	reti

00000eae <__vector_20>:
 *
 * This function will handle interrupt on Timer Counter C1 overflow and
 * call the callback function.
 */
ISR(TCC1_OVF_vect)
{
     eae:	1f 92       	push	r1
     eb0:	0f 92       	push	r0
     eb2:	0f b6       	in	r0, 0x3f	; 63
     eb4:	0f 92       	push	r0
     eb6:	11 24       	eor	r1, r1
     eb8:	08 b6       	in	r0, 0x38	; 56
     eba:	0f 92       	push	r0
     ebc:	18 be       	out	0x38, r1	; 56
     ebe:	09 b6       	in	r0, 0x39	; 57
     ec0:	0f 92       	push	r0
     ec2:	19 be       	out	0x39, r1	; 57
     ec4:	0b b6       	in	r0, 0x3b	; 59
     ec6:	0f 92       	push	r0
     ec8:	1b be       	out	0x3b, r1	; 59
     eca:	2f 93       	push	r18
     ecc:	3f 93       	push	r19
     ece:	4f 93       	push	r20
     ed0:	5f 93       	push	r21
     ed2:	6f 93       	push	r22
     ed4:	7f 93       	push	r23
     ed6:	8f 93       	push	r24
     ed8:	9f 93       	push	r25
     eda:	af 93       	push	r26
     edc:	bf 93       	push	r27
     ede:	ef 93       	push	r30
     ee0:	ff 93       	push	r31
	if (tc_tcc1_ovf_callback) {
     ee2:	e0 91 b3 20 	lds	r30, 0x20B3	; 0x8020b3 <tc_tcc1_ovf_callback>
     ee6:	f0 91 b4 20 	lds	r31, 0x20B4	; 0x8020b4 <tc_tcc1_ovf_callback+0x1>
     eea:	30 97       	sbiw	r30, 0x00	; 0
     eec:	09 f0       	breq	.+2      	; 0xef0 <__vector_20+0x42>
		tc_tcc1_ovf_callback();
     eee:	19 95       	eicall
	}
}
     ef0:	ff 91       	pop	r31
     ef2:	ef 91       	pop	r30
     ef4:	bf 91       	pop	r27
     ef6:	af 91       	pop	r26
     ef8:	9f 91       	pop	r25
     efa:	8f 91       	pop	r24
     efc:	7f 91       	pop	r23
     efe:	6f 91       	pop	r22
     f00:	5f 91       	pop	r21
     f02:	4f 91       	pop	r20
     f04:	3f 91       	pop	r19
     f06:	2f 91       	pop	r18
     f08:	0f 90       	pop	r0
     f0a:	0b be       	out	0x3b, r0	; 59
     f0c:	0f 90       	pop	r0
     f0e:	09 be       	out	0x39, r0	; 57
     f10:	0f 90       	pop	r0
     f12:	08 be       	out	0x38, r0	; 56
     f14:	0f 90       	pop	r0
     f16:	0f be       	out	0x3f, r0	; 63
     f18:	0f 90       	pop	r0
     f1a:	1f 90       	pop	r1
     f1c:	18 95       	reti

00000f1e <__vector_21>:
 *
 * This function will handle interrupt on Timer Counter C1 error and
 * call the callback function.
 */
ISR(TCC1_ERR_vect)
{
     f1e:	1f 92       	push	r1
     f20:	0f 92       	push	r0
     f22:	0f b6       	in	r0, 0x3f	; 63
     f24:	0f 92       	push	r0
     f26:	11 24       	eor	r1, r1
     f28:	08 b6       	in	r0, 0x38	; 56
     f2a:	0f 92       	push	r0
     f2c:	18 be       	out	0x38, r1	; 56
     f2e:	09 b6       	in	r0, 0x39	; 57
     f30:	0f 92       	push	r0
     f32:	19 be       	out	0x39, r1	; 57
     f34:	0b b6       	in	r0, 0x3b	; 59
     f36:	0f 92       	push	r0
     f38:	1b be       	out	0x3b, r1	; 59
     f3a:	2f 93       	push	r18
     f3c:	3f 93       	push	r19
     f3e:	4f 93       	push	r20
     f40:	5f 93       	push	r21
     f42:	6f 93       	push	r22
     f44:	7f 93       	push	r23
     f46:	8f 93       	push	r24
     f48:	9f 93       	push	r25
     f4a:	af 93       	push	r26
     f4c:	bf 93       	push	r27
     f4e:	ef 93       	push	r30
     f50:	ff 93       	push	r31
	if (tc_tcc1_err_callback) {
     f52:	e0 91 b1 20 	lds	r30, 0x20B1	; 0x8020b1 <tc_tcc1_err_callback>
     f56:	f0 91 b2 20 	lds	r31, 0x20B2	; 0x8020b2 <tc_tcc1_err_callback+0x1>
     f5a:	30 97       	sbiw	r30, 0x00	; 0
     f5c:	09 f0       	breq	.+2      	; 0xf60 <__vector_21+0x42>
		tc_tcc1_err_callback();
     f5e:	19 95       	eicall
	}
}
     f60:	ff 91       	pop	r31
     f62:	ef 91       	pop	r30
     f64:	bf 91       	pop	r27
     f66:	af 91       	pop	r26
     f68:	9f 91       	pop	r25
     f6a:	8f 91       	pop	r24
     f6c:	7f 91       	pop	r23
     f6e:	6f 91       	pop	r22
     f70:	5f 91       	pop	r21
     f72:	4f 91       	pop	r20
     f74:	3f 91       	pop	r19
     f76:	2f 91       	pop	r18
     f78:	0f 90       	pop	r0
     f7a:	0b be       	out	0x3b, r0	; 59
     f7c:	0f 90       	pop	r0
     f7e:	09 be       	out	0x39, r0	; 57
     f80:	0f 90       	pop	r0
     f82:	08 be       	out	0x38, r0	; 56
     f84:	0f 90       	pop	r0
     f86:	0f be       	out	0x3f, r0	; 63
     f88:	0f 90       	pop	r0
     f8a:	1f 90       	pop	r1
     f8c:	18 95       	reti

00000f8e <__vector_22>:
 *
 * This function will handle interrupt on Timer Counter C1 Compare/CaptureA and
 * call the callback function.
 */
ISR(TCC1_CCA_vect)
{
     f8e:	1f 92       	push	r1
     f90:	0f 92       	push	r0
     f92:	0f b6       	in	r0, 0x3f	; 63
     f94:	0f 92       	push	r0
     f96:	11 24       	eor	r1, r1
     f98:	08 b6       	in	r0, 0x38	; 56
     f9a:	0f 92       	push	r0
     f9c:	18 be       	out	0x38, r1	; 56
     f9e:	09 b6       	in	r0, 0x39	; 57
     fa0:	0f 92       	push	r0
     fa2:	19 be       	out	0x39, r1	; 57
     fa4:	0b b6       	in	r0, 0x3b	; 59
     fa6:	0f 92       	push	r0
     fa8:	1b be       	out	0x3b, r1	; 59
     faa:	2f 93       	push	r18
     fac:	3f 93       	push	r19
     fae:	4f 93       	push	r20
     fb0:	5f 93       	push	r21
     fb2:	6f 93       	push	r22
     fb4:	7f 93       	push	r23
     fb6:	8f 93       	push	r24
     fb8:	9f 93       	push	r25
     fba:	af 93       	push	r26
     fbc:	bf 93       	push	r27
     fbe:	ef 93       	push	r30
     fc0:	ff 93       	push	r31
	if (tc_tcc1_cca_callback) {
     fc2:	e0 91 af 20 	lds	r30, 0x20AF	; 0x8020af <tc_tcc1_cca_callback>
     fc6:	f0 91 b0 20 	lds	r31, 0x20B0	; 0x8020b0 <tc_tcc1_cca_callback+0x1>
     fca:	30 97       	sbiw	r30, 0x00	; 0
     fcc:	09 f0       	breq	.+2      	; 0xfd0 <__vector_22+0x42>
		tc_tcc1_cca_callback();
     fce:	19 95       	eicall
	}
}
     fd0:	ff 91       	pop	r31
     fd2:	ef 91       	pop	r30
     fd4:	bf 91       	pop	r27
     fd6:	af 91       	pop	r26
     fd8:	9f 91       	pop	r25
     fda:	8f 91       	pop	r24
     fdc:	7f 91       	pop	r23
     fde:	6f 91       	pop	r22
     fe0:	5f 91       	pop	r21
     fe2:	4f 91       	pop	r20
     fe4:	3f 91       	pop	r19
     fe6:	2f 91       	pop	r18
     fe8:	0f 90       	pop	r0
     fea:	0b be       	out	0x3b, r0	; 59
     fec:	0f 90       	pop	r0
     fee:	09 be       	out	0x39, r0	; 57
     ff0:	0f 90       	pop	r0
     ff2:	08 be       	out	0x38, r0	; 56
     ff4:	0f 90       	pop	r0
     ff6:	0f be       	out	0x3f, r0	; 63
     ff8:	0f 90       	pop	r0
     ffa:	1f 90       	pop	r1
     ffc:	18 95       	reti

00000ffe <__vector_23>:
 *
 * This function will handle interrupt on Timer Counter C1 Compare/CaptureB and
 * call the callback function.
 */
ISR(TCC1_CCB_vect)
{
     ffe:	1f 92       	push	r1
    1000:	0f 92       	push	r0
    1002:	0f b6       	in	r0, 0x3f	; 63
    1004:	0f 92       	push	r0
    1006:	11 24       	eor	r1, r1
    1008:	08 b6       	in	r0, 0x38	; 56
    100a:	0f 92       	push	r0
    100c:	18 be       	out	0x38, r1	; 56
    100e:	09 b6       	in	r0, 0x39	; 57
    1010:	0f 92       	push	r0
    1012:	19 be       	out	0x39, r1	; 57
    1014:	0b b6       	in	r0, 0x3b	; 59
    1016:	0f 92       	push	r0
    1018:	1b be       	out	0x3b, r1	; 59
    101a:	2f 93       	push	r18
    101c:	3f 93       	push	r19
    101e:	4f 93       	push	r20
    1020:	5f 93       	push	r21
    1022:	6f 93       	push	r22
    1024:	7f 93       	push	r23
    1026:	8f 93       	push	r24
    1028:	9f 93       	push	r25
    102a:	af 93       	push	r26
    102c:	bf 93       	push	r27
    102e:	ef 93       	push	r30
    1030:	ff 93       	push	r31
	if (tc_tcc1_ccb_callback) {
    1032:	e0 91 ad 20 	lds	r30, 0x20AD	; 0x8020ad <tc_tcc1_ccb_callback>
    1036:	f0 91 ae 20 	lds	r31, 0x20AE	; 0x8020ae <tc_tcc1_ccb_callback+0x1>
    103a:	30 97       	sbiw	r30, 0x00	; 0
    103c:	09 f0       	breq	.+2      	; 0x1040 <__vector_23+0x42>
		tc_tcc1_ccb_callback();
    103e:	19 95       	eicall
	}
}
    1040:	ff 91       	pop	r31
    1042:	ef 91       	pop	r30
    1044:	bf 91       	pop	r27
    1046:	af 91       	pop	r26
    1048:	9f 91       	pop	r25
    104a:	8f 91       	pop	r24
    104c:	7f 91       	pop	r23
    104e:	6f 91       	pop	r22
    1050:	5f 91       	pop	r21
    1052:	4f 91       	pop	r20
    1054:	3f 91       	pop	r19
    1056:	2f 91       	pop	r18
    1058:	0f 90       	pop	r0
    105a:	0b be       	out	0x3b, r0	; 59
    105c:	0f 90       	pop	r0
    105e:	09 be       	out	0x39, r0	; 57
    1060:	0f 90       	pop	r0
    1062:	08 be       	out	0x38, r0	; 56
    1064:	0f 90       	pop	r0
    1066:	0f be       	out	0x3f, r0	; 63
    1068:	0f 90       	pop	r0
    106a:	1f 90       	pop	r1
    106c:	18 95       	reti

0000106e <__vector_77>:
 *
 * This function will handle interrupt on Timer Counter D0 overflow and
 * call the callback function.
 */
ISR(TCD0_OVF_vect)
{
    106e:	1f 92       	push	r1
    1070:	0f 92       	push	r0
    1072:	0f b6       	in	r0, 0x3f	; 63
    1074:	0f 92       	push	r0
    1076:	11 24       	eor	r1, r1
    1078:	08 b6       	in	r0, 0x38	; 56
    107a:	0f 92       	push	r0
    107c:	18 be       	out	0x38, r1	; 56
    107e:	09 b6       	in	r0, 0x39	; 57
    1080:	0f 92       	push	r0
    1082:	19 be       	out	0x39, r1	; 57
    1084:	0b b6       	in	r0, 0x3b	; 59
    1086:	0f 92       	push	r0
    1088:	1b be       	out	0x3b, r1	; 59
    108a:	2f 93       	push	r18
    108c:	3f 93       	push	r19
    108e:	4f 93       	push	r20
    1090:	5f 93       	push	r21
    1092:	6f 93       	push	r22
    1094:	7f 93       	push	r23
    1096:	8f 93       	push	r24
    1098:	9f 93       	push	r25
    109a:	af 93       	push	r26
    109c:	bf 93       	push	r27
    109e:	ef 93       	push	r30
    10a0:	ff 93       	push	r31
	if (tc_tcd0_ovf_callback) {
    10a2:	e0 91 ab 20 	lds	r30, 0x20AB	; 0x8020ab <tc_tcd0_ovf_callback>
    10a6:	f0 91 ac 20 	lds	r31, 0x20AC	; 0x8020ac <tc_tcd0_ovf_callback+0x1>
    10aa:	30 97       	sbiw	r30, 0x00	; 0
    10ac:	09 f0       	breq	.+2      	; 0x10b0 <__vector_77+0x42>
		tc_tcd0_ovf_callback();
    10ae:	19 95       	eicall
	}
}
    10b0:	ff 91       	pop	r31
    10b2:	ef 91       	pop	r30
    10b4:	bf 91       	pop	r27
    10b6:	af 91       	pop	r26
    10b8:	9f 91       	pop	r25
    10ba:	8f 91       	pop	r24
    10bc:	7f 91       	pop	r23
    10be:	6f 91       	pop	r22
    10c0:	5f 91       	pop	r21
    10c2:	4f 91       	pop	r20
    10c4:	3f 91       	pop	r19
    10c6:	2f 91       	pop	r18
    10c8:	0f 90       	pop	r0
    10ca:	0b be       	out	0x3b, r0	; 59
    10cc:	0f 90       	pop	r0
    10ce:	09 be       	out	0x39, r0	; 57
    10d0:	0f 90       	pop	r0
    10d2:	08 be       	out	0x38, r0	; 56
    10d4:	0f 90       	pop	r0
    10d6:	0f be       	out	0x3f, r0	; 63
    10d8:	0f 90       	pop	r0
    10da:	1f 90       	pop	r1
    10dc:	18 95       	reti

000010de <__vector_78>:
 *
 * This function will handle interrupt on Timer Counter D0 error and
 * call the callback function.
 */
ISR(TCD0_ERR_vect)
{
    10de:	1f 92       	push	r1
    10e0:	0f 92       	push	r0
    10e2:	0f b6       	in	r0, 0x3f	; 63
    10e4:	0f 92       	push	r0
    10e6:	11 24       	eor	r1, r1
    10e8:	08 b6       	in	r0, 0x38	; 56
    10ea:	0f 92       	push	r0
    10ec:	18 be       	out	0x38, r1	; 56
    10ee:	09 b6       	in	r0, 0x39	; 57
    10f0:	0f 92       	push	r0
    10f2:	19 be       	out	0x39, r1	; 57
    10f4:	0b b6       	in	r0, 0x3b	; 59
    10f6:	0f 92       	push	r0
    10f8:	1b be       	out	0x3b, r1	; 59
    10fa:	2f 93       	push	r18
    10fc:	3f 93       	push	r19
    10fe:	4f 93       	push	r20
    1100:	5f 93       	push	r21
    1102:	6f 93       	push	r22
    1104:	7f 93       	push	r23
    1106:	8f 93       	push	r24
    1108:	9f 93       	push	r25
    110a:	af 93       	push	r26
    110c:	bf 93       	push	r27
    110e:	ef 93       	push	r30
    1110:	ff 93       	push	r31
	if (tc_tcd0_err_callback) {
    1112:	e0 91 a9 20 	lds	r30, 0x20A9	; 0x8020a9 <tc_tcd0_err_callback>
    1116:	f0 91 aa 20 	lds	r31, 0x20AA	; 0x8020aa <tc_tcd0_err_callback+0x1>
    111a:	30 97       	sbiw	r30, 0x00	; 0
    111c:	09 f0       	breq	.+2      	; 0x1120 <__vector_78+0x42>
		tc_tcd0_err_callback();
    111e:	19 95       	eicall
	}
}
    1120:	ff 91       	pop	r31
    1122:	ef 91       	pop	r30
    1124:	bf 91       	pop	r27
    1126:	af 91       	pop	r26
    1128:	9f 91       	pop	r25
    112a:	8f 91       	pop	r24
    112c:	7f 91       	pop	r23
    112e:	6f 91       	pop	r22
    1130:	5f 91       	pop	r21
    1132:	4f 91       	pop	r20
    1134:	3f 91       	pop	r19
    1136:	2f 91       	pop	r18
    1138:	0f 90       	pop	r0
    113a:	0b be       	out	0x3b, r0	; 59
    113c:	0f 90       	pop	r0
    113e:	09 be       	out	0x39, r0	; 57
    1140:	0f 90       	pop	r0
    1142:	08 be       	out	0x38, r0	; 56
    1144:	0f 90       	pop	r0
    1146:	0f be       	out	0x3f, r0	; 63
    1148:	0f 90       	pop	r0
    114a:	1f 90       	pop	r1
    114c:	18 95       	reti

0000114e <__vector_79>:
 *
 * This function will handle interrupt on Timer Counter D0 Compare/CaptureA and
 * call the callback function.
 */
ISR(TCD0_CCA_vect)
{
    114e:	1f 92       	push	r1
    1150:	0f 92       	push	r0
    1152:	0f b6       	in	r0, 0x3f	; 63
    1154:	0f 92       	push	r0
    1156:	11 24       	eor	r1, r1
    1158:	08 b6       	in	r0, 0x38	; 56
    115a:	0f 92       	push	r0
    115c:	18 be       	out	0x38, r1	; 56
    115e:	09 b6       	in	r0, 0x39	; 57
    1160:	0f 92       	push	r0
    1162:	19 be       	out	0x39, r1	; 57
    1164:	0b b6       	in	r0, 0x3b	; 59
    1166:	0f 92       	push	r0
    1168:	1b be       	out	0x3b, r1	; 59
    116a:	2f 93       	push	r18
    116c:	3f 93       	push	r19
    116e:	4f 93       	push	r20
    1170:	5f 93       	push	r21
    1172:	6f 93       	push	r22
    1174:	7f 93       	push	r23
    1176:	8f 93       	push	r24
    1178:	9f 93       	push	r25
    117a:	af 93       	push	r26
    117c:	bf 93       	push	r27
    117e:	ef 93       	push	r30
    1180:	ff 93       	push	r31
	if (tc_tcd0_cca_callback) {
    1182:	e0 91 a7 20 	lds	r30, 0x20A7	; 0x8020a7 <tc_tcd0_cca_callback>
    1186:	f0 91 a8 20 	lds	r31, 0x20A8	; 0x8020a8 <tc_tcd0_cca_callback+0x1>
    118a:	30 97       	sbiw	r30, 0x00	; 0
    118c:	09 f0       	breq	.+2      	; 0x1190 <__vector_79+0x42>
		tc_tcd0_cca_callback();
    118e:	19 95       	eicall
	}
}
    1190:	ff 91       	pop	r31
    1192:	ef 91       	pop	r30
    1194:	bf 91       	pop	r27
    1196:	af 91       	pop	r26
    1198:	9f 91       	pop	r25
    119a:	8f 91       	pop	r24
    119c:	7f 91       	pop	r23
    119e:	6f 91       	pop	r22
    11a0:	5f 91       	pop	r21
    11a2:	4f 91       	pop	r20
    11a4:	3f 91       	pop	r19
    11a6:	2f 91       	pop	r18
    11a8:	0f 90       	pop	r0
    11aa:	0b be       	out	0x3b, r0	; 59
    11ac:	0f 90       	pop	r0
    11ae:	09 be       	out	0x39, r0	; 57
    11b0:	0f 90       	pop	r0
    11b2:	08 be       	out	0x38, r0	; 56
    11b4:	0f 90       	pop	r0
    11b6:	0f be       	out	0x3f, r0	; 63
    11b8:	0f 90       	pop	r0
    11ba:	1f 90       	pop	r1
    11bc:	18 95       	reti

000011be <__vector_80>:
 *
 * This function will handle interrupt on Timer Counter D0 Compare/CaptureB and
 * call the callback function.
 */
ISR(TCD0_CCB_vect)
{
    11be:	1f 92       	push	r1
    11c0:	0f 92       	push	r0
    11c2:	0f b6       	in	r0, 0x3f	; 63
    11c4:	0f 92       	push	r0
    11c6:	11 24       	eor	r1, r1
    11c8:	08 b6       	in	r0, 0x38	; 56
    11ca:	0f 92       	push	r0
    11cc:	18 be       	out	0x38, r1	; 56
    11ce:	09 b6       	in	r0, 0x39	; 57
    11d0:	0f 92       	push	r0
    11d2:	19 be       	out	0x39, r1	; 57
    11d4:	0b b6       	in	r0, 0x3b	; 59
    11d6:	0f 92       	push	r0
    11d8:	1b be       	out	0x3b, r1	; 59
    11da:	2f 93       	push	r18
    11dc:	3f 93       	push	r19
    11de:	4f 93       	push	r20
    11e0:	5f 93       	push	r21
    11e2:	6f 93       	push	r22
    11e4:	7f 93       	push	r23
    11e6:	8f 93       	push	r24
    11e8:	9f 93       	push	r25
    11ea:	af 93       	push	r26
    11ec:	bf 93       	push	r27
    11ee:	ef 93       	push	r30
    11f0:	ff 93       	push	r31
	if (tc_tcd0_ccb_callback) {
    11f2:	e0 91 a5 20 	lds	r30, 0x20A5	; 0x8020a5 <tc_tcd0_ccb_callback>
    11f6:	f0 91 a6 20 	lds	r31, 0x20A6	; 0x8020a6 <tc_tcd0_ccb_callback+0x1>
    11fa:	30 97       	sbiw	r30, 0x00	; 0
    11fc:	09 f0       	breq	.+2      	; 0x1200 <__vector_80+0x42>
		tc_tcd0_ccb_callback();
    11fe:	19 95       	eicall
	}
}
    1200:	ff 91       	pop	r31
    1202:	ef 91       	pop	r30
    1204:	bf 91       	pop	r27
    1206:	af 91       	pop	r26
    1208:	9f 91       	pop	r25
    120a:	8f 91       	pop	r24
    120c:	7f 91       	pop	r23
    120e:	6f 91       	pop	r22
    1210:	5f 91       	pop	r21
    1212:	4f 91       	pop	r20
    1214:	3f 91       	pop	r19
    1216:	2f 91       	pop	r18
    1218:	0f 90       	pop	r0
    121a:	0b be       	out	0x3b, r0	; 59
    121c:	0f 90       	pop	r0
    121e:	09 be       	out	0x39, r0	; 57
    1220:	0f 90       	pop	r0
    1222:	08 be       	out	0x38, r0	; 56
    1224:	0f 90       	pop	r0
    1226:	0f be       	out	0x3f, r0	; 63
    1228:	0f 90       	pop	r0
    122a:	1f 90       	pop	r1
    122c:	18 95       	reti

0000122e <__vector_81>:
 *
 * This function will handle interrupt on Timer Counter D0 Compare/CaptureC and
 * call the callback function.
 */
ISR(TCD0_CCC_vect)
{
    122e:	1f 92       	push	r1
    1230:	0f 92       	push	r0
    1232:	0f b6       	in	r0, 0x3f	; 63
    1234:	0f 92       	push	r0
    1236:	11 24       	eor	r1, r1
    1238:	08 b6       	in	r0, 0x38	; 56
    123a:	0f 92       	push	r0
    123c:	18 be       	out	0x38, r1	; 56
    123e:	09 b6       	in	r0, 0x39	; 57
    1240:	0f 92       	push	r0
    1242:	19 be       	out	0x39, r1	; 57
    1244:	0b b6       	in	r0, 0x3b	; 59
    1246:	0f 92       	push	r0
    1248:	1b be       	out	0x3b, r1	; 59
    124a:	2f 93       	push	r18
    124c:	3f 93       	push	r19
    124e:	4f 93       	push	r20
    1250:	5f 93       	push	r21
    1252:	6f 93       	push	r22
    1254:	7f 93       	push	r23
    1256:	8f 93       	push	r24
    1258:	9f 93       	push	r25
    125a:	af 93       	push	r26
    125c:	bf 93       	push	r27
    125e:	ef 93       	push	r30
    1260:	ff 93       	push	r31
	if (tc_tcd0_ccc_callback) {
    1262:	e0 91 a3 20 	lds	r30, 0x20A3	; 0x8020a3 <tc_tcd0_ccc_callback>
    1266:	f0 91 a4 20 	lds	r31, 0x20A4	; 0x8020a4 <tc_tcd0_ccc_callback+0x1>
    126a:	30 97       	sbiw	r30, 0x00	; 0
    126c:	09 f0       	breq	.+2      	; 0x1270 <__vector_81+0x42>
		tc_tcd0_ccc_callback();
    126e:	19 95       	eicall
	}
}
    1270:	ff 91       	pop	r31
    1272:	ef 91       	pop	r30
    1274:	bf 91       	pop	r27
    1276:	af 91       	pop	r26
    1278:	9f 91       	pop	r25
    127a:	8f 91       	pop	r24
    127c:	7f 91       	pop	r23
    127e:	6f 91       	pop	r22
    1280:	5f 91       	pop	r21
    1282:	4f 91       	pop	r20
    1284:	3f 91       	pop	r19
    1286:	2f 91       	pop	r18
    1288:	0f 90       	pop	r0
    128a:	0b be       	out	0x3b, r0	; 59
    128c:	0f 90       	pop	r0
    128e:	09 be       	out	0x39, r0	; 57
    1290:	0f 90       	pop	r0
    1292:	08 be       	out	0x38, r0	; 56
    1294:	0f 90       	pop	r0
    1296:	0f be       	out	0x3f, r0	; 63
    1298:	0f 90       	pop	r0
    129a:	1f 90       	pop	r1
    129c:	18 95       	reti

0000129e <__vector_82>:
 *
 * This function will handle interrupt on Timer Counter D0 Compare/CaptureD and
 * call the callback function.
 */
ISR(TCD0_CCD_vect)
{
    129e:	1f 92       	push	r1
    12a0:	0f 92       	push	r0
    12a2:	0f b6       	in	r0, 0x3f	; 63
    12a4:	0f 92       	push	r0
    12a6:	11 24       	eor	r1, r1
    12a8:	08 b6       	in	r0, 0x38	; 56
    12aa:	0f 92       	push	r0
    12ac:	18 be       	out	0x38, r1	; 56
    12ae:	09 b6       	in	r0, 0x39	; 57
    12b0:	0f 92       	push	r0
    12b2:	19 be       	out	0x39, r1	; 57
    12b4:	0b b6       	in	r0, 0x3b	; 59
    12b6:	0f 92       	push	r0
    12b8:	1b be       	out	0x3b, r1	; 59
    12ba:	2f 93       	push	r18
    12bc:	3f 93       	push	r19
    12be:	4f 93       	push	r20
    12c0:	5f 93       	push	r21
    12c2:	6f 93       	push	r22
    12c4:	7f 93       	push	r23
    12c6:	8f 93       	push	r24
    12c8:	9f 93       	push	r25
    12ca:	af 93       	push	r26
    12cc:	bf 93       	push	r27
    12ce:	ef 93       	push	r30
    12d0:	ff 93       	push	r31
	if (tc_tcd0_ccd_callback) {
    12d2:	e0 91 a1 20 	lds	r30, 0x20A1	; 0x8020a1 <tc_tcd0_ccd_callback>
    12d6:	f0 91 a2 20 	lds	r31, 0x20A2	; 0x8020a2 <tc_tcd0_ccd_callback+0x1>
    12da:	30 97       	sbiw	r30, 0x00	; 0
    12dc:	09 f0       	breq	.+2      	; 0x12e0 <__vector_82+0x42>
		tc_tcd0_ccd_callback();
    12de:	19 95       	eicall
	}
}
    12e0:	ff 91       	pop	r31
    12e2:	ef 91       	pop	r30
    12e4:	bf 91       	pop	r27
    12e6:	af 91       	pop	r26
    12e8:	9f 91       	pop	r25
    12ea:	8f 91       	pop	r24
    12ec:	7f 91       	pop	r23
    12ee:	6f 91       	pop	r22
    12f0:	5f 91       	pop	r21
    12f2:	4f 91       	pop	r20
    12f4:	3f 91       	pop	r19
    12f6:	2f 91       	pop	r18
    12f8:	0f 90       	pop	r0
    12fa:	0b be       	out	0x3b, r0	; 59
    12fc:	0f 90       	pop	r0
    12fe:	09 be       	out	0x39, r0	; 57
    1300:	0f 90       	pop	r0
    1302:	08 be       	out	0x38, r0	; 56
    1304:	0f 90       	pop	r0
    1306:	0f be       	out	0x3f, r0	; 63
    1308:	0f 90       	pop	r0
    130a:	1f 90       	pop	r1
    130c:	18 95       	reti

0000130e <__vector_83>:
 *
 * This function will handle interrupt on Timer Counter D1 overflow and
 * call the callback function.
 */
ISR(TCD1_OVF_vect)
{
    130e:	1f 92       	push	r1
    1310:	0f 92       	push	r0
    1312:	0f b6       	in	r0, 0x3f	; 63
    1314:	0f 92       	push	r0
    1316:	11 24       	eor	r1, r1
    1318:	08 b6       	in	r0, 0x38	; 56
    131a:	0f 92       	push	r0
    131c:	18 be       	out	0x38, r1	; 56
    131e:	09 b6       	in	r0, 0x39	; 57
    1320:	0f 92       	push	r0
    1322:	19 be       	out	0x39, r1	; 57
    1324:	0b b6       	in	r0, 0x3b	; 59
    1326:	0f 92       	push	r0
    1328:	1b be       	out	0x3b, r1	; 59
    132a:	2f 93       	push	r18
    132c:	3f 93       	push	r19
    132e:	4f 93       	push	r20
    1330:	5f 93       	push	r21
    1332:	6f 93       	push	r22
    1334:	7f 93       	push	r23
    1336:	8f 93       	push	r24
    1338:	9f 93       	push	r25
    133a:	af 93       	push	r26
    133c:	bf 93       	push	r27
    133e:	ef 93       	push	r30
    1340:	ff 93       	push	r31
	if (tc_tcd1_ovf_callback) {
    1342:	e0 91 9f 20 	lds	r30, 0x209F	; 0x80209f <tc_tcd1_ovf_callback>
    1346:	f0 91 a0 20 	lds	r31, 0x20A0	; 0x8020a0 <tc_tcd1_ovf_callback+0x1>
    134a:	30 97       	sbiw	r30, 0x00	; 0
    134c:	09 f0       	breq	.+2      	; 0x1350 <__vector_83+0x42>
		tc_tcd1_ovf_callback();
    134e:	19 95       	eicall
	}
}
    1350:	ff 91       	pop	r31
    1352:	ef 91       	pop	r30
    1354:	bf 91       	pop	r27
    1356:	af 91       	pop	r26
    1358:	9f 91       	pop	r25
    135a:	8f 91       	pop	r24
    135c:	7f 91       	pop	r23
    135e:	6f 91       	pop	r22
    1360:	5f 91       	pop	r21
    1362:	4f 91       	pop	r20
    1364:	3f 91       	pop	r19
    1366:	2f 91       	pop	r18
    1368:	0f 90       	pop	r0
    136a:	0b be       	out	0x3b, r0	; 59
    136c:	0f 90       	pop	r0
    136e:	09 be       	out	0x39, r0	; 57
    1370:	0f 90       	pop	r0
    1372:	08 be       	out	0x38, r0	; 56
    1374:	0f 90       	pop	r0
    1376:	0f be       	out	0x3f, r0	; 63
    1378:	0f 90       	pop	r0
    137a:	1f 90       	pop	r1
    137c:	18 95       	reti

0000137e <__vector_84>:
 *
 * This function will handle interrupt on Timer Counter D1 error and
 * call the callback function.
 */
ISR(TCD1_ERR_vect)
{
    137e:	1f 92       	push	r1
    1380:	0f 92       	push	r0
    1382:	0f b6       	in	r0, 0x3f	; 63
    1384:	0f 92       	push	r0
    1386:	11 24       	eor	r1, r1
    1388:	08 b6       	in	r0, 0x38	; 56
    138a:	0f 92       	push	r0
    138c:	18 be       	out	0x38, r1	; 56
    138e:	09 b6       	in	r0, 0x39	; 57
    1390:	0f 92       	push	r0
    1392:	19 be       	out	0x39, r1	; 57
    1394:	0b b6       	in	r0, 0x3b	; 59
    1396:	0f 92       	push	r0
    1398:	1b be       	out	0x3b, r1	; 59
    139a:	2f 93       	push	r18
    139c:	3f 93       	push	r19
    139e:	4f 93       	push	r20
    13a0:	5f 93       	push	r21
    13a2:	6f 93       	push	r22
    13a4:	7f 93       	push	r23
    13a6:	8f 93       	push	r24
    13a8:	9f 93       	push	r25
    13aa:	af 93       	push	r26
    13ac:	bf 93       	push	r27
    13ae:	ef 93       	push	r30
    13b0:	ff 93       	push	r31
	if (tc_tcd1_err_callback) {
    13b2:	e0 91 9d 20 	lds	r30, 0x209D	; 0x80209d <tc_tcd1_err_callback>
    13b6:	f0 91 9e 20 	lds	r31, 0x209E	; 0x80209e <tc_tcd1_err_callback+0x1>
    13ba:	30 97       	sbiw	r30, 0x00	; 0
    13bc:	09 f0       	breq	.+2      	; 0x13c0 <__vector_84+0x42>
		tc_tcd1_err_callback();
    13be:	19 95       	eicall
	}
}
    13c0:	ff 91       	pop	r31
    13c2:	ef 91       	pop	r30
    13c4:	bf 91       	pop	r27
    13c6:	af 91       	pop	r26
    13c8:	9f 91       	pop	r25
    13ca:	8f 91       	pop	r24
    13cc:	7f 91       	pop	r23
    13ce:	6f 91       	pop	r22
    13d0:	5f 91       	pop	r21
    13d2:	4f 91       	pop	r20
    13d4:	3f 91       	pop	r19
    13d6:	2f 91       	pop	r18
    13d8:	0f 90       	pop	r0
    13da:	0b be       	out	0x3b, r0	; 59
    13dc:	0f 90       	pop	r0
    13de:	09 be       	out	0x39, r0	; 57
    13e0:	0f 90       	pop	r0
    13e2:	08 be       	out	0x38, r0	; 56
    13e4:	0f 90       	pop	r0
    13e6:	0f be       	out	0x3f, r0	; 63
    13e8:	0f 90       	pop	r0
    13ea:	1f 90       	pop	r1
    13ec:	18 95       	reti

000013ee <__vector_85>:
 *
 * This function will handle interrupt on Timer Counter D1 Compare/CaptureA and
 * call the callback function.
 */
ISR(TCD1_CCA_vect)
{
    13ee:	1f 92       	push	r1
    13f0:	0f 92       	push	r0
    13f2:	0f b6       	in	r0, 0x3f	; 63
    13f4:	0f 92       	push	r0
    13f6:	11 24       	eor	r1, r1
    13f8:	08 b6       	in	r0, 0x38	; 56
    13fa:	0f 92       	push	r0
    13fc:	18 be       	out	0x38, r1	; 56
    13fe:	09 b6       	in	r0, 0x39	; 57
    1400:	0f 92       	push	r0
    1402:	19 be       	out	0x39, r1	; 57
    1404:	0b b6       	in	r0, 0x3b	; 59
    1406:	0f 92       	push	r0
    1408:	1b be       	out	0x3b, r1	; 59
    140a:	2f 93       	push	r18
    140c:	3f 93       	push	r19
    140e:	4f 93       	push	r20
    1410:	5f 93       	push	r21
    1412:	6f 93       	push	r22
    1414:	7f 93       	push	r23
    1416:	8f 93       	push	r24
    1418:	9f 93       	push	r25
    141a:	af 93       	push	r26
    141c:	bf 93       	push	r27
    141e:	ef 93       	push	r30
    1420:	ff 93       	push	r31
	if (tc_tcd1_cca_callback) {
    1422:	e0 91 9b 20 	lds	r30, 0x209B	; 0x80209b <tc_tcd1_cca_callback>
    1426:	f0 91 9c 20 	lds	r31, 0x209C	; 0x80209c <tc_tcd1_cca_callback+0x1>
    142a:	30 97       	sbiw	r30, 0x00	; 0
    142c:	09 f0       	breq	.+2      	; 0x1430 <__vector_85+0x42>
		tc_tcd1_cca_callback();
    142e:	19 95       	eicall
	}
}
    1430:	ff 91       	pop	r31
    1432:	ef 91       	pop	r30
    1434:	bf 91       	pop	r27
    1436:	af 91       	pop	r26
    1438:	9f 91       	pop	r25
    143a:	8f 91       	pop	r24
    143c:	7f 91       	pop	r23
    143e:	6f 91       	pop	r22
    1440:	5f 91       	pop	r21
    1442:	4f 91       	pop	r20
    1444:	3f 91       	pop	r19
    1446:	2f 91       	pop	r18
    1448:	0f 90       	pop	r0
    144a:	0b be       	out	0x3b, r0	; 59
    144c:	0f 90       	pop	r0
    144e:	09 be       	out	0x39, r0	; 57
    1450:	0f 90       	pop	r0
    1452:	08 be       	out	0x38, r0	; 56
    1454:	0f 90       	pop	r0
    1456:	0f be       	out	0x3f, r0	; 63
    1458:	0f 90       	pop	r0
    145a:	1f 90       	pop	r1
    145c:	18 95       	reti

0000145e <__vector_86>:
 *
 * This function will handle interrupt on Timer Counter D1 Compare/CaptureB and
 * call the callback function.
 */
ISR(TCD1_CCB_vect)
{
    145e:	1f 92       	push	r1
    1460:	0f 92       	push	r0
    1462:	0f b6       	in	r0, 0x3f	; 63
    1464:	0f 92       	push	r0
    1466:	11 24       	eor	r1, r1
    1468:	08 b6       	in	r0, 0x38	; 56
    146a:	0f 92       	push	r0
    146c:	18 be       	out	0x38, r1	; 56
    146e:	09 b6       	in	r0, 0x39	; 57
    1470:	0f 92       	push	r0
    1472:	19 be       	out	0x39, r1	; 57
    1474:	0b b6       	in	r0, 0x3b	; 59
    1476:	0f 92       	push	r0
    1478:	1b be       	out	0x3b, r1	; 59
    147a:	2f 93       	push	r18
    147c:	3f 93       	push	r19
    147e:	4f 93       	push	r20
    1480:	5f 93       	push	r21
    1482:	6f 93       	push	r22
    1484:	7f 93       	push	r23
    1486:	8f 93       	push	r24
    1488:	9f 93       	push	r25
    148a:	af 93       	push	r26
    148c:	bf 93       	push	r27
    148e:	ef 93       	push	r30
    1490:	ff 93       	push	r31
	if (tc_tcd1_ccb_callback) {
    1492:	e0 91 99 20 	lds	r30, 0x2099	; 0x802099 <tc_tcd1_ccb_callback>
    1496:	f0 91 9a 20 	lds	r31, 0x209A	; 0x80209a <tc_tcd1_ccb_callback+0x1>
    149a:	30 97       	sbiw	r30, 0x00	; 0
    149c:	09 f0       	breq	.+2      	; 0x14a0 <__vector_86+0x42>
		tc_tcd1_ccb_callback();
    149e:	19 95       	eicall
	}
}
    14a0:	ff 91       	pop	r31
    14a2:	ef 91       	pop	r30
    14a4:	bf 91       	pop	r27
    14a6:	af 91       	pop	r26
    14a8:	9f 91       	pop	r25
    14aa:	8f 91       	pop	r24
    14ac:	7f 91       	pop	r23
    14ae:	6f 91       	pop	r22
    14b0:	5f 91       	pop	r21
    14b2:	4f 91       	pop	r20
    14b4:	3f 91       	pop	r19
    14b6:	2f 91       	pop	r18
    14b8:	0f 90       	pop	r0
    14ba:	0b be       	out	0x3b, r0	; 59
    14bc:	0f 90       	pop	r0
    14be:	09 be       	out	0x39, r0	; 57
    14c0:	0f 90       	pop	r0
    14c2:	08 be       	out	0x38, r0	; 56
    14c4:	0f 90       	pop	r0
    14c6:	0f be       	out	0x3f, r0	; 63
    14c8:	0f 90       	pop	r0
    14ca:	1f 90       	pop	r1
    14cc:	18 95       	reti

000014ce <__vector_47>:
 *
 * This function will handle interrupt on Timer Counter E0 overflow and
 * call the callback function.
 */
ISR(TCE0_OVF_vect)
{
    14ce:	1f 92       	push	r1
    14d0:	0f 92       	push	r0
    14d2:	0f b6       	in	r0, 0x3f	; 63
    14d4:	0f 92       	push	r0
    14d6:	11 24       	eor	r1, r1
    14d8:	08 b6       	in	r0, 0x38	; 56
    14da:	0f 92       	push	r0
    14dc:	18 be       	out	0x38, r1	; 56
    14de:	09 b6       	in	r0, 0x39	; 57
    14e0:	0f 92       	push	r0
    14e2:	19 be       	out	0x39, r1	; 57
    14e4:	0b b6       	in	r0, 0x3b	; 59
    14e6:	0f 92       	push	r0
    14e8:	1b be       	out	0x3b, r1	; 59
    14ea:	2f 93       	push	r18
    14ec:	3f 93       	push	r19
    14ee:	4f 93       	push	r20
    14f0:	5f 93       	push	r21
    14f2:	6f 93       	push	r22
    14f4:	7f 93       	push	r23
    14f6:	8f 93       	push	r24
    14f8:	9f 93       	push	r25
    14fa:	af 93       	push	r26
    14fc:	bf 93       	push	r27
    14fe:	ef 93       	push	r30
    1500:	ff 93       	push	r31
	if (tc_tce0_ovf_callback) {
    1502:	e0 91 97 20 	lds	r30, 0x2097	; 0x802097 <tc_tce0_ovf_callback>
    1506:	f0 91 98 20 	lds	r31, 0x2098	; 0x802098 <tc_tce0_ovf_callback+0x1>
    150a:	30 97       	sbiw	r30, 0x00	; 0
    150c:	09 f0       	breq	.+2      	; 0x1510 <__vector_47+0x42>
		tc_tce0_ovf_callback();
    150e:	19 95       	eicall
	}
}
    1510:	ff 91       	pop	r31
    1512:	ef 91       	pop	r30
    1514:	bf 91       	pop	r27
    1516:	af 91       	pop	r26
    1518:	9f 91       	pop	r25
    151a:	8f 91       	pop	r24
    151c:	7f 91       	pop	r23
    151e:	6f 91       	pop	r22
    1520:	5f 91       	pop	r21
    1522:	4f 91       	pop	r20
    1524:	3f 91       	pop	r19
    1526:	2f 91       	pop	r18
    1528:	0f 90       	pop	r0
    152a:	0b be       	out	0x3b, r0	; 59
    152c:	0f 90       	pop	r0
    152e:	09 be       	out	0x39, r0	; 57
    1530:	0f 90       	pop	r0
    1532:	08 be       	out	0x38, r0	; 56
    1534:	0f 90       	pop	r0
    1536:	0f be       	out	0x3f, r0	; 63
    1538:	0f 90       	pop	r0
    153a:	1f 90       	pop	r1
    153c:	18 95       	reti

0000153e <__vector_48>:
 *
 * This function will handle interrupt on Timer Counter E0 error and
 * call the callback function.
 */
ISR(TCE0_ERR_vect)
{
    153e:	1f 92       	push	r1
    1540:	0f 92       	push	r0
    1542:	0f b6       	in	r0, 0x3f	; 63
    1544:	0f 92       	push	r0
    1546:	11 24       	eor	r1, r1
    1548:	08 b6       	in	r0, 0x38	; 56
    154a:	0f 92       	push	r0
    154c:	18 be       	out	0x38, r1	; 56
    154e:	09 b6       	in	r0, 0x39	; 57
    1550:	0f 92       	push	r0
    1552:	19 be       	out	0x39, r1	; 57
    1554:	0b b6       	in	r0, 0x3b	; 59
    1556:	0f 92       	push	r0
    1558:	1b be       	out	0x3b, r1	; 59
    155a:	2f 93       	push	r18
    155c:	3f 93       	push	r19
    155e:	4f 93       	push	r20
    1560:	5f 93       	push	r21
    1562:	6f 93       	push	r22
    1564:	7f 93       	push	r23
    1566:	8f 93       	push	r24
    1568:	9f 93       	push	r25
    156a:	af 93       	push	r26
    156c:	bf 93       	push	r27
    156e:	ef 93       	push	r30
    1570:	ff 93       	push	r31
	if (tc_tce0_err_callback) {
    1572:	e0 91 95 20 	lds	r30, 0x2095	; 0x802095 <tc_tce0_err_callback>
    1576:	f0 91 96 20 	lds	r31, 0x2096	; 0x802096 <tc_tce0_err_callback+0x1>
    157a:	30 97       	sbiw	r30, 0x00	; 0
    157c:	09 f0       	breq	.+2      	; 0x1580 <__vector_48+0x42>
		tc_tce0_err_callback();
    157e:	19 95       	eicall
	}
}
    1580:	ff 91       	pop	r31
    1582:	ef 91       	pop	r30
    1584:	bf 91       	pop	r27
    1586:	af 91       	pop	r26
    1588:	9f 91       	pop	r25
    158a:	8f 91       	pop	r24
    158c:	7f 91       	pop	r23
    158e:	6f 91       	pop	r22
    1590:	5f 91       	pop	r21
    1592:	4f 91       	pop	r20
    1594:	3f 91       	pop	r19
    1596:	2f 91       	pop	r18
    1598:	0f 90       	pop	r0
    159a:	0b be       	out	0x3b, r0	; 59
    159c:	0f 90       	pop	r0
    159e:	09 be       	out	0x39, r0	; 57
    15a0:	0f 90       	pop	r0
    15a2:	08 be       	out	0x38, r0	; 56
    15a4:	0f 90       	pop	r0
    15a6:	0f be       	out	0x3f, r0	; 63
    15a8:	0f 90       	pop	r0
    15aa:	1f 90       	pop	r1
    15ac:	18 95       	reti

000015ae <__vector_49>:
 *
 * This function will handle interrupt on Timer Counter E0 Compare/CaptureA and
 * call the callback function.
 */
ISR(TCE0_CCA_vect)
{
    15ae:	1f 92       	push	r1
    15b0:	0f 92       	push	r0
    15b2:	0f b6       	in	r0, 0x3f	; 63
    15b4:	0f 92       	push	r0
    15b6:	11 24       	eor	r1, r1
    15b8:	08 b6       	in	r0, 0x38	; 56
    15ba:	0f 92       	push	r0
    15bc:	18 be       	out	0x38, r1	; 56
    15be:	09 b6       	in	r0, 0x39	; 57
    15c0:	0f 92       	push	r0
    15c2:	19 be       	out	0x39, r1	; 57
    15c4:	0b b6       	in	r0, 0x3b	; 59
    15c6:	0f 92       	push	r0
    15c8:	1b be       	out	0x3b, r1	; 59
    15ca:	2f 93       	push	r18
    15cc:	3f 93       	push	r19
    15ce:	4f 93       	push	r20
    15d0:	5f 93       	push	r21
    15d2:	6f 93       	push	r22
    15d4:	7f 93       	push	r23
    15d6:	8f 93       	push	r24
    15d8:	9f 93       	push	r25
    15da:	af 93       	push	r26
    15dc:	bf 93       	push	r27
    15de:	ef 93       	push	r30
    15e0:	ff 93       	push	r31
	if (tc_tce0_cca_callback) {
    15e2:	e0 91 93 20 	lds	r30, 0x2093	; 0x802093 <tc_tce0_cca_callback>
    15e6:	f0 91 94 20 	lds	r31, 0x2094	; 0x802094 <tc_tce0_cca_callback+0x1>
    15ea:	30 97       	sbiw	r30, 0x00	; 0
    15ec:	09 f0       	breq	.+2      	; 0x15f0 <__vector_49+0x42>
		tc_tce0_cca_callback();
    15ee:	19 95       	eicall
	}
}
    15f0:	ff 91       	pop	r31
    15f2:	ef 91       	pop	r30
    15f4:	bf 91       	pop	r27
    15f6:	af 91       	pop	r26
    15f8:	9f 91       	pop	r25
    15fa:	8f 91       	pop	r24
    15fc:	7f 91       	pop	r23
    15fe:	6f 91       	pop	r22
    1600:	5f 91       	pop	r21
    1602:	4f 91       	pop	r20
    1604:	3f 91       	pop	r19
    1606:	2f 91       	pop	r18
    1608:	0f 90       	pop	r0
    160a:	0b be       	out	0x3b, r0	; 59
    160c:	0f 90       	pop	r0
    160e:	09 be       	out	0x39, r0	; 57
    1610:	0f 90       	pop	r0
    1612:	08 be       	out	0x38, r0	; 56
    1614:	0f 90       	pop	r0
    1616:	0f be       	out	0x3f, r0	; 63
    1618:	0f 90       	pop	r0
    161a:	1f 90       	pop	r1
    161c:	18 95       	reti

0000161e <__vector_50>:
 *
 * This function will handle interrupt on Timer Counter E0 Compare/CaptureB and
 * call the callback function.
 */
ISR(TCE0_CCB_vect)
{
    161e:	1f 92       	push	r1
    1620:	0f 92       	push	r0
    1622:	0f b6       	in	r0, 0x3f	; 63
    1624:	0f 92       	push	r0
    1626:	11 24       	eor	r1, r1
    1628:	08 b6       	in	r0, 0x38	; 56
    162a:	0f 92       	push	r0
    162c:	18 be       	out	0x38, r1	; 56
    162e:	09 b6       	in	r0, 0x39	; 57
    1630:	0f 92       	push	r0
    1632:	19 be       	out	0x39, r1	; 57
    1634:	0b b6       	in	r0, 0x3b	; 59
    1636:	0f 92       	push	r0
    1638:	1b be       	out	0x3b, r1	; 59
    163a:	2f 93       	push	r18
    163c:	3f 93       	push	r19
    163e:	4f 93       	push	r20
    1640:	5f 93       	push	r21
    1642:	6f 93       	push	r22
    1644:	7f 93       	push	r23
    1646:	8f 93       	push	r24
    1648:	9f 93       	push	r25
    164a:	af 93       	push	r26
    164c:	bf 93       	push	r27
    164e:	ef 93       	push	r30
    1650:	ff 93       	push	r31
	if (tc_tce0_ccb_callback) {
    1652:	e0 91 91 20 	lds	r30, 0x2091	; 0x802091 <tc_tce0_ccb_callback>
    1656:	f0 91 92 20 	lds	r31, 0x2092	; 0x802092 <tc_tce0_ccb_callback+0x1>
    165a:	30 97       	sbiw	r30, 0x00	; 0
    165c:	09 f0       	breq	.+2      	; 0x1660 <__vector_50+0x42>
		tc_tce0_ccb_callback();
    165e:	19 95       	eicall
	}
}
    1660:	ff 91       	pop	r31
    1662:	ef 91       	pop	r30
    1664:	bf 91       	pop	r27
    1666:	af 91       	pop	r26
    1668:	9f 91       	pop	r25
    166a:	8f 91       	pop	r24
    166c:	7f 91       	pop	r23
    166e:	6f 91       	pop	r22
    1670:	5f 91       	pop	r21
    1672:	4f 91       	pop	r20
    1674:	3f 91       	pop	r19
    1676:	2f 91       	pop	r18
    1678:	0f 90       	pop	r0
    167a:	0b be       	out	0x3b, r0	; 59
    167c:	0f 90       	pop	r0
    167e:	09 be       	out	0x39, r0	; 57
    1680:	0f 90       	pop	r0
    1682:	08 be       	out	0x38, r0	; 56
    1684:	0f 90       	pop	r0
    1686:	0f be       	out	0x3f, r0	; 63
    1688:	0f 90       	pop	r0
    168a:	1f 90       	pop	r1
    168c:	18 95       	reti

0000168e <__vector_51>:
 *
 * This function will handle interrupt on Timer Counter E0 Compare/CaptureC and
 * call the callback function.
 */
ISR(TCE0_CCC_vect)
{
    168e:	1f 92       	push	r1
    1690:	0f 92       	push	r0
    1692:	0f b6       	in	r0, 0x3f	; 63
    1694:	0f 92       	push	r0
    1696:	11 24       	eor	r1, r1
    1698:	08 b6       	in	r0, 0x38	; 56
    169a:	0f 92       	push	r0
    169c:	18 be       	out	0x38, r1	; 56
    169e:	09 b6       	in	r0, 0x39	; 57
    16a0:	0f 92       	push	r0
    16a2:	19 be       	out	0x39, r1	; 57
    16a4:	0b b6       	in	r0, 0x3b	; 59
    16a6:	0f 92       	push	r0
    16a8:	1b be       	out	0x3b, r1	; 59
    16aa:	2f 93       	push	r18
    16ac:	3f 93       	push	r19
    16ae:	4f 93       	push	r20
    16b0:	5f 93       	push	r21
    16b2:	6f 93       	push	r22
    16b4:	7f 93       	push	r23
    16b6:	8f 93       	push	r24
    16b8:	9f 93       	push	r25
    16ba:	af 93       	push	r26
    16bc:	bf 93       	push	r27
    16be:	ef 93       	push	r30
    16c0:	ff 93       	push	r31
	if (tc_tce0_ccc_callback) {
    16c2:	e0 91 8f 20 	lds	r30, 0x208F	; 0x80208f <tc_tce0_ccc_callback>
    16c6:	f0 91 90 20 	lds	r31, 0x2090	; 0x802090 <tc_tce0_ccc_callback+0x1>
    16ca:	30 97       	sbiw	r30, 0x00	; 0
    16cc:	09 f0       	breq	.+2      	; 0x16d0 <__vector_51+0x42>
		tc_tce0_ccc_callback();
    16ce:	19 95       	eicall
	}
}
    16d0:	ff 91       	pop	r31
    16d2:	ef 91       	pop	r30
    16d4:	bf 91       	pop	r27
    16d6:	af 91       	pop	r26
    16d8:	9f 91       	pop	r25
    16da:	8f 91       	pop	r24
    16dc:	7f 91       	pop	r23
    16de:	6f 91       	pop	r22
    16e0:	5f 91       	pop	r21
    16e2:	4f 91       	pop	r20
    16e4:	3f 91       	pop	r19
    16e6:	2f 91       	pop	r18
    16e8:	0f 90       	pop	r0
    16ea:	0b be       	out	0x3b, r0	; 59
    16ec:	0f 90       	pop	r0
    16ee:	09 be       	out	0x39, r0	; 57
    16f0:	0f 90       	pop	r0
    16f2:	08 be       	out	0x38, r0	; 56
    16f4:	0f 90       	pop	r0
    16f6:	0f be       	out	0x3f, r0	; 63
    16f8:	0f 90       	pop	r0
    16fa:	1f 90       	pop	r1
    16fc:	18 95       	reti

000016fe <__vector_52>:
 *
 * This function will handle interrupt on Timer Counter E0 Compare/CaptureD and
 * call the callback function.
 */
ISR(TCE0_CCD_vect)
{
    16fe:	1f 92       	push	r1
    1700:	0f 92       	push	r0
    1702:	0f b6       	in	r0, 0x3f	; 63
    1704:	0f 92       	push	r0
    1706:	11 24       	eor	r1, r1
    1708:	08 b6       	in	r0, 0x38	; 56
    170a:	0f 92       	push	r0
    170c:	18 be       	out	0x38, r1	; 56
    170e:	09 b6       	in	r0, 0x39	; 57
    1710:	0f 92       	push	r0
    1712:	19 be       	out	0x39, r1	; 57
    1714:	0b b6       	in	r0, 0x3b	; 59
    1716:	0f 92       	push	r0
    1718:	1b be       	out	0x3b, r1	; 59
    171a:	2f 93       	push	r18
    171c:	3f 93       	push	r19
    171e:	4f 93       	push	r20
    1720:	5f 93       	push	r21
    1722:	6f 93       	push	r22
    1724:	7f 93       	push	r23
    1726:	8f 93       	push	r24
    1728:	9f 93       	push	r25
    172a:	af 93       	push	r26
    172c:	bf 93       	push	r27
    172e:	ef 93       	push	r30
    1730:	ff 93       	push	r31
	if (tc_tce0_ccd_callback) {
    1732:	e0 91 8d 20 	lds	r30, 0x208D	; 0x80208d <tc_tce0_ccd_callback>
    1736:	f0 91 8e 20 	lds	r31, 0x208E	; 0x80208e <tc_tce0_ccd_callback+0x1>
    173a:	30 97       	sbiw	r30, 0x00	; 0
    173c:	09 f0       	breq	.+2      	; 0x1740 <__vector_52+0x42>
		tc_tce0_ccd_callback();
    173e:	19 95       	eicall
	}
}
    1740:	ff 91       	pop	r31
    1742:	ef 91       	pop	r30
    1744:	bf 91       	pop	r27
    1746:	af 91       	pop	r26
    1748:	9f 91       	pop	r25
    174a:	8f 91       	pop	r24
    174c:	7f 91       	pop	r23
    174e:	6f 91       	pop	r22
    1750:	5f 91       	pop	r21
    1752:	4f 91       	pop	r20
    1754:	3f 91       	pop	r19
    1756:	2f 91       	pop	r18
    1758:	0f 90       	pop	r0
    175a:	0b be       	out	0x3b, r0	; 59
    175c:	0f 90       	pop	r0
    175e:	09 be       	out	0x39, r0	; 57
    1760:	0f 90       	pop	r0
    1762:	08 be       	out	0x38, r0	; 56
    1764:	0f 90       	pop	r0
    1766:	0f be       	out	0x3f, r0	; 63
    1768:	0f 90       	pop	r0
    176a:	1f 90       	pop	r1
    176c:	18 95       	reti

0000176e <__vector_53>:
 *
 * This function will handle interrupt on Timer Counter E1 overflow and
 * call the callback function.
 */
ISR(TCE1_OVF_vect)
{
    176e:	1f 92       	push	r1
    1770:	0f 92       	push	r0
    1772:	0f b6       	in	r0, 0x3f	; 63
    1774:	0f 92       	push	r0
    1776:	11 24       	eor	r1, r1
    1778:	08 b6       	in	r0, 0x38	; 56
    177a:	0f 92       	push	r0
    177c:	18 be       	out	0x38, r1	; 56
    177e:	09 b6       	in	r0, 0x39	; 57
    1780:	0f 92       	push	r0
    1782:	19 be       	out	0x39, r1	; 57
    1784:	0b b6       	in	r0, 0x3b	; 59
    1786:	0f 92       	push	r0
    1788:	1b be       	out	0x3b, r1	; 59
    178a:	2f 93       	push	r18
    178c:	3f 93       	push	r19
    178e:	4f 93       	push	r20
    1790:	5f 93       	push	r21
    1792:	6f 93       	push	r22
    1794:	7f 93       	push	r23
    1796:	8f 93       	push	r24
    1798:	9f 93       	push	r25
    179a:	af 93       	push	r26
    179c:	bf 93       	push	r27
    179e:	ef 93       	push	r30
    17a0:	ff 93       	push	r31
	if (tc_tce1_ovf_callback) {
    17a2:	e0 91 8b 20 	lds	r30, 0x208B	; 0x80208b <tc_tce1_ovf_callback>
    17a6:	f0 91 8c 20 	lds	r31, 0x208C	; 0x80208c <tc_tce1_ovf_callback+0x1>
    17aa:	30 97       	sbiw	r30, 0x00	; 0
    17ac:	09 f0       	breq	.+2      	; 0x17b0 <__vector_53+0x42>
		tc_tce1_ovf_callback();
    17ae:	19 95       	eicall
	}
}
    17b0:	ff 91       	pop	r31
    17b2:	ef 91       	pop	r30
    17b4:	bf 91       	pop	r27
    17b6:	af 91       	pop	r26
    17b8:	9f 91       	pop	r25
    17ba:	8f 91       	pop	r24
    17bc:	7f 91       	pop	r23
    17be:	6f 91       	pop	r22
    17c0:	5f 91       	pop	r21
    17c2:	4f 91       	pop	r20
    17c4:	3f 91       	pop	r19
    17c6:	2f 91       	pop	r18
    17c8:	0f 90       	pop	r0
    17ca:	0b be       	out	0x3b, r0	; 59
    17cc:	0f 90       	pop	r0
    17ce:	09 be       	out	0x39, r0	; 57
    17d0:	0f 90       	pop	r0
    17d2:	08 be       	out	0x38, r0	; 56
    17d4:	0f 90       	pop	r0
    17d6:	0f be       	out	0x3f, r0	; 63
    17d8:	0f 90       	pop	r0
    17da:	1f 90       	pop	r1
    17dc:	18 95       	reti

000017de <__vector_54>:
 *
 * This function will handle interrupt on Timer Counter E1 error and
 * call the callback function.
 */
ISR(TCE1_ERR_vect)
{
    17de:	1f 92       	push	r1
    17e0:	0f 92       	push	r0
    17e2:	0f b6       	in	r0, 0x3f	; 63
    17e4:	0f 92       	push	r0
    17e6:	11 24       	eor	r1, r1
    17e8:	08 b6       	in	r0, 0x38	; 56
    17ea:	0f 92       	push	r0
    17ec:	18 be       	out	0x38, r1	; 56
    17ee:	09 b6       	in	r0, 0x39	; 57
    17f0:	0f 92       	push	r0
    17f2:	19 be       	out	0x39, r1	; 57
    17f4:	0b b6       	in	r0, 0x3b	; 59
    17f6:	0f 92       	push	r0
    17f8:	1b be       	out	0x3b, r1	; 59
    17fa:	2f 93       	push	r18
    17fc:	3f 93       	push	r19
    17fe:	4f 93       	push	r20
    1800:	5f 93       	push	r21
    1802:	6f 93       	push	r22
    1804:	7f 93       	push	r23
    1806:	8f 93       	push	r24
    1808:	9f 93       	push	r25
    180a:	af 93       	push	r26
    180c:	bf 93       	push	r27
    180e:	ef 93       	push	r30
    1810:	ff 93       	push	r31
	if (tc_tce1_err_callback) {
    1812:	e0 91 89 20 	lds	r30, 0x2089	; 0x802089 <tc_tce1_err_callback>
    1816:	f0 91 8a 20 	lds	r31, 0x208A	; 0x80208a <tc_tce1_err_callback+0x1>
    181a:	30 97       	sbiw	r30, 0x00	; 0
    181c:	09 f0       	breq	.+2      	; 0x1820 <__vector_54+0x42>
		tc_tce1_err_callback();
    181e:	19 95       	eicall
	}
}
    1820:	ff 91       	pop	r31
    1822:	ef 91       	pop	r30
    1824:	bf 91       	pop	r27
    1826:	af 91       	pop	r26
    1828:	9f 91       	pop	r25
    182a:	8f 91       	pop	r24
    182c:	7f 91       	pop	r23
    182e:	6f 91       	pop	r22
    1830:	5f 91       	pop	r21
    1832:	4f 91       	pop	r20
    1834:	3f 91       	pop	r19
    1836:	2f 91       	pop	r18
    1838:	0f 90       	pop	r0
    183a:	0b be       	out	0x3b, r0	; 59
    183c:	0f 90       	pop	r0
    183e:	09 be       	out	0x39, r0	; 57
    1840:	0f 90       	pop	r0
    1842:	08 be       	out	0x38, r0	; 56
    1844:	0f 90       	pop	r0
    1846:	0f be       	out	0x3f, r0	; 63
    1848:	0f 90       	pop	r0
    184a:	1f 90       	pop	r1
    184c:	18 95       	reti

0000184e <__vector_55>:
 *
 * This function will handle interrupt on Timer Counter E1 Compare/CaptureA and
 * call the callback function.
 */
ISR(TCE1_CCA_vect)
{
    184e:	1f 92       	push	r1
    1850:	0f 92       	push	r0
    1852:	0f b6       	in	r0, 0x3f	; 63
    1854:	0f 92       	push	r0
    1856:	11 24       	eor	r1, r1
    1858:	08 b6       	in	r0, 0x38	; 56
    185a:	0f 92       	push	r0
    185c:	18 be       	out	0x38, r1	; 56
    185e:	09 b6       	in	r0, 0x39	; 57
    1860:	0f 92       	push	r0
    1862:	19 be       	out	0x39, r1	; 57
    1864:	0b b6       	in	r0, 0x3b	; 59
    1866:	0f 92       	push	r0
    1868:	1b be       	out	0x3b, r1	; 59
    186a:	2f 93       	push	r18
    186c:	3f 93       	push	r19
    186e:	4f 93       	push	r20
    1870:	5f 93       	push	r21
    1872:	6f 93       	push	r22
    1874:	7f 93       	push	r23
    1876:	8f 93       	push	r24
    1878:	9f 93       	push	r25
    187a:	af 93       	push	r26
    187c:	bf 93       	push	r27
    187e:	ef 93       	push	r30
    1880:	ff 93       	push	r31
	if (tc_tce1_cca_callback) {
    1882:	e0 91 87 20 	lds	r30, 0x2087	; 0x802087 <tc_tce1_cca_callback>
    1886:	f0 91 88 20 	lds	r31, 0x2088	; 0x802088 <tc_tce1_cca_callback+0x1>
    188a:	30 97       	sbiw	r30, 0x00	; 0
    188c:	09 f0       	breq	.+2      	; 0x1890 <__vector_55+0x42>
		tc_tce1_cca_callback();
    188e:	19 95       	eicall
	}
}
    1890:	ff 91       	pop	r31
    1892:	ef 91       	pop	r30
    1894:	bf 91       	pop	r27
    1896:	af 91       	pop	r26
    1898:	9f 91       	pop	r25
    189a:	8f 91       	pop	r24
    189c:	7f 91       	pop	r23
    189e:	6f 91       	pop	r22
    18a0:	5f 91       	pop	r21
    18a2:	4f 91       	pop	r20
    18a4:	3f 91       	pop	r19
    18a6:	2f 91       	pop	r18
    18a8:	0f 90       	pop	r0
    18aa:	0b be       	out	0x3b, r0	; 59
    18ac:	0f 90       	pop	r0
    18ae:	09 be       	out	0x39, r0	; 57
    18b0:	0f 90       	pop	r0
    18b2:	08 be       	out	0x38, r0	; 56
    18b4:	0f 90       	pop	r0
    18b6:	0f be       	out	0x3f, r0	; 63
    18b8:	0f 90       	pop	r0
    18ba:	1f 90       	pop	r1
    18bc:	18 95       	reti

000018be <__vector_56>:
 *
 * This function will handle interrupt on Timer Counter E1 Compare/CaptureB and
 * call the callback function.
 */
ISR(TCE1_CCB_vect)
{
    18be:	1f 92       	push	r1
    18c0:	0f 92       	push	r0
    18c2:	0f b6       	in	r0, 0x3f	; 63
    18c4:	0f 92       	push	r0
    18c6:	11 24       	eor	r1, r1
    18c8:	08 b6       	in	r0, 0x38	; 56
    18ca:	0f 92       	push	r0
    18cc:	18 be       	out	0x38, r1	; 56
    18ce:	09 b6       	in	r0, 0x39	; 57
    18d0:	0f 92       	push	r0
    18d2:	19 be       	out	0x39, r1	; 57
    18d4:	0b b6       	in	r0, 0x3b	; 59
    18d6:	0f 92       	push	r0
    18d8:	1b be       	out	0x3b, r1	; 59
    18da:	2f 93       	push	r18
    18dc:	3f 93       	push	r19
    18de:	4f 93       	push	r20
    18e0:	5f 93       	push	r21
    18e2:	6f 93       	push	r22
    18e4:	7f 93       	push	r23
    18e6:	8f 93       	push	r24
    18e8:	9f 93       	push	r25
    18ea:	af 93       	push	r26
    18ec:	bf 93       	push	r27
    18ee:	ef 93       	push	r30
    18f0:	ff 93       	push	r31
	if (tc_tce1_ccb_callback) {
    18f2:	e0 91 85 20 	lds	r30, 0x2085	; 0x802085 <tc_tce1_ccb_callback>
    18f6:	f0 91 86 20 	lds	r31, 0x2086	; 0x802086 <tc_tce1_ccb_callback+0x1>
    18fa:	30 97       	sbiw	r30, 0x00	; 0
    18fc:	09 f0       	breq	.+2      	; 0x1900 <__vector_56+0x42>
		tc_tce1_ccb_callback();
    18fe:	19 95       	eicall
	}
}
    1900:	ff 91       	pop	r31
    1902:	ef 91       	pop	r30
    1904:	bf 91       	pop	r27
    1906:	af 91       	pop	r26
    1908:	9f 91       	pop	r25
    190a:	8f 91       	pop	r24
    190c:	7f 91       	pop	r23
    190e:	6f 91       	pop	r22
    1910:	5f 91       	pop	r21
    1912:	4f 91       	pop	r20
    1914:	3f 91       	pop	r19
    1916:	2f 91       	pop	r18
    1918:	0f 90       	pop	r0
    191a:	0b be       	out	0x3b, r0	; 59
    191c:	0f 90       	pop	r0
    191e:	09 be       	out	0x39, r0	; 57
    1920:	0f 90       	pop	r0
    1922:	08 be       	out	0x38, r0	; 56
    1924:	0f 90       	pop	r0
    1926:	0f be       	out	0x3f, r0	; 63
    1928:	0f 90       	pop	r0
    192a:	1f 90       	pop	r1
    192c:	18 95       	reti

0000192e <__vector_108>:
 *
 * This function will handle interrupt on Timer Counter F0 overflow and
 * call the callback function.
 */
ISR(TCF0_OVF_vect)
{
    192e:	1f 92       	push	r1
    1930:	0f 92       	push	r0
    1932:	0f b6       	in	r0, 0x3f	; 63
    1934:	0f 92       	push	r0
    1936:	11 24       	eor	r1, r1
    1938:	08 b6       	in	r0, 0x38	; 56
    193a:	0f 92       	push	r0
    193c:	18 be       	out	0x38, r1	; 56
    193e:	09 b6       	in	r0, 0x39	; 57
    1940:	0f 92       	push	r0
    1942:	19 be       	out	0x39, r1	; 57
    1944:	0b b6       	in	r0, 0x3b	; 59
    1946:	0f 92       	push	r0
    1948:	1b be       	out	0x3b, r1	; 59
    194a:	2f 93       	push	r18
    194c:	3f 93       	push	r19
    194e:	4f 93       	push	r20
    1950:	5f 93       	push	r21
    1952:	6f 93       	push	r22
    1954:	7f 93       	push	r23
    1956:	8f 93       	push	r24
    1958:	9f 93       	push	r25
    195a:	af 93       	push	r26
    195c:	bf 93       	push	r27
    195e:	ef 93       	push	r30
    1960:	ff 93       	push	r31
	if (tc_tcf0_ovf_callback) {
    1962:	e0 91 83 20 	lds	r30, 0x2083	; 0x802083 <tc_tcf0_ovf_callback>
    1966:	f0 91 84 20 	lds	r31, 0x2084	; 0x802084 <tc_tcf0_ovf_callback+0x1>
    196a:	30 97       	sbiw	r30, 0x00	; 0
    196c:	09 f0       	breq	.+2      	; 0x1970 <__vector_108+0x42>
		tc_tcf0_ovf_callback();
    196e:	19 95       	eicall
	}
}
    1970:	ff 91       	pop	r31
    1972:	ef 91       	pop	r30
    1974:	bf 91       	pop	r27
    1976:	af 91       	pop	r26
    1978:	9f 91       	pop	r25
    197a:	8f 91       	pop	r24
    197c:	7f 91       	pop	r23
    197e:	6f 91       	pop	r22
    1980:	5f 91       	pop	r21
    1982:	4f 91       	pop	r20
    1984:	3f 91       	pop	r19
    1986:	2f 91       	pop	r18
    1988:	0f 90       	pop	r0
    198a:	0b be       	out	0x3b, r0	; 59
    198c:	0f 90       	pop	r0
    198e:	09 be       	out	0x39, r0	; 57
    1990:	0f 90       	pop	r0
    1992:	08 be       	out	0x38, r0	; 56
    1994:	0f 90       	pop	r0
    1996:	0f be       	out	0x3f, r0	; 63
    1998:	0f 90       	pop	r0
    199a:	1f 90       	pop	r1
    199c:	18 95       	reti

0000199e <__vector_109>:
 *
 * This function will handle interrupt on Timer Counter F0 error and
 * call the callback function.
 */
ISR(TCF0_ERR_vect)
{
    199e:	1f 92       	push	r1
    19a0:	0f 92       	push	r0
    19a2:	0f b6       	in	r0, 0x3f	; 63
    19a4:	0f 92       	push	r0
    19a6:	11 24       	eor	r1, r1
    19a8:	08 b6       	in	r0, 0x38	; 56
    19aa:	0f 92       	push	r0
    19ac:	18 be       	out	0x38, r1	; 56
    19ae:	09 b6       	in	r0, 0x39	; 57
    19b0:	0f 92       	push	r0
    19b2:	19 be       	out	0x39, r1	; 57
    19b4:	0b b6       	in	r0, 0x3b	; 59
    19b6:	0f 92       	push	r0
    19b8:	1b be       	out	0x3b, r1	; 59
    19ba:	2f 93       	push	r18
    19bc:	3f 93       	push	r19
    19be:	4f 93       	push	r20
    19c0:	5f 93       	push	r21
    19c2:	6f 93       	push	r22
    19c4:	7f 93       	push	r23
    19c6:	8f 93       	push	r24
    19c8:	9f 93       	push	r25
    19ca:	af 93       	push	r26
    19cc:	bf 93       	push	r27
    19ce:	ef 93       	push	r30
    19d0:	ff 93       	push	r31
	if (tc_tcf0_err_callback) {
    19d2:	e0 91 81 20 	lds	r30, 0x2081	; 0x802081 <tc_tcf0_err_callback>
    19d6:	f0 91 82 20 	lds	r31, 0x2082	; 0x802082 <tc_tcf0_err_callback+0x1>
    19da:	30 97       	sbiw	r30, 0x00	; 0
    19dc:	09 f0       	breq	.+2      	; 0x19e0 <__vector_109+0x42>
		tc_tcf0_err_callback();
    19de:	19 95       	eicall
	}
}
    19e0:	ff 91       	pop	r31
    19e2:	ef 91       	pop	r30
    19e4:	bf 91       	pop	r27
    19e6:	af 91       	pop	r26
    19e8:	9f 91       	pop	r25
    19ea:	8f 91       	pop	r24
    19ec:	7f 91       	pop	r23
    19ee:	6f 91       	pop	r22
    19f0:	5f 91       	pop	r21
    19f2:	4f 91       	pop	r20
    19f4:	3f 91       	pop	r19
    19f6:	2f 91       	pop	r18
    19f8:	0f 90       	pop	r0
    19fa:	0b be       	out	0x3b, r0	; 59
    19fc:	0f 90       	pop	r0
    19fe:	09 be       	out	0x39, r0	; 57
    1a00:	0f 90       	pop	r0
    1a02:	08 be       	out	0x38, r0	; 56
    1a04:	0f 90       	pop	r0
    1a06:	0f be       	out	0x3f, r0	; 63
    1a08:	0f 90       	pop	r0
    1a0a:	1f 90       	pop	r1
    1a0c:	18 95       	reti

00001a0e <__vector_110>:
 *
 * This function will handle interrupt on Timer Counter F0 Compare/CaptureA and
 * call the callback function.
 */
ISR(TCF0_CCA_vect)
{
    1a0e:	1f 92       	push	r1
    1a10:	0f 92       	push	r0
    1a12:	0f b6       	in	r0, 0x3f	; 63
    1a14:	0f 92       	push	r0
    1a16:	11 24       	eor	r1, r1
    1a18:	08 b6       	in	r0, 0x38	; 56
    1a1a:	0f 92       	push	r0
    1a1c:	18 be       	out	0x38, r1	; 56
    1a1e:	09 b6       	in	r0, 0x39	; 57
    1a20:	0f 92       	push	r0
    1a22:	19 be       	out	0x39, r1	; 57
    1a24:	0b b6       	in	r0, 0x3b	; 59
    1a26:	0f 92       	push	r0
    1a28:	1b be       	out	0x3b, r1	; 59
    1a2a:	2f 93       	push	r18
    1a2c:	3f 93       	push	r19
    1a2e:	4f 93       	push	r20
    1a30:	5f 93       	push	r21
    1a32:	6f 93       	push	r22
    1a34:	7f 93       	push	r23
    1a36:	8f 93       	push	r24
    1a38:	9f 93       	push	r25
    1a3a:	af 93       	push	r26
    1a3c:	bf 93       	push	r27
    1a3e:	ef 93       	push	r30
    1a40:	ff 93       	push	r31
	if (tc_tcf0_cca_callback) {
    1a42:	e0 91 7f 20 	lds	r30, 0x207F	; 0x80207f <tc_tcf0_cca_callback>
    1a46:	f0 91 80 20 	lds	r31, 0x2080	; 0x802080 <tc_tcf0_cca_callback+0x1>
    1a4a:	30 97       	sbiw	r30, 0x00	; 0
    1a4c:	09 f0       	breq	.+2      	; 0x1a50 <__vector_110+0x42>
		tc_tcf0_cca_callback();
    1a4e:	19 95       	eicall
	}
}
    1a50:	ff 91       	pop	r31
    1a52:	ef 91       	pop	r30
    1a54:	bf 91       	pop	r27
    1a56:	af 91       	pop	r26
    1a58:	9f 91       	pop	r25
    1a5a:	8f 91       	pop	r24
    1a5c:	7f 91       	pop	r23
    1a5e:	6f 91       	pop	r22
    1a60:	5f 91       	pop	r21
    1a62:	4f 91       	pop	r20
    1a64:	3f 91       	pop	r19
    1a66:	2f 91       	pop	r18
    1a68:	0f 90       	pop	r0
    1a6a:	0b be       	out	0x3b, r0	; 59
    1a6c:	0f 90       	pop	r0
    1a6e:	09 be       	out	0x39, r0	; 57
    1a70:	0f 90       	pop	r0
    1a72:	08 be       	out	0x38, r0	; 56
    1a74:	0f 90       	pop	r0
    1a76:	0f be       	out	0x3f, r0	; 63
    1a78:	0f 90       	pop	r0
    1a7a:	1f 90       	pop	r1
    1a7c:	18 95       	reti

00001a7e <__vector_111>:
 *
 * This function will handle interrupt on Timer Counter F0 Compare/CaptureB and
 * call the callback function.
 */
ISR(TCF0_CCB_vect)
{
    1a7e:	1f 92       	push	r1
    1a80:	0f 92       	push	r0
    1a82:	0f b6       	in	r0, 0x3f	; 63
    1a84:	0f 92       	push	r0
    1a86:	11 24       	eor	r1, r1
    1a88:	08 b6       	in	r0, 0x38	; 56
    1a8a:	0f 92       	push	r0
    1a8c:	18 be       	out	0x38, r1	; 56
    1a8e:	09 b6       	in	r0, 0x39	; 57
    1a90:	0f 92       	push	r0
    1a92:	19 be       	out	0x39, r1	; 57
    1a94:	0b b6       	in	r0, 0x3b	; 59
    1a96:	0f 92       	push	r0
    1a98:	1b be       	out	0x3b, r1	; 59
    1a9a:	2f 93       	push	r18
    1a9c:	3f 93       	push	r19
    1a9e:	4f 93       	push	r20
    1aa0:	5f 93       	push	r21
    1aa2:	6f 93       	push	r22
    1aa4:	7f 93       	push	r23
    1aa6:	8f 93       	push	r24
    1aa8:	9f 93       	push	r25
    1aaa:	af 93       	push	r26
    1aac:	bf 93       	push	r27
    1aae:	ef 93       	push	r30
    1ab0:	ff 93       	push	r31
	if (tc_tcf0_ccb_callback) {
    1ab2:	e0 91 7d 20 	lds	r30, 0x207D	; 0x80207d <tc_tcf0_ccb_callback>
    1ab6:	f0 91 7e 20 	lds	r31, 0x207E	; 0x80207e <tc_tcf0_ccb_callback+0x1>
    1aba:	30 97       	sbiw	r30, 0x00	; 0
    1abc:	09 f0       	breq	.+2      	; 0x1ac0 <__vector_111+0x42>
		tc_tcf0_ccb_callback();
    1abe:	19 95       	eicall
	}
}
    1ac0:	ff 91       	pop	r31
    1ac2:	ef 91       	pop	r30
    1ac4:	bf 91       	pop	r27
    1ac6:	af 91       	pop	r26
    1ac8:	9f 91       	pop	r25
    1aca:	8f 91       	pop	r24
    1acc:	7f 91       	pop	r23
    1ace:	6f 91       	pop	r22
    1ad0:	5f 91       	pop	r21
    1ad2:	4f 91       	pop	r20
    1ad4:	3f 91       	pop	r19
    1ad6:	2f 91       	pop	r18
    1ad8:	0f 90       	pop	r0
    1ada:	0b be       	out	0x3b, r0	; 59
    1adc:	0f 90       	pop	r0
    1ade:	09 be       	out	0x39, r0	; 57
    1ae0:	0f 90       	pop	r0
    1ae2:	08 be       	out	0x38, r0	; 56
    1ae4:	0f 90       	pop	r0
    1ae6:	0f be       	out	0x3f, r0	; 63
    1ae8:	0f 90       	pop	r0
    1aea:	1f 90       	pop	r1
    1aec:	18 95       	reti

00001aee <__vector_112>:
 *
 * This function will handle interrupt on Timer Counter F0 Compare/CaptureC and
 * call the callback function.
 */
ISR(TCF0_CCC_vect)
{
    1aee:	1f 92       	push	r1
    1af0:	0f 92       	push	r0
    1af2:	0f b6       	in	r0, 0x3f	; 63
    1af4:	0f 92       	push	r0
    1af6:	11 24       	eor	r1, r1
    1af8:	08 b6       	in	r0, 0x38	; 56
    1afa:	0f 92       	push	r0
    1afc:	18 be       	out	0x38, r1	; 56
    1afe:	09 b6       	in	r0, 0x39	; 57
    1b00:	0f 92       	push	r0
    1b02:	19 be       	out	0x39, r1	; 57
    1b04:	0b b6       	in	r0, 0x3b	; 59
    1b06:	0f 92       	push	r0
    1b08:	1b be       	out	0x3b, r1	; 59
    1b0a:	2f 93       	push	r18
    1b0c:	3f 93       	push	r19
    1b0e:	4f 93       	push	r20
    1b10:	5f 93       	push	r21
    1b12:	6f 93       	push	r22
    1b14:	7f 93       	push	r23
    1b16:	8f 93       	push	r24
    1b18:	9f 93       	push	r25
    1b1a:	af 93       	push	r26
    1b1c:	bf 93       	push	r27
    1b1e:	ef 93       	push	r30
    1b20:	ff 93       	push	r31
	if (tc_tcf0_ccc_callback) {
    1b22:	e0 91 7b 20 	lds	r30, 0x207B	; 0x80207b <tc_tcf0_ccc_callback>
    1b26:	f0 91 7c 20 	lds	r31, 0x207C	; 0x80207c <tc_tcf0_ccc_callback+0x1>
    1b2a:	30 97       	sbiw	r30, 0x00	; 0
    1b2c:	09 f0       	breq	.+2      	; 0x1b30 <__vector_112+0x42>
		tc_tcf0_ccc_callback();
    1b2e:	19 95       	eicall
	}
}
    1b30:	ff 91       	pop	r31
    1b32:	ef 91       	pop	r30
    1b34:	bf 91       	pop	r27
    1b36:	af 91       	pop	r26
    1b38:	9f 91       	pop	r25
    1b3a:	8f 91       	pop	r24
    1b3c:	7f 91       	pop	r23
    1b3e:	6f 91       	pop	r22
    1b40:	5f 91       	pop	r21
    1b42:	4f 91       	pop	r20
    1b44:	3f 91       	pop	r19
    1b46:	2f 91       	pop	r18
    1b48:	0f 90       	pop	r0
    1b4a:	0b be       	out	0x3b, r0	; 59
    1b4c:	0f 90       	pop	r0
    1b4e:	09 be       	out	0x39, r0	; 57
    1b50:	0f 90       	pop	r0
    1b52:	08 be       	out	0x38, r0	; 56
    1b54:	0f 90       	pop	r0
    1b56:	0f be       	out	0x3f, r0	; 63
    1b58:	0f 90       	pop	r0
    1b5a:	1f 90       	pop	r1
    1b5c:	18 95       	reti

00001b5e <__vector_113>:
 *
 * This function will handle interrupt on Timer Counter F0 Compare/CaptureD and
 * call the callback function.
 */
ISR(TCF0_CCD_vect)
{
    1b5e:	1f 92       	push	r1
    1b60:	0f 92       	push	r0
    1b62:	0f b6       	in	r0, 0x3f	; 63
    1b64:	0f 92       	push	r0
    1b66:	11 24       	eor	r1, r1
    1b68:	08 b6       	in	r0, 0x38	; 56
    1b6a:	0f 92       	push	r0
    1b6c:	18 be       	out	0x38, r1	; 56
    1b6e:	09 b6       	in	r0, 0x39	; 57
    1b70:	0f 92       	push	r0
    1b72:	19 be       	out	0x39, r1	; 57
    1b74:	0b b6       	in	r0, 0x3b	; 59
    1b76:	0f 92       	push	r0
    1b78:	1b be       	out	0x3b, r1	; 59
    1b7a:	2f 93       	push	r18
    1b7c:	3f 93       	push	r19
    1b7e:	4f 93       	push	r20
    1b80:	5f 93       	push	r21
    1b82:	6f 93       	push	r22
    1b84:	7f 93       	push	r23
    1b86:	8f 93       	push	r24
    1b88:	9f 93       	push	r25
    1b8a:	af 93       	push	r26
    1b8c:	bf 93       	push	r27
    1b8e:	ef 93       	push	r30
    1b90:	ff 93       	push	r31
	if (tc_tcf0_ccd_callback) {
    1b92:	e0 91 79 20 	lds	r30, 0x2079	; 0x802079 <tc_tcf0_ccd_callback>
    1b96:	f0 91 7a 20 	lds	r31, 0x207A	; 0x80207a <tc_tcf0_ccd_callback+0x1>
    1b9a:	30 97       	sbiw	r30, 0x00	; 0
    1b9c:	09 f0       	breq	.+2      	; 0x1ba0 <__vector_113+0x42>
		tc_tcf0_ccd_callback();
    1b9e:	19 95       	eicall
	}
}
    1ba0:	ff 91       	pop	r31
    1ba2:	ef 91       	pop	r30
    1ba4:	bf 91       	pop	r27
    1ba6:	af 91       	pop	r26
    1ba8:	9f 91       	pop	r25
    1baa:	8f 91       	pop	r24
    1bac:	7f 91       	pop	r23
    1bae:	6f 91       	pop	r22
    1bb0:	5f 91       	pop	r21
    1bb2:	4f 91       	pop	r20
    1bb4:	3f 91       	pop	r19
    1bb6:	2f 91       	pop	r18
    1bb8:	0f 90       	pop	r0
    1bba:	0b be       	out	0x3b, r0	; 59
    1bbc:	0f 90       	pop	r0
    1bbe:	09 be       	out	0x39, r0	; 57
    1bc0:	0f 90       	pop	r0
    1bc2:	08 be       	out	0x38, r0	; 56
    1bc4:	0f 90       	pop	r0
    1bc6:	0f be       	out	0x3f, r0	; 63
    1bc8:	0f 90       	pop	r0
    1bca:	1f 90       	pop	r1
    1bcc:	18 95       	reti

00001bce <__vector_114>:
 *
 * This function will handle interrupt on Timer Counter F1 overflow and
 * call the callback function.
 */
ISR(TCF1_OVF_vect)
{
    1bce:	1f 92       	push	r1
    1bd0:	0f 92       	push	r0
    1bd2:	0f b6       	in	r0, 0x3f	; 63
    1bd4:	0f 92       	push	r0
    1bd6:	11 24       	eor	r1, r1
    1bd8:	08 b6       	in	r0, 0x38	; 56
    1bda:	0f 92       	push	r0
    1bdc:	18 be       	out	0x38, r1	; 56
    1bde:	09 b6       	in	r0, 0x39	; 57
    1be0:	0f 92       	push	r0
    1be2:	19 be       	out	0x39, r1	; 57
    1be4:	0b b6       	in	r0, 0x3b	; 59
    1be6:	0f 92       	push	r0
    1be8:	1b be       	out	0x3b, r1	; 59
    1bea:	2f 93       	push	r18
    1bec:	3f 93       	push	r19
    1bee:	4f 93       	push	r20
    1bf0:	5f 93       	push	r21
    1bf2:	6f 93       	push	r22
    1bf4:	7f 93       	push	r23
    1bf6:	8f 93       	push	r24
    1bf8:	9f 93       	push	r25
    1bfa:	af 93       	push	r26
    1bfc:	bf 93       	push	r27
    1bfe:	ef 93       	push	r30
    1c00:	ff 93       	push	r31
	if (tc_tcf1_ovf_callback) {
    1c02:	e0 91 77 20 	lds	r30, 0x2077	; 0x802077 <tc_tcf1_ovf_callback>
    1c06:	f0 91 78 20 	lds	r31, 0x2078	; 0x802078 <tc_tcf1_ovf_callback+0x1>
    1c0a:	30 97       	sbiw	r30, 0x00	; 0
    1c0c:	09 f0       	breq	.+2      	; 0x1c10 <__vector_114+0x42>
		tc_tcf1_ovf_callback();
    1c0e:	19 95       	eicall
	}
}
    1c10:	ff 91       	pop	r31
    1c12:	ef 91       	pop	r30
    1c14:	bf 91       	pop	r27
    1c16:	af 91       	pop	r26
    1c18:	9f 91       	pop	r25
    1c1a:	8f 91       	pop	r24
    1c1c:	7f 91       	pop	r23
    1c1e:	6f 91       	pop	r22
    1c20:	5f 91       	pop	r21
    1c22:	4f 91       	pop	r20
    1c24:	3f 91       	pop	r19
    1c26:	2f 91       	pop	r18
    1c28:	0f 90       	pop	r0
    1c2a:	0b be       	out	0x3b, r0	; 59
    1c2c:	0f 90       	pop	r0
    1c2e:	09 be       	out	0x39, r0	; 57
    1c30:	0f 90       	pop	r0
    1c32:	08 be       	out	0x38, r0	; 56
    1c34:	0f 90       	pop	r0
    1c36:	0f be       	out	0x3f, r0	; 63
    1c38:	0f 90       	pop	r0
    1c3a:	1f 90       	pop	r1
    1c3c:	18 95       	reti

00001c3e <__vector_115>:
 *
 * This function will handle interrupt on Timer Counter F1 error and
 * call the callback function.
 */
ISR(TCF1_ERR_vect)
{
    1c3e:	1f 92       	push	r1
    1c40:	0f 92       	push	r0
    1c42:	0f b6       	in	r0, 0x3f	; 63
    1c44:	0f 92       	push	r0
    1c46:	11 24       	eor	r1, r1
    1c48:	08 b6       	in	r0, 0x38	; 56
    1c4a:	0f 92       	push	r0
    1c4c:	18 be       	out	0x38, r1	; 56
    1c4e:	09 b6       	in	r0, 0x39	; 57
    1c50:	0f 92       	push	r0
    1c52:	19 be       	out	0x39, r1	; 57
    1c54:	0b b6       	in	r0, 0x3b	; 59
    1c56:	0f 92       	push	r0
    1c58:	1b be       	out	0x3b, r1	; 59
    1c5a:	2f 93       	push	r18
    1c5c:	3f 93       	push	r19
    1c5e:	4f 93       	push	r20
    1c60:	5f 93       	push	r21
    1c62:	6f 93       	push	r22
    1c64:	7f 93       	push	r23
    1c66:	8f 93       	push	r24
    1c68:	9f 93       	push	r25
    1c6a:	af 93       	push	r26
    1c6c:	bf 93       	push	r27
    1c6e:	ef 93       	push	r30
    1c70:	ff 93       	push	r31
	if (tc_tcf1_err_callback) {
    1c72:	e0 91 75 20 	lds	r30, 0x2075	; 0x802075 <tc_tcf1_err_callback>
    1c76:	f0 91 76 20 	lds	r31, 0x2076	; 0x802076 <tc_tcf1_err_callback+0x1>
    1c7a:	30 97       	sbiw	r30, 0x00	; 0
    1c7c:	09 f0       	breq	.+2      	; 0x1c80 <__vector_115+0x42>
		tc_tcf1_err_callback();
    1c7e:	19 95       	eicall
	}
}
    1c80:	ff 91       	pop	r31
    1c82:	ef 91       	pop	r30
    1c84:	bf 91       	pop	r27
    1c86:	af 91       	pop	r26
    1c88:	9f 91       	pop	r25
    1c8a:	8f 91       	pop	r24
    1c8c:	7f 91       	pop	r23
    1c8e:	6f 91       	pop	r22
    1c90:	5f 91       	pop	r21
    1c92:	4f 91       	pop	r20
    1c94:	3f 91       	pop	r19
    1c96:	2f 91       	pop	r18
    1c98:	0f 90       	pop	r0
    1c9a:	0b be       	out	0x3b, r0	; 59
    1c9c:	0f 90       	pop	r0
    1c9e:	09 be       	out	0x39, r0	; 57
    1ca0:	0f 90       	pop	r0
    1ca2:	08 be       	out	0x38, r0	; 56
    1ca4:	0f 90       	pop	r0
    1ca6:	0f be       	out	0x3f, r0	; 63
    1ca8:	0f 90       	pop	r0
    1caa:	1f 90       	pop	r1
    1cac:	18 95       	reti

00001cae <__vector_116>:
 *
 * This function will handle interrupt on Timer Counter F1 Compare/CaptureA and
 * call the callback function.
 */
ISR(TCF1_CCA_vect)
{
    1cae:	1f 92       	push	r1
    1cb0:	0f 92       	push	r0
    1cb2:	0f b6       	in	r0, 0x3f	; 63
    1cb4:	0f 92       	push	r0
    1cb6:	11 24       	eor	r1, r1
    1cb8:	08 b6       	in	r0, 0x38	; 56
    1cba:	0f 92       	push	r0
    1cbc:	18 be       	out	0x38, r1	; 56
    1cbe:	09 b6       	in	r0, 0x39	; 57
    1cc0:	0f 92       	push	r0
    1cc2:	19 be       	out	0x39, r1	; 57
    1cc4:	0b b6       	in	r0, 0x3b	; 59
    1cc6:	0f 92       	push	r0
    1cc8:	1b be       	out	0x3b, r1	; 59
    1cca:	2f 93       	push	r18
    1ccc:	3f 93       	push	r19
    1cce:	4f 93       	push	r20
    1cd0:	5f 93       	push	r21
    1cd2:	6f 93       	push	r22
    1cd4:	7f 93       	push	r23
    1cd6:	8f 93       	push	r24
    1cd8:	9f 93       	push	r25
    1cda:	af 93       	push	r26
    1cdc:	bf 93       	push	r27
    1cde:	ef 93       	push	r30
    1ce0:	ff 93       	push	r31
	if (tc_tcf1_cca_callback) {
    1ce2:	e0 91 73 20 	lds	r30, 0x2073	; 0x802073 <tc_tcf1_cca_callback>
    1ce6:	f0 91 74 20 	lds	r31, 0x2074	; 0x802074 <tc_tcf1_cca_callback+0x1>
    1cea:	30 97       	sbiw	r30, 0x00	; 0
    1cec:	09 f0       	breq	.+2      	; 0x1cf0 <__vector_116+0x42>
		tc_tcf1_cca_callback();
    1cee:	19 95       	eicall
	}
}
    1cf0:	ff 91       	pop	r31
    1cf2:	ef 91       	pop	r30
    1cf4:	bf 91       	pop	r27
    1cf6:	af 91       	pop	r26
    1cf8:	9f 91       	pop	r25
    1cfa:	8f 91       	pop	r24
    1cfc:	7f 91       	pop	r23
    1cfe:	6f 91       	pop	r22
    1d00:	5f 91       	pop	r21
    1d02:	4f 91       	pop	r20
    1d04:	3f 91       	pop	r19
    1d06:	2f 91       	pop	r18
    1d08:	0f 90       	pop	r0
    1d0a:	0b be       	out	0x3b, r0	; 59
    1d0c:	0f 90       	pop	r0
    1d0e:	09 be       	out	0x39, r0	; 57
    1d10:	0f 90       	pop	r0
    1d12:	08 be       	out	0x38, r0	; 56
    1d14:	0f 90       	pop	r0
    1d16:	0f be       	out	0x3f, r0	; 63
    1d18:	0f 90       	pop	r0
    1d1a:	1f 90       	pop	r1
    1d1c:	18 95       	reti

00001d1e <__vector_117>:
 *
 * This function will handle interrupt on Timer Counter F1 Compare/CaptureB and
 * call the callback function.
 */
ISR(TCF1_CCB_vect)
{
    1d1e:	1f 92       	push	r1
    1d20:	0f 92       	push	r0
    1d22:	0f b6       	in	r0, 0x3f	; 63
    1d24:	0f 92       	push	r0
    1d26:	11 24       	eor	r1, r1
    1d28:	08 b6       	in	r0, 0x38	; 56
    1d2a:	0f 92       	push	r0
    1d2c:	18 be       	out	0x38, r1	; 56
    1d2e:	09 b6       	in	r0, 0x39	; 57
    1d30:	0f 92       	push	r0
    1d32:	19 be       	out	0x39, r1	; 57
    1d34:	0b b6       	in	r0, 0x3b	; 59
    1d36:	0f 92       	push	r0
    1d38:	1b be       	out	0x3b, r1	; 59
    1d3a:	2f 93       	push	r18
    1d3c:	3f 93       	push	r19
    1d3e:	4f 93       	push	r20
    1d40:	5f 93       	push	r21
    1d42:	6f 93       	push	r22
    1d44:	7f 93       	push	r23
    1d46:	8f 93       	push	r24
    1d48:	9f 93       	push	r25
    1d4a:	af 93       	push	r26
    1d4c:	bf 93       	push	r27
    1d4e:	ef 93       	push	r30
    1d50:	ff 93       	push	r31
	if (tc_tcf1_ccb_callback) {
    1d52:	e0 91 71 20 	lds	r30, 0x2071	; 0x802071 <tc_tcf1_ccb_callback>
    1d56:	f0 91 72 20 	lds	r31, 0x2072	; 0x802072 <tc_tcf1_ccb_callback+0x1>
    1d5a:	30 97       	sbiw	r30, 0x00	; 0
    1d5c:	09 f0       	breq	.+2      	; 0x1d60 <__vector_117+0x42>
		tc_tcf1_ccb_callback();
    1d5e:	19 95       	eicall
	}
}
    1d60:	ff 91       	pop	r31
    1d62:	ef 91       	pop	r30
    1d64:	bf 91       	pop	r27
    1d66:	af 91       	pop	r26
    1d68:	9f 91       	pop	r25
    1d6a:	8f 91       	pop	r24
    1d6c:	7f 91       	pop	r23
    1d6e:	6f 91       	pop	r22
    1d70:	5f 91       	pop	r21
    1d72:	4f 91       	pop	r20
    1d74:	3f 91       	pop	r19
    1d76:	2f 91       	pop	r18
    1d78:	0f 90       	pop	r0
    1d7a:	0b be       	out	0x3b, r0	; 59
    1d7c:	0f 90       	pop	r0
    1d7e:	09 be       	out	0x39, r0	; 57
    1d80:	0f 90       	pop	r0
    1d82:	08 be       	out	0x38, r0	; 56
    1d84:	0f 90       	pop	r0
    1d86:	0f be       	out	0x3f, r0	; 63
    1d88:	0f 90       	pop	r0
    1d8a:	1f 90       	pop	r1
    1d8c:	18 95       	reti

00001d8e <usart_putchar>:

	if (baud_offset != USART_BAUD_UNDEFINED) {
		(usart)->BAUDCTRLB = (uint8_t)((uint16_t)baudctrl);
		(usart)->BAUDCTRLA = (uint8_t)((uint16_t)baudctrl >> 8);
	}
}
    1d8e:	fc 01       	movw	r30, r24
    1d90:	91 81       	ldd	r25, Z+1	; 0x01
    1d92:	95 ff       	sbrs	r25, 5
    1d94:	fd cf       	rjmp	.-6      	; 0x1d90 <usart_putchar+0x2>
    1d96:	60 83       	st	Z, r22
    1d98:	80 e0       	ldi	r24, 0x00	; 0
    1d9a:	90 e0       	ldi	r25, 0x00	; 0
    1d9c:	08 95       	ret

00001d9e <usart_getchar>:
    1d9e:	fc 01       	movw	r30, r24
    1da0:	91 81       	ldd	r25, Z+1	; 0x01
    1da2:	99 23       	and	r25, r25
    1da4:	ec f7       	brge	.-6      	; 0x1da0 <usart_getchar+0x2>
    1da6:	80 81       	ld	r24, Z
    1da8:	08 95       	ret

00001daa <usart_set_baudrate>:
 * \retval true if the hardware supports the baud rate
 * \retval false if the hardware does not support the baud rate (i.e. it's
 *               either too high or too low.)
 */
bool usart_set_baudrate(USART_t *usart, uint32_t baud, uint32_t cpu_hz)
{
    1daa:	4f 92       	push	r4
    1dac:	5f 92       	push	r5
    1dae:	6f 92       	push	r6
    1db0:	7f 92       	push	r7
    1db2:	8f 92       	push	r8
    1db4:	9f 92       	push	r9
    1db6:	af 92       	push	r10
    1db8:	bf 92       	push	r11
    1dba:	ef 92       	push	r14
    1dbc:	ff 92       	push	r15
    1dbe:	0f 93       	push	r16
    1dc0:	1f 93       	push	r17
    1dc2:	cf 93       	push	r28
    1dc4:	7c 01       	movw	r14, r24
    1dc6:	4a 01       	movw	r8, r20
    1dc8:	5b 01       	movw	r10, r22
    1dca:	28 01       	movw	r4, r16
    1dcc:	39 01       	movw	r6, r18
	/* 8 = (2^0) * 8 * (2^0) = (2^BSCALE_MIN) * 8 * (BSEL_MIN) */
	max_rate = cpu_hz / 8;
	/* 4194304 = (2^7) * 8 * (2^12) = (2^BSCALE_MAX) * 8 * (BSEL_MAX+1) */
	min_rate = cpu_hz / 4194304;

	if (!((usart)->CTRLB & USART_CLK2X_bm)) {
    1dce:	fc 01       	movw	r30, r24
    1dd0:	84 81       	ldd	r24, Z+4	; 0x04
    1dd2:	82 ff       	sbrs	r24, 2
    1dd4:	16 c0       	rjmp	.+44     	; 0x1e02 <usart_set_baudrate+0x58>

	/*
	 * Check if the hardware supports the given baud rate
	 */
	/* 8 = (2^0) * 8 * (2^0) = (2^BSCALE_MIN) * 8 * (BSEL_MIN) */
	max_rate = cpu_hz / 8;
    1dd6:	d9 01       	movw	r26, r18
    1dd8:	c8 01       	movw	r24, r16
    1dda:	68 94       	set
    1ddc:	12 f8       	bld	r1, 2
    1dde:	b6 95       	lsr	r27
    1de0:	a7 95       	ror	r26
    1de2:	97 95       	ror	r25
    1de4:	87 95       	ror	r24
    1de6:	16 94       	lsr	r1
    1de8:	d1 f7       	brne	.-12     	; 0x1dde <usart_set_baudrate+0x34>
	/* 4194304 = (2^7) * 8 * (2^12) = (2^BSCALE_MAX) * 8 * (BSEL_MAX+1) */
	min_rate = cpu_hz / 4194304;
    1dea:	b9 01       	movw	r22, r18
    1dec:	a8 01       	movw	r20, r16
    1dee:	03 2e       	mov	r0, r19
    1df0:	36 e1       	ldi	r19, 0x16	; 22
    1df2:	76 95       	lsr	r23
    1df4:	67 95       	ror	r22
    1df6:	57 95       	ror	r21
    1df8:	47 95       	ror	r20
    1dfa:	3a 95       	dec	r19
    1dfc:	d1 f7       	brne	.-12     	; 0x1df2 <usart_set_baudrate+0x48>
    1dfe:	30 2d       	mov	r19, r0
    1e00:	15 c0       	rjmp	.+42     	; 0x1e2c <usart_set_baudrate+0x82>

	if (!((usart)->CTRLB & USART_CLK2X_bm)) {
		max_rate /= 2;
    1e02:	d9 01       	movw	r26, r18
    1e04:	c8 01       	movw	r24, r16
    1e06:	68 94       	set
    1e08:	13 f8       	bld	r1, 3
    1e0a:	b6 95       	lsr	r27
    1e0c:	a7 95       	ror	r26
    1e0e:	97 95       	ror	r25
    1e10:	87 95       	ror	r24
    1e12:	16 94       	lsr	r1
    1e14:	d1 f7       	brne	.-12     	; 0x1e0a <usart_set_baudrate+0x60>
		min_rate /= 2;
    1e16:	b9 01       	movw	r22, r18
    1e18:	a8 01       	movw	r20, r16
    1e1a:	03 2e       	mov	r0, r19
    1e1c:	37 e1       	ldi	r19, 0x17	; 23
    1e1e:	76 95       	lsr	r23
    1e20:	67 95       	ror	r22
    1e22:	57 95       	ror	r21
    1e24:	47 95       	ror	r20
    1e26:	3a 95       	dec	r19
    1e28:	d1 f7       	brne	.-12     	; 0x1e1e <usart_set_baudrate+0x74>
    1e2a:	30 2d       	mov	r19, r0
	}

	if ((baud > max_rate) || (baud < min_rate)) {
    1e2c:	88 15       	cp	r24, r8
    1e2e:	99 05       	cpc	r25, r9
    1e30:	aa 05       	cpc	r26, r10
    1e32:	bb 05       	cpc	r27, r11
    1e34:	08 f4       	brcc	.+2      	; 0x1e38 <usart_set_baudrate+0x8e>
    1e36:	a6 c0       	rjmp	.+332    	; 0x1f84 <usart_set_baudrate+0x1da>
    1e38:	84 16       	cp	r8, r20
    1e3a:	95 06       	cpc	r9, r21
    1e3c:	a6 06       	cpc	r10, r22
    1e3e:	b7 06       	cpc	r11, r23
    1e40:	08 f4       	brcc	.+2      	; 0x1e44 <usart_set_baudrate+0x9a>
    1e42:	a2 c0       	rjmp	.+324    	; 0x1f88 <usart_set_baudrate+0x1de>
		return false;
	}

	/* Check if double speed is enabled. */
	if (!((usart)->CTRLB & USART_CLK2X_bm)) {
    1e44:	f7 01       	movw	r30, r14
    1e46:	84 81       	ldd	r24, Z+4	; 0x04
    1e48:	82 fd       	sbrc	r24, 2
    1e4a:	04 c0       	rjmp	.+8      	; 0x1e54 <usart_set_baudrate+0xaa>
		baud *= 2;
    1e4c:	88 0c       	add	r8, r8
    1e4e:	99 1c       	adc	r9, r9
    1e50:	aa 1c       	adc	r10, r10
    1e52:	bb 1c       	adc	r11, r11
	}

	/* Find the lowest possible exponent. */
	limit = 0xfffU >> 4;
	ratio = cpu_hz / baud;
    1e54:	c3 01       	movw	r24, r6
    1e56:	b2 01       	movw	r22, r4
    1e58:	a5 01       	movw	r20, r10
    1e5a:	94 01       	movw	r18, r8
    1e5c:	0e 94 47 20 	call	0x408e	; 0x408e <__udivmodsi4>

	for (exp = -7; exp < 7; exp++) {
		if (ratio < limit) {
    1e60:	2f 3f       	cpi	r18, 0xFF	; 255
    1e62:	31 05       	cpc	r19, r1
    1e64:	41 05       	cpc	r20, r1
    1e66:	51 05       	cpc	r21, r1
    1e68:	08 f4       	brcc	.+2      	; 0x1e6c <usart_set_baudrate+0xc2>
    1e6a:	90 c0       	rjmp	.+288    	; 0x1f8c <usart_set_baudrate+0x1e2>
    1e6c:	8f ef       	ldi	r24, 0xFF	; 255
    1e6e:	90 e0       	ldi	r25, 0x00	; 0
    1e70:	a0 e0       	ldi	r26, 0x00	; 0
    1e72:	b0 e0       	ldi	r27, 0x00	; 0
    1e74:	c9 ef       	ldi	r28, 0xF9	; 249
    1e76:	05 c0       	rjmp	.+10     	; 0x1e82 <usart_set_baudrate+0xd8>
    1e78:	28 17       	cp	r18, r24
    1e7a:	39 07       	cpc	r19, r25
    1e7c:	4a 07       	cpc	r20, r26
    1e7e:	5b 07       	cpc	r21, r27
    1e80:	58 f0       	brcs	.+22     	; 0x1e98 <usart_set_baudrate+0xee>
			break;
		}

		limit <<= 1;
    1e82:	88 0f       	add	r24, r24
    1e84:	99 1f       	adc	r25, r25
    1e86:	aa 1f       	adc	r26, r26
    1e88:	bb 1f       	adc	r27, r27

		if (exp < -3) {
    1e8a:	cd 3f       	cpi	r28, 0xFD	; 253
    1e8c:	0c f4       	brge	.+2      	; 0x1e90 <usart_set_baudrate+0xe6>
			limit |= 1;
    1e8e:	81 60       	ori	r24, 0x01	; 1
    1e90:	cf 5f       	subi	r28, 0xFF	; 255

	/* Find the lowest possible exponent. */
	limit = 0xfffU >> 4;
	ratio = cpu_hz / baud;

	for (exp = -7; exp < 7; exp++) {
    1e92:	c7 30       	cpi	r28, 0x07	; 7
    1e94:	89 f7       	brne	.-30     	; 0x1e78 <usart_set_baudrate+0xce>
    1e96:	4f c0       	rjmp	.+158    	; 0x1f36 <usart_set_baudrate+0x18c>
	 * point.
	 *
	 * The formula for calculating BSEL is slightly different when exp is
	 * negative than it is when exp is positive.
	 */
	if (exp < 0) {
    1e98:	cc 23       	and	r28, r28
    1e9a:	0c f0       	brlt	.+2      	; 0x1e9e <usart_set_baudrate+0xf4>
    1e9c:	4c c0       	rjmp	.+152    	; 0x1f36 <usart_set_baudrate+0x18c>
		/* We are supposed to subtract 1, then apply BSCALE. We want to
		 * apply BSCALE first, so we need to turn everything inside the
		 * parenthesis into a single fractional expression.
		 */
		cpu_hz -= 8 * baud;
    1e9e:	d5 01       	movw	r26, r10
    1ea0:	c4 01       	movw	r24, r8
    1ea2:	88 0f       	add	r24, r24
    1ea4:	99 1f       	adc	r25, r25
    1ea6:	aa 1f       	adc	r26, r26
    1ea8:	bb 1f       	adc	r27, r27
    1eaa:	88 0f       	add	r24, r24
    1eac:	99 1f       	adc	r25, r25
    1eae:	aa 1f       	adc	r26, r26
    1eb0:	bb 1f       	adc	r27, r27
    1eb2:	88 0f       	add	r24, r24
    1eb4:	99 1f       	adc	r25, r25
    1eb6:	aa 1f       	adc	r26, r26
    1eb8:	bb 1f       	adc	r27, r27
    1eba:	48 1a       	sub	r4, r24
    1ebc:	59 0a       	sbc	r5, r25
    1ebe:	6a 0a       	sbc	r6, r26
    1ec0:	7b 0a       	sbc	r7, r27
		/* If we end up with a left-shift after taking the final
		 * divide-by-8 into account, do the shift before the divide.
		 * Otherwise, left-shift the denominator instead (effectively
		 * resulting in an overall right shift.)
		 */
		if (exp <= -3) {
    1ec2:	ce 3f       	cpi	r28, 0xFE	; 254
    1ec4:	f4 f4       	brge	.+60     	; 0x1f02 <usart_set_baudrate+0x158>
			div = ((cpu_hz << (-exp - 3)) + baud / 2) / baud;
    1ec6:	8d ef       	ldi	r24, 0xFD	; 253
    1ec8:	9f ef       	ldi	r25, 0xFF	; 255
    1eca:	8c 1b       	sub	r24, r28
    1ecc:	91 09       	sbc	r25, r1
    1ece:	c7 fd       	sbrc	r28, 7
    1ed0:	93 95       	inc	r25
    1ed2:	04 c0       	rjmp	.+8      	; 0x1edc <usart_set_baudrate+0x132>
    1ed4:	44 0c       	add	r4, r4
    1ed6:	55 1c       	adc	r5, r5
    1ed8:	66 1c       	adc	r6, r6
    1eda:	77 1c       	adc	r7, r7
    1edc:	8a 95       	dec	r24
    1ede:	d2 f7       	brpl	.-12     	; 0x1ed4 <usart_set_baudrate+0x12a>
    1ee0:	d5 01       	movw	r26, r10
    1ee2:	c4 01       	movw	r24, r8
    1ee4:	b6 95       	lsr	r27
    1ee6:	a7 95       	ror	r26
    1ee8:	97 95       	ror	r25
    1eea:	87 95       	ror	r24
    1eec:	bc 01       	movw	r22, r24
    1eee:	cd 01       	movw	r24, r26
    1ef0:	64 0d       	add	r22, r4
    1ef2:	75 1d       	adc	r23, r5
    1ef4:	86 1d       	adc	r24, r6
    1ef6:	97 1d       	adc	r25, r7
    1ef8:	a5 01       	movw	r20, r10
    1efa:	94 01       	movw	r18, r8
    1efc:	0e 94 47 20 	call	0x408e	; 0x408e <__udivmodsi4>
    1f00:	37 c0       	rjmp	.+110    	; 0x1f70 <usart_set_baudrate+0x1c6>
		} else {
			baud <<= exp + 3;
    1f02:	83 e0       	ldi	r24, 0x03	; 3
    1f04:	8c 0f       	add	r24, r28
    1f06:	a5 01       	movw	r20, r10
    1f08:	94 01       	movw	r18, r8
    1f0a:	04 c0       	rjmp	.+8      	; 0x1f14 <usart_set_baudrate+0x16a>
    1f0c:	22 0f       	add	r18, r18
    1f0e:	33 1f       	adc	r19, r19
    1f10:	44 1f       	adc	r20, r20
    1f12:	55 1f       	adc	r21, r21
    1f14:	8a 95       	dec	r24
    1f16:	d2 f7       	brpl	.-12     	; 0x1f0c <usart_set_baudrate+0x162>
			div = (cpu_hz + baud / 2) / baud;
    1f18:	da 01       	movw	r26, r20
    1f1a:	c9 01       	movw	r24, r18
    1f1c:	b6 95       	lsr	r27
    1f1e:	a7 95       	ror	r26
    1f20:	97 95       	ror	r25
    1f22:	87 95       	ror	r24
    1f24:	bc 01       	movw	r22, r24
    1f26:	cd 01       	movw	r24, r26
    1f28:	64 0d       	add	r22, r4
    1f2a:	75 1d       	adc	r23, r5
    1f2c:	86 1d       	adc	r24, r6
    1f2e:	97 1d       	adc	r25, r7
    1f30:	0e 94 47 20 	call	0x408e	; 0x408e <__udivmodsi4>
    1f34:	1d c0       	rjmp	.+58     	; 0x1f70 <usart_set_baudrate+0x1c6>
		}
	} else {
		/* We will always do a right shift in this case, but we need to
		 * shift three extra positions because of the divide-by-8.
		 */
		baud <<= exp + 3;
    1f36:	83 e0       	ldi	r24, 0x03	; 3
    1f38:	8c 0f       	add	r24, r28
    1f3a:	a5 01       	movw	r20, r10
    1f3c:	94 01       	movw	r18, r8
    1f3e:	04 c0       	rjmp	.+8      	; 0x1f48 <usart_set_baudrate+0x19e>
    1f40:	22 0f       	add	r18, r18
    1f42:	33 1f       	adc	r19, r19
    1f44:	44 1f       	adc	r20, r20
    1f46:	55 1f       	adc	r21, r21
    1f48:	8a 95       	dec	r24
    1f4a:	d2 f7       	brpl	.-12     	; 0x1f40 <usart_set_baudrate+0x196>
		div = (cpu_hz + baud / 2) / baud - 1;
    1f4c:	da 01       	movw	r26, r20
    1f4e:	c9 01       	movw	r24, r18
    1f50:	b6 95       	lsr	r27
    1f52:	a7 95       	ror	r26
    1f54:	97 95       	ror	r25
    1f56:	87 95       	ror	r24
    1f58:	bc 01       	movw	r22, r24
    1f5a:	cd 01       	movw	r24, r26
    1f5c:	64 0d       	add	r22, r4
    1f5e:	75 1d       	adc	r23, r5
    1f60:	86 1d       	adc	r24, r6
    1f62:	97 1d       	adc	r25, r7
    1f64:	0e 94 47 20 	call	0x408e	; 0x408e <__udivmodsi4>
    1f68:	21 50       	subi	r18, 0x01	; 1
    1f6a:	31 09       	sbc	r19, r1
    1f6c:	41 09       	sbc	r20, r1
    1f6e:	51 09       	sbc	r21, r1
	}

	(usart)->BAUDCTRLB = (uint8_t)(((div >> 8) & 0X0F) | (exp << 4));
    1f70:	83 2f       	mov	r24, r19
    1f72:	8f 70       	andi	r24, 0x0F	; 15
    1f74:	c2 95       	swap	r28
    1f76:	c0 7f       	andi	r28, 0xF0	; 240
    1f78:	c8 2b       	or	r28, r24
    1f7a:	f7 01       	movw	r30, r14
    1f7c:	c7 83       	std	Z+7, r28	; 0x07
	(usart)->BAUDCTRLA = (uint8_t)div;
    1f7e:	26 83       	std	Z+6, r18	; 0x06

	return true;
    1f80:	81 e0       	ldi	r24, 0x01	; 1
    1f82:	18 c0       	rjmp	.+48     	; 0x1fb4 <usart_set_baudrate+0x20a>
		max_rate /= 2;
		min_rate /= 2;
	}

	if ((baud > max_rate) || (baud < min_rate)) {
		return false;
    1f84:	80 e0       	ldi	r24, 0x00	; 0
    1f86:	16 c0       	rjmp	.+44     	; 0x1fb4 <usart_set_baudrate+0x20a>
    1f88:	80 e0       	ldi	r24, 0x00	; 0
    1f8a:	14 c0       	rjmp	.+40     	; 0x1fb4 <usart_set_baudrate+0x20a>
	if (exp < 0) {
		/* We are supposed to subtract 1, then apply BSCALE. We want to
		 * apply BSCALE first, so we need to turn everything inside the
		 * parenthesis into a single fractional expression.
		 */
		cpu_hz -= 8 * baud;
    1f8c:	d5 01       	movw	r26, r10
    1f8e:	c4 01       	movw	r24, r8
    1f90:	88 0f       	add	r24, r24
    1f92:	99 1f       	adc	r25, r25
    1f94:	aa 1f       	adc	r26, r26
    1f96:	bb 1f       	adc	r27, r27
    1f98:	88 0f       	add	r24, r24
    1f9a:	99 1f       	adc	r25, r25
    1f9c:	aa 1f       	adc	r26, r26
    1f9e:	bb 1f       	adc	r27, r27
    1fa0:	88 0f       	add	r24, r24
    1fa2:	99 1f       	adc	r25, r25
    1fa4:	aa 1f       	adc	r26, r26
    1fa6:	bb 1f       	adc	r27, r27
    1fa8:	48 1a       	sub	r4, r24
    1faa:	59 0a       	sbc	r5, r25
    1fac:	6a 0a       	sbc	r6, r26
    1fae:	7b 0a       	sbc	r7, r27

	/* Find the lowest possible exponent. */
	limit = 0xfffU >> 4;
	ratio = cpu_hz / baud;

	for (exp = -7; exp < 7; exp++) {
    1fb0:	c9 ef       	ldi	r28, 0xF9	; 249
    1fb2:	89 cf       	rjmp	.-238    	; 0x1ec6 <usart_set_baudrate+0x11c>

	(usart)->BAUDCTRLB = (uint8_t)(((div >> 8) & 0X0F) | (exp << 4));
	(usart)->BAUDCTRLA = (uint8_t)div;

	return true;
}
    1fb4:	cf 91       	pop	r28
    1fb6:	1f 91       	pop	r17
    1fb8:	0f 91       	pop	r16
    1fba:	ff 90       	pop	r15
    1fbc:	ef 90       	pop	r14
    1fbe:	bf 90       	pop	r11
    1fc0:	af 90       	pop	r10
    1fc2:	9f 90       	pop	r9
    1fc4:	8f 90       	pop	r8
    1fc6:	7f 90       	pop	r7
    1fc8:	6f 90       	pop	r6
    1fca:	5f 90       	pop	r5
    1fcc:	4f 90       	pop	r4
    1fce:	08 95       	ret

00001fd0 <usart_init_rs232>:
 *
 * \retval true if the initialization was successfull
 * \retval false if the initialization failed (error in baud rate calculation)
 */
bool usart_init_rs232(USART_t *usart, const usart_rs232_options_t *opt)
{
    1fd0:	0f 93       	push	r16
    1fd2:	1f 93       	push	r17
    1fd4:	cf 93       	push	r28
    1fd6:	df 93       	push	r29
    1fd8:	ec 01       	movw	r28, r24
    1fda:	8b 01       	movw	r16, r22
 *
 * \param module Pointer to the module's base address.
 */
static inline void sysclk_enable_peripheral_clock(const volatile void *module)
{
	if (module == NULL) {
    1fdc:	00 97       	sbiw	r24, 0x00	; 0
    1fde:	09 f4       	brne	.+2      	; 0x1fe2 <usart_init_rs232+0x12>
    1fe0:	5d c1       	rjmp	.+698    	; 0x229c <usart_init_rs232+0x2cc>
		Assert(false);
	}
#ifdef AES
	else if (module == &AES) {
    1fe2:	80 3c       	cpi	r24, 0xC0	; 192
    1fe4:	91 05       	cpc	r25, r1
    1fe6:	29 f4       	brne	.+10     	; 0x1ff2 <usart_init_rs232+0x22>
		sysclk_enable_module(SYSCLK_PORT_GEN, SYSCLK_AES);
    1fe8:	60 e1       	ldi	r22, 0x10	; 16
    1fea:	80 e0       	ldi	r24, 0x00	; 0
    1fec:	0e 94 ce 03 	call	0x79c	; 0x79c <sysclk_enable_module>
    1ff0:	55 c1       	rjmp	.+682    	; 0x229c <usart_init_rs232+0x2cc>
	}
#endif
#ifdef EBI
	else if (module == &EBI) {
    1ff2:	c0 34       	cpi	r28, 0x40	; 64
    1ff4:	84 e0       	ldi	r24, 0x04	; 4
    1ff6:	d8 07       	cpc	r29, r24
    1ff8:	29 f4       	brne	.+10     	; 0x2004 <usart_init_rs232+0x34>
		sysclk_enable_module(SYSCLK_PORT_GEN, SYSCLK_EBI);
    1ffa:	68 e0       	ldi	r22, 0x08	; 8
    1ffc:	80 e0       	ldi	r24, 0x00	; 0
    1ffe:	0e 94 ce 03 	call	0x79c	; 0x79c <sysclk_enable_module>
    2002:	4c c1       	rjmp	.+664    	; 0x229c <usart_init_rs232+0x2cc>
	}
#endif
#ifdef RTC
	else if (module == &RTC) {
    2004:	c1 15       	cp	r28, r1
    2006:	e4 e0       	ldi	r30, 0x04	; 4
    2008:	de 07       	cpc	r29, r30
    200a:	29 f4       	brne	.+10     	; 0x2016 <usart_init_rs232+0x46>
		sysclk_enable_module(SYSCLK_PORT_GEN, SYSCLK_RTC);
    200c:	64 e0       	ldi	r22, 0x04	; 4
    200e:	80 e0       	ldi	r24, 0x00	; 0
    2010:	0e 94 ce 03 	call	0x79c	; 0x79c <sysclk_enable_module>
    2014:	43 c1       	rjmp	.+646    	; 0x229c <usart_init_rs232+0x2cc>
	}
#endif
#ifdef EVSYS
	else if (module == &EVSYS) {
    2016:	c0 38       	cpi	r28, 0x80	; 128
    2018:	f1 e0       	ldi	r31, 0x01	; 1
    201a:	df 07       	cpc	r29, r31
    201c:	29 f4       	brne	.+10     	; 0x2028 <usart_init_rs232+0x58>
		sysclk_enable_module(SYSCLK_PORT_GEN, SYSCLK_EVSYS);
    201e:	62 e0       	ldi	r22, 0x02	; 2
    2020:	80 e0       	ldi	r24, 0x00	; 0
    2022:	0e 94 ce 03 	call	0x79c	; 0x79c <sysclk_enable_module>
    2026:	3a c1       	rjmp	.+628    	; 0x229c <usart_init_rs232+0x2cc>
	}
#endif
#ifdef DMA
	else if (module == &DMA) {
    2028:	c1 15       	cp	r28, r1
    202a:	81 e0       	ldi	r24, 0x01	; 1
    202c:	d8 07       	cpc	r29, r24
    202e:	29 f4       	brne	.+10     	; 0x203a <usart_init_rs232+0x6a>
		sysclk_enable_module(SYSCLK_PORT_GEN, SYSCLK_DMA);
    2030:	61 e0       	ldi	r22, 0x01	; 1
    2032:	80 e0       	ldi	r24, 0x00	; 0
    2034:	0e 94 ce 03 	call	0x79c	; 0x79c <sysclk_enable_module>
    2038:	31 c1       	rjmp	.+610    	; 0x229c <usart_init_rs232+0x2cc>
	else if (module == &EDMA) {
		sysclk_enable_module(SYSCLK_PORT_GEN, SYSCLK_EDMA);
	}
#endif
#ifdef ACA
	else if (module == &ACA) {
    203a:	c0 38       	cpi	r28, 0x80	; 128
    203c:	e3 e0       	ldi	r30, 0x03	; 3
    203e:	de 07       	cpc	r29, r30
    2040:	29 f4       	brne	.+10     	; 0x204c <usart_init_rs232+0x7c>
		sysclk_enable_module(SYSCLK_PORT_A, SYSCLK_AC);
    2042:	61 e0       	ldi	r22, 0x01	; 1
    2044:	81 e0       	ldi	r24, 0x01	; 1
    2046:	0e 94 ce 03 	call	0x79c	; 0x79c <sysclk_enable_module>
    204a:	28 c1       	rjmp	.+592    	; 0x229c <usart_init_rs232+0x2cc>
	}
#endif
#ifdef ACB
	else if (module == &ACB) {
    204c:	c0 39       	cpi	r28, 0x90	; 144
    204e:	f3 e0       	ldi	r31, 0x03	; 3
    2050:	df 07       	cpc	r29, r31
    2052:	29 f4       	brne	.+10     	; 0x205e <usart_init_rs232+0x8e>
		sysclk_enable_module(SYSCLK_PORT_B, SYSCLK_AC);
    2054:	61 e0       	ldi	r22, 0x01	; 1
    2056:	82 e0       	ldi	r24, 0x02	; 2
    2058:	0e 94 ce 03 	call	0x79c	; 0x79c <sysclk_enable_module>
    205c:	1f c1       	rjmp	.+574    	; 0x229c <usart_init_rs232+0x2cc>
	}
#endif
#ifdef ADCA
	else if (module == &ADCA) {
    205e:	c1 15       	cp	r28, r1
    2060:	82 e0       	ldi	r24, 0x02	; 2
    2062:	d8 07       	cpc	r29, r24
    2064:	29 f4       	brne	.+10     	; 0x2070 <usart_init_rs232+0xa0>
		sysclk_enable_module(SYSCLK_PORT_A, SYSCLK_ADC);
    2066:	62 e0       	ldi	r22, 0x02	; 2
    2068:	81 e0       	ldi	r24, 0x01	; 1
    206a:	0e 94 ce 03 	call	0x79c	; 0x79c <sysclk_enable_module>
    206e:	16 c1       	rjmp	.+556    	; 0x229c <usart_init_rs232+0x2cc>
	}
#endif
#ifdef ADCB
	else if (module == &ADCB) {
    2070:	c0 34       	cpi	r28, 0x40	; 64
    2072:	e2 e0       	ldi	r30, 0x02	; 2
    2074:	de 07       	cpc	r29, r30
    2076:	29 f4       	brne	.+10     	; 0x2082 <usart_init_rs232+0xb2>
		sysclk_enable_module(SYSCLK_PORT_B, SYSCLK_ADC);
    2078:	62 e0       	ldi	r22, 0x02	; 2
    207a:	82 e0       	ldi	r24, 0x02	; 2
    207c:	0e 94 ce 03 	call	0x79c	; 0x79c <sysclk_enable_module>
    2080:	0d c1       	rjmp	.+538    	; 0x229c <usart_init_rs232+0x2cc>
	}
#endif
#ifdef DACA
	else if (module == &DACA) {
    2082:	c1 15       	cp	r28, r1
    2084:	f3 e0       	ldi	r31, 0x03	; 3
    2086:	df 07       	cpc	r29, r31
    2088:	29 f4       	brne	.+10     	; 0x2094 <usart_init_rs232+0xc4>
		sysclk_enable_module(SYSCLK_PORT_A, SYSCLK_DAC);
    208a:	64 e0       	ldi	r22, 0x04	; 4
    208c:	81 e0       	ldi	r24, 0x01	; 1
    208e:	0e 94 ce 03 	call	0x79c	; 0x79c <sysclk_enable_module>
    2092:	04 c1       	rjmp	.+520    	; 0x229c <usart_init_rs232+0x2cc>
	}
#endif
// Workaround for bad XMEGA D header file
#if !XMEGA_D
#ifdef DACB
	else if (module == &DACB) {
    2094:	c0 32       	cpi	r28, 0x20	; 32
    2096:	83 e0       	ldi	r24, 0x03	; 3
    2098:	d8 07       	cpc	r29, r24
    209a:	29 f4       	brne	.+10     	; 0x20a6 <usart_init_rs232+0xd6>
		sysclk_enable_module(SYSCLK_PORT_B, SYSCLK_DAC);
    209c:	64 e0       	ldi	r22, 0x04	; 4
    209e:	82 e0       	ldi	r24, 0x02	; 2
    20a0:	0e 94 ce 03 	call	0x79c	; 0x79c <sysclk_enable_module>
    20a4:	fb c0       	rjmp	.+502    	; 0x229c <usart_init_rs232+0x2cc>
	}
#endif
#endif // Workaround end
#ifdef TCC0
	else if (module == &TCC0) {
    20a6:	c1 15       	cp	r28, r1
    20a8:	e8 e0       	ldi	r30, 0x08	; 8
    20aa:	de 07       	cpc	r29, r30
    20ac:	29 f4       	brne	.+10     	; 0x20b8 <usart_init_rs232+0xe8>
		sysclk_enable_module(SYSCLK_PORT_C, SYSCLK_TC0);
    20ae:	61 e0       	ldi	r22, 0x01	; 1
    20b0:	83 e0       	ldi	r24, 0x03	; 3
    20b2:	0e 94 ce 03 	call	0x79c	; 0x79c <sysclk_enable_module>
    20b6:	f2 c0       	rjmp	.+484    	; 0x229c <usart_init_rs232+0x2cc>
	}
#endif
#ifdef TCD0
	else if (module == &TCD0) {
    20b8:	c1 15       	cp	r28, r1
    20ba:	f9 e0       	ldi	r31, 0x09	; 9
    20bc:	df 07       	cpc	r29, r31
    20be:	29 f4       	brne	.+10     	; 0x20ca <usart_init_rs232+0xfa>
		sysclk_enable_module(SYSCLK_PORT_D, SYSCLK_TC0);
    20c0:	61 e0       	ldi	r22, 0x01	; 1
    20c2:	84 e0       	ldi	r24, 0x04	; 4
    20c4:	0e 94 ce 03 	call	0x79c	; 0x79c <sysclk_enable_module>
    20c8:	e9 c0       	rjmp	.+466    	; 0x229c <usart_init_rs232+0x2cc>
	}
#endif
#ifdef TCE0
	else if (module == &TCE0) {
    20ca:	c1 15       	cp	r28, r1
    20cc:	8a e0       	ldi	r24, 0x0A	; 10
    20ce:	d8 07       	cpc	r29, r24
    20d0:	29 f4       	brne	.+10     	; 0x20dc <usart_init_rs232+0x10c>
		sysclk_enable_module(SYSCLK_PORT_E, SYSCLK_TC0);
    20d2:	61 e0       	ldi	r22, 0x01	; 1
    20d4:	85 e0       	ldi	r24, 0x05	; 5
    20d6:	0e 94 ce 03 	call	0x79c	; 0x79c <sysclk_enable_module>
    20da:	e0 c0       	rjmp	.+448    	; 0x229c <usart_init_rs232+0x2cc>
	}
#endif
#ifdef TCF0
	else if (module == &TCF0) {
    20dc:	c1 15       	cp	r28, r1
    20de:	eb e0       	ldi	r30, 0x0B	; 11
    20e0:	de 07       	cpc	r29, r30
    20e2:	29 f4       	brne	.+10     	; 0x20ee <usart_init_rs232+0x11e>
		sysclk_enable_module(SYSCLK_PORT_F, SYSCLK_TC0);
    20e4:	61 e0       	ldi	r22, 0x01	; 1
    20e6:	86 e0       	ldi	r24, 0x06	; 6
    20e8:	0e 94 ce 03 	call	0x79c	; 0x79c <sysclk_enable_module>
    20ec:	d7 c0       	rjmp	.+430    	; 0x229c <usart_init_rs232+0x2cc>
	}
#endif
#ifdef TCC1
	else if (module == &TCC1) {
    20ee:	c0 34       	cpi	r28, 0x40	; 64
    20f0:	f8 e0       	ldi	r31, 0x08	; 8
    20f2:	df 07       	cpc	r29, r31
    20f4:	29 f4       	brne	.+10     	; 0x2100 <usart_init_rs232+0x130>
		sysclk_enable_module(SYSCLK_PORT_C, SYSCLK_TC1);
    20f6:	62 e0       	ldi	r22, 0x02	; 2
    20f8:	83 e0       	ldi	r24, 0x03	; 3
    20fa:	0e 94 ce 03 	call	0x79c	; 0x79c <sysclk_enable_module>
    20fe:	ce c0       	rjmp	.+412    	; 0x229c <usart_init_rs232+0x2cc>
	}
#endif
#ifdef TCD1
	else if (module == &TCD1) {
    2100:	c0 34       	cpi	r28, 0x40	; 64
    2102:	89 e0       	ldi	r24, 0x09	; 9
    2104:	d8 07       	cpc	r29, r24
    2106:	29 f4       	brne	.+10     	; 0x2112 <usart_init_rs232+0x142>
		sysclk_enable_module(SYSCLK_PORT_D, SYSCLK_TC1);
    2108:	62 e0       	ldi	r22, 0x02	; 2
    210a:	84 e0       	ldi	r24, 0x04	; 4
    210c:	0e 94 ce 03 	call	0x79c	; 0x79c <sysclk_enable_module>
    2110:	c5 c0       	rjmp	.+394    	; 0x229c <usart_init_rs232+0x2cc>
	}
#endif
#ifdef TCE1
	else if (module == &TCE1) {
    2112:	c0 34       	cpi	r28, 0x40	; 64
    2114:	ea e0       	ldi	r30, 0x0A	; 10
    2116:	de 07       	cpc	r29, r30
    2118:	29 f4       	brne	.+10     	; 0x2124 <usart_init_rs232+0x154>
		sysclk_enable_module(SYSCLK_PORT_E, SYSCLK_TC1);
    211a:	62 e0       	ldi	r22, 0x02	; 2
    211c:	85 e0       	ldi	r24, 0x05	; 5
    211e:	0e 94 ce 03 	call	0x79c	; 0x79c <sysclk_enable_module>
    2122:	bc c0       	rjmp	.+376    	; 0x229c <usart_init_rs232+0x2cc>
	}
#endif
#ifdef TCF1
	else if (module == &TCF1) {
    2124:	c0 34       	cpi	r28, 0x40	; 64
    2126:	fb e0       	ldi	r31, 0x0B	; 11
    2128:	df 07       	cpc	r29, r31
    212a:	29 f4       	brne	.+10     	; 0x2136 <usart_init_rs232+0x166>
		sysclk_enable_module(SYSCLK_PORT_F, SYSCLK_TC1);
    212c:	62 e0       	ldi	r22, 0x02	; 2
    212e:	86 e0       	ldi	r24, 0x06	; 6
    2130:	0e 94 ce 03 	call	0x79c	; 0x79c <sysclk_enable_module>
    2134:	b3 c0       	rjmp	.+358    	; 0x229c <usart_init_rs232+0x2cc>
	else if (module == &TCD5) {
		sysclk_enable_module(SYSCLK_PORT_D, SYSCLK_TC5);
	}
#endif
#ifdef HIRESC
	else if (module == &HIRESC) {
    2136:	c0 39       	cpi	r28, 0x90	; 144
    2138:	88 e0       	ldi	r24, 0x08	; 8
    213a:	d8 07       	cpc	r29, r24
    213c:	29 f4       	brne	.+10     	; 0x2148 <usart_init_rs232+0x178>
			sysclk_enable_module(SYSCLK_PORT_C, SYSCLK_HIRES);
    213e:	64 e0       	ldi	r22, 0x04	; 4
    2140:	83 e0       	ldi	r24, 0x03	; 3
    2142:	0e 94 ce 03 	call	0x79c	; 0x79c <sysclk_enable_module>
    2146:	aa c0       	rjmp	.+340    	; 0x229c <usart_init_rs232+0x2cc>
	}
#endif
#ifdef HIRESD
	else if (module == &HIRESD) {
    2148:	c0 39       	cpi	r28, 0x90	; 144
    214a:	e9 e0       	ldi	r30, 0x09	; 9
    214c:	de 07       	cpc	r29, r30
    214e:	29 f4       	brne	.+10     	; 0x215a <usart_init_rs232+0x18a>
		sysclk_enable_module(SYSCLK_PORT_D, SYSCLK_HIRES);
    2150:	64 e0       	ldi	r22, 0x04	; 4
    2152:	84 e0       	ldi	r24, 0x04	; 4
    2154:	0e 94 ce 03 	call	0x79c	; 0x79c <sysclk_enable_module>
    2158:	a1 c0       	rjmp	.+322    	; 0x229c <usart_init_rs232+0x2cc>
	}
#endif
#ifdef HIRESE
	else if (module == &HIRESE) {
    215a:	c0 39       	cpi	r28, 0x90	; 144
    215c:	fa e0       	ldi	r31, 0x0A	; 10
    215e:	df 07       	cpc	r29, r31
    2160:	29 f4       	brne	.+10     	; 0x216c <usart_init_rs232+0x19c>
		sysclk_enable_module(SYSCLK_PORT_E, SYSCLK_HIRES);
    2162:	64 e0       	ldi	r22, 0x04	; 4
    2164:	85 e0       	ldi	r24, 0x05	; 5
    2166:	0e 94 ce 03 	call	0x79c	; 0x79c <sysclk_enable_module>
    216a:	98 c0       	rjmp	.+304    	; 0x229c <usart_init_rs232+0x2cc>
	}
#endif
#ifdef HIRESF
	else if (module == &HIRESF) {
    216c:	c0 39       	cpi	r28, 0x90	; 144
    216e:	8b e0       	ldi	r24, 0x0B	; 11
    2170:	d8 07       	cpc	r29, r24
    2172:	29 f4       	brne	.+10     	; 0x217e <usart_init_rs232+0x1ae>
		sysclk_enable_module(SYSCLK_PORT_F, SYSCLK_HIRES);
    2174:	64 e0       	ldi	r22, 0x04	; 4
    2176:	86 e0       	ldi	r24, 0x06	; 6
    2178:	0e 94 ce 03 	call	0x79c	; 0x79c <sysclk_enable_module>
    217c:	8f c0       	rjmp	.+286    	; 0x229c <usart_init_rs232+0x2cc>
	}
#endif
#ifdef SPIC
	else if (module == &SPIC) {
    217e:	c0 3c       	cpi	r28, 0xC0	; 192
    2180:	e8 e0       	ldi	r30, 0x08	; 8
    2182:	de 07       	cpc	r29, r30
    2184:	29 f4       	brne	.+10     	; 0x2190 <usart_init_rs232+0x1c0>
		sysclk_enable_module(SYSCLK_PORT_C, SYSCLK_SPI);
    2186:	68 e0       	ldi	r22, 0x08	; 8
    2188:	83 e0       	ldi	r24, 0x03	; 3
    218a:	0e 94 ce 03 	call	0x79c	; 0x79c <sysclk_enable_module>
    218e:	86 c0       	rjmp	.+268    	; 0x229c <usart_init_rs232+0x2cc>
	}
#endif
#ifdef SPID
	else if (module == &SPID) {
    2190:	c0 3c       	cpi	r28, 0xC0	; 192
    2192:	f9 e0       	ldi	r31, 0x09	; 9
    2194:	df 07       	cpc	r29, r31
    2196:	29 f4       	brne	.+10     	; 0x21a2 <usart_init_rs232+0x1d2>
		sysclk_enable_module(SYSCLK_PORT_D, SYSCLK_SPI);
    2198:	68 e0       	ldi	r22, 0x08	; 8
    219a:	84 e0       	ldi	r24, 0x04	; 4
    219c:	0e 94 ce 03 	call	0x79c	; 0x79c <sysclk_enable_module>
    21a0:	7d c0       	rjmp	.+250    	; 0x229c <usart_init_rs232+0x2cc>
	}
#endif
#ifdef SPIE
	else if (module == &SPIE) {
    21a2:	c0 3c       	cpi	r28, 0xC0	; 192
    21a4:	8a e0       	ldi	r24, 0x0A	; 10
    21a6:	d8 07       	cpc	r29, r24
    21a8:	29 f4       	brne	.+10     	; 0x21b4 <usart_init_rs232+0x1e4>
		sysclk_enable_module(SYSCLK_PORT_E, SYSCLK_SPI);
    21aa:	68 e0       	ldi	r22, 0x08	; 8
    21ac:	85 e0       	ldi	r24, 0x05	; 5
    21ae:	0e 94 ce 03 	call	0x79c	; 0x79c <sysclk_enable_module>
    21b2:	74 c0       	rjmp	.+232    	; 0x229c <usart_init_rs232+0x2cc>
	}
#endif
#ifdef SPIF
	else if (module == &SPIF) {
    21b4:	c0 3c       	cpi	r28, 0xC0	; 192
    21b6:	eb e0       	ldi	r30, 0x0B	; 11
    21b8:	de 07       	cpc	r29, r30
    21ba:	29 f4       	brne	.+10     	; 0x21c6 <usart_init_rs232+0x1f6>
		sysclk_enable_module(SYSCLK_PORT_F, SYSCLK_SPI);
    21bc:	68 e0       	ldi	r22, 0x08	; 8
    21be:	86 e0       	ldi	r24, 0x06	; 6
    21c0:	0e 94 ce 03 	call	0x79c	; 0x79c <sysclk_enable_module>
    21c4:	6b c0       	rjmp	.+214    	; 0x229c <usart_init_rs232+0x2cc>
	}
#endif
#ifdef USARTC0
	else if (module == &USARTC0) {
    21c6:	c0 3a       	cpi	r28, 0xA0	; 160
    21c8:	f8 e0       	ldi	r31, 0x08	; 8
    21ca:	df 07       	cpc	r29, r31
    21cc:	29 f4       	brne	.+10     	; 0x21d8 <usart_init_rs232+0x208>
		sysclk_enable_module(SYSCLK_PORT_C, SYSCLK_USART0);
    21ce:	60 e1       	ldi	r22, 0x10	; 16
    21d0:	83 e0       	ldi	r24, 0x03	; 3
    21d2:	0e 94 ce 03 	call	0x79c	; 0x79c <sysclk_enable_module>
    21d6:	62 c0       	rjmp	.+196    	; 0x229c <usart_init_rs232+0x2cc>
	}
#endif
#ifdef USARTD0
	else if (module == &USARTD0) {
    21d8:	c0 3a       	cpi	r28, 0xA0	; 160
    21da:	89 e0       	ldi	r24, 0x09	; 9
    21dc:	d8 07       	cpc	r29, r24
    21de:	29 f4       	brne	.+10     	; 0x21ea <usart_init_rs232+0x21a>
		sysclk_enable_module(SYSCLK_PORT_D, SYSCLK_USART0);
    21e0:	60 e1       	ldi	r22, 0x10	; 16
    21e2:	84 e0       	ldi	r24, 0x04	; 4
    21e4:	0e 94 ce 03 	call	0x79c	; 0x79c <sysclk_enable_module>
    21e8:	59 c0       	rjmp	.+178    	; 0x229c <usart_init_rs232+0x2cc>
	}
#endif
#ifdef USARTE0
	else if (module == &USARTE0) {
    21ea:	c0 3a       	cpi	r28, 0xA0	; 160
    21ec:	ea e0       	ldi	r30, 0x0A	; 10
    21ee:	de 07       	cpc	r29, r30
    21f0:	29 f4       	brne	.+10     	; 0x21fc <usart_init_rs232+0x22c>
		sysclk_enable_module(SYSCLK_PORT_E, SYSCLK_USART0);
    21f2:	60 e1       	ldi	r22, 0x10	; 16
    21f4:	85 e0       	ldi	r24, 0x05	; 5
    21f6:	0e 94 ce 03 	call	0x79c	; 0x79c <sysclk_enable_module>
    21fa:	50 c0       	rjmp	.+160    	; 0x229c <usart_init_rs232+0x2cc>
	}
#endif
#ifdef USARTF0
	else if (module == &USARTF0) {
    21fc:	c0 3a       	cpi	r28, 0xA0	; 160
    21fe:	fb e0       	ldi	r31, 0x0B	; 11
    2200:	df 07       	cpc	r29, r31
    2202:	29 f4       	brne	.+10     	; 0x220e <usart_init_rs232+0x23e>
		sysclk_enable_module(SYSCLK_PORT_F, SYSCLK_USART0);
    2204:	60 e1       	ldi	r22, 0x10	; 16
    2206:	86 e0       	ldi	r24, 0x06	; 6
    2208:	0e 94 ce 03 	call	0x79c	; 0x79c <sysclk_enable_module>
    220c:	47 c0       	rjmp	.+142    	; 0x229c <usart_init_rs232+0x2cc>
	}
#endif
#ifdef USARTC1
	else if (module == &USARTC1) {
    220e:	c0 3b       	cpi	r28, 0xB0	; 176
    2210:	88 e0       	ldi	r24, 0x08	; 8
    2212:	d8 07       	cpc	r29, r24
    2214:	29 f4       	brne	.+10     	; 0x2220 <usart_init_rs232+0x250>
		sysclk_enable_module(SYSCLK_PORT_C, SYSCLK_USART1);
    2216:	60 e2       	ldi	r22, 0x20	; 32
    2218:	83 e0       	ldi	r24, 0x03	; 3
    221a:	0e 94 ce 03 	call	0x79c	; 0x79c <sysclk_enable_module>
    221e:	3e c0       	rjmp	.+124    	; 0x229c <usart_init_rs232+0x2cc>
	}
#endif
#ifdef USARTD1
	else if (module == &USARTD1) {
    2220:	c0 3b       	cpi	r28, 0xB0	; 176
    2222:	e9 e0       	ldi	r30, 0x09	; 9
    2224:	de 07       	cpc	r29, r30
    2226:	29 f4       	brne	.+10     	; 0x2232 <usart_init_rs232+0x262>
		sysclk_enable_module(SYSCLK_PORT_D, SYSCLK_USART1);
    2228:	60 e2       	ldi	r22, 0x20	; 32
    222a:	84 e0       	ldi	r24, 0x04	; 4
    222c:	0e 94 ce 03 	call	0x79c	; 0x79c <sysclk_enable_module>
    2230:	35 c0       	rjmp	.+106    	; 0x229c <usart_init_rs232+0x2cc>
	}
#endif
#ifdef USARTE1
	else if (module == &USARTE1) {
    2232:	c0 3b       	cpi	r28, 0xB0	; 176
    2234:	fa e0       	ldi	r31, 0x0A	; 10
    2236:	df 07       	cpc	r29, r31
    2238:	29 f4       	brne	.+10     	; 0x2244 <usart_init_rs232+0x274>
		sysclk_enable_module(SYSCLK_PORT_E, SYSCLK_USART1);
    223a:	60 e2       	ldi	r22, 0x20	; 32
    223c:	85 e0       	ldi	r24, 0x05	; 5
    223e:	0e 94 ce 03 	call	0x79c	; 0x79c <sysclk_enable_module>
    2242:	2c c0       	rjmp	.+88     	; 0x229c <usart_init_rs232+0x2cc>
	}
#endif
#ifdef USARTF1
	else if (module == &USARTF1) {
    2244:	c0 3b       	cpi	r28, 0xB0	; 176
    2246:	8b e0       	ldi	r24, 0x0B	; 11
    2248:	d8 07       	cpc	r29, r24
    224a:	29 f4       	brne	.+10     	; 0x2256 <usart_init_rs232+0x286>
		sysclk_enable_module(SYSCLK_PORT_F, SYSCLK_USART1);
    224c:	60 e2       	ldi	r22, 0x20	; 32
    224e:	86 e0       	ldi	r24, 0x06	; 6
    2250:	0e 94 ce 03 	call	0x79c	; 0x79c <sysclk_enable_module>
    2254:	23 c0       	rjmp	.+70     	; 0x229c <usart_init_rs232+0x2cc>
	}
#endif
#ifdef TWIC
	else if (module == &TWIC) {
    2256:	c0 38       	cpi	r28, 0x80	; 128
    2258:	e4 e0       	ldi	r30, 0x04	; 4
    225a:	de 07       	cpc	r29, r30
    225c:	29 f4       	brne	.+10     	; 0x2268 <usart_init_rs232+0x298>
		sysclk_enable_module(SYSCLK_PORT_C, SYSCLK_TWI);
    225e:	60 e4       	ldi	r22, 0x40	; 64
    2260:	83 e0       	ldi	r24, 0x03	; 3
    2262:	0e 94 ce 03 	call	0x79c	; 0x79c <sysclk_enable_module>
    2266:	1a c0       	rjmp	.+52     	; 0x229c <usart_init_rs232+0x2cc>
	}
#endif
#ifdef TWID
	else if (module == &TWID) {
    2268:	c0 39       	cpi	r28, 0x90	; 144
    226a:	f4 e0       	ldi	r31, 0x04	; 4
    226c:	df 07       	cpc	r29, r31
    226e:	29 f4       	brne	.+10     	; 0x227a <usart_init_rs232+0x2aa>
		sysclk_enable_module(SYSCLK_PORT_D, SYSCLK_TWI);
    2270:	60 e4       	ldi	r22, 0x40	; 64
    2272:	84 e0       	ldi	r24, 0x04	; 4
    2274:	0e 94 ce 03 	call	0x79c	; 0x79c <sysclk_enable_module>
    2278:	11 c0       	rjmp	.+34     	; 0x229c <usart_init_rs232+0x2cc>
	}
#endif
#ifdef TWIE
	else if (module == &TWIE) {
    227a:	c0 3a       	cpi	r28, 0xA0	; 160
    227c:	84 e0       	ldi	r24, 0x04	; 4
    227e:	d8 07       	cpc	r29, r24
    2280:	29 f4       	brne	.+10     	; 0x228c <usart_init_rs232+0x2bc>
		sysclk_enable_module(SYSCLK_PORT_E, SYSCLK_TWI);
    2282:	60 e4       	ldi	r22, 0x40	; 64
    2284:	85 e0       	ldi	r24, 0x05	; 5
    2286:	0e 94 ce 03 	call	0x79c	; 0x79c <sysclk_enable_module>
    228a:	08 c0       	rjmp	.+16     	; 0x229c <usart_init_rs232+0x2cc>
	}
#endif
#ifdef TWIF
	else if (module == &TWIF) {
    228c:	c0 3b       	cpi	r28, 0xB0	; 176
    228e:	e4 e0       	ldi	r30, 0x04	; 4
    2290:	de 07       	cpc	r29, r30
    2292:	21 f4       	brne	.+8      	; 0x229c <usart_init_rs232+0x2cc>
		sysclk_enable_module(SYSCLK_PORT_F, SYSCLK_TWI);
    2294:	60 e4       	ldi	r22, 0x40	; 64
    2296:	86 e0       	ldi	r24, 0x06	; 6
    2298:	0e 94 ce 03 	call	0x79c	; 0x79c <sysclk_enable_module>
 * - 0x2        : IrDA mode.
 * - 0x3        : Master SPI mode.
 */
static inline void usart_set_mode(USART_t *usart, USART_CMODE_t usartmode)
{
	(usart)->CTRLC = ((usart)->CTRLC & (~USART_CMODE_gm)) | usartmode;
    229c:	8d 81       	ldd	r24, Y+5	; 0x05
    229e:	8f 73       	andi	r24, 0x3F	; 63
    22a0:	8d 83       	std	Y+5, r24	; 0x05
 *  \param twoStopBits Enable two stop bit mode. Use bool type.
 */
static inline void usart_format_set(USART_t *usart, USART_CHSIZE_t charSize,
		USART_PMODE_t parityMode, bool twoStopBits)
{
	(usart)->CTRLC = (uint8_t)charSize | parityMode
    22a2:	f8 01       	movw	r30, r16
    22a4:	95 81       	ldd	r25, Z+5	; 0x05
    22a6:	84 81       	ldd	r24, Z+4	; 0x04
    22a8:	89 2b       	or	r24, r25
    22aa:	96 81       	ldd	r25, Z+6	; 0x06
    22ac:	91 11       	cpse	r25, r1
    22ae:	98 e0       	ldi	r25, 0x08	; 8
    22b0:	89 2b       	or	r24, r25
    22b2:	8d 83       	std	Y+5, r24	; 0x05
	bool result;
	sysclk_enable_peripheral_clock(usart);
	usart_set_mode(usart, USART_CMODE_ASYNCHRONOUS_gc);
	usart_format_set(usart, opt->charlength, opt->paritytype,
			opt->stopbits);
	result = usart_set_baudrate(usart, opt->baudrate, sysclk_get_per_hz());
    22b4:	f8 01       	movw	r30, r16
    22b6:	40 81       	ld	r20, Z
    22b8:	51 81       	ldd	r21, Z+1	; 0x01
    22ba:	62 81       	ldd	r22, Z+2	; 0x02
    22bc:	73 81       	ldd	r23, Z+3	; 0x03
    22be:	00 e0       	ldi	r16, 0x00	; 0
    22c0:	18 e4       	ldi	r17, 0x48	; 72
    22c2:	28 ee       	ldi	r18, 0xE8	; 232
    22c4:	31 e0       	ldi	r19, 0x01	; 1
    22c6:	ce 01       	movw	r24, r28
    22c8:	70 dd       	rcall	.-1312   	; 0x1daa <usart_set_baudrate>
 *
 * \param usart Pointer to the USART module.
 */
static inline void usart_tx_enable(USART_t *usart)
{
	(usart)->CTRLB |= USART_TXEN_bm;
    22ca:	9c 81       	ldd	r25, Y+4	; 0x04
    22cc:	98 60       	ori	r25, 0x08	; 8
    22ce:	9c 83       	std	Y+4, r25	; 0x04
 *
 * \param usart Pointer to the USART module
 */
static inline void usart_rx_enable(USART_t *usart)
{
	(usart)->CTRLB |= USART_RXEN_bm;
    22d0:	9c 81       	ldd	r25, Y+4	; 0x04
    22d2:	90 61       	ori	r25, 0x10	; 16
    22d4:	9c 83       	std	Y+4, r25	; 0x04
	usart_tx_enable(usart);
	usart_rx_enable(usart);
	
	return result;
}
    22d6:	df 91       	pop	r29
    22d8:	cf 91       	pop	r28
    22da:	1f 91       	pop	r17
    22dc:	0f 91       	pop	r16
    22de:	08 95       	ret

000022e0 <Get_altitude>:
	//printf("altitude = %f \n", (float)altitude);
	return altitude;
}*/

//Old, working function. Uses TEMP from pressure sensor calculations. May as well use
float Get_altitude(uint32_t initial, uint32_t pressure){
    22e0:	4f 92       	push	r4
    22e2:	5f 92       	push	r5
    22e4:	6f 92       	push	r6
    22e6:	7f 92       	push	r7
    22e8:	8f 92       	push	r8
    22ea:	9f 92       	push	r9
    22ec:	af 92       	push	r10
    22ee:	bf 92       	push	r11
    22f0:	cf 92       	push	r12
    22f2:	df 92       	push	r13
    22f4:	ef 92       	push	r14
    22f6:	ff 92       	push	r15
    22f8:	29 01       	movw	r4, r18
    22fa:	3a 01       	movw	r6, r20
	//printf("Initial Pressure = %lu\n", initial);
	//printf("pressure = %lu \n", pressure);
	//printf("temperature = %li \n", TEMP/100);
	//float altitude = (((287.058 * (((float)(TEMP)/100)+273.15)/9.8))*log((float)initial/get_pressure())*3.28);	Not this one, this one's bad
	float altitude = (pow(((initial/100)/(pressure/100)),(1/5.257))-1)*((TEMP/100)+273.15)/.0065; //This is now right, just gotta use the thermistor
    22fc:	0f 2e       	mov	r0, r31
    22fe:	f4 e6       	ldi	r31, 0x64	; 100
    2300:	cf 2e       	mov	r12, r31
    2302:	d1 2c       	mov	r13, r1
    2304:	e1 2c       	mov	r14, r1
    2306:	f1 2c       	mov	r15, r1
    2308:	f0 2d       	mov	r31, r0
    230a:	a7 01       	movw	r20, r14
    230c:	96 01       	movw	r18, r12
    230e:	0e 94 47 20 	call	0x408e	; 0x408e <__udivmodsi4>
    2312:	49 01       	movw	r8, r18
    2314:	5a 01       	movw	r10, r20
    2316:	c3 01       	movw	r24, r6
    2318:	b2 01       	movw	r22, r4
    231a:	a7 01       	movw	r20, r14
    231c:	96 01       	movw	r18, r12
    231e:	0e 94 47 20 	call	0x408e	; 0x408e <__udivmodsi4>
    2322:	c5 01       	movw	r24, r10
    2324:	b4 01       	movw	r22, r8
    2326:	0e 94 47 20 	call	0x408e	; 0x408e <__udivmodsi4>
    232a:	ca 01       	movw	r24, r20
    232c:	b9 01       	movw	r22, r18
    232e:	0e 94 6e 1a 	call	0x34dc	; 0x34dc <__floatunsisf>
    2332:	24 eb       	ldi	r18, 0xB4	; 180
    2334:	39 ec       	ldi	r19, 0xC9	; 201
    2336:	42 e4       	ldi	r20, 0x42	; 66
    2338:	5e e3       	ldi	r21, 0x3E	; 62
    233a:	0e 94 a4 1b 	call	0x3748	; 0x3748 <pow>
    233e:	4b 01       	movw	r8, r22
    2340:	5c 01       	movw	r10, r24
	//printf("altitude = %f \n", (float)altitude);
	return altitude;
    2342:	60 91 cb 20 	lds	r22, 0x20CB	; 0x8020cb <TEMP>
    2346:	70 91 cc 20 	lds	r23, 0x20CC	; 0x8020cc <TEMP+0x1>
    234a:	80 91 cd 20 	lds	r24, 0x20CD	; 0x8020cd <TEMP+0x2>
    234e:	90 91 ce 20 	lds	r25, 0x20CE	; 0x8020ce <TEMP+0x3>
    2352:	a7 01       	movw	r20, r14
    2354:	96 01       	movw	r18, r12
    2356:	0e 94 69 20 	call	0x40d2	; 0x40d2 <__divmodsi4>
    235a:	ca 01       	movw	r24, r20
    235c:	b9 01       	movw	r22, r18
    235e:	0e 94 70 1a 	call	0x34e0	; 0x34e0 <__floatsisf>
    2362:	23 e3       	ldi	r18, 0x33	; 51
    2364:	33 e9       	ldi	r19, 0x93	; 147
    2366:	48 e8       	ldi	r20, 0x88	; 136
    2368:	53 e4       	ldi	r21, 0x43	; 67
    236a:	bb d7       	rcall	.+3958   	; 0x32e2 <__addsf3>
    236c:	6b 01       	movw	r12, r22
    236e:	7c 01       	movw	r14, r24
    2370:	20 e0       	ldi	r18, 0x00	; 0
    2372:	30 e0       	ldi	r19, 0x00	; 0
    2374:	40 e8       	ldi	r20, 0x80	; 128
    2376:	5f e3       	ldi	r21, 0x3F	; 63
    2378:	c5 01       	movw	r24, r10
    237a:	b4 01       	movw	r22, r8
    237c:	b1 d7       	rcall	.+3938   	; 0x32e0 <__subsf3>
    237e:	9b 01       	movw	r18, r22
    2380:	ac 01       	movw	r20, r24
    2382:	c7 01       	movw	r24, r14
    2384:	b6 01       	movw	r22, r12
    2386:	0e 94 41 1b 	call	0x3682	; 0x3682 <__mulsf3>
    238a:	24 ef       	ldi	r18, 0xF4	; 244
    238c:	3d ef       	ldi	r19, 0xFD	; 253
    238e:	44 ed       	ldi	r20, 0xD4	; 212
    2390:	5b e3       	ldi	r21, 0x3B	; 59
    2392:	0e 94 d5 19 	call	0x33aa	; 0x33aa <__divsf3>
}
    2396:	ff 90       	pop	r15
    2398:	ef 90       	pop	r14
    239a:	df 90       	pop	r13
    239c:	cf 90       	pop	r12
    239e:	bf 90       	pop	r11
    23a0:	af 90       	pop	r10
    23a2:	9f 90       	pop	r9
    23a4:	8f 90       	pop	r8
    23a6:	7f 90       	pop	r7
    23a8:	6f 90       	pop	r6
    23aa:	5f 90       	pop	r5
    23ac:	4f 90       	pop	r4
    23ae:	08 95       	ret

000023b0 <__portable_avr_delay_cycles>:
	PORTE.OUTSET = 0b00000001;
}*/

void heatshield_solenoid(PORT_t* port){
	(*port).DIRSET = 0b10000000;
	(*port).OUTSET = 0b10000000;
    23b0:	04 c0       	rjmp	.+8      	; 0x23ba <__portable_avr_delay_cycles+0xa>
    23b2:	61 50       	subi	r22, 0x01	; 1
    23b4:	71 09       	sbc	r23, r1
    23b6:	81 09       	sbc	r24, r1
    23b8:	91 09       	sbc	r25, r1
    23ba:	61 15       	cp	r22, r1
    23bc:	71 05       	cpc	r23, r1
    23be:	81 05       	cpc	r24, r1
    23c0:	91 05       	cpc	r25, r1
    23c2:	b9 f7       	brne	.-18     	; 0x23b2 <__portable_avr_delay_cycles+0x2>
    23c4:	08 95       	ret

000023c6 <heatshield_hotwire>:
}

void heatshield_hotwire (void){
    23c6:	cf 93       	push	r28
    23c8:	df 93       	push	r29
	PORTD.DIR |= 0b00000010;
    23ca:	c0 e6       	ldi	r28, 0x60	; 96
    23cc:	d6 e0       	ldi	r29, 0x06	; 6
    23ce:	88 81       	ld	r24, Y
    23d0:	82 60       	ori	r24, 0x02	; 2
    23d2:	88 83       	st	Y, r24
	PORTD.OUT |= 0b00000010; //TODO: fix these port addresses
    23d4:	8c 81       	ldd	r24, Y+4	; 0x04
    23d6:	82 60       	ori	r24, 0x02	; 2
    23d8:	8c 83       	std	Y+4, r24	; 0x04
	delay_ms(4000);
    23da:	66 e5       	ldi	r22, 0x56	; 86
    23dc:	75 e8       	ldi	r23, 0x85	; 133
    23de:	85 e4       	ldi	r24, 0x45	; 69
    23e0:	91 e0       	ldi	r25, 0x01	; 1
    23e2:	e6 df       	rcall	.-52     	; 0x23b0 <__portable_avr_delay_cycles>
	PORTD.OUT &= 0b11111101;
    23e4:	8c 81       	ldd	r24, Y+4	; 0x04
    23e6:	8d 7f       	andi	r24, 0xFD	; 253
    23e8:	8c 83       	std	Y+4, r24	; 0x04
}
    23ea:	df 91       	pop	r29
    23ec:	cf 91       	pop	r28
    23ee:	08 95       	ret

000023f0 <parachute_hotwire>:

void parachute_hotwire (void) {
    23f0:	cf 93       	push	r28
    23f2:	df 93       	push	r29
	PORTD.DIR |= 0b00000010;
    23f4:	c0 e6       	ldi	r28, 0x60	; 96
    23f6:	d6 e0       	ldi	r29, 0x06	; 6
    23f8:	88 81       	ld	r24, Y
    23fa:	82 60       	ori	r24, 0x02	; 2
    23fc:	88 83       	st	Y, r24
	PORTD.OUT |= 0b00000010; //TODO: fix these port addresses
    23fe:	8c 81       	ldd	r24, Y+4	; 0x04
    2400:	82 60       	ori	r24, 0x02	; 2
    2402:	8c 83       	std	Y+4, r24	; 0x04
	delay_ms(4000);
    2404:	66 e5       	ldi	r22, 0x56	; 86
    2406:	75 e8       	ldi	r23, 0x85	; 133
    2408:	85 e4       	ldi	r24, 0x45	; 69
    240a:	91 e0       	ldi	r25, 0x01	; 1
    240c:	d1 df       	rcall	.-94     	; 0x23b0 <__portable_avr_delay_cycles>
	PORTD.OUT &= 0b11111101;
    240e:	8c 81       	ldd	r24, Y+4	; 0x04
    2410:	8d 7f       	andi	r24, 0xFD	; 253
    2412:	8c 83       	std	Y+4, r24	; 0x04
}
    2414:	df 91       	pop	r29
    2416:	cf 91       	pop	r28
    2418:	08 95       	ret

0000241a <heatshield_detatch_hotwire>:

void heatshield_detatch_hotwire(void){
    241a:	cf 93       	push	r28
    241c:	df 93       	push	r29
	PORTD.DIR |= 0b00000010;
    241e:	c0 e6       	ldi	r28, 0x60	; 96
    2420:	d6 e0       	ldi	r29, 0x06	; 6
    2422:	88 81       	ld	r24, Y
    2424:	82 60       	ori	r24, 0x02	; 2
    2426:	88 83       	st	Y, r24
	PORTD.OUT |= 0b00000010; //TODO: fix these port addresses
    2428:	8c 81       	ldd	r24, Y+4	; 0x04
    242a:	82 60       	ori	r24, 0x02	; 2
    242c:	8c 83       	std	Y+4, r24	; 0x04
	delay_ms(4000);
    242e:	66 e5       	ldi	r22, 0x56	; 86
    2430:	75 e8       	ldi	r23, 0x85	; 133
    2432:	85 e4       	ldi	r24, 0x45	; 69
    2434:	91 e0       	ldi	r25, 0x01	; 1
    2436:	bc df       	rcall	.-136    	; 0x23b0 <__portable_avr_delay_cycles>
	PORTD.OUT &= 0b11111101;	
    2438:	8c 81       	ldd	r24, Y+4	; 0x04
    243a:	8d 7f       	andi	r24, 0xFD	; 253
    243c:	8c 83       	std	Y+4, r24	; 0x04
}
    243e:	df 91       	pop	r29
    2440:	cf 91       	pop	r28
    2442:	08 95       	ret

00002444 <buzzer_on>:

void buzzer_on(void){
	PORTB.DIR |= 0b00000001; 
    2444:	e0 e2       	ldi	r30, 0x20	; 32
    2446:	f6 e0       	ldi	r31, 0x06	; 6
    2448:	80 81       	ld	r24, Z
    244a:	81 60       	ori	r24, 0x01	; 1
    244c:	80 83       	st	Z, r24
	PORTB.OUT |= 0b00000001;
    244e:	84 81       	ldd	r24, Z+4	; 0x04
    2450:	81 60       	ori	r24, 0x01	; 1
    2452:	84 83       	std	Z+4, r24	; 0x04
    2454:	08 95       	ret

00002456 <buzzer_off>:
	
}
void buzzer_off(void){
	PORTB.DIR |= 0b00000001;  
    2456:	e0 e2       	ldi	r30, 0x20	; 32
    2458:	f6 e0       	ldi	r31, 0x06	; 6
    245a:	80 81       	ld	r24, Z
    245c:	81 60       	ori	r24, 0x01	; 1
    245e:	80 83       	st	Z, r24
	PORTB.OUT &= 0b11111110;
    2460:	84 81       	ldd	r24, Z+4	; 0x04
    2462:	8e 7f       	andi	r24, 0xFE	; 254
    2464:	84 83       	std	Z+4, r24	; 0x04
    2466:	08 95       	ret

00002468 <camera_on>:
	
}
void camera_on(void){
	PORTE.DIR |= 0b01000000;
    2468:	e0 e8       	ldi	r30, 0x80	; 128
    246a:	f6 e0       	ldi	r31, 0x06	; 6
    246c:	80 81       	ld	r24, Z
    246e:	80 64       	ori	r24, 0x40	; 64
    2470:	80 83       	st	Z, r24
	PORTE.OUT |= 0b01000000;
    2472:	84 81       	ldd	r24, Z+4	; 0x04
    2474:	80 64       	ori	r24, 0x40	; 64
    2476:	84 83       	std	Z+4, r24	; 0x04
    2478:	08 95       	ret

0000247a <__portable_avr_delay_cycles>:
 *
 * @{
 */
__always_optimize
static inline void __portable_avr_delay_cycles(unsigned long n)
{
    247a:	04 c0       	rjmp	.+8      	; 0x2484 <__portable_avr_delay_cycles+0xa>
	while (n) {
		barrier();
		n--;
    247c:	61 50       	subi	r22, 0x01	; 1
    247e:	71 09       	sbc	r23, r1
    2480:	81 09       	sbc	r24, r1
    2482:	91 09       	sbc	r25, r1
 * @{
 */
__always_optimize
static inline void __portable_avr_delay_cycles(unsigned long n)
{
	while (n) {
    2484:	61 15       	cp	r22, r1
    2486:	71 05       	cpc	r23, r1
    2488:	81 05       	cpc	r24, r1
    248a:	91 05       	cpc	r25, r1
    248c:	b9 f7       	brne	.-18     	; 0x247c <__portable_avr_delay_cycles+0x2>
    248e:	08 95       	ret

00002490 <SPI_init>:
uint16_t c5;
uint16_t c6;


void SPI_init(void){
	PORTD.DIRSET = 0b10110000;
    2490:	e0 e6       	ldi	r30, 0x60	; 96
    2492:	f6 e0       	ldi	r31, 0x06	; 6
    2494:	80 eb       	ldi	r24, 0xB0	; 176
    2496:	81 83       	std	Z+1, r24	; 0x01
	PORTD.DIRCLR = 0b01000000;
    2498:	90 e4       	ldi	r25, 0x40	; 64
    249a:	92 83       	std	Z+2, r25	; 0x02
	PORTD.OUTSET = 0b10110000;
    249c:	85 83       	std	Z+5, r24	; 0x05
	SPID.CTRL = 0b01010011;
    249e:	83 e5       	ldi	r24, 0x53	; 83
    24a0:	80 93 c0 09 	sts	0x09C0, r24	; 0x8009c0 <__TEXT_REGION_LENGTH__+0x7009c0>
    24a4:	08 95       	ret

000024a6 <SPI_write>:
}

void SPI_write(uint8_t data){
	SPID.DATA = data;
    24a6:	80 93 c3 09 	sts	0x09C3, r24	; 0x8009c3 <__TEXT_REGION_LENGTH__+0x7009c3>
	while(!(SPID.STATUS>>7));
    24aa:	e0 ec       	ldi	r30, 0xC0	; 192
    24ac:	f9 e0       	ldi	r31, 0x09	; 9
    24ae:	82 81       	ldd	r24, Z+2	; 0x02
    24b0:	88 23       	and	r24, r24
    24b2:	ec f7       	brge	.-6      	; 0x24ae <SPI_write+0x8>
}
    24b4:	08 95       	ret

000024b6 <spi_read>:

uint8_t spi_read (void){
	SPI_write(0xFF);
    24b6:	8f ef       	ldi	r24, 0xFF	; 255
    24b8:	f6 df       	rcall	.-20     	; 0x24a6 <SPI_write>
	return SPID.DATA;
    24ba:	80 91 c3 09 	lds	r24, 0x09C3	; 0x8009c3 <__TEXT_REGION_LENGTH__+0x7009c3>
}
    24be:	08 95       	ret

000024c0 <prom_read>:
	//printf("c5: %u \n", c5);
	c6 = prom_read(0xAC);
	//printf("c6: %u \n", c6);
}

uint16_t prom_read(uint8_t command){
    24c0:	ff 92       	push	r15
    24c2:	0f 93       	push	r16
    24c4:	1f 93       	push	r17
    24c6:	cf 93       	push	r28
    24c8:	df 93       	push	r29
	uint16_t data;
	PORTD.OUTCLR = 0b00000010;
    24ca:	00 e6       	ldi	r16, 0x60	; 96
    24cc:	16 e0       	ldi	r17, 0x06	; 6
    24ce:	68 94       	set
    24d0:	ff 24       	eor	r15, r15
    24d2:	f1 f8       	bld	r15, 1
    24d4:	f8 01       	movw	r30, r16
	SPI_write(command);
	data = ((uint16_t)spi_read())<<8;	//Bitshifting
    24d6:	f6 82       	std	Z+6, r15	; 0x06
    24d8:	e6 df       	rcall	.-52     	; 0x24a6 <SPI_write>
    24da:	ed df       	rcall	.-38     	; 0x24b6 <spi_read>
    24dc:	c8 2f       	mov	r28, r24
    24de:	d0 e0       	ldi	r29, 0x00	; 0
	data += spi_read();
    24e0:	dc 2f       	mov	r29, r28
    24e2:	cc 27       	eor	r28, r28
    24e4:	e8 df       	rcall	.-48     	; 0x24b6 <spi_read>
    24e6:	c8 0f       	add	r28, r24
	PORTD.OUTSET = 0b00000010;
    24e8:	d1 1d       	adc	r29, r1
    24ea:	f8 01       	movw	r30, r16
	delay_ms(1);
    24ec:	f5 82       	std	Z+5, r15	; 0x05
    24ee:	66 ed       	ldi	r22, 0xD6	; 214
    24f0:	74 e1       	ldi	r23, 0x14	; 20
    24f2:	80 e0       	ldi	r24, 0x00	; 0
    24f4:	90 e0       	ldi	r25, 0x00	; 0
	//printf("data: %lu \n", data);
	return data;
}
    24f6:	c1 df       	rcall	.-126    	; 0x247a <__portable_avr_delay_cycles>
    24f8:	ce 01       	movw	r24, r28
    24fa:	df 91       	pop	r29
    24fc:	cf 91       	pop	r28
    24fe:	1f 91       	pop	r17
    2500:	0f 91       	pop	r16
    2502:	ff 90       	pop	r15
    2504:	08 95       	ret

00002506 <ms5607_init>:
uint8_t spi_read (void){
	SPI_write(0xFF);
	return SPID.DATA;
}

void ms5607_init(void){
    2506:	1f 93       	push	r17
    2508:	cf 93       	push	r28
    250a:	df 93       	push	r29
	PORTD.OUTCLR = 0b00000010;
    250c:	c0 e6       	ldi	r28, 0x60	; 96
    250e:	d6 e0       	ldi	r29, 0x06	; 6
    2510:	12 e0       	ldi	r17, 0x02	; 2
    2512:	1e 83       	std	Y+6, r17	; 0x06
	SPI_write(0x1E);
    2514:	8e e1       	ldi	r24, 0x1E	; 30
    2516:	c7 df       	rcall	.-114    	; 0x24a6 <SPI_write>
	PORTD.OUTSET = 0b00000010;
    2518:	1d 83       	std	Y+5, r17	; 0x05
	delay_ms(10);
    251a:	66 e5       	ldi	r22, 0x56	; 86
    251c:	70 ed       	ldi	r23, 0xD0	; 208
    251e:	80 e0       	ldi	r24, 0x00	; 0
    2520:	90 e0       	ldi	r25, 0x00	; 0
	c1 = prom_read(0xA2);
    2522:	ab df       	rcall	.-170    	; 0x247a <__portable_avr_delay_cycles>
    2524:	82 ea       	ldi	r24, 0xA2	; 162
    2526:	cc df       	rcall	.-104    	; 0x24c0 <prom_read>
    2528:	80 93 d7 20 	sts	0x20D7, r24	; 0x8020d7 <c1>
    252c:	90 93 d8 20 	sts	0x20D8, r25	; 0x8020d8 <c1+0x1>
	//printf("c1: %u \n", c1);
	c2 = prom_read(0xA4);
    2530:	84 ea       	ldi	r24, 0xA4	; 164
    2532:	c6 df       	rcall	.-116    	; 0x24c0 <prom_read>
    2534:	80 93 d3 20 	sts	0x20D3, r24	; 0x8020d3 <c2>
    2538:	90 93 d4 20 	sts	0x20D4, r25	; 0x8020d4 <c2+0x1>
	//printf("c2: %u \n", c2);
	c3 = prom_read(0xA6);
    253c:	86 ea       	ldi	r24, 0xA6	; 166
    253e:	c0 df       	rcall	.-128    	; 0x24c0 <prom_read>
    2540:	80 93 d9 20 	sts	0x20D9, r24	; 0x8020d9 <c3>
    2544:	90 93 da 20 	sts	0x20DA, r25	; 0x8020da <c3+0x1>
	//printf("c3: %u \n", c3);
	c4 = prom_read(0xA8);
    2548:	88 ea       	ldi	r24, 0xA8	; 168
    254a:	ba df       	rcall	.-140    	; 0x24c0 <prom_read>
    254c:	80 93 d1 20 	sts	0x20D1, r24	; 0x8020d1 <c4>
    2550:	90 93 d2 20 	sts	0x20D2, r25	; 0x8020d2 <c4+0x1>
	//printf("c4: %u \n", c4);
	c5 = prom_read(0xAA);
    2554:	8a ea       	ldi	r24, 0xAA	; 170
    2556:	b4 df       	rcall	.-152    	; 0x24c0 <prom_read>
    2558:	80 93 d5 20 	sts	0x20D5, r24	; 0x8020d5 <c5>
    255c:	90 93 d6 20 	sts	0x20D6, r25	; 0x8020d6 <c5+0x1>
	//printf("c5: %u \n", c5);
	c6 = prom_read(0xAC);
    2560:	8c ea       	ldi	r24, 0xAC	; 172
    2562:	ae df       	rcall	.-164    	; 0x24c0 <prom_read>
    2564:	80 93 cf 20 	sts	0x20CF, r24	; 0x8020cf <c6>
    2568:	90 93 d0 20 	sts	0x20D0, r25	; 0x8020d0 <c6+0x1>
	//printf("c6: %u \n", c6);
}
    256c:	df 91       	pop	r29
    256e:	cf 91       	pop	r28
    2570:	1f 91       	pop	r17
    2572:	08 95       	ret

00002574 <data_read>:
	delay_ms(1);
	//printf("data: %lu \n", data);
	return data;
}

uint32_t data_read(uint8_t command){
    2574:	8f 92       	push	r8
    2576:	9f 92       	push	r9
    2578:	af 92       	push	r10
    257a:	bf 92       	push	r11
    257c:	cf 92       	push	r12
    257e:	df 92       	push	r13
    2580:	ef 92       	push	r14
    2582:	ff 92       	push	r15
    2584:	0f 93       	push	r16
    2586:	1f 93       	push	r17
    2588:	cf 93       	push	r28
	uint32_t data;
	PORTD.OUTCLR = 0b00000010;
    258a:	00 e6       	ldi	r16, 0x60	; 96
    258c:	16 e0       	ldi	r17, 0x06	; 6
    258e:	c2 e0       	ldi	r28, 0x02	; 2
    2590:	f8 01       	movw	r30, r16
	SPI_write(command);
    2592:	c6 83       	std	Z+6, r28	; 0x06
	PORTD.OUTSET = 0b00000010;
    2594:	88 df       	rcall	.-240    	; 0x24a6 <SPI_write>
    2596:	f8 01       	movw	r30, r16
	delay_ms(9);
    2598:	c5 83       	std	Z+5, r28	; 0x05
    259a:	61 e8       	ldi	r22, 0x81	; 129
    259c:	7b eb       	ldi	r23, 0xBB	; 187
    259e:	80 e0       	ldi	r24, 0x00	; 0
    25a0:	90 e0       	ldi	r25, 0x00	; 0
	PORTD.OUTCLR = 0b00010000;
    25a2:	6b df       	rcall	.-298    	; 0x247a <__portable_avr_delay_cycles>
	SPI_write(0x00);
    25a4:	80 e1       	ldi	r24, 0x10	; 16
    25a6:	f8 01       	movw	r30, r16
	data = ((uint32_t)spi_read())<<16;
    25a8:	86 83       	std	Z+6, r24	; 0x06
    25aa:	80 e0       	ldi	r24, 0x00	; 0
    25ac:	7c df       	rcall	.-264    	; 0x24a6 <SPI_write>
    25ae:	83 df       	rcall	.-250    	; 0x24b6 <spi_read>
    25b0:	c8 2e       	mov	r12, r24
    25b2:	d1 2c       	mov	r13, r1
    25b4:	e1 2c       	mov	r14, r1
    25b6:	f1 2c       	mov	r15, r1
	data += ((uint32_t)spi_read())<<8;
    25b8:	56 01       	movw	r10, r12
    25ba:	99 24       	eor	r9, r9
    25bc:	88 24       	eor	r8, r8
    25be:	7b df       	rcall	.-266    	; 0x24b6 <spi_read>
    25c0:	c8 2e       	mov	r12, r24
    25c2:	d1 2c       	mov	r13, r1
    25c4:	e1 2c       	mov	r14, r1
    25c6:	f1 2c       	mov	r15, r1
    25c8:	fe 2c       	mov	r15, r14
    25ca:	ed 2c       	mov	r14, r13
    25cc:	dc 2c       	mov	r13, r12
    25ce:	cc 24       	eor	r12, r12
    25d0:	c8 0c       	add	r12, r8
	data += spi_read();
    25d2:	d9 1c       	adc	r13, r9
    25d4:	ea 1c       	adc	r14, r10
	PORTC.OUTSET = 0b00000010;
    25d6:	fb 1c       	adc	r15, r11
    25d8:	6e df       	rcall	.-292    	; 0x24b6 <spi_read>
	return data;
    25da:	c0 93 45 06 	sts	0x0645, r28	; 0x800645 <__TEXT_REGION_LENGTH__+0x700645>
    25de:	a7 01       	movw	r20, r14
    25e0:	96 01       	movw	r18, r12
    25e2:	28 0f       	add	r18, r24
    25e4:	31 1d       	adc	r19, r1
    25e6:	41 1d       	adc	r20, r1
    25e8:	51 1d       	adc	r21, r1
}
    25ea:	ca 01       	movw	r24, r20
    25ec:	b9 01       	movw	r22, r18
    25ee:	cf 91       	pop	r28
    25f0:	1f 91       	pop	r17
    25f2:	0f 91       	pop	r16
    25f4:	ff 90       	pop	r15
    25f6:	ef 90       	pop	r14
    25f8:	df 90       	pop	r13
    25fa:	cf 90       	pop	r12
    25fc:	bf 90       	pop	r11
    25fe:	af 90       	pop	r10
    2600:	9f 90       	pop	r9
    2602:	8f 90       	pop	r8
    2604:	08 95       	ret

00002606 <get_pressure>:

uint32_t get_pressure(void){
    2606:	2f 92       	push	r2
    2608:	3f 92       	push	r3
    260a:	4f 92       	push	r4
    260c:	5f 92       	push	r5
    260e:	6f 92       	push	r6
    2610:	7f 92       	push	r7
    2612:	8f 92       	push	r8
    2614:	9f 92       	push	r9
    2616:	af 92       	push	r10
    2618:	bf 92       	push	r11
    261a:	cf 92       	push	r12
    261c:	df 92       	push	r13
    261e:	ef 92       	push	r14
    2620:	ff 92       	push	r15
    2622:	0f 93       	push	r16
    2624:	1f 93       	push	r17
    2626:	cf 93       	push	r28
    2628:	df 93       	push	r29
    262a:	cd b7       	in	r28, 0x3d	; 61
    262c:	de b7       	in	r29, 0x3e	; 62
    262e:	61 97       	sbiw	r28, 0x11	; 17
    2630:	cd bf       	out	0x3d, r28	; 61
    2632:	de bf       	out	0x3e, r29	; 62
	uint32_t D1 = data_read(0x48);
    2634:	88 e4       	ldi	r24, 0x48	; 72
    2636:	9e df       	rcall	.-196    	; 0x2574 <data_read>
    2638:	6d 83       	std	Y+5, r22	; 0x05
    263a:	7e 83       	std	Y+6, r23	; 0x06
    263c:	8f 83       	std	Y+7, r24	; 0x07
	//printf("D1: %lu \n", D1);
	uint32_t D2 = data_read(0x58);
    263e:	98 87       	std	Y+8, r25	; 0x08
    2640:	88 e5       	ldi	r24, 0x58	; 88
	//printf("D2: %li \n", D2);
	int32_t dT = (int64_t)D2 - (int64_t)c5 * 256;
    2642:	98 df       	rcall	.-208    	; 0x2574 <data_read>
    2644:	20 91 d5 20 	lds	r18, 0x20D5	; 0x8020d5 <c5>
    2648:	30 91 d6 20 	lds	r19, 0x20D6	; 0x8020d6 <c5+0x1>
    264c:	89 01       	movw	r16, r18
    264e:	20 e0       	ldi	r18, 0x00	; 0
    2650:	30 e0       	ldi	r19, 0x00	; 0
    2652:	32 2f       	mov	r19, r18
    2654:	21 2f       	mov	r18, r17
    2656:	10 2f       	mov	r17, r16
    2658:	00 27       	eor	r16, r16
    265a:	6b 01       	movw	r12, r22
    265c:	7c 01       	movw	r14, r24
    265e:	c0 1a       	sub	r12, r16
    2660:	d1 0a       	sbc	r13, r17
    2662:	e2 0a       	sbc	r14, r18
    2664:	f3 0a       	sbc	r15, r19
    2666:	c9 82       	std	Y+1, r12	; 0x01
    2668:	da 82       	std	Y+2, r13	; 0x02
    266a:	eb 82       	std	Y+3, r14	; 0x03
	TEMP = (int16_t)((int64_t)2000 + (int64_t)dT * (int64_t)c6 / (int64_t)(8388608));
    266c:	fc 82       	std	Y+4, r15	; 0x04
    266e:	20 90 cf 20 	lds	r2, 0x20CF	; 0x8020cf <c6>
    2672:	30 90 d0 20 	lds	r3, 0x20D0	; 0x8020d0 <c6+0x1>
    2676:	d7 01       	movw	r26, r14
    2678:	c6 01       	movw	r24, r12
    267a:	bb 0f       	add	r27, r27
    267c:	88 0b       	sbc	r24, r24
    267e:	98 2f       	mov	r25, r24
    2680:	dc 01       	movw	r26, r24
    2682:	a9 80       	ldd	r10, Y+1	; 0x01
    2684:	ba 80       	ldd	r11, Y+2	; 0x02
    2686:	cb 80       	ldd	r12, Y+3	; 0x03
    2688:	dc 80       	ldd	r13, Y+4	; 0x04
    268a:	e8 2e       	mov	r14, r24
    268c:	f8 2e       	mov	r15, r24
    268e:	08 2f       	mov	r16, r24
    2690:	18 2f       	mov	r17, r24
    2692:	22 2d       	mov	r18, r2
    2694:	33 2d       	mov	r19, r3
    2696:	40 e0       	ldi	r20, 0x00	; 0
    2698:	50 e0       	ldi	r21, 0x00	; 0
    269a:	60 e0       	ldi	r22, 0x00	; 0
    269c:	70 e0       	ldi	r23, 0x00	; 0
    269e:	80 e0       	ldi	r24, 0x00	; 0
    26a0:	90 e0       	ldi	r25, 0x00	; 0
    26a2:	0e 94 98 20 	call	0x4130	; 0x4130 <__muldi3>
    26a6:	89 8b       	std	Y+17, r24	; 0x11
    26a8:	b2 2f       	mov	r27, r18
    26aa:	f3 2f       	mov	r31, r19
    26ac:	e4 2f       	mov	r30, r20
    26ae:	95 2e       	mov	r9, r21
    26b0:	86 2e       	mov	r8, r22
    26b2:	77 2e       	mov	r7, r23
    26b4:	a8 2e       	mov	r10, r24
    26b6:	b9 2e       	mov	r11, r25
    26b8:	a0 e0       	ldi	r26, 0x00	; 0
    26ba:	0e 94 32 21 	call	0x4264	; 0x4264 <__cmpdi2_s8>
    26be:	84 f4       	brge	.+32     	; 0x26e0 <get_pressure+0xda>
    26c0:	21 50       	subi	r18, 0x01	; 1
    26c2:	31 09       	sbc	r19, r1
    26c4:	40 48       	sbci	r20, 0x80	; 128
    26c6:	5f 4f       	sbci	r21, 0xFF	; 255
    26c8:	6f 4f       	sbci	r22, 0xFF	; 255
    26ca:	7f 4f       	sbci	r23, 0xFF	; 255
    26cc:	8f 4f       	sbci	r24, 0xFF	; 255
    26ce:	9f 4f       	sbci	r25, 0xFF	; 255
    26d0:	b2 2f       	mov	r27, r18
    26d2:	f3 2f       	mov	r31, r19
    26d4:	e4 2f       	mov	r30, r20
    26d6:	95 2e       	mov	r9, r21
    26d8:	86 2e       	mov	r8, r22
    26da:	77 2e       	mov	r7, r23
    26dc:	a8 2e       	mov	r10, r24
    26de:	b9 2e       	mov	r11, r25
    26e0:	2b 2f       	mov	r18, r27
    26e2:	3f 2f       	mov	r19, r31
    26e4:	4e 2f       	mov	r20, r30
    26e6:	59 2d       	mov	r21, r9
    26e8:	68 2d       	mov	r22, r8
    26ea:	77 2d       	mov	r23, r7
    26ec:	8a 2d       	mov	r24, r10
    26ee:	9b 2d       	mov	r25, r11
    26f0:	07 e1       	ldi	r16, 0x17	; 23
    26f2:	0e 94 02 21 	call	0x4204	; 0x4204 <__ashrdi3>
    26f6:	82 2e       	mov	r8, r18
    26f8:	93 2e       	mov	r9, r19
    26fa:	00 e3       	ldi	r16, 0x30	; 48
    26fc:	80 1a       	sub	r8, r16
    26fe:	08 ef       	ldi	r16, 0xF8	; 248
    2700:	90 0a       	sbc	r9, r16
    2702:	09 2c       	mov	r0, r9
    2704:	00 0c       	add	r0, r0
    2706:	aa 08       	sbc	r10, r10
    2708:	bb 08       	sbc	r11, r11
    270a:	80 92 cb 20 	sts	0x20CB, r8	; 0x8020cb <TEMP>
    270e:	90 92 cc 20 	sts	0x20CC, r9	; 0x8020cc <TEMP+0x1>
    2712:	a0 92 cd 20 	sts	0x20CD, r10	; 0x8020cd <TEMP+0x2>
    2716:	b0 92 ce 20 	sts	0x20CE, r11	; 0x8020ce <TEMP+0x3>
	int64_t OFF = (int64_t)c2 * 131072 + (int64_t)(c4 * dT) / 64;
	int64_t SENS = (int64_t)c1 * 65536 + (int64_t)(c3 * dT) / 128;
	int32_t P = (int32_t)(((int64_t)((int64_t)(D1) * SENS) / 2097152 - (int64_t)OFF) / 32768);
	//printf("pressure: %lu \n", P);
	return (uint32_t)P;
    271a:	a0 91 d9 20 	lds	r26, 0x20D9	; 0x8020d9 <c3>
    271e:	b0 91 da 20 	lds	r27, 0x20DA	; 0x8020da <c3+0x1>
    2722:	29 81       	ldd	r18, Y+1	; 0x01
    2724:	3a 81       	ldd	r19, Y+2	; 0x02
    2726:	4b 81       	ldd	r20, Y+3	; 0x03
    2728:	5c 81       	ldd	r21, Y+4	; 0x04
    272a:	0e 94 8e 20 	call	0x411c	; 0x411c <__muluhisi3>
    272e:	4b 01       	movw	r8, r22
    2730:	5c 01       	movw	r10, r24
    2732:	99 23       	and	r25, r25
    2734:	2c f4       	brge	.+10     	; 0x2740 <get_pressure+0x13a>
    2736:	1f e7       	ldi	r17, 0x7F	; 127
    2738:	81 0e       	add	r8, r17
    273a:	91 1c       	adc	r9, r1
    273c:	a1 1c       	adc	r10, r1
    273e:	b1 1c       	adc	r11, r1
    2740:	24 01       	movw	r4, r8
    2742:	35 01       	movw	r6, r10
    2744:	68 94       	set
    2746:	16 f8       	bld	r1, 6
    2748:	75 94       	asr	r7
    274a:	67 94       	ror	r6
    274c:	57 94       	ror	r5
    274e:	47 94       	ror	r4
    2750:	16 94       	lsr	r1
    2752:	d1 f7       	brne	.-12     	; 0x2748 <get_pressure+0x142>
    2754:	bb 0c       	add	r11, r11
    2756:	88 08       	sbc	r8, r8
    2758:	98 2c       	mov	r9, r8
    275a:	54 01       	movw	r10, r8
    275c:	80 91 d7 20 	lds	r24, 0x20D7	; 0x8020d7 <c1>
    2760:	90 91 d8 20 	lds	r25, 0x20D8	; 0x8020d8 <c1+0x1>
    2764:	6c 01       	movw	r12, r24
    2766:	e1 2c       	mov	r14, r1
    2768:	f1 2c       	mov	r15, r1
    276a:	00 e0       	ldi	r16, 0x00	; 0
    276c:	10 e0       	ldi	r17, 0x00	; 0
    276e:	98 01       	movw	r18, r16
    2770:	89 87       	std	Y+9, r24	; 0x09
    2772:	da 86       	std	Y+10, r13	; 0x0a
    2774:	eb 86       	std	Y+11, r14	; 0x0b
    2776:	fc 86       	std	Y+12, r15	; 0x0c
    2778:	0d 87       	std	Y+13, r16	; 0x0d
    277a:	1e 87       	std	Y+14, r17	; 0x0e
    277c:	2f 87       	std	Y+15, r18	; 0x0f
    277e:	38 8b       	std	Y+16, r19	; 0x10
    2780:	28 2f       	mov	r18, r24
    2782:	3d 2d       	mov	r19, r13
    2784:	40 e0       	ldi	r20, 0x00	; 0
    2786:	50 e0       	ldi	r21, 0x00	; 0
    2788:	60 e0       	ldi	r22, 0x00	; 0
    278a:	70 e0       	ldi	r23, 0x00	; 0
    278c:	80 e0       	ldi	r24, 0x00	; 0
    278e:	90 e0       	ldi	r25, 0x00	; 0
    2790:	00 e1       	ldi	r16, 0x10	; 16
    2792:	0e 94 e9 20 	call	0x41d2	; 0x41d2 <__ashldi3>
    2796:	f2 2f       	mov	r31, r18
    2798:	e3 2f       	mov	r30, r19
    279a:	c4 2e       	mov	r12, r20
    279c:	d5 2e       	mov	r13, r21
    279e:	e6 2e       	mov	r14, r22
    27a0:	f7 2e       	mov	r15, r23
    27a2:	08 2f       	mov	r16, r24
    27a4:	19 2f       	mov	r17, r25
    27a6:	24 2d       	mov	r18, r4
    27a8:	35 2d       	mov	r19, r5
    27aa:	46 2d       	mov	r20, r6
    27ac:	57 2d       	mov	r21, r7
    27ae:	68 2d       	mov	r22, r8
    27b0:	78 2d       	mov	r23, r8
    27b2:	88 2d       	mov	r24, r8
    27b4:	98 2d       	mov	r25, r8
    27b6:	af 2e       	mov	r10, r31
    27b8:	be 2e       	mov	r11, r30
    27ba:	0e 94 20 21 	call	0x4240	; 0x4240 <__adddi3>
    27be:	ed 80       	ldd	r14, Y+5	; 0x05
    27c0:	fe 80       	ldd	r15, Y+6	; 0x06
    27c2:	0f 81       	ldd	r16, Y+7	; 0x07
    27c4:	18 85       	ldd	r17, Y+8	; 0x08
    27c6:	17 01       	movw	r2, r14
    27c8:	28 01       	movw	r4, r16
    27ca:	ae 2c       	mov	r10, r14
    27cc:	b3 2c       	mov	r11, r3
    27ce:	c4 2c       	mov	r12, r4
    27d0:	d5 2c       	mov	r13, r5
    27d2:	e1 2c       	mov	r14, r1
    27d4:	f1 2c       	mov	r15, r1
    27d6:	00 e0       	ldi	r16, 0x00	; 0
    27d8:	10 e0       	ldi	r17, 0x00	; 0
    27da:	0e 94 98 20 	call	0x4130	; 0x4130 <__muldi3>
    27de:	12 2f       	mov	r17, r18
    27e0:	39 87       	std	Y+9, r19	; 0x09
    27e2:	4d 83       	std	Y+5, r20	; 0x05
    27e4:	b5 2f       	mov	r27, r21
    27e6:	f6 2f       	mov	r31, r22
    27e8:	e7 2f       	mov	r30, r23
    27ea:	78 2e       	mov	r7, r24
    27ec:	89 2e       	mov	r8, r25
    27ee:	a0 e0       	ldi	r26, 0x00	; 0
    27f0:	0e 94 32 21 	call	0x4264	; 0x4264 <__cmpdi2_s8>
    27f4:	84 f4       	brge	.+32     	; 0x2816 <get_pressure+0x210>
    27f6:	21 50       	subi	r18, 0x01	; 1
    27f8:	31 09       	sbc	r19, r1
    27fa:	40 4e       	sbci	r20, 0xE0	; 224
    27fc:	5f 4f       	sbci	r21, 0xFF	; 255
    27fe:	6f 4f       	sbci	r22, 0xFF	; 255
    2800:	7f 4f       	sbci	r23, 0xFF	; 255
    2802:	8f 4f       	sbci	r24, 0xFF	; 255
    2804:	9f 4f       	sbci	r25, 0xFF	; 255
    2806:	12 2f       	mov	r17, r18
    2808:	39 87       	std	Y+9, r19	; 0x09
    280a:	4d 83       	std	Y+5, r20	; 0x05
    280c:	b5 2f       	mov	r27, r21
    280e:	f6 2f       	mov	r31, r22
    2810:	e7 2f       	mov	r30, r23
    2812:	78 2e       	mov	r7, r24
    2814:	89 2e       	mov	r8, r25
    2816:	21 2f       	mov	r18, r17
    2818:	39 85       	ldd	r19, Y+9	; 0x09
    281a:	4d 81       	ldd	r20, Y+5	; 0x05
    281c:	5b 2f       	mov	r21, r27
    281e:	6f 2f       	mov	r22, r31
    2820:	7e 2f       	mov	r23, r30
    2822:	87 2d       	mov	r24, r7
    2824:	98 2d       	mov	r25, r8
    2826:	05 e1       	ldi	r16, 0x15	; 21
    2828:	0e 94 02 21 	call	0x4204	; 0x4204 <__ashrdi3>
    282c:	52 2e       	mov	r5, r18
    282e:	63 2e       	mov	r6, r19
    2830:	74 2e       	mov	r7, r20
    2832:	59 8b       	std	Y+17, r21	; 0x11
    2834:	69 87       	std	Y+9, r22	; 0x09
    2836:	f7 2f       	mov	r31, r23
    2838:	e8 2f       	mov	r30, r24
    283a:	49 2e       	mov	r4, r25
    283c:	a0 91 d1 20 	lds	r26, 0x20D1	; 0x8020d1 <c4>
    2840:	b0 91 d2 20 	lds	r27, 0x20D2	; 0x8020d2 <c4+0x1>
    2844:	29 81       	ldd	r18, Y+1	; 0x01
    2846:	3a 81       	ldd	r19, Y+2	; 0x02
    2848:	4b 81       	ldd	r20, Y+3	; 0x03
    284a:	5c 81       	ldd	r21, Y+4	; 0x04
    284c:	0e 94 8e 20 	call	0x411c	; 0x411c <__muluhisi3>
    2850:	4b 01       	movw	r8, r22
    2852:	5c 01       	movw	r10, r24
    2854:	99 23       	and	r25, r25
    2856:	2c f4       	brge	.+10     	; 0x2862 <get_pressure+0x25c>
    2858:	0f e3       	ldi	r16, 0x3F	; 63
    285a:	80 0e       	add	r8, r16
    285c:	91 1c       	adc	r9, r1
    285e:	a1 1c       	adc	r10, r1
    2860:	b1 1c       	adc	r11, r1
    2862:	75 01       	movw	r14, r10
    2864:	64 01       	movw	r12, r8
    2866:	68 94       	set
    2868:	15 f8       	bld	r1, 5
    286a:	f5 94       	asr	r15
    286c:	e7 94       	ror	r14
    286e:	d7 94       	ror	r13
    2870:	c7 94       	ror	r12
    2872:	16 94       	lsr	r1
    2874:	d1 f7       	brne	.-12     	; 0x286a <get_pressure+0x264>
    2876:	bb 0c       	add	r11, r11
    2878:	88 08       	sbc	r8, r8
    287a:	98 2c       	mov	r9, r8
    287c:	54 01       	movw	r10, r8
    287e:	20 91 d3 20 	lds	r18, 0x20D3	; 0x8020d3 <c2>
    2882:	30 91 d4 20 	lds	r19, 0x20D4	; 0x8020d4 <c2+0x1>
    2886:	a9 01       	movw	r20, r18
    2888:	35 2f       	mov	r19, r21
    288a:	40 e0       	ldi	r20, 0x00	; 0
    288c:	50 e0       	ldi	r21, 0x00	; 0
    288e:	60 e0       	ldi	r22, 0x00	; 0
    2890:	70 e0       	ldi	r23, 0x00	; 0
    2892:	80 e0       	ldi	r24, 0x00	; 0
    2894:	90 e0       	ldi	r25, 0x00	; 0
    2896:	01 e1       	ldi	r16, 0x11	; 17
    2898:	0e 94 e9 20 	call	0x41d2	; 0x41d2 <__ashldi3>
    289c:	22 2e       	mov	r2, r18
    289e:	33 2e       	mov	r3, r19
    28a0:	49 83       	std	Y+1, r20	; 0x01
    28a2:	5d 83       	std	Y+5, r21	; 0x05
    28a4:	b6 2f       	mov	r27, r22
    28a6:	a7 2f       	mov	r26, r23
    28a8:	08 2f       	mov	r16, r24
    28aa:	19 2f       	mov	r17, r25
    28ac:	2c 2d       	mov	r18, r12
    28ae:	3d 2d       	mov	r19, r13
    28b0:	4e 2d       	mov	r20, r14
    28b2:	5f 2d       	mov	r21, r15
    28b4:	68 2d       	mov	r22, r8
    28b6:	78 2d       	mov	r23, r8
    28b8:	88 2d       	mov	r24, r8
    28ba:	98 2d       	mov	r25, r8
    28bc:	a2 2c       	mov	r10, r2
    28be:	b3 2c       	mov	r11, r3
    28c0:	c9 80       	ldd	r12, Y+1	; 0x01
    28c2:	dd 80       	ldd	r13, Y+5	; 0x05
    28c4:	eb 2e       	mov	r14, r27
    28c6:	fa 2e       	mov	r15, r26
    28c8:	0e 94 20 21 	call	0x4240	; 0x4240 <__adddi3>
    28cc:	a2 2e       	mov	r10, r18
    28ce:	b3 2e       	mov	r11, r19
    28d0:	c4 2e       	mov	r12, r20
    28d2:	d5 2e       	mov	r13, r21
    28d4:	e6 2e       	mov	r14, r22
    28d6:	f7 2e       	mov	r15, r23
    28d8:	08 2f       	mov	r16, r24
    28da:	19 2f       	mov	r17, r25
    28dc:	25 2d       	mov	r18, r5
    28de:	36 2d       	mov	r19, r6
    28e0:	47 2d       	mov	r20, r7
    28e2:	59 89       	ldd	r21, Y+17	; 0x11
    28e4:	69 85       	ldd	r22, Y+9	; 0x09
    28e6:	7f 2f       	mov	r23, r31
    28e8:	8e 2f       	mov	r24, r30
    28ea:	94 2d       	mov	r25, r4
    28ec:	0e 94 29 21 	call	0x4252	; 0x4252 <__subdi3>
    28f0:	12 2f       	mov	r17, r18
    28f2:	3d 83       	std	Y+5, r19	; 0x05
    28f4:	49 83       	std	Y+1, r20	; 0x01
    28f6:	b5 2f       	mov	r27, r21
    28f8:	f6 2f       	mov	r31, r22
    28fa:	e7 2f       	mov	r30, r23
    28fc:	78 2e       	mov	r7, r24
    28fe:	89 2e       	mov	r8, r25
    2900:	a0 e0       	ldi	r26, 0x00	; 0
    2902:	0e 94 32 21 	call	0x4264	; 0x4264 <__cmpdi2_s8>
    2906:	84 f4       	brge	.+32     	; 0x2928 <get_pressure+0x322>
    2908:	21 50       	subi	r18, 0x01	; 1
    290a:	30 48       	sbci	r19, 0x80	; 128
    290c:	4f 4f       	sbci	r20, 0xFF	; 255
    290e:	5f 4f       	sbci	r21, 0xFF	; 255
    2910:	6f 4f       	sbci	r22, 0xFF	; 255
    2912:	7f 4f       	sbci	r23, 0xFF	; 255
    2914:	8f 4f       	sbci	r24, 0xFF	; 255
    2916:	9f 4f       	sbci	r25, 0xFF	; 255
    2918:	12 2f       	mov	r17, r18
    291a:	3d 83       	std	Y+5, r19	; 0x05
    291c:	49 83       	std	Y+1, r20	; 0x01
    291e:	b5 2f       	mov	r27, r21
    2920:	f6 2f       	mov	r31, r22
    2922:	e7 2f       	mov	r30, r23
    2924:	78 2e       	mov	r7, r24
    2926:	89 2e       	mov	r8, r25
    2928:	21 2f       	mov	r18, r17
    292a:	3d 81       	ldd	r19, Y+5	; 0x05
    292c:	49 81       	ldd	r20, Y+1	; 0x01
    292e:	5b 2f       	mov	r21, r27
    2930:	6f 2f       	mov	r22, r31
    2932:	7e 2f       	mov	r23, r30
    2934:	87 2d       	mov	r24, r7
    2936:	98 2d       	mov	r25, r8
    2938:	0f e0       	ldi	r16, 0x0F	; 15
    293a:	0e 94 02 21 	call	0x4204	; 0x4204 <__ashrdi3>
    293e:	62 2f       	mov	r22, r18
    2940:	73 2f       	mov	r23, r19
    2942:	84 2f       	mov	r24, r20
}
    2944:	95 2f       	mov	r25, r21
    2946:	61 96       	adiw	r28, 0x11	; 17
    2948:	cd bf       	out	0x3d, r28	; 61
    294a:	de bf       	out	0x3e, r29	; 62
    294c:	df 91       	pop	r29
    294e:	cf 91       	pop	r28
    2950:	1f 91       	pop	r17
    2952:	0f 91       	pop	r16
    2954:	ff 90       	pop	r15
    2956:	ef 90       	pop	r14
    2958:	df 90       	pop	r13
    295a:	cf 90       	pop	r12
    295c:	bf 90       	pop	r11
    295e:	af 90       	pop	r10
    2960:	9f 90       	pop	r9
    2962:	8f 90       	pop	r8
    2964:	7f 90       	pop	r7
    2966:	6f 90       	pop	r6
    2968:	5f 90       	pop	r5
    296a:	4f 90       	pop	r4
    296c:	3f 90       	pop	r3
    296e:	2f 90       	pop	r2
    2970:	08 95       	ret

00002972 <adc_init>:
#include <asf.h>
#include <math.h>
#include "thermistor.h"


void adc_init(void){	//This is for PA6... mostly
    2972:	ff 92       	push	r15
    2974:	0f 93       	push	r16
    2976:	1f 93       	push	r17
    2978:	cf 93       	push	r28
    297a:	df 93       	push	r29
	PORTA.DIRCLR = 0b01000000;
    297c:	e0 e0       	ldi	r30, 0x00	; 0
    297e:	f6 e0       	ldi	r31, 0x06	; 6
    2980:	80 e4       	ldi	r24, 0x40	; 64
    2982:	82 83       	std	Z+2, r24	; 0x02
	PORTA.DIR = 0b10111111;
    2984:	8f eb       	ldi	r24, 0xBF	; 191
    2986:	80 83       	st	Z, r24
	ADCA.CTRLA = 0b00000001;
    2988:	c0 e0       	ldi	r28, 0x00	; 0
    298a:	d2 e0       	ldi	r29, 0x02	; 2
    298c:	ff 24       	eor	r15, r15
    298e:	f3 94       	inc	r15
    2990:	f8 82       	st	Y, r15
	ADCA.CTRLB = 0b00000000;
    2992:	19 82       	std	Y+1, r1	; 0x01
	ADCA.REFCTRL = 0b00010000;
    2994:	80 e1       	ldi	r24, 0x10	; 16
    2996:	8a 83       	std	Y+2, r24	; 0x02
	ADCA.PRESCALER = 0b00000101;
    2998:	85 e0       	ldi	r24, 0x05	; 5
    299a:	8c 83       	std	Y+4, r24	; 0x04
 *
 * \param address Byte offset into the signature row
 */
static inline uint8_t nvm_read_production_signature_row(uint8_t address)
{
	return nvm_read_byte(NVM_CMD_READ_CALIB_ROW_gc, address);
    299c:	61 e2       	ldi	r22, 0x21	; 33
    299e:	70 e0       	ldi	r23, 0x00	; 0
    29a0:	82 e0       	ldi	r24, 0x02	; 2
    29a2:	0e 94 fd 05 	call	0xbfa	; 0xbfa <nvm_read_byte>
	uint16_t data;

	switch (cal) {
#ifdef ADCA
	case ADC_CAL_ADCA:
		data = nvm_read_production_signature_row(ADCACAL1);
    29a6:	08 2f       	mov	r16, r24
    29a8:	10 e0       	ldi	r17, 0x00	; 0
		data <<= 8;
    29aa:	10 2f       	mov	r17, r16
    29ac:	00 27       	eor	r16, r16
    29ae:	60 e2       	ldi	r22, 0x20	; 32
    29b0:	70 e0       	ldi	r23, 0x00	; 0
    29b2:	82 e0       	ldi	r24, 0x02	; 2
    29b4:	0e 94 fd 05 	call	0xbfa	; 0xbfa <nvm_read_byte>
		data |= nvm_read_production_signature_row(ADCACAL0);
    29b8:	08 2b       	or	r16, r24
	ADCA.CAL = adc_get_calibration_data(ADC_CAL_ADCA);
    29ba:	0c 87       	std	Y+12, r16	; 0x0c
    29bc:	1d 87       	std	Y+13, r17	; 0x0d
	
	ADCA.CH0.CTRL = 0b00000001;
    29be:	f8 a2       	std	Y+32, r15	; 0x20
	ADCA.CH0.MUXCTRL = 0b00000110;
    29c0:	86 e0       	ldi	r24, 0x06	; 6
    29c2:	89 a3       	std	Y+33, r24	; 0x21
}
    29c4:	df 91       	pop	r29
    29c6:	cf 91       	pop	r28
    29c8:	1f 91       	pop	r17
    29ca:	0f 91       	pop	r16
    29cc:	ff 90       	pop	r15
    29ce:	08 95       	ret

000029d0 <getVoltage>:


float getVoltage(void){
	ADCA.CH0.CTRL  |= 0b10000000;
    29d0:	e0 e0       	ldi	r30, 0x00	; 0
    29d2:	f2 e0       	ldi	r31, 0x02	; 2
    29d4:	80 a1       	ldd	r24, Z+32	; 0x20
    29d6:	80 68       	ori	r24, 0x80	; 128
    29d8:	80 a3       	std	Z+32, r24	; 0x20
	//printf("one");
	while(ADCA.CH0.INTFLAGS == 0);
    29da:	83 a1       	ldd	r24, Z+35	; 0x23
    29dc:	88 23       	and	r24, r24
    29de:	e9 f3       	breq	.-6      	; 0x29da <getVoltage+0xa>
	//printf("two");
	ADCA.CH0.INTFLAGS = 0;
    29e0:	e0 e0       	ldi	r30, 0x00	; 0
    29e2:	f2 e0       	ldi	r31, 0x02	; 2
    29e4:	13 a2       	std	Z+35, r1	; 0x23
	//printf("three");
	uint16_t adcReading = ADCA.CH0.RES;
    29e6:	64 a1       	ldd	r22, Z+36	; 0x24
    29e8:	75 a1       	ldd	r23, Z+37	; 0x25
	//printf("ADC reading = %u\n", adcReading);
	float voltage = 0.0004899 * (float)(adcReading) - 0.0856326;	//We have to find these numbers by applying differing voltage, printing ADC readings, and solve equation
	//printf("voltage: %f \n", voltage);
	return voltage;
    29ea:	80 e0       	ldi	r24, 0x00	; 0
    29ec:	90 e0       	ldi	r25, 0x00	; 0
    29ee:	76 d5       	rcall	.+2796   	; 0x34dc <__floatunsisf>
    29f0:	22 ea       	ldi	r18, 0xA2	; 162
    29f2:	3c e6       	ldi	r19, 0x6C	; 108
    29f4:	40 e0       	ldi	r20, 0x00	; 0
    29f6:	5a e3       	ldi	r21, 0x3A	; 58
    29f8:	44 d6       	rcall	.+3208   	; 0x3682 <__mulsf3>
    29fa:	25 e2       	ldi	r18, 0x25	; 37
    29fc:	30 e6       	ldi	r19, 0x60	; 96
    29fe:	4f ea       	ldi	r20, 0xAF	; 175
    2a00:	5d e3       	ldi	r21, 0x3D	; 61
	
}
    2a02:	6e c4       	rjmp	.+2268   	; 0x32e0 <__subsf3>

00002a04 <getTemperature>:
	uint16_t voltage = getVoltage();
	uint16_t current = (voltage/10000);
	return current;
}
*/
float getTemperature(void){
    2a04:	8f 92       	push	r8
    2a06:	9f 92       	push	r9
    2a08:	af 92       	push	r10
    2a0a:	bf 92       	push	r11
    2a0c:	cf 92       	push	r12
    2a0e:	df 92       	push	r13
    2a10:	ef 92       	push	r14
    2a12:	ff 92       	push	r15
    2a14:	0f 93       	push	r16
    2a16:	1f 93       	push	r17
    2a18:	cf 93       	push	r28
	float voltage = getVoltage();
    2a1a:	df 93       	push	r29
    2a1c:	d9 df       	rcall	.-78     	; 0x29d0 <getVoltage>
    2a1e:	6b 01       	movw	r12, r22
	//uint16_t current = getCurrent();
	//uint16_t resistance = voltage/current;
	float resistance = (voltage*10000)/(voltage-3.3);
    2a20:	7c 01       	movw	r14, r24
    2a22:	20 e0       	ldi	r18, 0x00	; 0
    2a24:	30 e4       	ldi	r19, 0x40	; 64
    2a26:	4c e1       	ldi	r20, 0x1C	; 28
    2a28:	56 e4       	ldi	r21, 0x46	; 70
    2a2a:	2b d6       	rcall	.+3158   	; 0x3682 <__mulsf3>
    2a2c:	4b 01       	movw	r8, r22
    2a2e:	5c 01       	movw	r10, r24
    2a30:	23 e3       	ldi	r18, 0x33	; 51
    2a32:	33 e3       	ldi	r19, 0x33	; 51
    2a34:	43 e5       	ldi	r20, 0x53	; 83
    2a36:	50 e4       	ldi	r21, 0x40	; 64
    2a38:	c7 01       	movw	r24, r14
    2a3a:	b6 01       	movw	r22, r12
    2a3c:	51 d4       	rcall	.+2210   	; 0x32e0 <__subsf3>
    2a3e:	9b 01       	movw	r18, r22
    2a40:	ac 01       	movw	r20, r24
    2a42:	c5 01       	movw	r24, r10
    2a44:	b4 01       	movw	r22, r8
    2a46:	b1 d4       	rcall	.+2402   	; 0x33aa <__divsf3>
    2a48:	06 2f       	mov	r16, r22
    2a4a:	17 2f       	mov	r17, r23
    2a4c:	d8 2f       	mov	r29, r24
	printf("resistance = %f \n", resistance);
    2a4e:	c9 2f       	mov	r28, r25
    2a50:	9f 93       	push	r25
    2a52:	8f 93       	push	r24
    2a54:	7f 93       	push	r23
    2a56:	6f 93       	push	r22
    2a58:	84 e1       	ldi	r24, 0x14	; 20
    2a5a:	90 e2       	ldi	r25, 0x20	; 32
    2a5c:	9f 93       	push	r25
    2a5e:	8f 93       	push	r24
    2a60:	0e 94 c1 22 	call	0x4582	; 0x4582 <printf>
	uint32_t temperature = 3977.0/(log(resistance/(10000.0*pow(2.71828,(-3977.0/298.15)))));
    2a64:	2b e5       	ldi	r18, 0x5B	; 91
    2a66:	30 ef       	ldi	r19, 0xF0	; 240
    2a68:	43 e8       	ldi	r20, 0x83	; 131
    2a6a:	5c e3       	ldi	r21, 0x3C	; 60
    2a6c:	60 2f       	mov	r22, r16
    2a6e:	71 2f       	mov	r23, r17
    2a70:	8d 2f       	mov	r24, r29
    2a72:	9c 2f       	mov	r25, r28
	//float temperature = pow((.003351016+.0002569850*log(resistance/10000)+.000002620131*pow(log(resistance/10000),2)),-1);
	return temperature;
    2a74:	9a d4       	rcall	.+2356   	; 0x33aa <__divsf3>
    2a76:	c5 d5       	rcall	.+2954   	; 0x3602 <log>
    2a78:	9b 01       	movw	r18, r22
    2a7a:	ac 01       	movw	r20, r24
    2a7c:	60 e0       	ldi	r22, 0x00	; 0
    2a7e:	70 e9       	ldi	r23, 0x90	; 144
    2a80:	88 e7       	ldi	r24, 0x78	; 120
    2a82:	95 e4       	ldi	r25, 0x45	; 69
    2a84:	92 d4       	rcall	.+2340   	; 0x33aa <__divsf3>
    2a86:	fe d4       	rcall	.+2556   	; 0x3484 <__fixunssfsi>
    2a88:	29 d5       	rcall	.+2642   	; 0x34dc <__floatunsisf>
    2a8a:	0f 90       	pop	r0
    2a8c:	0f 90       	pop	r0
    2a8e:	0f 90       	pop	r0
    2a90:	0f 90       	pop	r0
	
	
	
    2a92:	0f 90       	pop	r0
    2a94:	0f 90       	pop	r0
    2a96:	df 91       	pop	r29
    2a98:	cf 91       	pop	r28
    2a9a:	1f 91       	pop	r17
    2a9c:	0f 91       	pop	r16
    2a9e:	ff 90       	pop	r15
    2aa0:	ef 90       	pop	r14
    2aa2:	df 90       	pop	r13
    2aa4:	cf 90       	pop	r12
    2aa6:	bf 90       	pop	r11
    2aa8:	af 90       	pop	r10
    2aaa:	9f 90       	pop	r9
    2aac:	8f 90       	pop	r8
    2aae:	08 95       	ret

00002ab0 <usart_serial_getchar>:
		read_buffer[loc] = usart_getchar(usart_channel);
		loc++;
		
	}
	return read_buffer;
}
    2ab0:	cf 93       	push	r28
    2ab2:	df 93       	push	r29
    2ab4:	eb 01       	movw	r28, r22
    2ab6:	73 d9       	rcall	.-3354   	; 0x1d9e <usart_getchar>
    2ab8:	88 83       	st	Y, r24
    2aba:	df 91       	pop	r29
    2abc:	cf 91       	pop	r28
    2abe:	08 95       	ret

00002ac0 <usart_serial_putchar>:
    2ac0:	66 c9       	rjmp	.-3380   	; 0x1d8e <usart_putchar>
    2ac2:	08 95       	ret

00002ac4 <usart_init>:
    2ac4:	ef 92       	push	r14
    2ac6:	ff 92       	push	r15
    2ac8:	0f 93       	push	r16
    2aca:	1f 93       	push	r17
    2acc:	cf 93       	push	r28
    2ace:	df 93       	push	r29
    2ad0:	cd b7       	in	r28, 0x3d	; 61
    2ad2:	de b7       	in	r29, 0x3e	; 62
    2ad4:	27 97       	sbiw	r28, 0x07	; 7
    2ad6:	cd bf       	out	0x3d, r28	; 61
    2ad8:	de bf       	out	0x3e, r29	; 62
    2ada:	e0 e6       	ldi	r30, 0x60	; 96
    2adc:	f6 e0       	ldi	r31, 0x06	; 6
    2ade:	88 e0       	ldi	r24, 0x08	; 8
    2ae0:	81 83       	std	Z+1, r24	; 0x01
    2ae2:	85 83       	std	Z+5, r24	; 0x05
    2ae4:	e0 e4       	ldi	r30, 0x40	; 64
    2ae6:	f6 e0       	ldi	r31, 0x06	; 6
    2ae8:	81 83       	std	Z+1, r24	; 0x01
    2aea:	85 83       	std	Z+5, r24	; 0x05
    2aec:	80 ea       	ldi	r24, 0xA0	; 160
    2aee:	99 e0       	ldi	r25, 0x09	; 9
    2af0:	80 93 c5 20 	sts	0x20C5, r24	; 0x8020c5 <stdio_base>
    2af4:	90 93 c6 20 	sts	0x20C6, r25	; 0x8020c6 <stdio_base+0x1>
    2af8:	0f 2e       	mov	r0, r31
    2afa:	f0 e6       	ldi	r31, 0x60	; 96
    2afc:	ef 2e       	mov	r14, r31
    2afe:	f5 e1       	ldi	r31, 0x15	; 21
    2b00:	ff 2e       	mov	r15, r31
    2b02:	f0 2d       	mov	r31, r0
    2b04:	e0 92 c3 20 	sts	0x20C3, r14	; 0x8020c3 <ptr_put>
    2b08:	f0 92 c4 20 	sts	0x20C4, r15	; 0x8020c4 <ptr_put+0x1>
    2b0c:	08 e5       	ldi	r16, 0x58	; 88
    2b0e:	15 e1       	ldi	r17, 0x15	; 21
    2b10:	00 93 c1 20 	sts	0x20C1, r16	; 0x8020c1 <ptr_get>
    2b14:	10 93 c2 20 	sts	0x20C2, r17	; 0x8020c2 <ptr_get+0x1>
    2b18:	ed e0       	ldi	r30, 0x0D	; 13
    2b1a:	f0 e2       	ldi	r31, 0x20	; 32
    2b1c:	84 81       	ldd	r24, Z+4	; 0x04
    2b1e:	8d 83       	std	Y+5, r24	; 0x05
    2b20:	85 81       	ldd	r24, Z+5	; 0x05
    2b22:	8e 83       	std	Y+6, r24	; 0x06
    2b24:	86 81       	ldd	r24, Z+6	; 0x06
    2b26:	8f 83       	std	Y+7, r24	; 0x07
    2b28:	80 81       	ld	r24, Z
    2b2a:	91 81       	ldd	r25, Z+1	; 0x01
    2b2c:	a2 81       	ldd	r26, Z+2	; 0x02
    2b2e:	b3 81       	ldd	r27, Z+3	; 0x03
    2b30:	89 83       	std	Y+1, r24	; 0x01
    2b32:	9a 83       	std	Y+2, r25	; 0x02
    2b34:	ab 83       	std	Y+3, r26	; 0x03
    2b36:	bc 83       	std	Y+4, r27	; 0x04
    2b38:	60 e1       	ldi	r22, 0x10	; 16
    2b3a:	84 e0       	ldi	r24, 0x04	; 4
    2b3c:	0e 94 ce 03 	call	0x79c	; 0x79c <sysclk_enable_module>
    2b40:	be 01       	movw	r22, r28
    2b42:	6f 5f       	subi	r22, 0xFF	; 255
    2b44:	7f 4f       	sbci	r23, 0xFF	; 255
    2b46:	80 ea       	ldi	r24, 0xA0	; 160
    2b48:	99 e0       	ldi	r25, 0x09	; 9
    2b4a:	42 da       	rcall	.-2940   	; 0x1fd0 <usart_init_rs232>
    2b4c:	64 ee       	ldi	r22, 0xE4	; 228
    2b4e:	73 e0       	ldi	r23, 0x03	; 3
    2b50:	8d ef       	ldi	r24, 0xFD	; 253
    2b52:	93 e0       	ldi	r25, 0x03	; 3
    2b54:	0e 94 3b 22 	call	0x4476	; 0x4476 <fdevopen>
    2b58:	80 ea       	ldi	r24, 0xA0	; 160
    2b5a:	98 e0       	ldi	r25, 0x08	; 8
    2b5c:	80 93 c5 20 	sts	0x20C5, r24	; 0x8020c5 <stdio_base>
    2b60:	90 93 c6 20 	sts	0x20C6, r25	; 0x8020c6 <stdio_base+0x1>
    2b64:	e0 92 c3 20 	sts	0x20C3, r14	; 0x8020c3 <ptr_put>
    2b68:	f0 92 c4 20 	sts	0x20C4, r15	; 0x8020c4 <ptr_put+0x1>
    2b6c:	00 93 c1 20 	sts	0x20C1, r16	; 0x8020c1 <ptr_get>
    2b70:	10 93 c2 20 	sts	0x20C2, r17	; 0x8020c2 <ptr_get+0x1>
    2b74:	e6 e0       	ldi	r30, 0x06	; 6
    2b76:	f0 e2       	ldi	r31, 0x20	; 32
    2b78:	84 81       	ldd	r24, Z+4	; 0x04
    2b7a:	8d 83       	std	Y+5, r24	; 0x05
    2b7c:	85 81       	ldd	r24, Z+5	; 0x05
    2b7e:	8e 83       	std	Y+6, r24	; 0x06
    2b80:	86 81       	ldd	r24, Z+6	; 0x06
    2b82:	8f 83       	std	Y+7, r24	; 0x07
    2b84:	80 81       	ld	r24, Z
    2b86:	91 81       	ldd	r25, Z+1	; 0x01
    2b88:	a2 81       	ldd	r26, Z+2	; 0x02
    2b8a:	b3 81       	ldd	r27, Z+3	; 0x03
    2b8c:	89 83       	std	Y+1, r24	; 0x01
    2b8e:	9a 83       	std	Y+2, r25	; 0x02
    2b90:	ab 83       	std	Y+3, r26	; 0x03
    2b92:	bc 83       	std	Y+4, r27	; 0x04
    2b94:	60 e1       	ldi	r22, 0x10	; 16
    2b96:	83 e0       	ldi	r24, 0x03	; 3
    2b98:	0e 94 ce 03 	call	0x79c	; 0x79c <sysclk_enable_module>
    2b9c:	be 01       	movw	r22, r28
    2b9e:	6f 5f       	subi	r22, 0xFF	; 255
    2ba0:	7f 4f       	sbci	r23, 0xFF	; 255
    2ba2:	80 ea       	ldi	r24, 0xA0	; 160
    2ba4:	98 e0       	ldi	r25, 0x08	; 8
    2ba6:	14 da       	rcall	.-3032   	; 0x1fd0 <usart_init_rs232>
    2ba8:	64 ee       	ldi	r22, 0xE4	; 228
    2baa:	73 e0       	ldi	r23, 0x03	; 3
    2bac:	8d ef       	ldi	r24, 0xFD	; 253
    2bae:	93 e0       	ldi	r25, 0x03	; 3
    2bb0:	0e 94 3b 22 	call	0x4476	; 0x4476 <fdevopen>
    2bb4:	27 96       	adiw	r28, 0x07	; 7
    2bb6:	cd bf       	out	0x3d, r28	; 61
    2bb8:	de bf       	out	0x3e, r29	; 62
    2bba:	df 91       	pop	r29
    2bbc:	cf 91       	pop	r28
    2bbe:	1f 91       	pop	r17
    2bc0:	0f 91       	pop	r16
    2bc2:	ff 90       	pop	r15
    2bc4:	ef 90       	pop	r14
    2bc6:	08 95       	ret

00002bc8 <usart_tx>:
    2bc8:	cf 92       	push	r12
    2bca:	df 92       	push	r13
    2bcc:	ef 92       	push	r14
    2bce:	ff 92       	push	r15
    2bd0:	0f 93       	push	r16
    2bd2:	1f 93       	push	r17
    2bd4:	cf 93       	push	r28
    2bd6:	df 93       	push	r29
    2bd8:	cd b7       	in	r28, 0x3d	; 61
    2bda:	de b7       	in	r29, 0x3e	; 62
    2bdc:	da 95       	dec	r29
    2bde:	cd bf       	out	0x3d, r28	; 61
    2be0:	de bf       	out	0x3e, r29	; 62
    2be2:	c4 5f       	subi	r28, 0xF4	; 244
    2be4:	de 4f       	sbci	r29, 0xFE	; 254
    2be6:	e8 80       	ld	r14, Y
    2be8:	f9 80       	ldd	r15, Y+1	; 0x01
    2bea:	cc 50       	subi	r28, 0x0C	; 12
    2bec:	d1 40       	sbci	r29, 0x01	; 1
    2bee:	ae 01       	movw	r20, r28
    2bf0:	40 5f       	subi	r20, 0xF0	; 240
    2bf2:	5e 4f       	sbci	r21, 0xFE	; 254
    2bf4:	c2 5f       	subi	r28, 0xF2	; 242
    2bf6:	de 4f       	sbci	r29, 0xFE	; 254
    2bf8:	68 81       	ld	r22, Y
    2bfa:	79 81       	ldd	r23, Y+1	; 0x01
    2bfc:	ce 50       	subi	r28, 0x0E	; 14
    2bfe:	d1 40       	sbci	r29, 0x01	; 1
    2c00:	ce 01       	movw	r24, r28
    2c02:	01 96       	adiw	r24, 0x01	; 1
    2c04:	0e 94 04 23 	call	0x4608	; 0x4608 <vsprintf>
    2c08:	81 e2       	ldi	r24, 0x21	; 33
    2c0a:	c0 50       	subi	r28, 0x00	; 0
    2c0c:	df 4f       	sbci	r29, 0xFF	; 255
    2c0e:	88 83       	st	Y, r24
    2c10:	c0 50       	subi	r28, 0x00	; 0
    2c12:	d1 40       	sbci	r29, 0x01	; 1
    2c14:	8e 01       	movw	r16, r28
    2c16:	0f 5f       	subi	r16, 0xFF	; 255
    2c18:	1f 4f       	sbci	r17, 0xFF	; 255
    2c1a:	6e 01       	movw	r12, r28
    2c1c:	81 e0       	ldi	r24, 0x01	; 1
    2c1e:	c8 0e       	add	r12, r24
    2c20:	d8 1e       	adc	r13, r24
    2c22:	f8 01       	movw	r30, r16
    2c24:	61 91       	ld	r22, Z+
    2c26:	8f 01       	movw	r16, r30
    2c28:	c7 01       	movw	r24, r14
    2c2a:	b1 d8       	rcall	.-3742   	; 0x1d8e <usart_putchar>
    2c2c:	0c 15       	cp	r16, r12
    2c2e:	1d 05       	cpc	r17, r13
    2c30:	c1 f7       	brne	.-16     	; 0x2c22 <usart_tx+0x5a>
    2c32:	d3 95       	inc	r29
    2c34:	cd bf       	out	0x3d, r28	; 61
    2c36:	de bf       	out	0x3e, r29	; 62
    2c38:	df 91       	pop	r29
    2c3a:	cf 91       	pop	r28
    2c3c:	1f 91       	pop	r17
    2c3e:	0f 91       	pop	r16
    2c40:	ff 90       	pop	r15
    2c42:	ef 90       	pop	r14
    2c44:	df 90       	pop	r13
    2c46:	cf 90       	pop	r12
    2c48:	08 95       	ret

00002c4a <__vector_88>:
	
ISR(USARTD0_RXC_vect){
    2c4a:	1f 92       	push	r1
    2c4c:	0f 92       	push	r0
    2c4e:	0f b6       	in	r0, 0x3f	; 63
    2c50:	0f 92       	push	r0
    2c52:	11 24       	eor	r1, r1
    2c54:	08 b6       	in	r0, 0x38	; 56
    2c56:	0f 92       	push	r0
    2c58:	18 be       	out	0x38, r1	; 56
    2c5a:	09 b6       	in	r0, 0x39	; 57
    2c5c:	0f 92       	push	r0
    2c5e:	19 be       	out	0x39, r1	; 57
    2c60:	0b b6       	in	r0, 0x3b	; 59
    2c62:	0f 92       	push	r0
    2c64:	1b be       	out	0x3b, r1	; 59
    2c66:	2f 93       	push	r18
    2c68:	3f 93       	push	r19
    2c6a:	4f 93       	push	r20
    2c6c:	5f 93       	push	r21
    2c6e:	6f 93       	push	r22
    2c70:	7f 93       	push	r23
    2c72:	8f 93       	push	r24
    2c74:	9f 93       	push	r25
    2c76:	af 93       	push	r26
    2c78:	bf 93       	push	r27
    2c7a:	ef 93       	push	r30
    2c7c:	ff 93       	push	r31
	//If we send reset things to the board
	xbee_rx_temporary = usart_getchar(&USARTD0);
    2c7e:	80 ea       	ldi	r24, 0xA0	; 160
    2c80:	99 e0       	ldi	r25, 0x09	; 9
    2c82:	8d d8       	rcall	.-3814   	; 0x1d9e <usart_getchar>
    2c84:	80 93 db 20 	sts	0x20DB, r24	; 0x8020db <xbee_rx_temporary>
	
	switch(xbee_rx_temporary){
    2c88:	e0 91 db 20 	lds	r30, 0x20DB	; 0x8020db <xbee_rx_temporary>
    2c8c:	8e 2f       	mov	r24, r30
    2c8e:	ee 0f       	add	r30, r30
    2c90:	99 0b       	sbc	r25, r25
    2c92:	aa 0b       	sbc	r26, r26
    2c94:	bb 0b       	sbc	r27, r27
    2c96:	fc 01       	movw	r30, r24
    2c98:	b1 97       	sbiw	r30, 0x21	; 33
    2c9a:	ef 33       	cpi	r30, 0x3F	; 63
    2c9c:	f1 05       	cpc	r31, r1
    2c9e:	a0 f4       	brcc	.+40     	; 0x2cc8 <__vector_88+0x7e>
    2ca0:	88 27       	eor	r24, r24
    2ca2:	e2 50       	subi	r30, 0x02	; 2
    2ca4:	ff 4f       	sbci	r31, 0xFF	; 255
    2ca6:	8f 4f       	sbci	r24, 0xFF	; 255
    2ca8:	0c 94 85 20 	jmp	0x410a	; 0x410a <__tablejump2__>
		case '!':						//reset MCU 
			wdt_reset_mcu();
    2cac:	0e 94 85 03 	call	0x70a	; 0x70a <wdt_reset_mcu>
			break;
		case '&':						//deploy parachute
			parachute_hotwire();
			break;
		case '*':						//detatching heatshield
			heatshield_detatch_hotwire();
    2cb0:	0b c0       	rjmp	.+22     	; 0x2cc8 <__vector_88+0x7e>
			break;
		case '(':						//buzzer on
			buzzer_on();
    2cb2:	89 db       	rcall	.-2286   	; 0x23c6 <heatshield_hotwire>
			break;
    2cb4:	09 c0       	rjmp	.+18     	; 0x2cc8 <__vector_88+0x7e>
		case ')':						//buzzer off
			buzzer_off();
    2cb6:	9c db       	rcall	.-2248   	; 0x23f0 <parachute_hotwire>
    2cb8:	07 c0       	rjmp	.+14     	; 0x2cc8 <__vector_88+0x7e>
			break;
    2cba:	af db       	rcall	.-2210   	; 0x241a <heatshield_detatch_hotwire>
		case '_':						//camera on
			camera_on();
    2cbc:	05 c0       	rjmp	.+10     	; 0x2cc8 <__vector_88+0x7e>
    2cbe:	c2 db       	rcall	.-2172   	; 0x2444 <buzzer_on>
			break;
	}
	
}
    2cc0:	03 c0       	rjmp	.+6      	; 0x2cc8 <__vector_88+0x7e>
    2cc2:	c9 db       	rcall	.-2158   	; 0x2456 <buzzer_off>
    2cc4:	01 c0       	rjmp	.+2      	; 0x2cc8 <__vector_88+0x7e>
    2cc6:	d0 db       	rcall	.-2144   	; 0x2468 <camera_on>
    2cc8:	ff 91       	pop	r31
    2cca:	ef 91       	pop	r30
    2ccc:	bf 91       	pop	r27
    2cce:	af 91       	pop	r26
    2cd0:	9f 91       	pop	r25
    2cd2:	8f 91       	pop	r24
    2cd4:	7f 91       	pop	r23
    2cd6:	6f 91       	pop	r22
    2cd8:	5f 91       	pop	r21
    2cda:	4f 91       	pop	r20
    2cdc:	3f 91       	pop	r19
    2cde:	2f 91       	pop	r18
    2ce0:	0f 90       	pop	r0
    2ce2:	0b be       	out	0x3b, r0	; 59
    2ce4:	0f 90       	pop	r0
    2ce6:	09 be       	out	0x39, r0	; 57
    2ce8:	0f 90       	pop	r0
    2cea:	08 be       	out	0x38, r0	; 56
    2cec:	0f 90       	pop	r0
 * \param c       Character to write.
 *
 * \return Status code
 */
static inline enum status_code usart_serial_putchar(usart_if usart, uint8_t c)
{
    2cee:	0f be       	out	0x3f, r0	; 63
    2cf0:	0f 90       	pop	r0
    2cf2:	1f 90       	pop	r1
    2cf4:	18 95       	reti

00002cf6 <__portable_avr_delay_cycles>:
 *
 * @{
 */
__always_optimize
static inline void __portable_avr_delay_cycles(unsigned long n)
{
    2cf6:	04 c0       	rjmp	.+8      	; 0x2d00 <__portable_avr_delay_cycles+0xa>
	while (n) {
		barrier();
		n--;
    2cf8:	61 50       	subi	r22, 0x01	; 1
    2cfa:	71 09       	sbc	r23, r1
    2cfc:	81 09       	sbc	r24, r1
    2cfe:	91 09       	sbc	r25, r1
 * @{
 */
__always_optimize
static inline void __portable_avr_delay_cycles(unsigned long n)
{
	while (n) {
    2d00:	61 15       	cp	r22, r1
    2d02:	71 05       	cpc	r23, r1
    2d04:	81 05       	cpc	r24, r1
    2d06:	91 05       	cpc	r25, r1
    2d08:	b9 f7       	brne	.-18     	; 0x2cf8 <__portable_avr_delay_cycles+0x2>
    2d0a:	08 95       	ret

00002d0c <sysclk_enable_peripheral_clock>:
 *
 * \param module Pointer to the module's base address.
 */
static inline void sysclk_enable_peripheral_clock(const volatile void *module)
{
	if (module == NULL) {
    2d0c:	00 97       	sbiw	r24, 0x00	; 0
    2d0e:	09 f4       	brne	.+2      	; 0x2d12 <sysclk_enable_peripheral_clock+0x6>
    2d10:	5c c1       	rjmp	.+696    	; 0x2fca <sysclk_enable_peripheral_clock+0x2be>
		Assert(false);
	}
#ifdef AES
	else if (module == &AES) {
    2d12:	80 3c       	cpi	r24, 0xC0	; 192
    2d14:	91 05       	cpc	r25, r1
    2d16:	29 f4       	brne	.+10     	; 0x2d22 <sysclk_enable_peripheral_clock+0x16>
		sysclk_enable_module(SYSCLK_PORT_GEN, SYSCLK_AES);
    2d18:	60 e1       	ldi	r22, 0x10	; 16
    2d1a:	80 e0       	ldi	r24, 0x00	; 0
    2d1c:	0c 94 ce 03 	jmp	0x79c	; 0x79c <sysclk_enable_module>
    2d20:	08 95       	ret
	}
#endif
#ifdef EBI
	else if (module == &EBI) {
    2d22:	80 34       	cpi	r24, 0x40	; 64
    2d24:	24 e0       	ldi	r18, 0x04	; 4
    2d26:	92 07       	cpc	r25, r18
    2d28:	29 f4       	brne	.+10     	; 0x2d34 <sysclk_enable_peripheral_clock+0x28>
		sysclk_enable_module(SYSCLK_PORT_GEN, SYSCLK_EBI);
    2d2a:	68 e0       	ldi	r22, 0x08	; 8
    2d2c:	80 e0       	ldi	r24, 0x00	; 0
    2d2e:	0c 94 ce 03 	jmp	0x79c	; 0x79c <sysclk_enable_module>
    2d32:	08 95       	ret
	}
#endif
#ifdef RTC
	else if (module == &RTC) {
    2d34:	81 15       	cp	r24, r1
    2d36:	24 e0       	ldi	r18, 0x04	; 4
    2d38:	92 07       	cpc	r25, r18
    2d3a:	29 f4       	brne	.+10     	; 0x2d46 <sysclk_enable_peripheral_clock+0x3a>
		sysclk_enable_module(SYSCLK_PORT_GEN, SYSCLK_RTC);
    2d3c:	64 e0       	ldi	r22, 0x04	; 4
    2d3e:	80 e0       	ldi	r24, 0x00	; 0
    2d40:	0c 94 ce 03 	jmp	0x79c	; 0x79c <sysclk_enable_module>
    2d44:	08 95       	ret
	}
#endif
#ifdef EVSYS
	else if (module == &EVSYS) {
    2d46:	80 38       	cpi	r24, 0x80	; 128
    2d48:	21 e0       	ldi	r18, 0x01	; 1
    2d4a:	92 07       	cpc	r25, r18
    2d4c:	29 f4       	brne	.+10     	; 0x2d58 <sysclk_enable_peripheral_clock+0x4c>
		sysclk_enable_module(SYSCLK_PORT_GEN, SYSCLK_EVSYS);
    2d4e:	62 e0       	ldi	r22, 0x02	; 2
    2d50:	80 e0       	ldi	r24, 0x00	; 0
    2d52:	0c 94 ce 03 	jmp	0x79c	; 0x79c <sysclk_enable_module>
    2d56:	08 95       	ret
	}
#endif
#ifdef DMA
	else if (module == &DMA) {
    2d58:	81 15       	cp	r24, r1
    2d5a:	21 e0       	ldi	r18, 0x01	; 1
    2d5c:	92 07       	cpc	r25, r18
    2d5e:	29 f4       	brne	.+10     	; 0x2d6a <sysclk_enable_peripheral_clock+0x5e>
		sysclk_enable_module(SYSCLK_PORT_GEN, SYSCLK_DMA);
    2d60:	61 e0       	ldi	r22, 0x01	; 1
    2d62:	80 e0       	ldi	r24, 0x00	; 0
    2d64:	0c 94 ce 03 	jmp	0x79c	; 0x79c <sysclk_enable_module>
    2d68:	08 95       	ret
	else if (module == &EDMA) {
		sysclk_enable_module(SYSCLK_PORT_GEN, SYSCLK_EDMA);
	}
#endif
#ifdef ACA
	else if (module == &ACA) {
    2d6a:	80 38       	cpi	r24, 0x80	; 128
    2d6c:	23 e0       	ldi	r18, 0x03	; 3
    2d6e:	92 07       	cpc	r25, r18
    2d70:	29 f4       	brne	.+10     	; 0x2d7c <sysclk_enable_peripheral_clock+0x70>
		sysclk_enable_module(SYSCLK_PORT_A, SYSCLK_AC);
    2d72:	61 e0       	ldi	r22, 0x01	; 1
    2d74:	81 e0       	ldi	r24, 0x01	; 1
    2d76:	0c 94 ce 03 	jmp	0x79c	; 0x79c <sysclk_enable_module>
    2d7a:	08 95       	ret
	}
#endif
#ifdef ACB
	else if (module == &ACB) {
    2d7c:	80 39       	cpi	r24, 0x90	; 144
    2d7e:	23 e0       	ldi	r18, 0x03	; 3
    2d80:	92 07       	cpc	r25, r18
    2d82:	29 f4       	brne	.+10     	; 0x2d8e <sysclk_enable_peripheral_clock+0x82>
		sysclk_enable_module(SYSCLK_PORT_B, SYSCLK_AC);
    2d84:	61 e0       	ldi	r22, 0x01	; 1
    2d86:	82 e0       	ldi	r24, 0x02	; 2
    2d88:	0c 94 ce 03 	jmp	0x79c	; 0x79c <sysclk_enable_module>
    2d8c:	08 95       	ret
	}
#endif
#ifdef ADCA
	else if (module == &ADCA) {
    2d8e:	81 15       	cp	r24, r1
    2d90:	22 e0       	ldi	r18, 0x02	; 2
    2d92:	92 07       	cpc	r25, r18
    2d94:	29 f4       	brne	.+10     	; 0x2da0 <sysclk_enable_peripheral_clock+0x94>
		sysclk_enable_module(SYSCLK_PORT_A, SYSCLK_ADC);
    2d96:	62 e0       	ldi	r22, 0x02	; 2
    2d98:	81 e0       	ldi	r24, 0x01	; 1
    2d9a:	0c 94 ce 03 	jmp	0x79c	; 0x79c <sysclk_enable_module>
    2d9e:	08 95       	ret
	}
#endif
#ifdef ADCB
	else if (module == &ADCB) {
    2da0:	80 34       	cpi	r24, 0x40	; 64
    2da2:	22 e0       	ldi	r18, 0x02	; 2
    2da4:	92 07       	cpc	r25, r18
    2da6:	29 f4       	brne	.+10     	; 0x2db2 <sysclk_enable_peripheral_clock+0xa6>
		sysclk_enable_module(SYSCLK_PORT_B, SYSCLK_ADC);
    2da8:	62 e0       	ldi	r22, 0x02	; 2
    2daa:	82 e0       	ldi	r24, 0x02	; 2
    2dac:	0c 94 ce 03 	jmp	0x79c	; 0x79c <sysclk_enable_module>
    2db0:	08 95       	ret
	}
#endif
#ifdef DACA
	else if (module == &DACA) {
    2db2:	81 15       	cp	r24, r1
    2db4:	23 e0       	ldi	r18, 0x03	; 3
    2db6:	92 07       	cpc	r25, r18
    2db8:	29 f4       	brne	.+10     	; 0x2dc4 <sysclk_enable_peripheral_clock+0xb8>
		sysclk_enable_module(SYSCLK_PORT_A, SYSCLK_DAC);
    2dba:	64 e0       	ldi	r22, 0x04	; 4
    2dbc:	81 e0       	ldi	r24, 0x01	; 1
    2dbe:	0c 94 ce 03 	jmp	0x79c	; 0x79c <sysclk_enable_module>
    2dc2:	08 95       	ret
	}
#endif
// Workaround for bad XMEGA D header file
#if !XMEGA_D
#ifdef DACB
	else if (module == &DACB) {
    2dc4:	80 32       	cpi	r24, 0x20	; 32
    2dc6:	23 e0       	ldi	r18, 0x03	; 3
    2dc8:	92 07       	cpc	r25, r18
    2dca:	29 f4       	brne	.+10     	; 0x2dd6 <sysclk_enable_peripheral_clock+0xca>
		sysclk_enable_module(SYSCLK_PORT_B, SYSCLK_DAC);
    2dcc:	64 e0       	ldi	r22, 0x04	; 4
    2dce:	82 e0       	ldi	r24, 0x02	; 2
    2dd0:	0c 94 ce 03 	jmp	0x79c	; 0x79c <sysclk_enable_module>
    2dd4:	08 95       	ret
	}
#endif
#endif // Workaround end
#ifdef TCC0
	else if (module == &TCC0) {
    2dd6:	81 15       	cp	r24, r1
    2dd8:	28 e0       	ldi	r18, 0x08	; 8
    2dda:	92 07       	cpc	r25, r18
    2ddc:	29 f4       	brne	.+10     	; 0x2de8 <sysclk_enable_peripheral_clock+0xdc>
		sysclk_enable_module(SYSCLK_PORT_C, SYSCLK_TC0);
    2dde:	61 e0       	ldi	r22, 0x01	; 1
    2de0:	83 e0       	ldi	r24, 0x03	; 3
    2de2:	0c 94 ce 03 	jmp	0x79c	; 0x79c <sysclk_enable_module>
    2de6:	08 95       	ret
	}
#endif
#ifdef TCD0
	else if (module == &TCD0) {
    2de8:	81 15       	cp	r24, r1
    2dea:	29 e0       	ldi	r18, 0x09	; 9
    2dec:	92 07       	cpc	r25, r18
    2dee:	29 f4       	brne	.+10     	; 0x2dfa <sysclk_enable_peripheral_clock+0xee>
		sysclk_enable_module(SYSCLK_PORT_D, SYSCLK_TC0);
    2df0:	61 e0       	ldi	r22, 0x01	; 1
    2df2:	84 e0       	ldi	r24, 0x04	; 4
    2df4:	0c 94 ce 03 	jmp	0x79c	; 0x79c <sysclk_enable_module>
    2df8:	08 95       	ret
	}
#endif
#ifdef TCE0
	else if (module == &TCE0) {
    2dfa:	81 15       	cp	r24, r1
    2dfc:	2a e0       	ldi	r18, 0x0A	; 10
    2dfe:	92 07       	cpc	r25, r18
    2e00:	29 f4       	brne	.+10     	; 0x2e0c <sysclk_enable_peripheral_clock+0x100>
		sysclk_enable_module(SYSCLK_PORT_E, SYSCLK_TC0);
    2e02:	61 e0       	ldi	r22, 0x01	; 1
    2e04:	85 e0       	ldi	r24, 0x05	; 5
    2e06:	0c 94 ce 03 	jmp	0x79c	; 0x79c <sysclk_enable_module>
    2e0a:	08 95       	ret
	}
#endif
#ifdef TCF0
	else if (module == &TCF0) {
    2e0c:	81 15       	cp	r24, r1
    2e0e:	2b e0       	ldi	r18, 0x0B	; 11
    2e10:	92 07       	cpc	r25, r18
    2e12:	29 f4       	brne	.+10     	; 0x2e1e <sysclk_enable_peripheral_clock+0x112>
		sysclk_enable_module(SYSCLK_PORT_F, SYSCLK_TC0);
    2e14:	61 e0       	ldi	r22, 0x01	; 1
    2e16:	86 e0       	ldi	r24, 0x06	; 6
    2e18:	0c 94 ce 03 	jmp	0x79c	; 0x79c <sysclk_enable_module>
    2e1c:	08 95       	ret
	}
#endif
#ifdef TCC1
	else if (module == &TCC1) {
    2e1e:	80 34       	cpi	r24, 0x40	; 64
    2e20:	28 e0       	ldi	r18, 0x08	; 8
    2e22:	92 07       	cpc	r25, r18
    2e24:	29 f4       	brne	.+10     	; 0x2e30 <sysclk_enable_peripheral_clock+0x124>
		sysclk_enable_module(SYSCLK_PORT_C, SYSCLK_TC1);
    2e26:	62 e0       	ldi	r22, 0x02	; 2
    2e28:	83 e0       	ldi	r24, 0x03	; 3
    2e2a:	0c 94 ce 03 	jmp	0x79c	; 0x79c <sysclk_enable_module>
    2e2e:	08 95       	ret
	}
#endif
#ifdef TCD1
	else if (module == &TCD1) {
    2e30:	80 34       	cpi	r24, 0x40	; 64
    2e32:	29 e0       	ldi	r18, 0x09	; 9
    2e34:	92 07       	cpc	r25, r18
    2e36:	29 f4       	brne	.+10     	; 0x2e42 <sysclk_enable_peripheral_clock+0x136>
		sysclk_enable_module(SYSCLK_PORT_D, SYSCLK_TC1);
    2e38:	62 e0       	ldi	r22, 0x02	; 2
    2e3a:	84 e0       	ldi	r24, 0x04	; 4
    2e3c:	0c 94 ce 03 	jmp	0x79c	; 0x79c <sysclk_enable_module>
    2e40:	08 95       	ret
	}
#endif
#ifdef TCE1
	else if (module == &TCE1) {
    2e42:	80 34       	cpi	r24, 0x40	; 64
    2e44:	2a e0       	ldi	r18, 0x0A	; 10
    2e46:	92 07       	cpc	r25, r18
    2e48:	29 f4       	brne	.+10     	; 0x2e54 <sysclk_enable_peripheral_clock+0x148>
		sysclk_enable_module(SYSCLK_PORT_E, SYSCLK_TC1);
    2e4a:	62 e0       	ldi	r22, 0x02	; 2
    2e4c:	85 e0       	ldi	r24, 0x05	; 5
    2e4e:	0c 94 ce 03 	jmp	0x79c	; 0x79c <sysclk_enable_module>
    2e52:	08 95       	ret
	}
#endif
#ifdef TCF1
	else if (module == &TCF1) {
    2e54:	80 34       	cpi	r24, 0x40	; 64
    2e56:	2b e0       	ldi	r18, 0x0B	; 11
    2e58:	92 07       	cpc	r25, r18
    2e5a:	29 f4       	brne	.+10     	; 0x2e66 <sysclk_enable_peripheral_clock+0x15a>
		sysclk_enable_module(SYSCLK_PORT_F, SYSCLK_TC1);
    2e5c:	62 e0       	ldi	r22, 0x02	; 2
    2e5e:	86 e0       	ldi	r24, 0x06	; 6
    2e60:	0c 94 ce 03 	jmp	0x79c	; 0x79c <sysclk_enable_module>
    2e64:	08 95       	ret
	else if (module == &TCD5) {
		sysclk_enable_module(SYSCLK_PORT_D, SYSCLK_TC5);
	}
#endif
#ifdef HIRESC
	else if (module == &HIRESC) {
    2e66:	80 39       	cpi	r24, 0x90	; 144
    2e68:	28 e0       	ldi	r18, 0x08	; 8
    2e6a:	92 07       	cpc	r25, r18
    2e6c:	29 f4       	brne	.+10     	; 0x2e78 <sysclk_enable_peripheral_clock+0x16c>
			sysclk_enable_module(SYSCLK_PORT_C, SYSCLK_HIRES);
    2e6e:	64 e0       	ldi	r22, 0x04	; 4
    2e70:	83 e0       	ldi	r24, 0x03	; 3
    2e72:	0c 94 ce 03 	jmp	0x79c	; 0x79c <sysclk_enable_module>
    2e76:	08 95       	ret
	}
#endif
#ifdef HIRESD
	else if (module == &HIRESD) {
    2e78:	80 39       	cpi	r24, 0x90	; 144
    2e7a:	29 e0       	ldi	r18, 0x09	; 9
    2e7c:	92 07       	cpc	r25, r18
    2e7e:	29 f4       	brne	.+10     	; 0x2e8a <sysclk_enable_peripheral_clock+0x17e>
		sysclk_enable_module(SYSCLK_PORT_D, SYSCLK_HIRES);
    2e80:	64 e0       	ldi	r22, 0x04	; 4
    2e82:	84 e0       	ldi	r24, 0x04	; 4
    2e84:	0c 94 ce 03 	jmp	0x79c	; 0x79c <sysclk_enable_module>
    2e88:	08 95       	ret
	}
#endif
#ifdef HIRESE
	else if (module == &HIRESE) {
    2e8a:	80 39       	cpi	r24, 0x90	; 144
    2e8c:	2a e0       	ldi	r18, 0x0A	; 10
    2e8e:	92 07       	cpc	r25, r18
    2e90:	29 f4       	brne	.+10     	; 0x2e9c <sysclk_enable_peripheral_clock+0x190>
		sysclk_enable_module(SYSCLK_PORT_E, SYSCLK_HIRES);
    2e92:	64 e0       	ldi	r22, 0x04	; 4
    2e94:	85 e0       	ldi	r24, 0x05	; 5
    2e96:	0c 94 ce 03 	jmp	0x79c	; 0x79c <sysclk_enable_module>
    2e9a:	08 95       	ret
	}
#endif
#ifdef HIRESF
	else if (module == &HIRESF) {
    2e9c:	80 39       	cpi	r24, 0x90	; 144
    2e9e:	2b e0       	ldi	r18, 0x0B	; 11
    2ea0:	92 07       	cpc	r25, r18
    2ea2:	29 f4       	brne	.+10     	; 0x2eae <sysclk_enable_peripheral_clock+0x1a2>
		sysclk_enable_module(SYSCLK_PORT_F, SYSCLK_HIRES);
    2ea4:	64 e0       	ldi	r22, 0x04	; 4
    2ea6:	86 e0       	ldi	r24, 0x06	; 6
    2ea8:	0c 94 ce 03 	jmp	0x79c	; 0x79c <sysclk_enable_module>
    2eac:	08 95       	ret
	}
#endif
#ifdef SPIC
	else if (module == &SPIC) {
    2eae:	80 3c       	cpi	r24, 0xC0	; 192
    2eb0:	28 e0       	ldi	r18, 0x08	; 8
    2eb2:	92 07       	cpc	r25, r18
    2eb4:	29 f4       	brne	.+10     	; 0x2ec0 <sysclk_enable_peripheral_clock+0x1b4>
		sysclk_enable_module(SYSCLK_PORT_C, SYSCLK_SPI);
    2eb6:	68 e0       	ldi	r22, 0x08	; 8
    2eb8:	83 e0       	ldi	r24, 0x03	; 3
    2eba:	0c 94 ce 03 	jmp	0x79c	; 0x79c <sysclk_enable_module>
    2ebe:	08 95       	ret
	}
#endif
#ifdef SPID
	else if (module == &SPID) {
    2ec0:	80 3c       	cpi	r24, 0xC0	; 192
    2ec2:	29 e0       	ldi	r18, 0x09	; 9
    2ec4:	92 07       	cpc	r25, r18
    2ec6:	29 f4       	brne	.+10     	; 0x2ed2 <sysclk_enable_peripheral_clock+0x1c6>
		sysclk_enable_module(SYSCLK_PORT_D, SYSCLK_SPI);
    2ec8:	68 e0       	ldi	r22, 0x08	; 8
    2eca:	84 e0       	ldi	r24, 0x04	; 4
    2ecc:	0c 94 ce 03 	jmp	0x79c	; 0x79c <sysclk_enable_module>
    2ed0:	08 95       	ret
	}
#endif
#ifdef SPIE
	else if (module == &SPIE) {
    2ed2:	80 3c       	cpi	r24, 0xC0	; 192
    2ed4:	2a e0       	ldi	r18, 0x0A	; 10
    2ed6:	92 07       	cpc	r25, r18
    2ed8:	29 f4       	brne	.+10     	; 0x2ee4 <sysclk_enable_peripheral_clock+0x1d8>
		sysclk_enable_module(SYSCLK_PORT_E, SYSCLK_SPI);
    2eda:	68 e0       	ldi	r22, 0x08	; 8
    2edc:	85 e0       	ldi	r24, 0x05	; 5
    2ede:	0c 94 ce 03 	jmp	0x79c	; 0x79c <sysclk_enable_module>
    2ee2:	08 95       	ret
	}
#endif
#ifdef SPIF
	else if (module == &SPIF) {
    2ee4:	80 3c       	cpi	r24, 0xC0	; 192
    2ee6:	2b e0       	ldi	r18, 0x0B	; 11
    2ee8:	92 07       	cpc	r25, r18
    2eea:	29 f4       	brne	.+10     	; 0x2ef6 <sysclk_enable_peripheral_clock+0x1ea>
		sysclk_enable_module(SYSCLK_PORT_F, SYSCLK_SPI);
    2eec:	68 e0       	ldi	r22, 0x08	; 8
    2eee:	86 e0       	ldi	r24, 0x06	; 6
    2ef0:	0c 94 ce 03 	jmp	0x79c	; 0x79c <sysclk_enable_module>
    2ef4:	08 95       	ret
	}
#endif
#ifdef USARTC0
	else if (module == &USARTC0) {
    2ef6:	80 3a       	cpi	r24, 0xA0	; 160
    2ef8:	28 e0       	ldi	r18, 0x08	; 8
    2efa:	92 07       	cpc	r25, r18
    2efc:	29 f4       	brne	.+10     	; 0x2f08 <sysclk_enable_peripheral_clock+0x1fc>
		sysclk_enable_module(SYSCLK_PORT_C, SYSCLK_USART0);
    2efe:	60 e1       	ldi	r22, 0x10	; 16
    2f00:	83 e0       	ldi	r24, 0x03	; 3
    2f02:	0c 94 ce 03 	jmp	0x79c	; 0x79c <sysclk_enable_module>
    2f06:	08 95       	ret
	}
#endif
#ifdef USARTD0
	else if (module == &USARTD0) {
    2f08:	80 3a       	cpi	r24, 0xA0	; 160
    2f0a:	29 e0       	ldi	r18, 0x09	; 9
    2f0c:	92 07       	cpc	r25, r18
    2f0e:	29 f4       	brne	.+10     	; 0x2f1a <sysclk_enable_peripheral_clock+0x20e>
		sysclk_enable_module(SYSCLK_PORT_D, SYSCLK_USART0);
    2f10:	60 e1       	ldi	r22, 0x10	; 16
    2f12:	84 e0       	ldi	r24, 0x04	; 4
    2f14:	0c 94 ce 03 	jmp	0x79c	; 0x79c <sysclk_enable_module>
    2f18:	08 95       	ret
	}
#endif
#ifdef USARTE0
	else if (module == &USARTE0) {
    2f1a:	80 3a       	cpi	r24, 0xA0	; 160
    2f1c:	2a e0       	ldi	r18, 0x0A	; 10
    2f1e:	92 07       	cpc	r25, r18
    2f20:	29 f4       	brne	.+10     	; 0x2f2c <sysclk_enable_peripheral_clock+0x220>
		sysclk_enable_module(SYSCLK_PORT_E, SYSCLK_USART0);
    2f22:	60 e1       	ldi	r22, 0x10	; 16
    2f24:	85 e0       	ldi	r24, 0x05	; 5
    2f26:	0c 94 ce 03 	jmp	0x79c	; 0x79c <sysclk_enable_module>
    2f2a:	08 95       	ret
	}
#endif
#ifdef USARTF0
	else if (module == &USARTF0) {
    2f2c:	80 3a       	cpi	r24, 0xA0	; 160
    2f2e:	2b e0       	ldi	r18, 0x0B	; 11
    2f30:	92 07       	cpc	r25, r18
    2f32:	29 f4       	brne	.+10     	; 0x2f3e <sysclk_enable_peripheral_clock+0x232>
		sysclk_enable_module(SYSCLK_PORT_F, SYSCLK_USART0);
    2f34:	60 e1       	ldi	r22, 0x10	; 16
    2f36:	86 e0       	ldi	r24, 0x06	; 6
    2f38:	0c 94 ce 03 	jmp	0x79c	; 0x79c <sysclk_enable_module>
    2f3c:	08 95       	ret
	}
#endif
#ifdef USARTC1
	else if (module == &USARTC1) {
    2f3e:	80 3b       	cpi	r24, 0xB0	; 176
    2f40:	28 e0       	ldi	r18, 0x08	; 8
    2f42:	92 07       	cpc	r25, r18
    2f44:	29 f4       	brne	.+10     	; 0x2f50 <sysclk_enable_peripheral_clock+0x244>
		sysclk_enable_module(SYSCLK_PORT_C, SYSCLK_USART1);
    2f46:	60 e2       	ldi	r22, 0x20	; 32
    2f48:	83 e0       	ldi	r24, 0x03	; 3
    2f4a:	0c 94 ce 03 	jmp	0x79c	; 0x79c <sysclk_enable_module>
    2f4e:	08 95       	ret
	}
#endif
#ifdef USARTD1
	else if (module == &USARTD1) {
    2f50:	80 3b       	cpi	r24, 0xB0	; 176
    2f52:	29 e0       	ldi	r18, 0x09	; 9
    2f54:	92 07       	cpc	r25, r18
    2f56:	29 f4       	brne	.+10     	; 0x2f62 <sysclk_enable_peripheral_clock+0x256>
		sysclk_enable_module(SYSCLK_PORT_D, SYSCLK_USART1);
    2f58:	60 e2       	ldi	r22, 0x20	; 32
    2f5a:	84 e0       	ldi	r24, 0x04	; 4
    2f5c:	0c 94 ce 03 	jmp	0x79c	; 0x79c <sysclk_enable_module>
    2f60:	08 95       	ret
	}
#endif
#ifdef USARTE1
	else if (module == &USARTE1) {
    2f62:	80 3b       	cpi	r24, 0xB0	; 176
    2f64:	2a e0       	ldi	r18, 0x0A	; 10
    2f66:	92 07       	cpc	r25, r18
    2f68:	29 f4       	brne	.+10     	; 0x2f74 <sysclk_enable_peripheral_clock+0x268>
		sysclk_enable_module(SYSCLK_PORT_E, SYSCLK_USART1);
    2f6a:	60 e2       	ldi	r22, 0x20	; 32
    2f6c:	85 e0       	ldi	r24, 0x05	; 5
    2f6e:	0c 94 ce 03 	jmp	0x79c	; 0x79c <sysclk_enable_module>
    2f72:	08 95       	ret
	}
#endif
#ifdef USARTF1
	else if (module == &USARTF1) {
    2f74:	80 3b       	cpi	r24, 0xB0	; 176
    2f76:	2b e0       	ldi	r18, 0x0B	; 11
    2f78:	92 07       	cpc	r25, r18
    2f7a:	29 f4       	brne	.+10     	; 0x2f86 <sysclk_enable_peripheral_clock+0x27a>
		sysclk_enable_module(SYSCLK_PORT_F, SYSCLK_USART1);
    2f7c:	60 e2       	ldi	r22, 0x20	; 32
    2f7e:	86 e0       	ldi	r24, 0x06	; 6
    2f80:	0c 94 ce 03 	jmp	0x79c	; 0x79c <sysclk_enable_module>
    2f84:	08 95       	ret
	}
#endif
#ifdef TWIC
	else if (module == &TWIC) {
    2f86:	80 38       	cpi	r24, 0x80	; 128
    2f88:	24 e0       	ldi	r18, 0x04	; 4
    2f8a:	92 07       	cpc	r25, r18
    2f8c:	29 f4       	brne	.+10     	; 0x2f98 <sysclk_enable_peripheral_clock+0x28c>
		sysclk_enable_module(SYSCLK_PORT_C, SYSCLK_TWI);
    2f8e:	60 e4       	ldi	r22, 0x40	; 64
    2f90:	83 e0       	ldi	r24, 0x03	; 3
    2f92:	0c 94 ce 03 	jmp	0x79c	; 0x79c <sysclk_enable_module>
    2f96:	08 95       	ret
	}
#endif
#ifdef TWID
	else if (module == &TWID) {
    2f98:	80 39       	cpi	r24, 0x90	; 144
    2f9a:	24 e0       	ldi	r18, 0x04	; 4
    2f9c:	92 07       	cpc	r25, r18
    2f9e:	29 f4       	brne	.+10     	; 0x2faa <sysclk_enable_peripheral_clock+0x29e>
		sysclk_enable_module(SYSCLK_PORT_D, SYSCLK_TWI);
    2fa0:	60 e4       	ldi	r22, 0x40	; 64
    2fa2:	84 e0       	ldi	r24, 0x04	; 4
    2fa4:	0c 94 ce 03 	jmp	0x79c	; 0x79c <sysclk_enable_module>
    2fa8:	08 95       	ret
	}
#endif
#ifdef TWIE
	else if (module == &TWIE) {
    2faa:	80 3a       	cpi	r24, 0xA0	; 160
    2fac:	24 e0       	ldi	r18, 0x04	; 4
    2fae:	92 07       	cpc	r25, r18
    2fb0:	29 f4       	brne	.+10     	; 0x2fbc <sysclk_enable_peripheral_clock+0x2b0>
		sysclk_enable_module(SYSCLK_PORT_E, SYSCLK_TWI);
    2fb2:	60 e4       	ldi	r22, 0x40	; 64
    2fb4:	85 e0       	ldi	r24, 0x05	; 5
    2fb6:	0c 94 ce 03 	jmp	0x79c	; 0x79c <sysclk_enable_module>
    2fba:	08 95       	ret
	}
#endif
#ifdef TWIF
	else if (module == &TWIF) {
    2fbc:	80 3b       	cpi	r24, 0xB0	; 176
    2fbe:	94 40       	sbci	r25, 0x04	; 4
    2fc0:	21 f4       	brne	.+8      	; 0x2fca <sysclk_enable_peripheral_clock+0x2be>
		sysclk_enable_module(SYSCLK_PORT_F, SYSCLK_TWI);
    2fc2:	60 e4       	ldi	r22, 0x40	; 64
    2fc4:	86 e0       	ldi	r24, 0x06	; 6
    2fc6:	0c 94 ce 03 	jmp	0x79c	; 0x79c <sysclk_enable_module>
    2fca:	08 95       	ret

00002fcc <main>:
    2fcc:	cf 93       	push	r28
    2fce:	df 93       	push	r29
    2fd0:	cd b7       	in	r28, 0x3d	; 61
    2fd2:	de b7       	in	r29, 0x3e	; 62
    2fd4:	cc 54       	subi	r28, 0x4C	; 76
    2fd6:	d1 09       	sbc	r29, r1
    2fd8:	cd bf       	out	0x3d, r28	; 61
    2fda:	de bf       	out	0x3e, r29	; 62
    2fdc:	0e 94 99 03 	call	0x732	; 0x732 <sysclk_init>
    2fe0:	80 e0       	ldi	r24, 0x00	; 0
    2fe2:	9b e0       	ldi	r25, 0x0B	; 11
    2fe4:	93 de       	rcall	.-730    	; 0x2d0c <sysclk_enable_peripheral_clock>
    2fe6:	80 e0       	ldi	r24, 0x00	; 0
    2fe8:	99 e0       	ldi	r25, 0x09	; 9
    2fea:	90 de       	rcall	.-736    	; 0x2d0c <sysclk_enable_peripheral_clock>
    2fec:	64 e0       	ldi	r22, 0x04	; 4
    2fee:	86 e0       	ldi	r24, 0x06	; 6
    2ff0:	0e 94 ce 03 	call	0x79c	; 0x79c <sysclk_enable_module>
    2ff4:	64 e0       	ldi	r22, 0x04	; 4
    2ff6:	84 e0       	ldi	r24, 0x04	; 4
    2ff8:	0e 94 ce 03 	call	0x79c	; 0x79c <sysclk_enable_module>
    2ffc:	68 e0       	ldi	r22, 0x08	; 8
    2ffe:	83 e0       	ldi	r24, 0x03	; 3
    3000:	0e 94 ce 03 	call	0x79c	; 0x79c <sysclk_enable_module>
    3004:	80 ea       	ldi	r24, 0xA0	; 160
    3006:	98 e0       	ldi	r25, 0x08	; 8
    3008:	81 de       	rcall	.-766    	; 0x2d0c <sysclk_enable_peripheral_clock>
    300a:	5c dd       	rcall	.-1352   	; 0x2ac4 <usart_init>
    300c:	80 ec       	ldi	r24, 0xC0	; 192
    300e:	98 e0       	ldi	r25, 0x08	; 8
    3010:	7d de       	rcall	.-774    	; 0x2d0c <sysclk_enable_peripheral_clock>
    3012:	3e da       	rcall	.-2948   	; 0x2490 <SPI_init>
    3014:	78 da       	rcall	.-2832   	; 0x2506 <ms5607_init>
    3016:	80 e0       	ldi	r24, 0x00	; 0
    3018:	92 e0       	ldi	r25, 0x02	; 2
    301a:	78 de       	rcall	.-784    	; 0x2d0c <sysclk_enable_peripheral_clock>
    301c:	aa dc       	rcall	.-1708   	; 0x2972 <adc_init>
    301e:	f3 da       	rcall	.-2586   	; 0x2606 <get_pressure>
    3020:	2d 96       	adiw	r28, 0x0d	; 13
    3022:	6c af       	std	Y+60, r22	; 0x3c
    3024:	7d af       	std	Y+61, r23	; 0x3d
    3026:	8e af       	std	Y+62, r24	; 0x3e
    3028:	9f af       	std	Y+63, r25	; 0x3f
    302a:	2d 97       	sbiw	r28, 0x0d	; 13
    302c:	86 e2       	ldi	r24, 0x26	; 38
    302e:	90 e2       	ldi	r25, 0x20	; 32
    3030:	0e 94 d4 22 	call	0x45a8	; 0x45a8 <puts>
    3034:	88 e3       	ldi	r24, 0x38	; 56
    3036:	90 e2       	ldi	r25, 0x20	; 32
    3038:	0e 94 d4 22 	call	0x45a8	; 0x45a8 <puts>
    303c:	00 e0       	ldi	r16, 0x00	; 0
    303e:	41 2c       	mov	r4, r1
    3040:	51 2c       	mov	r5, r1
    3042:	32 01       	movw	r6, r4
    3044:	9e 01       	movw	r18, r28
    3046:	2f 5f       	subi	r18, 0xFF	; 255
    3048:	3f 4f       	sbci	r19, 0xFF	; 255
    304a:	69 01       	movw	r12, r18
    304c:	68 94       	set
    304e:	22 24       	eor	r2, r2
    3050:	23 f8       	bld	r2, 3
    3052:	0f 2e       	mov	r0, r31
    3054:	f0 e8       	ldi	r31, 0x80	; 128
    3056:	ef 2e       	mov	r14, r31
    3058:	f6 e0       	ldi	r31, 0x06	; 6
    305a:	ff 2e       	mov	r15, r31
    305c:	f0 2d       	mov	r31, r0
    305e:	0f 2e       	mov	r0, r31
    3060:	f5 e5       	ldi	r31, 0x55	; 85
    3062:	3f 2e       	mov	r3, r31
    3064:	f0 2d       	mov	r31, r0
    3066:	cf da       	rcall	.-2658   	; 0x2606 <get_pressure>
    3068:	25 96       	adiw	r28, 0x05	; 5
    306a:	6c af       	std	Y+60, r22	; 0x3c
    306c:	7d af       	std	Y+61, r23	; 0x3d
    306e:	8e af       	std	Y+62, r24	; 0x3e
    3070:	9f af       	std	Y+63, r25	; 0x3f
    3072:	25 97       	sbiw	r28, 0x05	; 5
    3074:	c7 dc       	rcall	.-1650   	; 0x2a04 <getTemperature>
    3076:	25 96       	adiw	r28, 0x05	; 5
    3078:	2c ad       	ldd	r18, Y+60	; 0x3c
    307a:	3d ad       	ldd	r19, Y+61	; 0x3d
    307c:	4e ad       	ldd	r20, Y+62	; 0x3e
    307e:	5f ad       	ldd	r21, Y+63	; 0x3f
    3080:	25 97       	sbiw	r28, 0x05	; 5
    3082:	2d 96       	adiw	r28, 0x0d	; 13
    3084:	6c ad       	ldd	r22, Y+60	; 0x3c
    3086:	7d ad       	ldd	r23, Y+61	; 0x3d
    3088:	8e ad       	ldd	r24, Y+62	; 0x3e
    308a:	9f ad       	ldd	r25, Y+63	; 0x3f
    308c:	2d 97       	sbiw	r28, 0x0d	; 13
    308e:	28 d9       	rcall	.-3504   	; 0x22e0 <Get_altitude>
    3090:	f4 d1       	rcall	.+1000   	; 0x347a <__fixsfsi>
    3092:	29 96       	adiw	r28, 0x09	; 9
    3094:	6c af       	std	Y+60, r22	; 0x3c
    3096:	7d af       	std	Y+61, r23	; 0x3d
    3098:	8e af       	std	Y+62, r24	; 0x3e
    309a:	9f af       	std	Y+63, r25	; 0x3f
    309c:	29 97       	sbiw	r28, 0x09	; 9
    309e:	20 d2       	rcall	.+1088   	; 0x34e0 <__floatsisf>
    30a0:	4b 01       	movw	r8, r22
    30a2:	5c 01       	movw	r10, r24
    30a4:	c3 01       	movw	r24, r6
    30a6:	b2 01       	movw	r22, r4
    30a8:	1b d2       	rcall	.+1078   	; 0x34e0 <__floatsisf>
    30aa:	20 ed       	ldi	r18, 0xD0	; 208
    30ac:	3c ec       	ldi	r19, 0xCC	; 204
    30ae:	4c ec       	ldi	r20, 0xCC	; 204
    30b0:	5d e3       	ldi	r21, 0x3D	; 61
    30b2:	e7 d2       	rcall	.+1486   	; 0x3682 <__mulsf3>
    30b4:	2b 01       	movw	r4, r22
    30b6:	3c 01       	movw	r6, r24
    30b8:	26 e6       	ldi	r18, 0x66	; 102
    30ba:	36 e6       	ldi	r19, 0x66	; 102
    30bc:	46 e6       	ldi	r20, 0x66	; 102
    30be:	5f e3       	ldi	r21, 0x3F	; 63
    30c0:	c5 01       	movw	r24, r10
    30c2:	b4 01       	movw	r22, r8
    30c4:	de d2       	rcall	.+1468   	; 0x3682 <__mulsf3>
    30c6:	9b 01       	movw	r18, r22
    30c8:	ac 01       	movw	r20, r24
    30ca:	c3 01       	movw	r24, r6
    30cc:	b2 01       	movw	r22, r4
    30ce:	09 d1       	rcall	.+530    	; 0x32e2 <__addsf3>
    30d0:	d4 d1       	rcall	.+936    	; 0x347a <__fixsfsi>
    30d2:	2b 01       	movw	r4, r22
    30d4:	3c 01       	movw	r6, r24
    30d6:	61 2f       	mov	r22, r17
    30d8:	70 e0       	ldi	r23, 0x00	; 0
    30da:	80 e0       	ldi	r24, 0x00	; 0
    30dc:	90 e0       	ldi	r25, 0x00	; 0
    30de:	00 d2       	rcall	.+1024   	; 0x34e0 <__floatsisf>
    30e0:	20 e0       	ldi	r18, 0x00	; 0
    30e2:	30 e0       	ldi	r19, 0x00	; 0
    30e4:	40 e8       	ldi	r20, 0x80	; 128
    30e6:	5e e3       	ldi	r21, 0x3E	; 62
    30e8:	fc d0       	rcall	.+504    	; 0x32e2 <__addsf3>
    30ea:	cc d1       	rcall	.+920    	; 0x3484 <__fixunssfsi>
    30ec:	16 2f       	mov	r17, r22
    30ee:	61 e8       	ldi	r22, 0x81	; 129
    30f0:	78 e3       	ldi	r23, 0x38	; 56
    30f2:	81 e0       	ldi	r24, 0x01	; 1
    30f4:	90 e0       	ldi	r25, 0x00	; 0
    30f6:	ff dd       	rcall	.-1026   	; 0x2cf6 <__portable_avr_delay_cycles>
    30f8:	80 e0       	ldi	r24, 0x00	; 0
    30fa:	90 e1       	ldi	r25, 0x10	; 16
    30fc:	a2 ea       	ldi	r26, 0xA2	; 162
    30fe:	b5 e4       	ldi	r27, 0x45	; 69
    3100:	89 83       	std	Y+1, r24	; 0x01
    3102:	9a 83       	std	Y+2, r25	; 0x02
    3104:	ab 83       	std	Y+3, r26	; 0x03
    3106:	bc 83       	std	Y+4, r27	; 0x04
    3108:	61 2f       	mov	r22, r17
    310a:	70 e0       	ldi	r23, 0x00	; 0
    310c:	80 e0       	ldi	r24, 0x00	; 0
    310e:	90 e0       	ldi	r25, 0x00	; 0
    3110:	e5 d1       	rcall	.+970    	; 0x34dc <__floatunsisf>
    3112:	6d 83       	std	Y+5, r22	; 0x05
    3114:	7e 83       	std	Y+6, r23	; 0x06
    3116:	8f 83       	std	Y+7, r24	; 0x07
    3118:	98 87       	std	Y+8, r25	; 0x08
    311a:	60 e0       	ldi	r22, 0x00	; 0
    311c:	70 e0       	ldi	r23, 0x00	; 0
    311e:	cb 01       	movw	r24, r22
    3120:	dd d1       	rcall	.+954    	; 0x34dc <__floatunsisf>
    3122:	69 87       	std	Y+9, r22	; 0x09
    3124:	7a 87       	std	Y+10, r23	; 0x0a
    3126:	8b 87       	std	Y+11, r24	; 0x0b
    3128:	9c 87       	std	Y+12, r25	; 0x0c
    312a:	8d 86       	std	Y+13, r8	; 0x0d
    312c:	9e 86       	std	Y+14, r9	; 0x0e
    312e:	af 86       	std	Y+15, r10	; 0x0f
    3130:	b8 8a       	std	Y+16, r11	; 0x10
    3132:	25 96       	adiw	r28, 0x05	; 5
    3134:	6c ad       	ldd	r22, Y+60	; 0x3c
    3136:	7d ad       	ldd	r23, Y+61	; 0x3d
    3138:	8e ad       	ldd	r24, Y+62	; 0x3e
    313a:	9f ad       	ldd	r25, Y+63	; 0x3f
    313c:	25 97       	sbiw	r28, 0x05	; 5
    313e:	ce d1       	rcall	.+924    	; 0x34dc <__floatunsisf>
    3140:	69 8b       	std	Y+17, r22	; 0x11
    3142:	7a 8b       	std	Y+18, r23	; 0x12
    3144:	8b 8b       	std	Y+19, r24	; 0x13
    3146:	9c 8b       	std	Y+20, r25	; 0x14
    3148:	60 91 cb 20 	lds	r22, 0x20CB	; 0x8020cb <TEMP>
    314c:	70 91 cc 20 	lds	r23, 0x20CC	; 0x8020cc <TEMP+0x1>
    3150:	80 91 cd 20 	lds	r24, 0x20CD	; 0x8020cd <TEMP+0x2>
    3154:	90 91 ce 20 	lds	r25, 0x20CE	; 0x8020ce <TEMP+0x3>
    3158:	c3 d1       	rcall	.+902    	; 0x34e0 <__floatsisf>
    315a:	6d 8b       	std	Y+21, r22	; 0x15
    315c:	7e 8b       	std	Y+22, r23	; 0x16
    315e:	8f 8b       	std	Y+23, r24	; 0x17
    3160:	98 8f       	std	Y+24, r25	; 0x18
    3162:	19 8e       	std	Y+25, r1	; 0x19
    3164:	1a 8e       	std	Y+26, r1	; 0x1a
    3166:	1b 8e       	std	Y+27, r1	; 0x1b
    3168:	1c 8e       	std	Y+28, r1	; 0x1c
    316a:	60 e0       	ldi	r22, 0x00	; 0
    316c:	70 e0       	ldi	r23, 0x00	; 0
    316e:	cb 01       	movw	r24, r22
    3170:	b5 d1       	rcall	.+874    	; 0x34dc <__floatunsisf>
    3172:	6d 8f       	std	Y+29, r22	; 0x1d
    3174:	7e 8f       	std	Y+30, r23	; 0x1e
    3176:	8f 8f       	std	Y+31, r24	; 0x1f
    3178:	98 a3       	std	Y+32, r25	; 0x20
    317a:	60 e0       	ldi	r22, 0x00	; 0
    317c:	70 e0       	ldi	r23, 0x00	; 0
    317e:	cb 01       	movw	r24, r22
    3180:	ad d1       	rcall	.+858    	; 0x34dc <__floatunsisf>
    3182:	69 a3       	std	Y+33, r22	; 0x21
    3184:	7a a3       	std	Y+34, r23	; 0x22
    3186:	8b a3       	std	Y+35, r24	; 0x23
    3188:	9c a3       	std	Y+36, r25	; 0x24
    318a:	60 e0       	ldi	r22, 0x00	; 0
    318c:	70 e0       	ldi	r23, 0x00	; 0
    318e:	cb 01       	movw	r24, r22
    3190:	a5 d1       	rcall	.+842    	; 0x34dc <__floatunsisf>
    3192:	6d a3       	std	Y+37, r22	; 0x25
    3194:	7e a3       	std	Y+38, r23	; 0x26
    3196:	8f a3       	std	Y+39, r24	; 0x27
    3198:	98 a7       	std	Y+40, r25	; 0x28
    319a:	60 e0       	ldi	r22, 0x00	; 0
    319c:	70 e0       	ldi	r23, 0x00	; 0
    319e:	cb 01       	movw	r24, r22
    31a0:	9d d1       	rcall	.+826    	; 0x34dc <__floatunsisf>
    31a2:	69 a7       	std	Y+41, r22	; 0x29
    31a4:	7a a7       	std	Y+42, r23	; 0x2a
    31a6:	8b a7       	std	Y+43, r24	; 0x2b
    31a8:	9c a7       	std	Y+44, r25	; 0x2c
    31aa:	60 e0       	ldi	r22, 0x00	; 0
    31ac:	70 e0       	ldi	r23, 0x00	; 0
    31ae:	cb 01       	movw	r24, r22
    31b0:	95 d1       	rcall	.+810    	; 0x34dc <__floatunsisf>
    31b2:	6d a7       	std	Y+45, r22	; 0x2d
    31b4:	7e a7       	std	Y+46, r23	; 0x2e
    31b6:	8f a7       	std	Y+47, r24	; 0x2f
    31b8:	98 ab       	std	Y+48, r25	; 0x30
    31ba:	19 aa       	std	Y+49, r1	; 0x31
    31bc:	1a aa       	std	Y+50, r1	; 0x32
    31be:	1b aa       	std	Y+51, r1	; 0x33
    31c0:	1c aa       	std	Y+52, r1	; 0x34
    31c2:	1d aa       	std	Y+53, r1	; 0x35
    31c4:	1e aa       	std	Y+54, r1	; 0x36
    31c6:	1f aa       	std	Y+55, r1	; 0x37
    31c8:	18 ae       	std	Y+56, r1	; 0x38
    31ca:	19 ae       	std	Y+57, r1	; 0x39
    31cc:	1a ae       	std	Y+58, r1	; 0x3a
    31ce:	1b ae       	std	Y+59, r1	; 0x3b
    31d0:	1c ae       	std	Y+60, r1	; 0x3c
    31d2:	60 2f       	mov	r22, r16
    31d4:	70 e0       	ldi	r23, 0x00	; 0
    31d6:	80 e0       	ldi	r24, 0x00	; 0
    31d8:	90 e0       	ldi	r25, 0x00	; 0
    31da:	80 d1       	rcall	.+768    	; 0x34dc <__floatunsisf>
    31dc:	21 96       	adiw	r28, 0x01	; 1
    31de:	6c af       	std	Y+60, r22	; 0x3c
    31e0:	7d af       	std	Y+61, r23	; 0x3d
    31e2:	8e af       	std	Y+62, r24	; 0x3e
    31e4:	9f af       	std	Y+63, r25	; 0x3f
    31e6:	21 97       	sbiw	r28, 0x01	; 1
    31e8:	df 92       	push	r13
    31ea:	cf 92       	push	r12
    31ec:	2f 92       	push	r2
    31ee:	90 ea       	ldi	r25, 0xA0	; 160
    31f0:	9f 93       	push	r25
    31f2:	ea dc       	rcall	.-1580   	; 0x2bc8 <usart_tx>
    31f4:	d7 01       	movw	r26, r14
    31f6:	11 96       	adiw	r26, 0x01	; 1
    31f8:	3c 92       	st	X, r3
    31fa:	11 97       	sbiw	r26, 0x01	; 1
    31fc:	15 96       	adiw	r26, 0x05	; 5
    31fe:	3c 92       	st	X, r3
    3200:	15 97       	sbiw	r26, 0x05	; 5
    3202:	0f 90       	pop	r0
    3204:	0f 90       	pop	r0
    3206:	0f 90       	pop	r0
    3208:	0f 90       	pop	r0
    320a:	01 11       	cpse	r16, r1
    320c:	29 c0       	rjmp	.+82     	; 0x3260 <main+0x294>
    320e:	11 96       	adiw	r26, 0x01	; 1
    3210:	3c 92       	st	X, r3
    3212:	11 97       	sbiw	r26, 0x01	; 1
    3214:	15 96       	adiw	r26, 0x05	; 5
    3216:	3c 92       	st	X, r3
    3218:	20 92 04 06 	sts	0x0604, r2	; 0x800604 <__TEXT_REGION_LENGTH__+0x700604>
    321c:	d3 01       	movw	r26, r6
    321e:	c2 01       	movw	r24, r4
    3220:	29 96       	adiw	r28, 0x09	; 9
    3222:	2c ad       	ldd	r18, Y+60	; 0x3c
    3224:	3d ad       	ldd	r19, Y+61	; 0x3d
    3226:	4e ad       	ldd	r20, Y+62	; 0x3e
    3228:	5f ad       	ldd	r21, Y+63	; 0x3f
    322a:	29 97       	sbiw	r28, 0x09	; 9
    322c:	82 1b       	sub	r24, r18
    322e:	93 0b       	sbc	r25, r19
    3230:	a4 0b       	sbc	r26, r20
    3232:	b5 0b       	sbc	r27, r21
    3234:	0a f0       	brmi	.+2      	; 0x3238 <main+0x26c>
    3236:	17 cf       	rjmp	.-466    	; 0x3066 <main+0x9a>
    3238:	d3 01       	movw	r26, r6
    323a:	c2 01       	movw	r24, r4
    323c:	89 55       	subi	r24, 0x59	; 89
    323e:	92 40       	sbci	r25, 0x02	; 2
    3240:	a1 09       	sbc	r26, r1
    3242:	b1 09       	sbc	r27, r1
    3244:	87 3c       	cpi	r24, 0xC7	; 199
    3246:	91 05       	cpc	r25, r1
    3248:	a1 05       	cpc	r26, r1
    324a:	b1 05       	cpc	r27, r1
    324c:	08 f0       	brcs	.+2      	; 0x3250 <main+0x284>
    324e:	0b cf       	rjmp	.-490    	; 0x3066 <main+0x9a>
    3250:	81 e0       	ldi	r24, 0x01	; 1
    3252:	d7 01       	movw	r26, r14
    3254:	11 96       	adiw	r26, 0x01	; 1
    3256:	8c 93       	st	X, r24
    3258:	11 97       	sbiw	r26, 0x01	; 1
    325a:	15 96       	adiw	r26, 0x05	; 5
    325c:	8c 93       	st	X, r24
    325e:	02 c0       	rjmp	.+4      	; 0x3264 <main+0x298>
    3260:	01 30       	cpi	r16, 0x01	; 1
    3262:	a9 f4       	brne	.+42     	; 0x328e <main+0x2c2>
    3264:	86 e4       	ldi	r24, 0x46	; 70
    3266:	90 e2       	ldi	r25, 0x20	; 32
    3268:	0e 94 d4 22 	call	0x45a8	; 0x45a8 <puts>
    326c:	bc e2       	ldi	r27, 0x2C	; 44
    326e:	4b 16       	cp	r4, r27
    3270:	b1 e0       	ldi	r27, 0x01	; 1
    3272:	5b 06       	cpc	r5, r27
    3274:	61 04       	cpc	r6, r1
    3276:	71 04       	cpc	r7, r1
    3278:	6c f5       	brge	.+90     	; 0x32d4 <main+0x308>
    327a:	82 e0       	ldi	r24, 0x02	; 2
    327c:	f7 01       	movw	r30, r14
    327e:	81 83       	std	Z+1, r24	; 0x01
    3280:	85 83       	std	Z+5, r24	; 0x05
    3282:	f0 e8       	ldi	r31, 0x80	; 128
    3284:	f0 93 01 06 	sts	0x0601, r31	; 0x800601 <__TEXT_REGION_LENGTH__+0x700601>
    3288:	f0 93 05 06 	sts	0x0605, r31	; 0x800605 <__TEXT_REGION_LENGTH__+0x700605>
    328c:	03 c0       	rjmp	.+6      	; 0x3294 <main+0x2c8>
    328e:	02 30       	cpi	r16, 0x02	; 2
    3290:	09 f0       	breq	.+2      	; 0x3294 <main+0x2c8>
    3292:	e9 ce       	rjmp	.-558    	; 0x3066 <main+0x9a>
    3294:	86 e5       	ldi	r24, 0x56	; 86
    3296:	90 e2       	ldi	r25, 0x20	; 32
    3298:	0e 94 d4 22 	call	0x45a8	; 0x45a8 <puts>
    329c:	d3 01       	movw	r26, r6
    329e:	c2 01       	movw	r24, r4
    32a0:	29 96       	adiw	r28, 0x09	; 9
    32a2:	2c ad       	ldd	r18, Y+60	; 0x3c
    32a4:	3d ad       	ldd	r19, Y+61	; 0x3d
    32a6:	4e ad       	ldd	r20, Y+62	; 0x3e
    32a8:	5f ad       	ldd	r21, Y+63	; 0x3f
    32aa:	29 97       	sbiw	r28, 0x09	; 9
    32ac:	82 1b       	sub	r24, r18
    32ae:	93 0b       	sbc	r25, r19
    32b0:	a4 0b       	sbc	r26, r20
    32b2:	b5 0b       	sbc	r27, r21
    32b4:	18 16       	cp	r1, r24
    32b6:	19 06       	cpc	r1, r25
    32b8:	1a 06       	cpc	r1, r26
    32ba:	1b 06       	cpc	r1, r27
    32bc:	6c f0       	brlt	.+26     	; 0x32d8 <main+0x30c>
    32be:	24 36       	cpi	r18, 0x64	; 100
    32c0:	31 05       	cpc	r19, r1
    32c2:	41 05       	cpc	r20, r1
    32c4:	51 05       	cpc	r21, r1
    32c6:	54 f4       	brge	.+20     	; 0x32dc <main+0x310>
    32c8:	20 92 01 06 	sts	0x0601, r2	; 0x800601 <__TEXT_REGION_LENGTH__+0x700601>
    32cc:	20 92 05 06 	sts	0x0605, r2	; 0x800605 <__TEXT_REGION_LENGTH__+0x700605>
    32d0:	03 e0       	ldi	r16, 0x03	; 3
    32d2:	c9 ce       	rjmp	.-622    	; 0x3066 <main+0x9a>
    32d4:	01 e0       	ldi	r16, 0x01	; 1
    32d6:	c7 ce       	rjmp	.-626    	; 0x3066 <main+0x9a>
    32d8:	02 e0       	ldi	r16, 0x02	; 2
    32da:	c5 ce       	rjmp	.-630    	; 0x3066 <main+0x9a>
    32dc:	02 e0       	ldi	r16, 0x02	; 2
    32de:	c3 ce       	rjmp	.-634    	; 0x3066 <main+0x9a>

000032e0 <__subsf3>:
    32e0:	50 58       	subi	r21, 0x80	; 128

000032e2 <__addsf3>:
    32e2:	bb 27       	eor	r27, r27
    32e4:	aa 27       	eor	r26, r26
    32e6:	0e d0       	rcall	.+28     	; 0x3304 <__addsf3x>
    32e8:	4d c1       	rjmp	.+666    	; 0x3584 <__fp_round>
    32ea:	3e d1       	rcall	.+636    	; 0x3568 <__fp_pscA>
    32ec:	30 f0       	brcs	.+12     	; 0x32fa <__addsf3+0x18>
    32ee:	43 d1       	rcall	.+646    	; 0x3576 <__fp_pscB>
    32f0:	20 f0       	brcs	.+8      	; 0x32fa <__addsf3+0x18>
    32f2:	31 f4       	brne	.+12     	; 0x3300 <__addsf3+0x1e>
    32f4:	9f 3f       	cpi	r25, 0xFF	; 255
    32f6:	11 f4       	brne	.+4      	; 0x32fc <__addsf3+0x1a>
    32f8:	1e f4       	brtc	.+6      	; 0x3300 <__addsf3+0x1e>
    32fa:	33 c1       	rjmp	.+614    	; 0x3562 <__fp_nan>
    32fc:	0e f4       	brtc	.+2      	; 0x3300 <__addsf3+0x1e>
    32fe:	e0 95       	com	r30
    3300:	e7 fb       	bst	r30, 7
    3302:	29 c1       	rjmp	.+594    	; 0x3556 <__fp_inf>

00003304 <__addsf3x>:
    3304:	e9 2f       	mov	r30, r25
    3306:	4f d1       	rcall	.+670    	; 0x35a6 <__fp_split3>
    3308:	80 f3       	brcs	.-32     	; 0x32ea <__addsf3+0x8>
    330a:	ba 17       	cp	r27, r26
    330c:	62 07       	cpc	r22, r18
    330e:	73 07       	cpc	r23, r19
    3310:	84 07       	cpc	r24, r20
    3312:	95 07       	cpc	r25, r21
    3314:	18 f0       	brcs	.+6      	; 0x331c <__addsf3x+0x18>
    3316:	71 f4       	brne	.+28     	; 0x3334 <__addsf3x+0x30>
    3318:	9e f5       	brtc	.+102    	; 0x3380 <__addsf3x+0x7c>
    331a:	67 c1       	rjmp	.+718    	; 0x35ea <__fp_zero>
    331c:	0e f4       	brtc	.+2      	; 0x3320 <__addsf3x+0x1c>
    331e:	e0 95       	com	r30
    3320:	0b 2e       	mov	r0, r27
    3322:	ba 2f       	mov	r27, r26
    3324:	a0 2d       	mov	r26, r0
    3326:	0b 01       	movw	r0, r22
    3328:	b9 01       	movw	r22, r18
    332a:	90 01       	movw	r18, r0
    332c:	0c 01       	movw	r0, r24
    332e:	ca 01       	movw	r24, r20
    3330:	a0 01       	movw	r20, r0
    3332:	11 24       	eor	r1, r1
    3334:	ff 27       	eor	r31, r31
    3336:	59 1b       	sub	r21, r25
    3338:	99 f0       	breq	.+38     	; 0x3360 <__addsf3x+0x5c>
    333a:	59 3f       	cpi	r21, 0xF9	; 249
    333c:	50 f4       	brcc	.+20     	; 0x3352 <__addsf3x+0x4e>
    333e:	50 3e       	cpi	r21, 0xE0	; 224
    3340:	68 f1       	brcs	.+90     	; 0x339c <__addsf3x+0x98>
    3342:	1a 16       	cp	r1, r26
    3344:	f0 40       	sbci	r31, 0x00	; 0
    3346:	a2 2f       	mov	r26, r18
    3348:	23 2f       	mov	r18, r19
    334a:	34 2f       	mov	r19, r20
    334c:	44 27       	eor	r20, r20
    334e:	58 5f       	subi	r21, 0xF8	; 248
    3350:	f3 cf       	rjmp	.-26     	; 0x3338 <__addsf3x+0x34>
    3352:	46 95       	lsr	r20
    3354:	37 95       	ror	r19
    3356:	27 95       	ror	r18
    3358:	a7 95       	ror	r26
    335a:	f0 40       	sbci	r31, 0x00	; 0
    335c:	53 95       	inc	r21
    335e:	c9 f7       	brne	.-14     	; 0x3352 <__addsf3x+0x4e>
    3360:	7e f4       	brtc	.+30     	; 0x3380 <__addsf3x+0x7c>
    3362:	1f 16       	cp	r1, r31
    3364:	ba 0b       	sbc	r27, r26
    3366:	62 0b       	sbc	r22, r18
    3368:	73 0b       	sbc	r23, r19
    336a:	84 0b       	sbc	r24, r20
    336c:	ba f0       	brmi	.+46     	; 0x339c <__addsf3x+0x98>
    336e:	91 50       	subi	r25, 0x01	; 1
    3370:	a1 f0       	breq	.+40     	; 0x339a <__addsf3x+0x96>
    3372:	ff 0f       	add	r31, r31
    3374:	bb 1f       	adc	r27, r27
    3376:	66 1f       	adc	r22, r22
    3378:	77 1f       	adc	r23, r23
    337a:	88 1f       	adc	r24, r24
    337c:	c2 f7       	brpl	.-16     	; 0x336e <__addsf3x+0x6a>
    337e:	0e c0       	rjmp	.+28     	; 0x339c <__addsf3x+0x98>
    3380:	ba 0f       	add	r27, r26
    3382:	62 1f       	adc	r22, r18
    3384:	73 1f       	adc	r23, r19
    3386:	84 1f       	adc	r24, r20
    3388:	48 f4       	brcc	.+18     	; 0x339c <__addsf3x+0x98>
    338a:	87 95       	ror	r24
    338c:	77 95       	ror	r23
    338e:	67 95       	ror	r22
    3390:	b7 95       	ror	r27
    3392:	f7 95       	ror	r31
    3394:	9e 3f       	cpi	r25, 0xFE	; 254
    3396:	08 f0       	brcs	.+2      	; 0x339a <__addsf3x+0x96>
    3398:	b3 cf       	rjmp	.-154    	; 0x3300 <__addsf3+0x1e>
    339a:	93 95       	inc	r25
    339c:	88 0f       	add	r24, r24
    339e:	08 f0       	brcs	.+2      	; 0x33a2 <__addsf3x+0x9e>
    33a0:	99 27       	eor	r25, r25
    33a2:	ee 0f       	add	r30, r30
    33a4:	97 95       	ror	r25
    33a6:	87 95       	ror	r24
    33a8:	08 95       	ret

000033aa <__divsf3>:
    33aa:	0c d0       	rcall	.+24     	; 0x33c4 <__divsf3x>
    33ac:	eb c0       	rjmp	.+470    	; 0x3584 <__fp_round>
    33ae:	e3 d0       	rcall	.+454    	; 0x3576 <__fp_pscB>
    33b0:	40 f0       	brcs	.+16     	; 0x33c2 <__divsf3+0x18>
    33b2:	da d0       	rcall	.+436    	; 0x3568 <__fp_pscA>
    33b4:	30 f0       	brcs	.+12     	; 0x33c2 <__divsf3+0x18>
    33b6:	21 f4       	brne	.+8      	; 0x33c0 <__divsf3+0x16>
    33b8:	5f 3f       	cpi	r21, 0xFF	; 255
    33ba:	19 f0       	breq	.+6      	; 0x33c2 <__divsf3+0x18>
    33bc:	cc c0       	rjmp	.+408    	; 0x3556 <__fp_inf>
    33be:	51 11       	cpse	r21, r1
    33c0:	15 c1       	rjmp	.+554    	; 0x35ec <__fp_szero>
    33c2:	cf c0       	rjmp	.+414    	; 0x3562 <__fp_nan>

000033c4 <__divsf3x>:
    33c4:	f0 d0       	rcall	.+480    	; 0x35a6 <__fp_split3>
    33c6:	98 f3       	brcs	.-26     	; 0x33ae <__divsf3+0x4>

000033c8 <__divsf3_pse>:
    33c8:	99 23       	and	r25, r25
    33ca:	c9 f3       	breq	.-14     	; 0x33be <__divsf3+0x14>
    33cc:	55 23       	and	r21, r21
    33ce:	b1 f3       	breq	.-20     	; 0x33bc <__divsf3+0x12>
    33d0:	95 1b       	sub	r25, r21
    33d2:	55 0b       	sbc	r21, r21
    33d4:	bb 27       	eor	r27, r27
    33d6:	aa 27       	eor	r26, r26
    33d8:	62 17       	cp	r22, r18
    33da:	73 07       	cpc	r23, r19
    33dc:	84 07       	cpc	r24, r20
    33de:	38 f0       	brcs	.+14     	; 0x33ee <__divsf3_pse+0x26>
    33e0:	9f 5f       	subi	r25, 0xFF	; 255
    33e2:	5f 4f       	sbci	r21, 0xFF	; 255
    33e4:	22 0f       	add	r18, r18
    33e6:	33 1f       	adc	r19, r19
    33e8:	44 1f       	adc	r20, r20
    33ea:	aa 1f       	adc	r26, r26
    33ec:	a9 f3       	breq	.-22     	; 0x33d8 <__divsf3_pse+0x10>
    33ee:	33 d0       	rcall	.+102    	; 0x3456 <__divsf3_pse+0x8e>
    33f0:	0e 2e       	mov	r0, r30
    33f2:	3a f0       	brmi	.+14     	; 0x3402 <__divsf3_pse+0x3a>
    33f4:	e0 e8       	ldi	r30, 0x80	; 128
    33f6:	30 d0       	rcall	.+96     	; 0x3458 <__divsf3_pse+0x90>
    33f8:	91 50       	subi	r25, 0x01	; 1
    33fa:	50 40       	sbci	r21, 0x00	; 0
    33fc:	e6 95       	lsr	r30
    33fe:	00 1c       	adc	r0, r0
    3400:	ca f7       	brpl	.-14     	; 0x33f4 <__divsf3_pse+0x2c>
    3402:	29 d0       	rcall	.+82     	; 0x3456 <__divsf3_pse+0x8e>
    3404:	fe 2f       	mov	r31, r30
    3406:	27 d0       	rcall	.+78     	; 0x3456 <__divsf3_pse+0x8e>
    3408:	66 0f       	add	r22, r22
    340a:	77 1f       	adc	r23, r23
    340c:	88 1f       	adc	r24, r24
    340e:	bb 1f       	adc	r27, r27
    3410:	26 17       	cp	r18, r22
    3412:	37 07       	cpc	r19, r23
    3414:	48 07       	cpc	r20, r24
    3416:	ab 07       	cpc	r26, r27
    3418:	b0 e8       	ldi	r27, 0x80	; 128
    341a:	09 f0       	breq	.+2      	; 0x341e <__divsf3_pse+0x56>
    341c:	bb 0b       	sbc	r27, r27
    341e:	80 2d       	mov	r24, r0
    3420:	bf 01       	movw	r22, r30
    3422:	ff 27       	eor	r31, r31
    3424:	93 58       	subi	r25, 0x83	; 131
    3426:	5f 4f       	sbci	r21, 0xFF	; 255
    3428:	2a f0       	brmi	.+10     	; 0x3434 <__divsf3_pse+0x6c>
    342a:	9e 3f       	cpi	r25, 0xFE	; 254
    342c:	51 05       	cpc	r21, r1
    342e:	68 f0       	brcs	.+26     	; 0x344a <__divsf3_pse+0x82>
    3430:	92 c0       	rjmp	.+292    	; 0x3556 <__fp_inf>
    3432:	dc c0       	rjmp	.+440    	; 0x35ec <__fp_szero>
    3434:	5f 3f       	cpi	r21, 0xFF	; 255
    3436:	ec f3       	brlt	.-6      	; 0x3432 <__divsf3_pse+0x6a>
    3438:	98 3e       	cpi	r25, 0xE8	; 232
    343a:	dc f3       	brlt	.-10     	; 0x3432 <__divsf3_pse+0x6a>
    343c:	86 95       	lsr	r24
    343e:	77 95       	ror	r23
    3440:	67 95       	ror	r22
    3442:	b7 95       	ror	r27
    3444:	f7 95       	ror	r31
    3446:	9f 5f       	subi	r25, 0xFF	; 255
    3448:	c9 f7       	brne	.-14     	; 0x343c <__divsf3_pse+0x74>
    344a:	88 0f       	add	r24, r24
    344c:	91 1d       	adc	r25, r1
    344e:	96 95       	lsr	r25
    3450:	87 95       	ror	r24
    3452:	97 f9       	bld	r25, 7
    3454:	08 95       	ret
    3456:	e1 e0       	ldi	r30, 0x01	; 1
    3458:	66 0f       	add	r22, r22
    345a:	77 1f       	adc	r23, r23
    345c:	88 1f       	adc	r24, r24
    345e:	bb 1f       	adc	r27, r27
    3460:	62 17       	cp	r22, r18
    3462:	73 07       	cpc	r23, r19
    3464:	84 07       	cpc	r24, r20
    3466:	ba 07       	cpc	r27, r26
    3468:	20 f0       	brcs	.+8      	; 0x3472 <__divsf3_pse+0xaa>
    346a:	62 1b       	sub	r22, r18
    346c:	73 0b       	sbc	r23, r19
    346e:	84 0b       	sbc	r24, r20
    3470:	ba 0b       	sbc	r27, r26
    3472:	ee 1f       	adc	r30, r30
    3474:	88 f7       	brcc	.-30     	; 0x3458 <__divsf3_pse+0x90>
    3476:	e0 95       	com	r30
    3478:	08 95       	ret

0000347a <__fixsfsi>:
    347a:	04 d0       	rcall	.+8      	; 0x3484 <__fixunssfsi>
    347c:	68 94       	set
    347e:	b1 11       	cpse	r27, r1
    3480:	b5 c0       	rjmp	.+362    	; 0x35ec <__fp_szero>
    3482:	08 95       	ret

00003484 <__fixunssfsi>:
    3484:	98 d0       	rcall	.+304    	; 0x35b6 <__fp_splitA>
    3486:	88 f0       	brcs	.+34     	; 0x34aa <__fixunssfsi+0x26>
    3488:	9f 57       	subi	r25, 0x7F	; 127
    348a:	90 f0       	brcs	.+36     	; 0x34b0 <__fixunssfsi+0x2c>
    348c:	b9 2f       	mov	r27, r25
    348e:	99 27       	eor	r25, r25
    3490:	b7 51       	subi	r27, 0x17	; 23
    3492:	a0 f0       	brcs	.+40     	; 0x34bc <__fixunssfsi+0x38>
    3494:	d1 f0       	breq	.+52     	; 0x34ca <__fixunssfsi+0x46>
    3496:	66 0f       	add	r22, r22
    3498:	77 1f       	adc	r23, r23
    349a:	88 1f       	adc	r24, r24
    349c:	99 1f       	adc	r25, r25
    349e:	1a f0       	brmi	.+6      	; 0x34a6 <__fixunssfsi+0x22>
    34a0:	ba 95       	dec	r27
    34a2:	c9 f7       	brne	.-14     	; 0x3496 <__fixunssfsi+0x12>
    34a4:	12 c0       	rjmp	.+36     	; 0x34ca <__fixunssfsi+0x46>
    34a6:	b1 30       	cpi	r27, 0x01	; 1
    34a8:	81 f0       	breq	.+32     	; 0x34ca <__fixunssfsi+0x46>
    34aa:	9f d0       	rcall	.+318    	; 0x35ea <__fp_zero>
    34ac:	b1 e0       	ldi	r27, 0x01	; 1
    34ae:	08 95       	ret
    34b0:	9c c0       	rjmp	.+312    	; 0x35ea <__fp_zero>
    34b2:	67 2f       	mov	r22, r23
    34b4:	78 2f       	mov	r23, r24
    34b6:	88 27       	eor	r24, r24
    34b8:	b8 5f       	subi	r27, 0xF8	; 248
    34ba:	39 f0       	breq	.+14     	; 0x34ca <__fixunssfsi+0x46>
    34bc:	b9 3f       	cpi	r27, 0xF9	; 249
    34be:	cc f3       	brlt	.-14     	; 0x34b2 <__fixunssfsi+0x2e>
    34c0:	86 95       	lsr	r24
    34c2:	77 95       	ror	r23
    34c4:	67 95       	ror	r22
    34c6:	b3 95       	inc	r27
    34c8:	d9 f7       	brne	.-10     	; 0x34c0 <__fixunssfsi+0x3c>
    34ca:	3e f4       	brtc	.+14     	; 0x34da <__fixunssfsi+0x56>
    34cc:	90 95       	com	r25
    34ce:	80 95       	com	r24
    34d0:	70 95       	com	r23
    34d2:	61 95       	neg	r22
    34d4:	7f 4f       	sbci	r23, 0xFF	; 255
    34d6:	8f 4f       	sbci	r24, 0xFF	; 255
    34d8:	9f 4f       	sbci	r25, 0xFF	; 255
    34da:	08 95       	ret

000034dc <__floatunsisf>:
    34dc:	e8 94       	clt
    34de:	09 c0       	rjmp	.+18     	; 0x34f2 <__floatsisf+0x12>

000034e0 <__floatsisf>:
    34e0:	97 fb       	bst	r25, 7
    34e2:	3e f4       	brtc	.+14     	; 0x34f2 <__floatsisf+0x12>
    34e4:	90 95       	com	r25
    34e6:	80 95       	com	r24
    34e8:	70 95       	com	r23
    34ea:	61 95       	neg	r22
    34ec:	7f 4f       	sbci	r23, 0xFF	; 255
    34ee:	8f 4f       	sbci	r24, 0xFF	; 255
    34f0:	9f 4f       	sbci	r25, 0xFF	; 255
    34f2:	99 23       	and	r25, r25
    34f4:	a9 f0       	breq	.+42     	; 0x3520 <__floatsisf+0x40>
    34f6:	f9 2f       	mov	r31, r25
    34f8:	96 e9       	ldi	r25, 0x96	; 150
    34fa:	bb 27       	eor	r27, r27
    34fc:	93 95       	inc	r25
    34fe:	f6 95       	lsr	r31
    3500:	87 95       	ror	r24
    3502:	77 95       	ror	r23
    3504:	67 95       	ror	r22
    3506:	b7 95       	ror	r27
    3508:	f1 11       	cpse	r31, r1
    350a:	f8 cf       	rjmp	.-16     	; 0x34fc <__floatsisf+0x1c>
    350c:	fa f4       	brpl	.+62     	; 0x354c <__floatsisf+0x6c>
    350e:	bb 0f       	add	r27, r27
    3510:	11 f4       	brne	.+4      	; 0x3516 <__floatsisf+0x36>
    3512:	60 ff       	sbrs	r22, 0
    3514:	1b c0       	rjmp	.+54     	; 0x354c <__floatsisf+0x6c>
    3516:	6f 5f       	subi	r22, 0xFF	; 255
    3518:	7f 4f       	sbci	r23, 0xFF	; 255
    351a:	8f 4f       	sbci	r24, 0xFF	; 255
    351c:	9f 4f       	sbci	r25, 0xFF	; 255
    351e:	16 c0       	rjmp	.+44     	; 0x354c <__floatsisf+0x6c>
    3520:	88 23       	and	r24, r24
    3522:	11 f0       	breq	.+4      	; 0x3528 <__floatsisf+0x48>
    3524:	96 e9       	ldi	r25, 0x96	; 150
    3526:	11 c0       	rjmp	.+34     	; 0x354a <__floatsisf+0x6a>
    3528:	77 23       	and	r23, r23
    352a:	21 f0       	breq	.+8      	; 0x3534 <__floatsisf+0x54>
    352c:	9e e8       	ldi	r25, 0x8E	; 142
    352e:	87 2f       	mov	r24, r23
    3530:	76 2f       	mov	r23, r22
    3532:	05 c0       	rjmp	.+10     	; 0x353e <__floatsisf+0x5e>
    3534:	66 23       	and	r22, r22
    3536:	71 f0       	breq	.+28     	; 0x3554 <__floatsisf+0x74>
    3538:	96 e8       	ldi	r25, 0x86	; 134
    353a:	86 2f       	mov	r24, r22
    353c:	70 e0       	ldi	r23, 0x00	; 0
    353e:	60 e0       	ldi	r22, 0x00	; 0
    3540:	2a f0       	brmi	.+10     	; 0x354c <__floatsisf+0x6c>
    3542:	9a 95       	dec	r25
    3544:	66 0f       	add	r22, r22
    3546:	77 1f       	adc	r23, r23
    3548:	88 1f       	adc	r24, r24
    354a:	da f7       	brpl	.-10     	; 0x3542 <__floatsisf+0x62>
    354c:	88 0f       	add	r24, r24
    354e:	96 95       	lsr	r25
    3550:	87 95       	ror	r24
    3552:	97 f9       	bld	r25, 7
    3554:	08 95       	ret

00003556 <__fp_inf>:
    3556:	97 f9       	bld	r25, 7
    3558:	9f 67       	ori	r25, 0x7F	; 127
    355a:	80 e8       	ldi	r24, 0x80	; 128
    355c:	70 e0       	ldi	r23, 0x00	; 0
    355e:	60 e0       	ldi	r22, 0x00	; 0
    3560:	08 95       	ret

00003562 <__fp_nan>:
    3562:	9f ef       	ldi	r25, 0xFF	; 255
    3564:	80 ec       	ldi	r24, 0xC0	; 192
    3566:	08 95       	ret

00003568 <__fp_pscA>:
    3568:	00 24       	eor	r0, r0
    356a:	0a 94       	dec	r0
    356c:	16 16       	cp	r1, r22
    356e:	17 06       	cpc	r1, r23
    3570:	18 06       	cpc	r1, r24
    3572:	09 06       	cpc	r0, r25
    3574:	08 95       	ret

00003576 <__fp_pscB>:
    3576:	00 24       	eor	r0, r0
    3578:	0a 94       	dec	r0
    357a:	12 16       	cp	r1, r18
    357c:	13 06       	cpc	r1, r19
    357e:	14 06       	cpc	r1, r20
    3580:	05 06       	cpc	r0, r21
    3582:	08 95       	ret

00003584 <__fp_round>:
    3584:	09 2e       	mov	r0, r25
    3586:	03 94       	inc	r0
    3588:	00 0c       	add	r0, r0
    358a:	11 f4       	brne	.+4      	; 0x3590 <__fp_round+0xc>
    358c:	88 23       	and	r24, r24
    358e:	52 f0       	brmi	.+20     	; 0x35a4 <__fp_round+0x20>
    3590:	bb 0f       	add	r27, r27
    3592:	40 f4       	brcc	.+16     	; 0x35a4 <__fp_round+0x20>
    3594:	bf 2b       	or	r27, r31
    3596:	11 f4       	brne	.+4      	; 0x359c <__fp_round+0x18>
    3598:	60 ff       	sbrs	r22, 0
    359a:	04 c0       	rjmp	.+8      	; 0x35a4 <__fp_round+0x20>
    359c:	6f 5f       	subi	r22, 0xFF	; 255
    359e:	7f 4f       	sbci	r23, 0xFF	; 255
    35a0:	8f 4f       	sbci	r24, 0xFF	; 255
    35a2:	9f 4f       	sbci	r25, 0xFF	; 255
    35a4:	08 95       	ret

000035a6 <__fp_split3>:
    35a6:	57 fd       	sbrc	r21, 7
    35a8:	90 58       	subi	r25, 0x80	; 128
    35aa:	44 0f       	add	r20, r20
    35ac:	55 1f       	adc	r21, r21
    35ae:	59 f0       	breq	.+22     	; 0x35c6 <__fp_splitA+0x10>
    35b0:	5f 3f       	cpi	r21, 0xFF	; 255
    35b2:	71 f0       	breq	.+28     	; 0x35d0 <__fp_splitA+0x1a>
    35b4:	47 95       	ror	r20

000035b6 <__fp_splitA>:
    35b6:	88 0f       	add	r24, r24
    35b8:	97 fb       	bst	r25, 7
    35ba:	99 1f       	adc	r25, r25
    35bc:	61 f0       	breq	.+24     	; 0x35d6 <__fp_splitA+0x20>
    35be:	9f 3f       	cpi	r25, 0xFF	; 255
    35c0:	79 f0       	breq	.+30     	; 0x35e0 <__fp_splitA+0x2a>
    35c2:	87 95       	ror	r24
    35c4:	08 95       	ret
    35c6:	12 16       	cp	r1, r18
    35c8:	13 06       	cpc	r1, r19
    35ca:	14 06       	cpc	r1, r20
    35cc:	55 1f       	adc	r21, r21
    35ce:	f2 cf       	rjmp	.-28     	; 0x35b4 <__fp_split3+0xe>
    35d0:	46 95       	lsr	r20
    35d2:	f1 df       	rcall	.-30     	; 0x35b6 <__fp_splitA>
    35d4:	08 c0       	rjmp	.+16     	; 0x35e6 <__fp_splitA+0x30>
    35d6:	16 16       	cp	r1, r22
    35d8:	17 06       	cpc	r1, r23
    35da:	18 06       	cpc	r1, r24
    35dc:	99 1f       	adc	r25, r25
    35de:	f1 cf       	rjmp	.-30     	; 0x35c2 <__fp_splitA+0xc>
    35e0:	86 95       	lsr	r24
    35e2:	71 05       	cpc	r23, r1
    35e4:	61 05       	cpc	r22, r1
    35e6:	08 94       	sec
    35e8:	08 95       	ret

000035ea <__fp_zero>:
    35ea:	e8 94       	clt

000035ec <__fp_szero>:
    35ec:	bb 27       	eor	r27, r27
    35ee:	66 27       	eor	r22, r22
    35f0:	77 27       	eor	r23, r23
    35f2:	cb 01       	movw	r24, r22
    35f4:	97 f9       	bld	r25, 7
    35f6:	08 95       	ret
    35f8:	0e f0       	brts	.+2      	; 0x35fc <__fp_szero+0x10>
    35fa:	23 c1       	rjmp	.+582    	; 0x3842 <__fp_mpack>
    35fc:	b2 cf       	rjmp	.-156    	; 0x3562 <__fp_nan>
    35fe:	68 94       	set
    3600:	aa cf       	rjmp	.-172    	; 0x3556 <__fp_inf>

00003602 <log>:
    3602:	d9 df       	rcall	.-78     	; 0x35b6 <__fp_splitA>
    3604:	c8 f3       	brcs	.-14     	; 0x35f8 <__fp_szero+0xc>
    3606:	99 23       	and	r25, r25
    3608:	d1 f3       	breq	.-12     	; 0x35fe <__fp_szero+0x12>
    360a:	c6 f3       	brts	.-16     	; 0x35fc <__fp_szero+0x10>
    360c:	df 93       	push	r29
    360e:	cf 93       	push	r28
    3610:	1f 93       	push	r17
    3612:	0f 93       	push	r16
    3614:	ff 92       	push	r15
    3616:	c9 2f       	mov	r28, r25
    3618:	dd 27       	eor	r29, r29
    361a:	88 23       	and	r24, r24
    361c:	2a f0       	brmi	.+10     	; 0x3628 <log+0x26>
    361e:	21 97       	sbiw	r28, 0x01	; 1
    3620:	66 0f       	add	r22, r22
    3622:	77 1f       	adc	r23, r23
    3624:	88 1f       	adc	r24, r24
    3626:	da f7       	brpl	.-10     	; 0x361e <log+0x1c>
    3628:	20 e0       	ldi	r18, 0x00	; 0
    362a:	30 e0       	ldi	r19, 0x00	; 0
    362c:	40 e8       	ldi	r20, 0x80	; 128
    362e:	5f eb       	ldi	r21, 0xBF	; 191
    3630:	9f e3       	ldi	r25, 0x3F	; 63
    3632:	88 39       	cpi	r24, 0x98	; 152
    3634:	20 f0       	brcs	.+8      	; 0x363e <log+0x3c>
    3636:	80 3e       	cpi	r24, 0xE0	; 224
    3638:	30 f0       	brcs	.+12     	; 0x3646 <log+0x44>
    363a:	21 96       	adiw	r28, 0x01	; 1
    363c:	8f 77       	andi	r24, 0x7F	; 127
    363e:	51 de       	rcall	.-862    	; 0x32e2 <__addsf3>
    3640:	ea e7       	ldi	r30, 0x7A	; 122
    3642:	f2 e0       	ldi	r31, 0x02	; 2
    3644:	03 c0       	rjmp	.+6      	; 0x364c <log+0x4a>
    3646:	4d de       	rcall	.-870    	; 0x32e2 <__addsf3>
    3648:	e7 ea       	ldi	r30, 0xA7	; 167
    364a:	f2 e0       	ldi	r31, 0x02	; 2
    364c:	08 d1       	rcall	.+528    	; 0x385e <__fp_powser>
    364e:	8b 01       	movw	r16, r22
    3650:	be 01       	movw	r22, r28
    3652:	ec 01       	movw	r28, r24
    3654:	fb 2e       	mov	r15, r27
    3656:	6f 57       	subi	r22, 0x7F	; 127
    3658:	71 09       	sbc	r23, r1
    365a:	75 95       	asr	r23
    365c:	77 1f       	adc	r23, r23
    365e:	88 0b       	sbc	r24, r24
    3660:	99 0b       	sbc	r25, r25
    3662:	3e df       	rcall	.-388    	; 0x34e0 <__floatsisf>
    3664:	28 e1       	ldi	r18, 0x18	; 24
    3666:	32 e7       	ldi	r19, 0x72	; 114
    3668:	41 e3       	ldi	r20, 0x31	; 49
    366a:	5f e3       	ldi	r21, 0x3F	; 63
    366c:	16 d0       	rcall	.+44     	; 0x369a <__mulsf3x>
    366e:	af 2d       	mov	r26, r15
    3670:	98 01       	movw	r18, r16
    3672:	ae 01       	movw	r20, r28
    3674:	ff 90       	pop	r15
    3676:	0f 91       	pop	r16
    3678:	1f 91       	pop	r17
    367a:	cf 91       	pop	r28
    367c:	df 91       	pop	r29
    367e:	42 de       	rcall	.-892    	; 0x3304 <__addsf3x>
    3680:	81 cf       	rjmp	.-254    	; 0x3584 <__fp_round>

00003682 <__mulsf3>:
    3682:	0b d0       	rcall	.+22     	; 0x369a <__mulsf3x>
    3684:	7f cf       	rjmp	.-258    	; 0x3584 <__fp_round>
    3686:	70 df       	rcall	.-288    	; 0x3568 <__fp_pscA>
    3688:	28 f0       	brcs	.+10     	; 0x3694 <__mulsf3+0x12>
    368a:	75 df       	rcall	.-278    	; 0x3576 <__fp_pscB>
    368c:	18 f0       	brcs	.+6      	; 0x3694 <__mulsf3+0x12>
    368e:	95 23       	and	r25, r21
    3690:	09 f0       	breq	.+2      	; 0x3694 <__mulsf3+0x12>
    3692:	61 cf       	rjmp	.-318    	; 0x3556 <__fp_inf>
    3694:	66 cf       	rjmp	.-308    	; 0x3562 <__fp_nan>
    3696:	11 24       	eor	r1, r1
    3698:	a9 cf       	rjmp	.-174    	; 0x35ec <__fp_szero>

0000369a <__mulsf3x>:
    369a:	85 df       	rcall	.-246    	; 0x35a6 <__fp_split3>
    369c:	a0 f3       	brcs	.-24     	; 0x3686 <__mulsf3+0x4>

0000369e <__mulsf3_pse>:
    369e:	95 9f       	mul	r25, r21
    36a0:	d1 f3       	breq	.-12     	; 0x3696 <__mulsf3+0x14>
    36a2:	95 0f       	add	r25, r21
    36a4:	50 e0       	ldi	r21, 0x00	; 0
    36a6:	55 1f       	adc	r21, r21
    36a8:	62 9f       	mul	r22, r18
    36aa:	f0 01       	movw	r30, r0
    36ac:	72 9f       	mul	r23, r18
    36ae:	bb 27       	eor	r27, r27
    36b0:	f0 0d       	add	r31, r0
    36b2:	b1 1d       	adc	r27, r1
    36b4:	63 9f       	mul	r22, r19
    36b6:	aa 27       	eor	r26, r26
    36b8:	f0 0d       	add	r31, r0
    36ba:	b1 1d       	adc	r27, r1
    36bc:	aa 1f       	adc	r26, r26
    36be:	64 9f       	mul	r22, r20
    36c0:	66 27       	eor	r22, r22
    36c2:	b0 0d       	add	r27, r0
    36c4:	a1 1d       	adc	r26, r1
    36c6:	66 1f       	adc	r22, r22
    36c8:	82 9f       	mul	r24, r18
    36ca:	22 27       	eor	r18, r18
    36cc:	b0 0d       	add	r27, r0
    36ce:	a1 1d       	adc	r26, r1
    36d0:	62 1f       	adc	r22, r18
    36d2:	73 9f       	mul	r23, r19
    36d4:	b0 0d       	add	r27, r0
    36d6:	a1 1d       	adc	r26, r1
    36d8:	62 1f       	adc	r22, r18
    36da:	83 9f       	mul	r24, r19
    36dc:	a0 0d       	add	r26, r0
    36de:	61 1d       	adc	r22, r1
    36e0:	22 1f       	adc	r18, r18
    36e2:	74 9f       	mul	r23, r20
    36e4:	33 27       	eor	r19, r19
    36e6:	a0 0d       	add	r26, r0
    36e8:	61 1d       	adc	r22, r1
    36ea:	23 1f       	adc	r18, r19
    36ec:	84 9f       	mul	r24, r20
    36ee:	60 0d       	add	r22, r0
    36f0:	21 1d       	adc	r18, r1
    36f2:	82 2f       	mov	r24, r18
    36f4:	76 2f       	mov	r23, r22
    36f6:	6a 2f       	mov	r22, r26
    36f8:	11 24       	eor	r1, r1
    36fa:	9f 57       	subi	r25, 0x7F	; 127
    36fc:	50 40       	sbci	r21, 0x00	; 0
    36fe:	8a f0       	brmi	.+34     	; 0x3722 <__mulsf3_pse+0x84>
    3700:	e1 f0       	breq	.+56     	; 0x373a <__mulsf3_pse+0x9c>
    3702:	88 23       	and	r24, r24
    3704:	4a f0       	brmi	.+18     	; 0x3718 <__mulsf3_pse+0x7a>
    3706:	ee 0f       	add	r30, r30
    3708:	ff 1f       	adc	r31, r31
    370a:	bb 1f       	adc	r27, r27
    370c:	66 1f       	adc	r22, r22
    370e:	77 1f       	adc	r23, r23
    3710:	88 1f       	adc	r24, r24
    3712:	91 50       	subi	r25, 0x01	; 1
    3714:	50 40       	sbci	r21, 0x00	; 0
    3716:	a9 f7       	brne	.-22     	; 0x3702 <__mulsf3_pse+0x64>
    3718:	9e 3f       	cpi	r25, 0xFE	; 254
    371a:	51 05       	cpc	r21, r1
    371c:	70 f0       	brcs	.+28     	; 0x373a <__mulsf3_pse+0x9c>
    371e:	1b cf       	rjmp	.-458    	; 0x3556 <__fp_inf>
    3720:	65 cf       	rjmp	.-310    	; 0x35ec <__fp_szero>
    3722:	5f 3f       	cpi	r21, 0xFF	; 255
    3724:	ec f3       	brlt	.-6      	; 0x3720 <__mulsf3_pse+0x82>
    3726:	98 3e       	cpi	r25, 0xE8	; 232
    3728:	dc f3       	brlt	.-10     	; 0x3720 <__mulsf3_pse+0x82>
    372a:	86 95       	lsr	r24
    372c:	77 95       	ror	r23
    372e:	67 95       	ror	r22
    3730:	b7 95       	ror	r27
    3732:	f7 95       	ror	r31
    3734:	e7 95       	ror	r30
    3736:	9f 5f       	subi	r25, 0xFF	; 255
    3738:	c1 f7       	brne	.-16     	; 0x372a <__mulsf3_pse+0x8c>
    373a:	fe 2b       	or	r31, r30
    373c:	88 0f       	add	r24, r24
    373e:	91 1d       	adc	r25, r1
    3740:	96 95       	lsr	r25
    3742:	87 95       	ror	r24
    3744:	97 f9       	bld	r25, 7
    3746:	08 95       	ret

00003748 <pow>:
    3748:	fa 01       	movw	r30, r20
    374a:	ee 0f       	add	r30, r30
    374c:	ff 1f       	adc	r31, r31
    374e:	30 96       	adiw	r30, 0x00	; 0
    3750:	21 05       	cpc	r18, r1
    3752:	31 05       	cpc	r19, r1
    3754:	99 f1       	breq	.+102    	; 0x37bc <pow+0x74>
    3756:	61 15       	cp	r22, r1
    3758:	71 05       	cpc	r23, r1
    375a:	61 f4       	brne	.+24     	; 0x3774 <pow+0x2c>
    375c:	80 38       	cpi	r24, 0x80	; 128
    375e:	bf e3       	ldi	r27, 0x3F	; 63
    3760:	9b 07       	cpc	r25, r27
    3762:	49 f1       	breq	.+82     	; 0x37b6 <pow+0x6e>
    3764:	68 94       	set
    3766:	90 38       	cpi	r25, 0x80	; 128
    3768:	81 05       	cpc	r24, r1
    376a:	61 f0       	breq	.+24     	; 0x3784 <pow+0x3c>
    376c:	80 38       	cpi	r24, 0x80	; 128
    376e:	bf ef       	ldi	r27, 0xFF	; 255
    3770:	9b 07       	cpc	r25, r27
    3772:	41 f0       	breq	.+16     	; 0x3784 <pow+0x3c>
    3774:	99 23       	and	r25, r25
    3776:	42 f5       	brpl	.+80     	; 0x37c8 <pow+0x80>
    3778:	ff 3f       	cpi	r31, 0xFF	; 255
    377a:	e1 05       	cpc	r30, r1
    377c:	31 05       	cpc	r19, r1
    377e:	21 05       	cpc	r18, r1
    3780:	11 f1       	breq	.+68     	; 0x37c6 <pow+0x7e>
    3782:	e8 94       	clt
    3784:	08 94       	sec
    3786:	e7 95       	ror	r30
    3788:	d9 01       	movw	r26, r18
    378a:	aa 23       	and	r26, r26
    378c:	29 f4       	brne	.+10     	; 0x3798 <pow+0x50>
    378e:	ab 2f       	mov	r26, r27
    3790:	be 2f       	mov	r27, r30
    3792:	f8 5f       	subi	r31, 0xF8	; 248
    3794:	d0 f3       	brcs	.-12     	; 0x378a <pow+0x42>
    3796:	10 c0       	rjmp	.+32     	; 0x37b8 <pow+0x70>
    3798:	ff 5f       	subi	r31, 0xFF	; 255
    379a:	70 f4       	brcc	.+28     	; 0x37b8 <pow+0x70>
    379c:	a6 95       	lsr	r26
    379e:	e0 f7       	brcc	.-8      	; 0x3798 <pow+0x50>
    37a0:	f7 39       	cpi	r31, 0x97	; 151
    37a2:	50 f0       	brcs	.+20     	; 0x37b8 <pow+0x70>
    37a4:	19 f0       	breq	.+6      	; 0x37ac <pow+0x64>
    37a6:	ff 3a       	cpi	r31, 0xAF	; 175
    37a8:	38 f4       	brcc	.+14     	; 0x37b8 <pow+0x70>
    37aa:	9f 77       	andi	r25, 0x7F	; 127
    37ac:	9f 93       	push	r25
    37ae:	0c d0       	rcall	.+24     	; 0x37c8 <pow+0x80>
    37b0:	0f 90       	pop	r0
    37b2:	07 fc       	sbrc	r0, 7
    37b4:	90 58       	subi	r25, 0x80	; 128
    37b6:	08 95       	ret
    37b8:	3e f0       	brts	.+14     	; 0x37c8 <pow+0x80>
    37ba:	d3 ce       	rjmp	.-602    	; 0x3562 <__fp_nan>
    37bc:	60 e0       	ldi	r22, 0x00	; 0
    37be:	70 e0       	ldi	r23, 0x00	; 0
    37c0:	80 e8       	ldi	r24, 0x80	; 128
    37c2:	9f e3       	ldi	r25, 0x3F	; 63
    37c4:	08 95       	ret
    37c6:	4f e7       	ldi	r20, 0x7F	; 127
    37c8:	9f 77       	andi	r25, 0x7F	; 127
    37ca:	5f 93       	push	r21
    37cc:	4f 93       	push	r20
    37ce:	3f 93       	push	r19
    37d0:	2f 93       	push	r18
    37d2:	17 df       	rcall	.-466    	; 0x3602 <log>
    37d4:	2f 91       	pop	r18
    37d6:	3f 91       	pop	r19
    37d8:	4f 91       	pop	r20
    37da:	5f 91       	pop	r21
    37dc:	52 df       	rcall	.-348    	; 0x3682 <__mulsf3>
    37de:	05 c0       	rjmp	.+10     	; 0x37ea <exp>
    37e0:	19 f4       	brne	.+6      	; 0x37e8 <pow+0xa0>
    37e2:	0e f0       	brts	.+2      	; 0x37e6 <pow+0x9e>
    37e4:	b8 ce       	rjmp	.-656    	; 0x3556 <__fp_inf>
    37e6:	01 cf       	rjmp	.-510    	; 0x35ea <__fp_zero>
    37e8:	bc ce       	rjmp	.-648    	; 0x3562 <__fp_nan>

000037ea <exp>:
    37ea:	e5 de       	rcall	.-566    	; 0x35b6 <__fp_splitA>
    37ec:	c8 f3       	brcs	.-14     	; 0x37e0 <pow+0x98>
    37ee:	96 38       	cpi	r25, 0x86	; 134
    37f0:	c0 f7       	brcc	.-16     	; 0x37e2 <pow+0x9a>
    37f2:	07 f8       	bld	r0, 7
    37f4:	0f 92       	push	r0
    37f6:	e8 94       	clt
    37f8:	2b e3       	ldi	r18, 0x3B	; 59
    37fa:	3a ea       	ldi	r19, 0xAA	; 170
    37fc:	48 eb       	ldi	r20, 0xB8	; 184
    37fe:	5f e7       	ldi	r21, 0x7F	; 127
    3800:	4e df       	rcall	.-356    	; 0x369e <__mulsf3_pse>
    3802:	0f 92       	push	r0
    3804:	0f 92       	push	r0
    3806:	0f 92       	push	r0
    3808:	4d b7       	in	r20, 0x3d	; 61
    380a:	5e b7       	in	r21, 0x3e	; 62
    380c:	0f 92       	push	r0
    380e:	89 d0       	rcall	.+274    	; 0x3922 <modf>
    3810:	e4 ed       	ldi	r30, 0xD4	; 212
    3812:	f2 e0       	ldi	r31, 0x02	; 2
    3814:	24 d0       	rcall	.+72     	; 0x385e <__fp_powser>
    3816:	4f 91       	pop	r20
    3818:	5f 91       	pop	r21
    381a:	ef 91       	pop	r30
    381c:	ff 91       	pop	r31
    381e:	e5 95       	asr	r30
    3820:	ee 1f       	adc	r30, r30
    3822:	ff 1f       	adc	r31, r31
    3824:	49 f0       	breq	.+18     	; 0x3838 <exp+0x4e>
    3826:	fe 57       	subi	r31, 0x7E	; 126
    3828:	e0 68       	ori	r30, 0x80	; 128
    382a:	44 27       	eor	r20, r20
    382c:	ee 0f       	add	r30, r30
    382e:	44 1f       	adc	r20, r20
    3830:	fa 95       	dec	r31
    3832:	e1 f7       	brne	.-8      	; 0x382c <exp+0x42>
    3834:	41 95       	neg	r20
    3836:	55 0b       	sbc	r21, r21
    3838:	40 d0       	rcall	.+128    	; 0x38ba <ldexp>
    383a:	0f 90       	pop	r0
    383c:	07 fe       	sbrs	r0, 7
    383e:	34 c0       	rjmp	.+104    	; 0x38a8 <inverse>
    3840:	08 95       	ret

00003842 <__fp_mpack>:
    3842:	9f 3f       	cpi	r25, 0xFF	; 255
    3844:	31 f0       	breq	.+12     	; 0x3852 <__fp_mpack_finite+0xc>

00003846 <__fp_mpack_finite>:
    3846:	91 50       	subi	r25, 0x01	; 1
    3848:	20 f4       	brcc	.+8      	; 0x3852 <__fp_mpack_finite+0xc>
    384a:	87 95       	ror	r24
    384c:	77 95       	ror	r23
    384e:	67 95       	ror	r22
    3850:	b7 95       	ror	r27
    3852:	88 0f       	add	r24, r24
    3854:	91 1d       	adc	r25, r1
    3856:	96 95       	lsr	r25
    3858:	87 95       	ror	r24
    385a:	97 f9       	bld	r25, 7
    385c:	08 95       	ret

0000385e <__fp_powser>:
    385e:	df 93       	push	r29
    3860:	cf 93       	push	r28
    3862:	1f 93       	push	r17
    3864:	0f 93       	push	r16
    3866:	ff 92       	push	r15
    3868:	ef 92       	push	r14
    386a:	df 92       	push	r13
    386c:	7b 01       	movw	r14, r22
    386e:	8c 01       	movw	r16, r24
    3870:	68 94       	set
    3872:	05 c0       	rjmp	.+10     	; 0x387e <__fp_powser+0x20>
    3874:	da 2e       	mov	r13, r26
    3876:	ef 01       	movw	r28, r30
    3878:	10 df       	rcall	.-480    	; 0x369a <__mulsf3x>
    387a:	fe 01       	movw	r30, r28
    387c:	e8 94       	clt
    387e:	a5 91       	lpm	r26, Z+
    3880:	25 91       	lpm	r18, Z+
    3882:	35 91       	lpm	r19, Z+
    3884:	45 91       	lpm	r20, Z+
    3886:	55 91       	lpm	r21, Z+
    3888:	ae f3       	brts	.-22     	; 0x3874 <__fp_powser+0x16>
    388a:	ef 01       	movw	r28, r30
    388c:	3b dd       	rcall	.-1418   	; 0x3304 <__addsf3x>
    388e:	fe 01       	movw	r30, r28
    3890:	97 01       	movw	r18, r14
    3892:	a8 01       	movw	r20, r16
    3894:	da 94       	dec	r13
    3896:	79 f7       	brne	.-34     	; 0x3876 <__fp_powser+0x18>
    3898:	df 90       	pop	r13
    389a:	ef 90       	pop	r14
    389c:	ff 90       	pop	r15
    389e:	0f 91       	pop	r16
    38a0:	1f 91       	pop	r17
    38a2:	cf 91       	pop	r28
    38a4:	df 91       	pop	r29
    38a6:	08 95       	ret

000038a8 <inverse>:
    38a8:	9b 01       	movw	r18, r22
    38aa:	ac 01       	movw	r20, r24
    38ac:	60 e0       	ldi	r22, 0x00	; 0
    38ae:	70 e0       	ldi	r23, 0x00	; 0
    38b0:	80 e8       	ldi	r24, 0x80	; 128
    38b2:	9f e3       	ldi	r25, 0x3F	; 63
    38b4:	7a cd       	rjmp	.-1292   	; 0x33aa <__divsf3>
    38b6:	4f ce       	rjmp	.-866    	; 0x3556 <__fp_inf>
    38b8:	c4 cf       	rjmp	.-120    	; 0x3842 <__fp_mpack>

000038ba <ldexp>:
    38ba:	7d de       	rcall	.-774    	; 0x35b6 <__fp_splitA>
    38bc:	e8 f3       	brcs	.-6      	; 0x38b8 <inverse+0x10>
    38be:	99 23       	and	r25, r25
    38c0:	d9 f3       	breq	.-10     	; 0x38b8 <inverse+0x10>
    38c2:	94 0f       	add	r25, r20
    38c4:	51 1d       	adc	r21, r1
    38c6:	bb f3       	brvs	.-18     	; 0x38b6 <inverse+0xe>
    38c8:	91 50       	subi	r25, 0x01	; 1
    38ca:	50 40       	sbci	r21, 0x00	; 0
    38cc:	94 f0       	brlt	.+36     	; 0x38f2 <ldexp+0x38>
    38ce:	59 f0       	breq	.+22     	; 0x38e6 <ldexp+0x2c>
    38d0:	88 23       	and	r24, r24
    38d2:	32 f0       	brmi	.+12     	; 0x38e0 <ldexp+0x26>
    38d4:	66 0f       	add	r22, r22
    38d6:	77 1f       	adc	r23, r23
    38d8:	88 1f       	adc	r24, r24
    38da:	91 50       	subi	r25, 0x01	; 1
    38dc:	50 40       	sbci	r21, 0x00	; 0
    38de:	c1 f7       	brne	.-16     	; 0x38d0 <ldexp+0x16>
    38e0:	9e 3f       	cpi	r25, 0xFE	; 254
    38e2:	51 05       	cpc	r21, r1
    38e4:	44 f7       	brge	.-48     	; 0x38b6 <inverse+0xe>
    38e6:	88 0f       	add	r24, r24
    38e8:	91 1d       	adc	r25, r1
    38ea:	96 95       	lsr	r25
    38ec:	87 95       	ror	r24
    38ee:	97 f9       	bld	r25, 7
    38f0:	08 95       	ret
    38f2:	5f 3f       	cpi	r21, 0xFF	; 255
    38f4:	ac f0       	brlt	.+42     	; 0x3920 <ldexp+0x66>
    38f6:	98 3e       	cpi	r25, 0xE8	; 232
    38f8:	9c f0       	brlt	.+38     	; 0x3920 <ldexp+0x66>
    38fa:	bb 27       	eor	r27, r27
    38fc:	86 95       	lsr	r24
    38fe:	77 95       	ror	r23
    3900:	67 95       	ror	r22
    3902:	b7 95       	ror	r27
    3904:	08 f4       	brcc	.+2      	; 0x3908 <ldexp+0x4e>
    3906:	b1 60       	ori	r27, 0x01	; 1
    3908:	93 95       	inc	r25
    390a:	c1 f7       	brne	.-16     	; 0x38fc <ldexp+0x42>
    390c:	bb 0f       	add	r27, r27
    390e:	58 f7       	brcc	.-42     	; 0x38e6 <ldexp+0x2c>
    3910:	11 f4       	brne	.+4      	; 0x3916 <ldexp+0x5c>
    3912:	60 ff       	sbrs	r22, 0
    3914:	e8 cf       	rjmp	.-48     	; 0x38e6 <ldexp+0x2c>
    3916:	6f 5f       	subi	r22, 0xFF	; 255
    3918:	7f 4f       	sbci	r23, 0xFF	; 255
    391a:	8f 4f       	sbci	r24, 0xFF	; 255
    391c:	9f 4f       	sbci	r25, 0xFF	; 255
    391e:	e3 cf       	rjmp	.-58     	; 0x38e6 <ldexp+0x2c>
    3920:	65 ce       	rjmp	.-822    	; 0x35ec <__fp_szero>

00003922 <modf>:
    3922:	fa 01       	movw	r30, r20
    3924:	dc 01       	movw	r26, r24
    3926:	aa 0f       	add	r26, r26
    3928:	bb 1f       	adc	r27, r27
    392a:	9b 01       	movw	r18, r22
    392c:	ac 01       	movw	r20, r24
    392e:	bf 57       	subi	r27, 0x7F	; 127
    3930:	28 f4       	brcc	.+10     	; 0x393c <modf+0x1a>
    3932:	22 27       	eor	r18, r18
    3934:	33 27       	eor	r19, r19
    3936:	44 27       	eor	r20, r20
    3938:	50 78       	andi	r21, 0x80	; 128
    393a:	1f c0       	rjmp	.+62     	; 0x397a <modf+0x58>
    393c:	b7 51       	subi	r27, 0x17	; 23
    393e:	88 f4       	brcc	.+34     	; 0x3962 <modf+0x40>
    3940:	ab 2f       	mov	r26, r27
    3942:	00 24       	eor	r0, r0
    3944:	46 95       	lsr	r20
    3946:	37 95       	ror	r19
    3948:	27 95       	ror	r18
    394a:	01 1c       	adc	r0, r1
    394c:	a3 95       	inc	r26
    394e:	d2 f3       	brmi	.-12     	; 0x3944 <modf+0x22>
    3950:	00 20       	and	r0, r0
    3952:	69 f0       	breq	.+26     	; 0x396e <modf+0x4c>
    3954:	22 0f       	add	r18, r18
    3956:	33 1f       	adc	r19, r19
    3958:	44 1f       	adc	r20, r20
    395a:	b3 95       	inc	r27
    395c:	da f3       	brmi	.-10     	; 0x3954 <modf+0x32>
    395e:	0d d0       	rcall	.+26     	; 0x397a <modf+0x58>
    3960:	bf cc       	rjmp	.-1666   	; 0x32e0 <__subsf3>
    3962:	61 30       	cpi	r22, 0x01	; 1
    3964:	71 05       	cpc	r23, r1
    3966:	a0 e8       	ldi	r26, 0x80	; 128
    3968:	8a 07       	cpc	r24, r26
    396a:	b9 46       	sbci	r27, 0x69	; 105
    396c:	30 f4       	brcc	.+12     	; 0x397a <modf+0x58>
    396e:	9b 01       	movw	r18, r22
    3970:	ac 01       	movw	r20, r24
    3972:	66 27       	eor	r22, r22
    3974:	77 27       	eor	r23, r23
    3976:	88 27       	eor	r24, r24
    3978:	90 78       	andi	r25, 0x80	; 128
    397a:	30 96       	adiw	r30, 0x00	; 0
    397c:	21 f0       	breq	.+8      	; 0x3986 <modf+0x64>
    397e:	20 83       	st	Z, r18
    3980:	31 83       	std	Z+1, r19	; 0x01
    3982:	42 83       	std	Z+2, r20	; 0x02
    3984:	53 83       	std	Z+3, r21	; 0x03
    3986:	08 95       	ret

00003988 <vfprintf>:
    3988:	2f 92       	push	r2
    398a:	3f 92       	push	r3
    398c:	4f 92       	push	r4
    398e:	5f 92       	push	r5
    3990:	6f 92       	push	r6
    3992:	7f 92       	push	r7
    3994:	8f 92       	push	r8
    3996:	9f 92       	push	r9
    3998:	af 92       	push	r10
    399a:	bf 92       	push	r11
    399c:	cf 92       	push	r12
    399e:	df 92       	push	r13
    39a0:	ef 92       	push	r14
    39a2:	ff 92       	push	r15
    39a4:	0f 93       	push	r16
    39a6:	1f 93       	push	r17
    39a8:	cf 93       	push	r28
    39aa:	df 93       	push	r29
    39ac:	cd b7       	in	r28, 0x3d	; 61
    39ae:	de b7       	in	r29, 0x3e	; 62
    39b0:	60 97       	sbiw	r28, 0x10	; 16
    39b2:	cd bf       	out	0x3d, r28	; 61
    39b4:	de bf       	out	0x3e, r29	; 62
    39b6:	7c 01       	movw	r14, r24
    39b8:	1b 01       	movw	r2, r22
    39ba:	6a 01       	movw	r12, r20
    39bc:	fc 01       	movw	r30, r24
    39be:	16 82       	std	Z+6, r1	; 0x06
    39c0:	17 82       	std	Z+7, r1	; 0x07
    39c2:	83 81       	ldd	r24, Z+3	; 0x03
    39c4:	81 ff       	sbrs	r24, 1
    39c6:	2a c3       	rjmp	.+1620   	; 0x401c <__stack+0x1d>
    39c8:	9e 01       	movw	r18, r28
    39ca:	2f 5f       	subi	r18, 0xFF	; 255
    39cc:	3f 4f       	sbci	r19, 0xFF	; 255
    39ce:	39 01       	movw	r6, r18
    39d0:	f7 01       	movw	r30, r14
    39d2:	93 81       	ldd	r25, Z+3	; 0x03
    39d4:	f1 01       	movw	r30, r2
    39d6:	93 fd       	sbrc	r25, 3
    39d8:	85 91       	lpm	r24, Z+
    39da:	93 ff       	sbrs	r25, 3
    39dc:	81 91       	ld	r24, Z+
    39de:	1f 01       	movw	r2, r30
    39e0:	88 23       	and	r24, r24
    39e2:	09 f4       	brne	.+2      	; 0x39e6 <vfprintf+0x5e>
    39e4:	17 c3       	rjmp	.+1582   	; 0x4014 <__stack+0x15>
    39e6:	85 32       	cpi	r24, 0x25	; 37
    39e8:	39 f4       	brne	.+14     	; 0x39f8 <vfprintf+0x70>
    39ea:	93 fd       	sbrc	r25, 3
    39ec:	85 91       	lpm	r24, Z+
    39ee:	93 ff       	sbrs	r25, 3
    39f0:	81 91       	ld	r24, Z+
    39f2:	1f 01       	movw	r2, r30
    39f4:	85 32       	cpi	r24, 0x25	; 37
    39f6:	31 f4       	brne	.+12     	; 0x3a04 <vfprintf+0x7c>
    39f8:	b7 01       	movw	r22, r14
    39fa:	90 e0       	ldi	r25, 0x00	; 0
    39fc:	86 d5       	rcall	.+2828   	; 0x450a <fputc>
    39fe:	56 01       	movw	r10, r12
    3a00:	65 01       	movw	r12, r10
    3a02:	e6 cf       	rjmp	.-52     	; 0x39d0 <vfprintf+0x48>
    3a04:	10 e0       	ldi	r17, 0x00	; 0
    3a06:	51 2c       	mov	r5, r1
    3a08:	91 2c       	mov	r9, r1
    3a0a:	ff e1       	ldi	r31, 0x1F	; 31
    3a0c:	f9 15       	cp	r31, r9
    3a0e:	d8 f0       	brcs	.+54     	; 0x3a46 <vfprintf+0xbe>
    3a10:	8b 32       	cpi	r24, 0x2B	; 43
    3a12:	79 f0       	breq	.+30     	; 0x3a32 <vfprintf+0xaa>
    3a14:	38 f4       	brcc	.+14     	; 0x3a24 <vfprintf+0x9c>
    3a16:	80 32       	cpi	r24, 0x20	; 32
    3a18:	79 f0       	breq	.+30     	; 0x3a38 <vfprintf+0xb0>
    3a1a:	83 32       	cpi	r24, 0x23	; 35
    3a1c:	a1 f4       	brne	.+40     	; 0x3a46 <vfprintf+0xbe>
    3a1e:	f9 2d       	mov	r31, r9
    3a20:	f0 61       	ori	r31, 0x10	; 16
    3a22:	2e c0       	rjmp	.+92     	; 0x3a80 <vfprintf+0xf8>
    3a24:	8d 32       	cpi	r24, 0x2D	; 45
    3a26:	61 f0       	breq	.+24     	; 0x3a40 <vfprintf+0xb8>
    3a28:	80 33       	cpi	r24, 0x30	; 48
    3a2a:	69 f4       	brne	.+26     	; 0x3a46 <vfprintf+0xbe>
    3a2c:	29 2d       	mov	r18, r9
    3a2e:	21 60       	ori	r18, 0x01	; 1
    3a30:	2d c0       	rjmp	.+90     	; 0x3a8c <vfprintf+0x104>
    3a32:	39 2d       	mov	r19, r9
    3a34:	32 60       	ori	r19, 0x02	; 2
    3a36:	93 2e       	mov	r9, r19
    3a38:	89 2d       	mov	r24, r9
    3a3a:	84 60       	ori	r24, 0x04	; 4
    3a3c:	98 2e       	mov	r9, r24
    3a3e:	2a c0       	rjmp	.+84     	; 0x3a94 <vfprintf+0x10c>
    3a40:	e9 2d       	mov	r30, r9
    3a42:	e8 60       	ori	r30, 0x08	; 8
    3a44:	15 c0       	rjmp	.+42     	; 0x3a70 <vfprintf+0xe8>
    3a46:	97 fc       	sbrc	r9, 7
    3a48:	2d c0       	rjmp	.+90     	; 0x3aa4 <vfprintf+0x11c>
    3a4a:	20 ed       	ldi	r18, 0xD0	; 208
    3a4c:	28 0f       	add	r18, r24
    3a4e:	2a 30       	cpi	r18, 0x0A	; 10
    3a50:	88 f4       	brcc	.+34     	; 0x3a74 <vfprintf+0xec>
    3a52:	96 fe       	sbrs	r9, 6
    3a54:	06 c0       	rjmp	.+12     	; 0x3a62 <vfprintf+0xda>
    3a56:	3a e0       	ldi	r19, 0x0A	; 10
    3a58:	13 9f       	mul	r17, r19
    3a5a:	20 0d       	add	r18, r0
    3a5c:	11 24       	eor	r1, r1
    3a5e:	12 2f       	mov	r17, r18
    3a60:	19 c0       	rjmp	.+50     	; 0x3a94 <vfprintf+0x10c>
    3a62:	8a e0       	ldi	r24, 0x0A	; 10
    3a64:	58 9e       	mul	r5, r24
    3a66:	20 0d       	add	r18, r0
    3a68:	11 24       	eor	r1, r1
    3a6a:	52 2e       	mov	r5, r18
    3a6c:	e9 2d       	mov	r30, r9
    3a6e:	e0 62       	ori	r30, 0x20	; 32
    3a70:	9e 2e       	mov	r9, r30
    3a72:	10 c0       	rjmp	.+32     	; 0x3a94 <vfprintf+0x10c>
    3a74:	8e 32       	cpi	r24, 0x2E	; 46
    3a76:	31 f4       	brne	.+12     	; 0x3a84 <vfprintf+0xfc>
    3a78:	96 fc       	sbrc	r9, 6
    3a7a:	cc c2       	rjmp	.+1432   	; 0x4014 <__stack+0x15>
    3a7c:	f9 2d       	mov	r31, r9
    3a7e:	f0 64       	ori	r31, 0x40	; 64
    3a80:	9f 2e       	mov	r9, r31
    3a82:	08 c0       	rjmp	.+16     	; 0x3a94 <vfprintf+0x10c>
    3a84:	8c 36       	cpi	r24, 0x6C	; 108
    3a86:	21 f4       	brne	.+8      	; 0x3a90 <vfprintf+0x108>
    3a88:	29 2d       	mov	r18, r9
    3a8a:	20 68       	ori	r18, 0x80	; 128
    3a8c:	92 2e       	mov	r9, r18
    3a8e:	02 c0       	rjmp	.+4      	; 0x3a94 <vfprintf+0x10c>
    3a90:	88 36       	cpi	r24, 0x68	; 104
    3a92:	41 f4       	brne	.+16     	; 0x3aa4 <vfprintf+0x11c>
    3a94:	f1 01       	movw	r30, r2
    3a96:	93 fd       	sbrc	r25, 3
    3a98:	85 91       	lpm	r24, Z+
    3a9a:	93 ff       	sbrs	r25, 3
    3a9c:	81 91       	ld	r24, Z+
    3a9e:	1f 01       	movw	r2, r30
    3aa0:	81 11       	cpse	r24, r1
    3aa2:	b3 cf       	rjmp	.-154    	; 0x3a0a <vfprintf+0x82>
    3aa4:	9b eb       	ldi	r25, 0xBB	; 187
    3aa6:	98 0f       	add	r25, r24
    3aa8:	93 30       	cpi	r25, 0x03	; 3
    3aaa:	20 f4       	brcc	.+8      	; 0x3ab4 <vfprintf+0x12c>
    3aac:	99 2d       	mov	r25, r9
    3aae:	90 61       	ori	r25, 0x10	; 16
    3ab0:	80 5e       	subi	r24, 0xE0	; 224
    3ab2:	07 c0       	rjmp	.+14     	; 0x3ac2 <vfprintf+0x13a>
    3ab4:	9b e9       	ldi	r25, 0x9B	; 155
    3ab6:	98 0f       	add	r25, r24
    3ab8:	93 30       	cpi	r25, 0x03	; 3
    3aba:	08 f0       	brcs	.+2      	; 0x3abe <vfprintf+0x136>
    3abc:	59 c1       	rjmp	.+690    	; 0x3d70 <vfprintf+0x3e8>
    3abe:	99 2d       	mov	r25, r9
    3ac0:	9f 7e       	andi	r25, 0xEF	; 239
    3ac2:	96 ff       	sbrs	r25, 6
    3ac4:	16 e0       	ldi	r17, 0x06	; 6
    3ac6:	9f 73       	andi	r25, 0x3F	; 63
    3ac8:	99 2e       	mov	r9, r25
    3aca:	85 36       	cpi	r24, 0x65	; 101
    3acc:	19 f4       	brne	.+6      	; 0x3ad4 <vfprintf+0x14c>
    3ace:	90 64       	ori	r25, 0x40	; 64
    3ad0:	99 2e       	mov	r9, r25
    3ad2:	08 c0       	rjmp	.+16     	; 0x3ae4 <vfprintf+0x15c>
    3ad4:	86 36       	cpi	r24, 0x66	; 102
    3ad6:	21 f4       	brne	.+8      	; 0x3ae0 <vfprintf+0x158>
    3ad8:	39 2f       	mov	r19, r25
    3ada:	30 68       	ori	r19, 0x80	; 128
    3adc:	93 2e       	mov	r9, r19
    3ade:	02 c0       	rjmp	.+4      	; 0x3ae4 <vfprintf+0x15c>
    3ae0:	11 11       	cpse	r17, r1
    3ae2:	11 50       	subi	r17, 0x01	; 1
    3ae4:	97 fe       	sbrs	r9, 7
    3ae6:	07 c0       	rjmp	.+14     	; 0x3af6 <vfprintf+0x16e>
    3ae8:	1c 33       	cpi	r17, 0x3C	; 60
    3aea:	50 f4       	brcc	.+20     	; 0x3b00 <vfprintf+0x178>
    3aec:	44 24       	eor	r4, r4
    3aee:	43 94       	inc	r4
    3af0:	41 0e       	add	r4, r17
    3af2:	27 e0       	ldi	r18, 0x07	; 7
    3af4:	0b c0       	rjmp	.+22     	; 0x3b0c <vfprintf+0x184>
    3af6:	18 30       	cpi	r17, 0x08	; 8
    3af8:	38 f0       	brcs	.+14     	; 0x3b08 <vfprintf+0x180>
    3afa:	27 e0       	ldi	r18, 0x07	; 7
    3afc:	17 e0       	ldi	r17, 0x07	; 7
    3afe:	05 c0       	rjmp	.+10     	; 0x3b0a <vfprintf+0x182>
    3b00:	27 e0       	ldi	r18, 0x07	; 7
    3b02:	9c e3       	ldi	r25, 0x3C	; 60
    3b04:	49 2e       	mov	r4, r25
    3b06:	02 c0       	rjmp	.+4      	; 0x3b0c <vfprintf+0x184>
    3b08:	21 2f       	mov	r18, r17
    3b0a:	41 2c       	mov	r4, r1
    3b0c:	56 01       	movw	r10, r12
    3b0e:	84 e0       	ldi	r24, 0x04	; 4
    3b10:	a8 0e       	add	r10, r24
    3b12:	b1 1c       	adc	r11, r1
    3b14:	f6 01       	movw	r30, r12
    3b16:	60 81       	ld	r22, Z
    3b18:	71 81       	ldd	r23, Z+1	; 0x01
    3b1a:	82 81       	ldd	r24, Z+2	; 0x02
    3b1c:	93 81       	ldd	r25, Z+3	; 0x03
    3b1e:	04 2d       	mov	r16, r4
    3b20:	a3 01       	movw	r20, r6
    3b22:	bb d3       	rcall	.+1910   	; 0x429a <__ftoa_engine>
    3b24:	6c 01       	movw	r12, r24
    3b26:	f9 81       	ldd	r31, Y+1	; 0x01
    3b28:	fc 87       	std	Y+12, r31	; 0x0c
    3b2a:	f0 ff       	sbrs	r31, 0
    3b2c:	02 c0       	rjmp	.+4      	; 0x3b32 <vfprintf+0x1aa>
    3b2e:	f3 ff       	sbrs	r31, 3
    3b30:	06 c0       	rjmp	.+12     	; 0x3b3e <vfprintf+0x1b6>
    3b32:	91 fc       	sbrc	r9, 1
    3b34:	06 c0       	rjmp	.+12     	; 0x3b42 <vfprintf+0x1ba>
    3b36:	92 fe       	sbrs	r9, 2
    3b38:	06 c0       	rjmp	.+12     	; 0x3b46 <vfprintf+0x1be>
    3b3a:	00 e2       	ldi	r16, 0x20	; 32
    3b3c:	05 c0       	rjmp	.+10     	; 0x3b48 <vfprintf+0x1c0>
    3b3e:	0d e2       	ldi	r16, 0x2D	; 45
    3b40:	03 c0       	rjmp	.+6      	; 0x3b48 <vfprintf+0x1c0>
    3b42:	0b e2       	ldi	r16, 0x2B	; 43
    3b44:	01 c0       	rjmp	.+2      	; 0x3b48 <vfprintf+0x1c0>
    3b46:	00 e0       	ldi	r16, 0x00	; 0
    3b48:	8c 85       	ldd	r24, Y+12	; 0x0c
    3b4a:	8c 70       	andi	r24, 0x0C	; 12
    3b4c:	19 f0       	breq	.+6      	; 0x3b54 <vfprintf+0x1cc>
    3b4e:	01 11       	cpse	r16, r1
    3b50:	43 c2       	rjmp	.+1158   	; 0x3fd8 <vfprintf+0x650>
    3b52:	80 c2       	rjmp	.+1280   	; 0x4054 <__stack+0x55>
    3b54:	97 fe       	sbrs	r9, 7
    3b56:	10 c0       	rjmp	.+32     	; 0x3b78 <vfprintf+0x1f0>
    3b58:	4c 0c       	add	r4, r12
    3b5a:	fc 85       	ldd	r31, Y+12	; 0x0c
    3b5c:	f4 ff       	sbrs	r31, 4
    3b5e:	04 c0       	rjmp	.+8      	; 0x3b68 <vfprintf+0x1e0>
    3b60:	8a 81       	ldd	r24, Y+2	; 0x02
    3b62:	81 33       	cpi	r24, 0x31	; 49
    3b64:	09 f4       	brne	.+2      	; 0x3b68 <vfprintf+0x1e0>
    3b66:	4a 94       	dec	r4
    3b68:	14 14       	cp	r1, r4
    3b6a:	74 f5       	brge	.+92     	; 0x3bc8 <vfprintf+0x240>
    3b6c:	28 e0       	ldi	r18, 0x08	; 8
    3b6e:	24 15       	cp	r18, r4
    3b70:	78 f5       	brcc	.+94     	; 0x3bd0 <vfprintf+0x248>
    3b72:	88 e0       	ldi	r24, 0x08	; 8
    3b74:	48 2e       	mov	r4, r24
    3b76:	2c c0       	rjmp	.+88     	; 0x3bd0 <vfprintf+0x248>
    3b78:	96 fc       	sbrc	r9, 6
    3b7a:	2a c0       	rjmp	.+84     	; 0x3bd0 <vfprintf+0x248>
    3b7c:	81 2f       	mov	r24, r17
    3b7e:	90 e0       	ldi	r25, 0x00	; 0
    3b80:	8c 15       	cp	r24, r12
    3b82:	9d 05       	cpc	r25, r13
    3b84:	9c f0       	brlt	.+38     	; 0x3bac <vfprintf+0x224>
    3b86:	3c ef       	ldi	r19, 0xFC	; 252
    3b88:	c3 16       	cp	r12, r19
    3b8a:	3f ef       	ldi	r19, 0xFF	; 255
    3b8c:	d3 06       	cpc	r13, r19
    3b8e:	74 f0       	brlt	.+28     	; 0x3bac <vfprintf+0x224>
    3b90:	89 2d       	mov	r24, r9
    3b92:	80 68       	ori	r24, 0x80	; 128
    3b94:	98 2e       	mov	r9, r24
    3b96:	0a c0       	rjmp	.+20     	; 0x3bac <vfprintf+0x224>
    3b98:	e2 e0       	ldi	r30, 0x02	; 2
    3b9a:	f0 e0       	ldi	r31, 0x00	; 0
    3b9c:	ec 0f       	add	r30, r28
    3b9e:	fd 1f       	adc	r31, r29
    3ba0:	e1 0f       	add	r30, r17
    3ba2:	f1 1d       	adc	r31, r1
    3ba4:	80 81       	ld	r24, Z
    3ba6:	80 33       	cpi	r24, 0x30	; 48
    3ba8:	19 f4       	brne	.+6      	; 0x3bb0 <vfprintf+0x228>
    3baa:	11 50       	subi	r17, 0x01	; 1
    3bac:	11 11       	cpse	r17, r1
    3bae:	f4 cf       	rjmp	.-24     	; 0x3b98 <vfprintf+0x210>
    3bb0:	97 fe       	sbrs	r9, 7
    3bb2:	0e c0       	rjmp	.+28     	; 0x3bd0 <vfprintf+0x248>
    3bb4:	44 24       	eor	r4, r4
    3bb6:	43 94       	inc	r4
    3bb8:	41 0e       	add	r4, r17
    3bba:	81 2f       	mov	r24, r17
    3bbc:	90 e0       	ldi	r25, 0x00	; 0
    3bbe:	c8 16       	cp	r12, r24
    3bc0:	d9 06       	cpc	r13, r25
    3bc2:	2c f4       	brge	.+10     	; 0x3bce <vfprintf+0x246>
    3bc4:	1c 19       	sub	r17, r12
    3bc6:	04 c0       	rjmp	.+8      	; 0x3bd0 <vfprintf+0x248>
    3bc8:	44 24       	eor	r4, r4
    3bca:	43 94       	inc	r4
    3bcc:	01 c0       	rjmp	.+2      	; 0x3bd0 <vfprintf+0x248>
    3bce:	10 e0       	ldi	r17, 0x00	; 0
    3bd0:	97 fe       	sbrs	r9, 7
    3bd2:	06 c0       	rjmp	.+12     	; 0x3be0 <vfprintf+0x258>
    3bd4:	1c 14       	cp	r1, r12
    3bd6:	1d 04       	cpc	r1, r13
    3bd8:	34 f4       	brge	.+12     	; 0x3be6 <vfprintf+0x25e>
    3bda:	c6 01       	movw	r24, r12
    3bdc:	01 96       	adiw	r24, 0x01	; 1
    3bde:	05 c0       	rjmp	.+10     	; 0x3bea <vfprintf+0x262>
    3be0:	85 e0       	ldi	r24, 0x05	; 5
    3be2:	90 e0       	ldi	r25, 0x00	; 0
    3be4:	02 c0       	rjmp	.+4      	; 0x3bea <vfprintf+0x262>
    3be6:	81 e0       	ldi	r24, 0x01	; 1
    3be8:	90 e0       	ldi	r25, 0x00	; 0
    3bea:	01 11       	cpse	r16, r1
    3bec:	01 96       	adiw	r24, 0x01	; 1
    3bee:	11 23       	and	r17, r17
    3bf0:	31 f0       	breq	.+12     	; 0x3bfe <vfprintf+0x276>
    3bf2:	21 2f       	mov	r18, r17
    3bf4:	30 e0       	ldi	r19, 0x00	; 0
    3bf6:	2f 5f       	subi	r18, 0xFF	; 255
    3bf8:	3f 4f       	sbci	r19, 0xFF	; 255
    3bfa:	82 0f       	add	r24, r18
    3bfc:	93 1f       	adc	r25, r19
    3bfe:	25 2d       	mov	r18, r5
    3c00:	30 e0       	ldi	r19, 0x00	; 0
    3c02:	82 17       	cp	r24, r18
    3c04:	93 07       	cpc	r25, r19
    3c06:	14 f4       	brge	.+4      	; 0x3c0c <vfprintf+0x284>
    3c08:	58 1a       	sub	r5, r24
    3c0a:	01 c0       	rjmp	.+2      	; 0x3c0e <vfprintf+0x286>
    3c0c:	51 2c       	mov	r5, r1
    3c0e:	89 2d       	mov	r24, r9
    3c10:	89 70       	andi	r24, 0x09	; 9
    3c12:	41 f4       	brne	.+16     	; 0x3c24 <vfprintf+0x29c>
    3c14:	55 20       	and	r5, r5
    3c16:	31 f0       	breq	.+12     	; 0x3c24 <vfprintf+0x29c>
    3c18:	b7 01       	movw	r22, r14
    3c1a:	80 e2       	ldi	r24, 0x20	; 32
    3c1c:	90 e0       	ldi	r25, 0x00	; 0
    3c1e:	75 d4       	rcall	.+2282   	; 0x450a <fputc>
    3c20:	5a 94       	dec	r5
    3c22:	f8 cf       	rjmp	.-16     	; 0x3c14 <vfprintf+0x28c>
    3c24:	00 23       	and	r16, r16
    3c26:	21 f0       	breq	.+8      	; 0x3c30 <vfprintf+0x2a8>
    3c28:	b7 01       	movw	r22, r14
    3c2a:	80 2f       	mov	r24, r16
    3c2c:	90 e0       	ldi	r25, 0x00	; 0
    3c2e:	6d d4       	rcall	.+2266   	; 0x450a <fputc>
    3c30:	93 fc       	sbrc	r9, 3
    3c32:	08 c0       	rjmp	.+16     	; 0x3c44 <vfprintf+0x2bc>
    3c34:	55 20       	and	r5, r5
    3c36:	31 f0       	breq	.+12     	; 0x3c44 <vfprintf+0x2bc>
    3c38:	b7 01       	movw	r22, r14
    3c3a:	80 e3       	ldi	r24, 0x30	; 48
    3c3c:	90 e0       	ldi	r25, 0x00	; 0
    3c3e:	65 d4       	rcall	.+2250   	; 0x450a <fputc>
    3c40:	5a 94       	dec	r5
    3c42:	f8 cf       	rjmp	.-16     	; 0x3c34 <vfprintf+0x2ac>
    3c44:	97 fe       	sbrs	r9, 7
    3c46:	4a c0       	rjmp	.+148    	; 0x3cdc <vfprintf+0x354>
    3c48:	46 01       	movw	r8, r12
    3c4a:	d7 fe       	sbrs	r13, 7
    3c4c:	02 c0       	rjmp	.+4      	; 0x3c52 <vfprintf+0x2ca>
    3c4e:	81 2c       	mov	r8, r1
    3c50:	91 2c       	mov	r9, r1
    3c52:	c6 01       	movw	r24, r12
    3c54:	88 19       	sub	r24, r8
    3c56:	99 09       	sbc	r25, r9
    3c58:	f3 01       	movw	r30, r6
    3c5a:	e8 0f       	add	r30, r24
    3c5c:	f9 1f       	adc	r31, r25
    3c5e:	ed 87       	std	Y+13, r30	; 0x0d
    3c60:	fe 87       	std	Y+14, r31	; 0x0e
    3c62:	96 01       	movw	r18, r12
    3c64:	24 19       	sub	r18, r4
    3c66:	31 09       	sbc	r19, r1
    3c68:	2f 87       	std	Y+15, r18	; 0x0f
    3c6a:	38 8b       	std	Y+16, r19	; 0x10
    3c6c:	01 2f       	mov	r16, r17
    3c6e:	10 e0       	ldi	r17, 0x00	; 0
    3c70:	11 95       	neg	r17
    3c72:	01 95       	neg	r16
    3c74:	11 09       	sbc	r17, r1
    3c76:	3f ef       	ldi	r19, 0xFF	; 255
    3c78:	83 16       	cp	r8, r19
    3c7a:	93 06       	cpc	r9, r19
    3c7c:	21 f4       	brne	.+8      	; 0x3c86 <vfprintf+0x2fe>
    3c7e:	b7 01       	movw	r22, r14
    3c80:	8e e2       	ldi	r24, 0x2E	; 46
    3c82:	90 e0       	ldi	r25, 0x00	; 0
    3c84:	42 d4       	rcall	.+2180   	; 0x450a <fputc>
    3c86:	c8 14       	cp	r12, r8
    3c88:	d9 04       	cpc	r13, r9
    3c8a:	4c f0       	brlt	.+18     	; 0x3c9e <vfprintf+0x316>
    3c8c:	8f 85       	ldd	r24, Y+15	; 0x0f
    3c8e:	98 89       	ldd	r25, Y+16	; 0x10
    3c90:	88 15       	cp	r24, r8
    3c92:	99 05       	cpc	r25, r9
    3c94:	24 f4       	brge	.+8      	; 0x3c9e <vfprintf+0x316>
    3c96:	ed 85       	ldd	r30, Y+13	; 0x0d
    3c98:	fe 85       	ldd	r31, Y+14	; 0x0e
    3c9a:	81 81       	ldd	r24, Z+1	; 0x01
    3c9c:	01 c0       	rjmp	.+2      	; 0x3ca0 <vfprintf+0x318>
    3c9e:	80 e3       	ldi	r24, 0x30	; 48
    3ca0:	f1 e0       	ldi	r31, 0x01	; 1
    3ca2:	8f 1a       	sub	r8, r31
    3ca4:	91 08       	sbc	r9, r1
    3ca6:	2d 85       	ldd	r18, Y+13	; 0x0d
    3ca8:	3e 85       	ldd	r19, Y+14	; 0x0e
    3caa:	2f 5f       	subi	r18, 0xFF	; 255
    3cac:	3f 4f       	sbci	r19, 0xFF	; 255
    3cae:	2d 87       	std	Y+13, r18	; 0x0d
    3cb0:	3e 87       	std	Y+14, r19	; 0x0e
    3cb2:	80 16       	cp	r8, r16
    3cb4:	91 06       	cpc	r9, r17
    3cb6:	24 f0       	brlt	.+8      	; 0x3cc0 <vfprintf+0x338>
    3cb8:	b7 01       	movw	r22, r14
    3cba:	90 e0       	ldi	r25, 0x00	; 0
    3cbc:	26 d4       	rcall	.+2124   	; 0x450a <fputc>
    3cbe:	db cf       	rjmp	.-74     	; 0x3c76 <vfprintf+0x2ee>
    3cc0:	c8 14       	cp	r12, r8
    3cc2:	d9 04       	cpc	r13, r9
    3cc4:	41 f4       	brne	.+16     	; 0x3cd6 <vfprintf+0x34e>
    3cc6:	9a 81       	ldd	r25, Y+2	; 0x02
    3cc8:	96 33       	cpi	r25, 0x36	; 54
    3cca:	20 f4       	brcc	.+8      	; 0x3cd4 <vfprintf+0x34c>
    3ccc:	95 33       	cpi	r25, 0x35	; 53
    3cce:	19 f4       	brne	.+6      	; 0x3cd6 <vfprintf+0x34e>
    3cd0:	3c 85       	ldd	r19, Y+12	; 0x0c
    3cd2:	34 ff       	sbrs	r19, 4
    3cd4:	81 e3       	ldi	r24, 0x31	; 49
    3cd6:	b7 01       	movw	r22, r14
    3cd8:	90 e0       	ldi	r25, 0x00	; 0
    3cda:	48 c0       	rjmp	.+144    	; 0x3d6c <vfprintf+0x3e4>
    3cdc:	8a 81       	ldd	r24, Y+2	; 0x02
    3cde:	81 33       	cpi	r24, 0x31	; 49
    3ce0:	19 f0       	breq	.+6      	; 0x3ce8 <vfprintf+0x360>
    3ce2:	9c 85       	ldd	r25, Y+12	; 0x0c
    3ce4:	9f 7e       	andi	r25, 0xEF	; 239
    3ce6:	9c 87       	std	Y+12, r25	; 0x0c
    3ce8:	b7 01       	movw	r22, r14
    3cea:	90 e0       	ldi	r25, 0x00	; 0
    3cec:	0e d4       	rcall	.+2076   	; 0x450a <fputc>
    3cee:	11 11       	cpse	r17, r1
    3cf0:	05 c0       	rjmp	.+10     	; 0x3cfc <vfprintf+0x374>
    3cf2:	94 fc       	sbrc	r9, 4
    3cf4:	16 c0       	rjmp	.+44     	; 0x3d22 <vfprintf+0x39a>
    3cf6:	85 e6       	ldi	r24, 0x65	; 101
    3cf8:	90 e0       	ldi	r25, 0x00	; 0
    3cfa:	15 c0       	rjmp	.+42     	; 0x3d26 <vfprintf+0x39e>
    3cfc:	b7 01       	movw	r22, r14
    3cfe:	8e e2       	ldi	r24, 0x2E	; 46
    3d00:	90 e0       	ldi	r25, 0x00	; 0
    3d02:	03 d4       	rcall	.+2054   	; 0x450a <fputc>
    3d04:	1e 5f       	subi	r17, 0xFE	; 254
    3d06:	82 e0       	ldi	r24, 0x02	; 2
    3d08:	01 e0       	ldi	r16, 0x01	; 1
    3d0a:	08 0f       	add	r16, r24
    3d0c:	f3 01       	movw	r30, r6
    3d0e:	e8 0f       	add	r30, r24
    3d10:	f1 1d       	adc	r31, r1
    3d12:	80 81       	ld	r24, Z
    3d14:	b7 01       	movw	r22, r14
    3d16:	90 e0       	ldi	r25, 0x00	; 0
    3d18:	f8 d3       	rcall	.+2032   	; 0x450a <fputc>
    3d1a:	80 2f       	mov	r24, r16
    3d1c:	01 13       	cpse	r16, r17
    3d1e:	f4 cf       	rjmp	.-24     	; 0x3d08 <vfprintf+0x380>
    3d20:	e8 cf       	rjmp	.-48     	; 0x3cf2 <vfprintf+0x36a>
    3d22:	85 e4       	ldi	r24, 0x45	; 69
    3d24:	90 e0       	ldi	r25, 0x00	; 0
    3d26:	b7 01       	movw	r22, r14
    3d28:	f0 d3       	rcall	.+2016   	; 0x450a <fputc>
    3d2a:	d7 fc       	sbrc	r13, 7
    3d2c:	06 c0       	rjmp	.+12     	; 0x3d3a <vfprintf+0x3b2>
    3d2e:	c1 14       	cp	r12, r1
    3d30:	d1 04       	cpc	r13, r1
    3d32:	41 f4       	brne	.+16     	; 0x3d44 <vfprintf+0x3bc>
    3d34:	ec 85       	ldd	r30, Y+12	; 0x0c
    3d36:	e4 ff       	sbrs	r30, 4
    3d38:	05 c0       	rjmp	.+10     	; 0x3d44 <vfprintf+0x3bc>
    3d3a:	d1 94       	neg	r13
    3d3c:	c1 94       	neg	r12
    3d3e:	d1 08       	sbc	r13, r1
    3d40:	8d e2       	ldi	r24, 0x2D	; 45
    3d42:	01 c0       	rjmp	.+2      	; 0x3d46 <vfprintf+0x3be>
    3d44:	8b e2       	ldi	r24, 0x2B	; 43
    3d46:	b7 01       	movw	r22, r14
    3d48:	90 e0       	ldi	r25, 0x00	; 0
    3d4a:	df d3       	rcall	.+1982   	; 0x450a <fputc>
    3d4c:	80 e3       	ldi	r24, 0x30	; 48
    3d4e:	2a e0       	ldi	r18, 0x0A	; 10
    3d50:	c2 16       	cp	r12, r18
    3d52:	d1 04       	cpc	r13, r1
    3d54:	2c f0       	brlt	.+10     	; 0x3d60 <vfprintf+0x3d8>
    3d56:	8f 5f       	subi	r24, 0xFF	; 255
    3d58:	fa e0       	ldi	r31, 0x0A	; 10
    3d5a:	cf 1a       	sub	r12, r31
    3d5c:	d1 08       	sbc	r13, r1
    3d5e:	f7 cf       	rjmp	.-18     	; 0x3d4e <vfprintf+0x3c6>
    3d60:	b7 01       	movw	r22, r14
    3d62:	90 e0       	ldi	r25, 0x00	; 0
    3d64:	d2 d3       	rcall	.+1956   	; 0x450a <fputc>
    3d66:	b7 01       	movw	r22, r14
    3d68:	c6 01       	movw	r24, r12
    3d6a:	c0 96       	adiw	r24, 0x30	; 48
    3d6c:	ce d3       	rcall	.+1948   	; 0x450a <fputc>
    3d6e:	49 c1       	rjmp	.+658    	; 0x4002 <__stack+0x3>
    3d70:	83 36       	cpi	r24, 0x63	; 99
    3d72:	31 f0       	breq	.+12     	; 0x3d80 <vfprintf+0x3f8>
    3d74:	83 37       	cpi	r24, 0x73	; 115
    3d76:	79 f0       	breq	.+30     	; 0x3d96 <vfprintf+0x40e>
    3d78:	83 35       	cpi	r24, 0x53	; 83
    3d7a:	09 f0       	breq	.+2      	; 0x3d7e <vfprintf+0x3f6>
    3d7c:	52 c0       	rjmp	.+164    	; 0x3e22 <vfprintf+0x49a>
    3d7e:	1f c0       	rjmp	.+62     	; 0x3dbe <vfprintf+0x436>
    3d80:	56 01       	movw	r10, r12
    3d82:	32 e0       	ldi	r19, 0x02	; 2
    3d84:	a3 0e       	add	r10, r19
    3d86:	b1 1c       	adc	r11, r1
    3d88:	f6 01       	movw	r30, r12
    3d8a:	80 81       	ld	r24, Z
    3d8c:	89 83       	std	Y+1, r24	; 0x01
    3d8e:	01 e0       	ldi	r16, 0x01	; 1
    3d90:	10 e0       	ldi	r17, 0x00	; 0
    3d92:	63 01       	movw	r12, r6
    3d94:	11 c0       	rjmp	.+34     	; 0x3db8 <vfprintf+0x430>
    3d96:	56 01       	movw	r10, r12
    3d98:	f2 e0       	ldi	r31, 0x02	; 2
    3d9a:	af 0e       	add	r10, r31
    3d9c:	b1 1c       	adc	r11, r1
    3d9e:	f6 01       	movw	r30, r12
    3da0:	c0 80       	ld	r12, Z
    3da2:	d1 80       	ldd	r13, Z+1	; 0x01
    3da4:	96 fe       	sbrs	r9, 6
    3da6:	03 c0       	rjmp	.+6      	; 0x3dae <vfprintf+0x426>
    3da8:	61 2f       	mov	r22, r17
    3daa:	70 e0       	ldi	r23, 0x00	; 0
    3dac:	02 c0       	rjmp	.+4      	; 0x3db2 <vfprintf+0x42a>
    3dae:	6f ef       	ldi	r22, 0xFF	; 255
    3db0:	7f ef       	ldi	r23, 0xFF	; 255
    3db2:	c6 01       	movw	r24, r12
    3db4:	55 d3       	rcall	.+1706   	; 0x4460 <strnlen>
    3db6:	8c 01       	movw	r16, r24
    3db8:	f9 2d       	mov	r31, r9
    3dba:	ff 77       	andi	r31, 0x7F	; 127
    3dbc:	13 c0       	rjmp	.+38     	; 0x3de4 <vfprintf+0x45c>
    3dbe:	56 01       	movw	r10, r12
    3dc0:	22 e0       	ldi	r18, 0x02	; 2
    3dc2:	a2 0e       	add	r10, r18
    3dc4:	b1 1c       	adc	r11, r1
    3dc6:	f6 01       	movw	r30, r12
    3dc8:	c0 80       	ld	r12, Z
    3dca:	d1 80       	ldd	r13, Z+1	; 0x01
    3dcc:	96 fe       	sbrs	r9, 6
    3dce:	03 c0       	rjmp	.+6      	; 0x3dd6 <vfprintf+0x44e>
    3dd0:	61 2f       	mov	r22, r17
    3dd2:	70 e0       	ldi	r23, 0x00	; 0
    3dd4:	02 c0       	rjmp	.+4      	; 0x3dda <vfprintf+0x452>
    3dd6:	6f ef       	ldi	r22, 0xFF	; 255
    3dd8:	7f ef       	ldi	r23, 0xFF	; 255
    3dda:	c6 01       	movw	r24, r12
    3ddc:	36 d3       	rcall	.+1644   	; 0x444a <strnlen_P>
    3dde:	8c 01       	movw	r16, r24
    3de0:	f9 2d       	mov	r31, r9
    3de2:	f0 68       	ori	r31, 0x80	; 128
    3de4:	9f 2e       	mov	r9, r31
    3de6:	f3 fd       	sbrc	r31, 3
    3de8:	18 c0       	rjmp	.+48     	; 0x3e1a <vfprintf+0x492>
    3dea:	85 2d       	mov	r24, r5
    3dec:	90 e0       	ldi	r25, 0x00	; 0
    3dee:	08 17       	cp	r16, r24
    3df0:	19 07       	cpc	r17, r25
    3df2:	98 f4       	brcc	.+38     	; 0x3e1a <vfprintf+0x492>
    3df4:	b7 01       	movw	r22, r14
    3df6:	80 e2       	ldi	r24, 0x20	; 32
    3df8:	90 e0       	ldi	r25, 0x00	; 0
    3dfa:	87 d3       	rcall	.+1806   	; 0x450a <fputc>
    3dfc:	5a 94       	dec	r5
    3dfe:	f5 cf       	rjmp	.-22     	; 0x3dea <vfprintf+0x462>
    3e00:	f6 01       	movw	r30, r12
    3e02:	97 fc       	sbrc	r9, 7
    3e04:	85 91       	lpm	r24, Z+
    3e06:	97 fe       	sbrs	r9, 7
    3e08:	81 91       	ld	r24, Z+
    3e0a:	6f 01       	movw	r12, r30
    3e0c:	b7 01       	movw	r22, r14
    3e0e:	90 e0       	ldi	r25, 0x00	; 0
    3e10:	7c d3       	rcall	.+1784   	; 0x450a <fputc>
    3e12:	51 10       	cpse	r5, r1
    3e14:	5a 94       	dec	r5
    3e16:	01 50       	subi	r16, 0x01	; 1
    3e18:	11 09       	sbc	r17, r1
    3e1a:	01 15       	cp	r16, r1
    3e1c:	11 05       	cpc	r17, r1
    3e1e:	81 f7       	brne	.-32     	; 0x3e00 <vfprintf+0x478>
    3e20:	f0 c0       	rjmp	.+480    	; 0x4002 <__stack+0x3>
    3e22:	84 36       	cpi	r24, 0x64	; 100
    3e24:	11 f0       	breq	.+4      	; 0x3e2a <vfprintf+0x4a2>
    3e26:	89 36       	cpi	r24, 0x69	; 105
    3e28:	59 f5       	brne	.+86     	; 0x3e80 <vfprintf+0x4f8>
    3e2a:	56 01       	movw	r10, r12
    3e2c:	97 fe       	sbrs	r9, 7
    3e2e:	09 c0       	rjmp	.+18     	; 0x3e42 <vfprintf+0x4ba>
    3e30:	24 e0       	ldi	r18, 0x04	; 4
    3e32:	a2 0e       	add	r10, r18
    3e34:	b1 1c       	adc	r11, r1
    3e36:	f6 01       	movw	r30, r12
    3e38:	60 81       	ld	r22, Z
    3e3a:	71 81       	ldd	r23, Z+1	; 0x01
    3e3c:	82 81       	ldd	r24, Z+2	; 0x02
    3e3e:	93 81       	ldd	r25, Z+3	; 0x03
    3e40:	0a c0       	rjmp	.+20     	; 0x3e56 <vfprintf+0x4ce>
    3e42:	f2 e0       	ldi	r31, 0x02	; 2
    3e44:	af 0e       	add	r10, r31
    3e46:	b1 1c       	adc	r11, r1
    3e48:	f6 01       	movw	r30, r12
    3e4a:	60 81       	ld	r22, Z
    3e4c:	71 81       	ldd	r23, Z+1	; 0x01
    3e4e:	07 2e       	mov	r0, r23
    3e50:	00 0c       	add	r0, r0
    3e52:	88 0b       	sbc	r24, r24
    3e54:	99 0b       	sbc	r25, r25
    3e56:	f9 2d       	mov	r31, r9
    3e58:	ff 76       	andi	r31, 0x6F	; 111
    3e5a:	9f 2e       	mov	r9, r31
    3e5c:	97 ff       	sbrs	r25, 7
    3e5e:	09 c0       	rjmp	.+18     	; 0x3e72 <vfprintf+0x4ea>
    3e60:	90 95       	com	r25
    3e62:	80 95       	com	r24
    3e64:	70 95       	com	r23
    3e66:	61 95       	neg	r22
    3e68:	7f 4f       	sbci	r23, 0xFF	; 255
    3e6a:	8f 4f       	sbci	r24, 0xFF	; 255
    3e6c:	9f 4f       	sbci	r25, 0xFF	; 255
    3e6e:	f0 68       	ori	r31, 0x80	; 128
    3e70:	9f 2e       	mov	r9, r31
    3e72:	2a e0       	ldi	r18, 0x0A	; 10
    3e74:	30 e0       	ldi	r19, 0x00	; 0
    3e76:	a3 01       	movw	r20, r6
    3e78:	e9 d3       	rcall	.+2002   	; 0x464c <__ultoa_invert>
    3e7a:	c8 2e       	mov	r12, r24
    3e7c:	c6 18       	sub	r12, r6
    3e7e:	3e c0       	rjmp	.+124    	; 0x3efc <vfprintf+0x574>
    3e80:	09 2d       	mov	r16, r9
    3e82:	85 37       	cpi	r24, 0x75	; 117
    3e84:	21 f4       	brne	.+8      	; 0x3e8e <vfprintf+0x506>
    3e86:	0f 7e       	andi	r16, 0xEF	; 239
    3e88:	2a e0       	ldi	r18, 0x0A	; 10
    3e8a:	30 e0       	ldi	r19, 0x00	; 0
    3e8c:	1d c0       	rjmp	.+58     	; 0x3ec8 <vfprintf+0x540>
    3e8e:	09 7f       	andi	r16, 0xF9	; 249
    3e90:	8f 36       	cpi	r24, 0x6F	; 111
    3e92:	91 f0       	breq	.+36     	; 0x3eb8 <vfprintf+0x530>
    3e94:	18 f4       	brcc	.+6      	; 0x3e9c <vfprintf+0x514>
    3e96:	88 35       	cpi	r24, 0x58	; 88
    3e98:	59 f0       	breq	.+22     	; 0x3eb0 <vfprintf+0x528>
    3e9a:	bc c0       	rjmp	.+376    	; 0x4014 <__stack+0x15>
    3e9c:	80 37       	cpi	r24, 0x70	; 112
    3e9e:	19 f0       	breq	.+6      	; 0x3ea6 <vfprintf+0x51e>
    3ea0:	88 37       	cpi	r24, 0x78	; 120
    3ea2:	11 f0       	breq	.+4      	; 0x3ea8 <vfprintf+0x520>
    3ea4:	b7 c0       	rjmp	.+366    	; 0x4014 <__stack+0x15>
    3ea6:	00 61       	ori	r16, 0x10	; 16
    3ea8:	04 ff       	sbrs	r16, 4
    3eaa:	09 c0       	rjmp	.+18     	; 0x3ebe <vfprintf+0x536>
    3eac:	04 60       	ori	r16, 0x04	; 4
    3eae:	07 c0       	rjmp	.+14     	; 0x3ebe <vfprintf+0x536>
    3eb0:	94 fe       	sbrs	r9, 4
    3eb2:	08 c0       	rjmp	.+16     	; 0x3ec4 <vfprintf+0x53c>
    3eb4:	06 60       	ori	r16, 0x06	; 6
    3eb6:	06 c0       	rjmp	.+12     	; 0x3ec4 <vfprintf+0x53c>
    3eb8:	28 e0       	ldi	r18, 0x08	; 8
    3eba:	30 e0       	ldi	r19, 0x00	; 0
    3ebc:	05 c0       	rjmp	.+10     	; 0x3ec8 <vfprintf+0x540>
    3ebe:	20 e1       	ldi	r18, 0x10	; 16
    3ec0:	30 e0       	ldi	r19, 0x00	; 0
    3ec2:	02 c0       	rjmp	.+4      	; 0x3ec8 <vfprintf+0x540>
    3ec4:	20 e1       	ldi	r18, 0x10	; 16
    3ec6:	32 e0       	ldi	r19, 0x02	; 2
    3ec8:	56 01       	movw	r10, r12
    3eca:	07 ff       	sbrs	r16, 7
    3ecc:	09 c0       	rjmp	.+18     	; 0x3ee0 <vfprintf+0x558>
    3ece:	84 e0       	ldi	r24, 0x04	; 4
    3ed0:	a8 0e       	add	r10, r24
    3ed2:	b1 1c       	adc	r11, r1
    3ed4:	f6 01       	movw	r30, r12
    3ed6:	60 81       	ld	r22, Z
    3ed8:	71 81       	ldd	r23, Z+1	; 0x01
    3eda:	82 81       	ldd	r24, Z+2	; 0x02
    3edc:	93 81       	ldd	r25, Z+3	; 0x03
    3ede:	08 c0       	rjmp	.+16     	; 0x3ef0 <vfprintf+0x568>
    3ee0:	f2 e0       	ldi	r31, 0x02	; 2
    3ee2:	af 0e       	add	r10, r31
    3ee4:	b1 1c       	adc	r11, r1
    3ee6:	f6 01       	movw	r30, r12
    3ee8:	60 81       	ld	r22, Z
    3eea:	71 81       	ldd	r23, Z+1	; 0x01
    3eec:	80 e0       	ldi	r24, 0x00	; 0
    3eee:	90 e0       	ldi	r25, 0x00	; 0
    3ef0:	a3 01       	movw	r20, r6
    3ef2:	ac d3       	rcall	.+1880   	; 0x464c <__ultoa_invert>
    3ef4:	c8 2e       	mov	r12, r24
    3ef6:	c6 18       	sub	r12, r6
    3ef8:	0f 77       	andi	r16, 0x7F	; 127
    3efa:	90 2e       	mov	r9, r16
    3efc:	96 fe       	sbrs	r9, 6
    3efe:	0b c0       	rjmp	.+22     	; 0x3f16 <vfprintf+0x58e>
    3f00:	09 2d       	mov	r16, r9
    3f02:	0e 7f       	andi	r16, 0xFE	; 254
    3f04:	c1 16       	cp	r12, r17
    3f06:	50 f4       	brcc	.+20     	; 0x3f1c <vfprintf+0x594>
    3f08:	94 fe       	sbrs	r9, 4
    3f0a:	0a c0       	rjmp	.+20     	; 0x3f20 <vfprintf+0x598>
    3f0c:	92 fc       	sbrc	r9, 2
    3f0e:	08 c0       	rjmp	.+16     	; 0x3f20 <vfprintf+0x598>
    3f10:	09 2d       	mov	r16, r9
    3f12:	0e 7e       	andi	r16, 0xEE	; 238
    3f14:	05 c0       	rjmp	.+10     	; 0x3f20 <vfprintf+0x598>
    3f16:	dc 2c       	mov	r13, r12
    3f18:	09 2d       	mov	r16, r9
    3f1a:	03 c0       	rjmp	.+6      	; 0x3f22 <vfprintf+0x59a>
    3f1c:	dc 2c       	mov	r13, r12
    3f1e:	01 c0       	rjmp	.+2      	; 0x3f22 <vfprintf+0x59a>
    3f20:	d1 2e       	mov	r13, r17
    3f22:	04 ff       	sbrs	r16, 4
    3f24:	0d c0       	rjmp	.+26     	; 0x3f40 <vfprintf+0x5b8>
    3f26:	fe 01       	movw	r30, r28
    3f28:	ec 0d       	add	r30, r12
    3f2a:	f1 1d       	adc	r31, r1
    3f2c:	80 81       	ld	r24, Z
    3f2e:	80 33       	cpi	r24, 0x30	; 48
    3f30:	11 f4       	brne	.+4      	; 0x3f36 <vfprintf+0x5ae>
    3f32:	09 7e       	andi	r16, 0xE9	; 233
    3f34:	09 c0       	rjmp	.+18     	; 0x3f48 <vfprintf+0x5c0>
    3f36:	02 ff       	sbrs	r16, 2
    3f38:	06 c0       	rjmp	.+12     	; 0x3f46 <vfprintf+0x5be>
    3f3a:	d3 94       	inc	r13
    3f3c:	d3 94       	inc	r13
    3f3e:	04 c0       	rjmp	.+8      	; 0x3f48 <vfprintf+0x5c0>
    3f40:	80 2f       	mov	r24, r16
    3f42:	86 78       	andi	r24, 0x86	; 134
    3f44:	09 f0       	breq	.+2      	; 0x3f48 <vfprintf+0x5c0>
    3f46:	d3 94       	inc	r13
    3f48:	03 fd       	sbrc	r16, 3
    3f4a:	10 c0       	rjmp	.+32     	; 0x3f6c <vfprintf+0x5e4>
    3f4c:	00 ff       	sbrs	r16, 0
    3f4e:	06 c0       	rjmp	.+12     	; 0x3f5c <vfprintf+0x5d4>
    3f50:	1c 2d       	mov	r17, r12
    3f52:	d5 14       	cp	r13, r5
    3f54:	78 f4       	brcc	.+30     	; 0x3f74 <vfprintf+0x5ec>
    3f56:	15 0d       	add	r17, r5
    3f58:	1d 19       	sub	r17, r13
    3f5a:	0c c0       	rjmp	.+24     	; 0x3f74 <vfprintf+0x5ec>
    3f5c:	d5 14       	cp	r13, r5
    3f5e:	50 f4       	brcc	.+20     	; 0x3f74 <vfprintf+0x5ec>
    3f60:	b7 01       	movw	r22, r14
    3f62:	80 e2       	ldi	r24, 0x20	; 32
    3f64:	90 e0       	ldi	r25, 0x00	; 0
    3f66:	d1 d2       	rcall	.+1442   	; 0x450a <fputc>
    3f68:	d3 94       	inc	r13
    3f6a:	f8 cf       	rjmp	.-16     	; 0x3f5c <vfprintf+0x5d4>
    3f6c:	d5 14       	cp	r13, r5
    3f6e:	10 f4       	brcc	.+4      	; 0x3f74 <vfprintf+0x5ec>
    3f70:	5d 18       	sub	r5, r13
    3f72:	01 c0       	rjmp	.+2      	; 0x3f76 <vfprintf+0x5ee>
    3f74:	51 2c       	mov	r5, r1
    3f76:	04 ff       	sbrs	r16, 4
    3f78:	0f c0       	rjmp	.+30     	; 0x3f98 <vfprintf+0x610>
    3f7a:	b7 01       	movw	r22, r14
    3f7c:	80 e3       	ldi	r24, 0x30	; 48
    3f7e:	90 e0       	ldi	r25, 0x00	; 0
    3f80:	c4 d2       	rcall	.+1416   	; 0x450a <fputc>
    3f82:	02 ff       	sbrs	r16, 2
    3f84:	16 c0       	rjmp	.+44     	; 0x3fb2 <vfprintf+0x62a>
    3f86:	01 fd       	sbrc	r16, 1
    3f88:	03 c0       	rjmp	.+6      	; 0x3f90 <vfprintf+0x608>
    3f8a:	88 e7       	ldi	r24, 0x78	; 120
    3f8c:	90 e0       	ldi	r25, 0x00	; 0
    3f8e:	02 c0       	rjmp	.+4      	; 0x3f94 <vfprintf+0x60c>
    3f90:	88 e5       	ldi	r24, 0x58	; 88
    3f92:	90 e0       	ldi	r25, 0x00	; 0
    3f94:	b7 01       	movw	r22, r14
    3f96:	0c c0       	rjmp	.+24     	; 0x3fb0 <vfprintf+0x628>
    3f98:	80 2f       	mov	r24, r16
    3f9a:	86 78       	andi	r24, 0x86	; 134
    3f9c:	51 f0       	breq	.+20     	; 0x3fb2 <vfprintf+0x62a>
    3f9e:	01 ff       	sbrs	r16, 1
    3fa0:	02 c0       	rjmp	.+4      	; 0x3fa6 <vfprintf+0x61e>
    3fa2:	8b e2       	ldi	r24, 0x2B	; 43
    3fa4:	01 c0       	rjmp	.+2      	; 0x3fa8 <vfprintf+0x620>
    3fa6:	80 e2       	ldi	r24, 0x20	; 32
    3fa8:	07 fd       	sbrc	r16, 7
    3faa:	8d e2       	ldi	r24, 0x2D	; 45
    3fac:	b7 01       	movw	r22, r14
    3fae:	90 e0       	ldi	r25, 0x00	; 0
    3fb0:	ac d2       	rcall	.+1368   	; 0x450a <fputc>
    3fb2:	c1 16       	cp	r12, r17
    3fb4:	30 f4       	brcc	.+12     	; 0x3fc2 <vfprintf+0x63a>
    3fb6:	b7 01       	movw	r22, r14
    3fb8:	80 e3       	ldi	r24, 0x30	; 48
    3fba:	90 e0       	ldi	r25, 0x00	; 0
    3fbc:	a6 d2       	rcall	.+1356   	; 0x450a <fputc>
    3fbe:	11 50       	subi	r17, 0x01	; 1
    3fc0:	f8 cf       	rjmp	.-16     	; 0x3fb2 <vfprintf+0x62a>
    3fc2:	ca 94       	dec	r12
    3fc4:	f3 01       	movw	r30, r6
    3fc6:	ec 0d       	add	r30, r12
    3fc8:	f1 1d       	adc	r31, r1
    3fca:	80 81       	ld	r24, Z
    3fcc:	b7 01       	movw	r22, r14
    3fce:	90 e0       	ldi	r25, 0x00	; 0
    3fd0:	9c d2       	rcall	.+1336   	; 0x450a <fputc>
    3fd2:	c1 10       	cpse	r12, r1
    3fd4:	f6 cf       	rjmp	.-20     	; 0x3fc2 <vfprintf+0x63a>
    3fd6:	15 c0       	rjmp	.+42     	; 0x4002 <__stack+0x3>
    3fd8:	f4 e0       	ldi	r31, 0x04	; 4
    3fda:	f5 15       	cp	r31, r5
    3fdc:	50 f5       	brcc	.+84     	; 0x4032 <__stack+0x33>
    3fde:	84 e0       	ldi	r24, 0x04	; 4
    3fe0:	58 1a       	sub	r5, r24
    3fe2:	93 fe       	sbrs	r9, 3
    3fe4:	1e c0       	rjmp	.+60     	; 0x4022 <__stack+0x23>
    3fe6:	01 11       	cpse	r16, r1
    3fe8:	25 c0       	rjmp	.+74     	; 0x4034 <__stack+0x35>
    3fea:	2c 85       	ldd	r18, Y+12	; 0x0c
    3fec:	23 ff       	sbrs	r18, 3
    3fee:	27 c0       	rjmp	.+78     	; 0x403e <__stack+0x3f>
    3ff0:	0c ef       	ldi	r16, 0xFC	; 252
    3ff2:	12 e0       	ldi	r17, 0x02	; 2
    3ff4:	39 2d       	mov	r19, r9
    3ff6:	30 71       	andi	r19, 0x10	; 16
    3ff8:	93 2e       	mov	r9, r19
    3ffa:	f8 01       	movw	r30, r16
    3ffc:	84 91       	lpm	r24, Z
    3ffe:	81 11       	cpse	r24, r1
    4000:	21 c0       	rjmp	.+66     	; 0x4044 <__stack+0x45>
    4002:	55 20       	and	r5, r5
    4004:	09 f4       	brne	.+2      	; 0x4008 <__stack+0x9>
    4006:	fc cc       	rjmp	.-1544   	; 0x3a00 <vfprintf+0x78>
    4008:	b7 01       	movw	r22, r14
    400a:	80 e2       	ldi	r24, 0x20	; 32
    400c:	90 e0       	ldi	r25, 0x00	; 0
    400e:	7d d2       	rcall	.+1274   	; 0x450a <fputc>
    4010:	5a 94       	dec	r5
    4012:	f7 cf       	rjmp	.-18     	; 0x4002 <__stack+0x3>
    4014:	f7 01       	movw	r30, r14
    4016:	86 81       	ldd	r24, Z+6	; 0x06
    4018:	97 81       	ldd	r25, Z+7	; 0x07
    401a:	23 c0       	rjmp	.+70     	; 0x4062 <__stack+0x63>
    401c:	8f ef       	ldi	r24, 0xFF	; 255
    401e:	9f ef       	ldi	r25, 0xFF	; 255
    4020:	20 c0       	rjmp	.+64     	; 0x4062 <__stack+0x63>
    4022:	b7 01       	movw	r22, r14
    4024:	80 e2       	ldi	r24, 0x20	; 32
    4026:	90 e0       	ldi	r25, 0x00	; 0
    4028:	70 d2       	rcall	.+1248   	; 0x450a <fputc>
    402a:	5a 94       	dec	r5
    402c:	51 10       	cpse	r5, r1
    402e:	f9 cf       	rjmp	.-14     	; 0x4022 <__stack+0x23>
    4030:	da cf       	rjmp	.-76     	; 0x3fe6 <vfprintf+0x65e>
    4032:	51 2c       	mov	r5, r1
    4034:	b7 01       	movw	r22, r14
    4036:	80 2f       	mov	r24, r16
    4038:	90 e0       	ldi	r25, 0x00	; 0
    403a:	67 d2       	rcall	.+1230   	; 0x450a <fputc>
    403c:	d6 cf       	rjmp	.-84     	; 0x3fea <vfprintf+0x662>
    403e:	00 e0       	ldi	r16, 0x00	; 0
    4040:	13 e0       	ldi	r17, 0x03	; 3
    4042:	d8 cf       	rjmp	.-80     	; 0x3ff4 <vfprintf+0x66c>
    4044:	91 10       	cpse	r9, r1
    4046:	80 52       	subi	r24, 0x20	; 32
    4048:	b7 01       	movw	r22, r14
    404a:	90 e0       	ldi	r25, 0x00	; 0
    404c:	5e d2       	rcall	.+1212   	; 0x450a <fputc>
    404e:	0f 5f       	subi	r16, 0xFF	; 255
    4050:	1f 4f       	sbci	r17, 0xFF	; 255
    4052:	d3 cf       	rjmp	.-90     	; 0x3ffa <vfprintf+0x672>
    4054:	23 e0       	ldi	r18, 0x03	; 3
    4056:	25 15       	cp	r18, r5
    4058:	10 f4       	brcc	.+4      	; 0x405e <__stack+0x5f>
    405a:	83 e0       	ldi	r24, 0x03	; 3
    405c:	c1 cf       	rjmp	.-126    	; 0x3fe0 <vfprintf+0x658>
    405e:	51 2c       	mov	r5, r1
    4060:	c4 cf       	rjmp	.-120    	; 0x3fea <vfprintf+0x662>
    4062:	60 96       	adiw	r28, 0x10	; 16
    4064:	cd bf       	out	0x3d, r28	; 61
    4066:	de bf       	out	0x3e, r29	; 62
    4068:	df 91       	pop	r29
    406a:	cf 91       	pop	r28
    406c:	1f 91       	pop	r17
    406e:	0f 91       	pop	r16
    4070:	ff 90       	pop	r15
    4072:	ef 90       	pop	r14
    4074:	df 90       	pop	r13
    4076:	cf 90       	pop	r12
    4078:	bf 90       	pop	r11
    407a:	af 90       	pop	r10
    407c:	9f 90       	pop	r9
    407e:	8f 90       	pop	r8
    4080:	7f 90       	pop	r7
    4082:	6f 90       	pop	r6
    4084:	5f 90       	pop	r5
    4086:	4f 90       	pop	r4
    4088:	3f 90       	pop	r3
    408a:	2f 90       	pop	r2
    408c:	08 95       	ret

0000408e <__udivmodsi4>:
    408e:	a1 e2       	ldi	r26, 0x21	; 33
    4090:	1a 2e       	mov	r1, r26
    4092:	aa 1b       	sub	r26, r26
    4094:	bb 1b       	sub	r27, r27
    4096:	fd 01       	movw	r30, r26
    4098:	0d c0       	rjmp	.+26     	; 0x40b4 <__udivmodsi4_ep>

0000409a <__udivmodsi4_loop>:
    409a:	aa 1f       	adc	r26, r26
    409c:	bb 1f       	adc	r27, r27
    409e:	ee 1f       	adc	r30, r30
    40a0:	ff 1f       	adc	r31, r31
    40a2:	a2 17       	cp	r26, r18
    40a4:	b3 07       	cpc	r27, r19
    40a6:	e4 07       	cpc	r30, r20
    40a8:	f5 07       	cpc	r31, r21
    40aa:	20 f0       	brcs	.+8      	; 0x40b4 <__udivmodsi4_ep>
    40ac:	a2 1b       	sub	r26, r18
    40ae:	b3 0b       	sbc	r27, r19
    40b0:	e4 0b       	sbc	r30, r20
    40b2:	f5 0b       	sbc	r31, r21

000040b4 <__udivmodsi4_ep>:
    40b4:	66 1f       	adc	r22, r22
    40b6:	77 1f       	adc	r23, r23
    40b8:	88 1f       	adc	r24, r24
    40ba:	99 1f       	adc	r25, r25
    40bc:	1a 94       	dec	r1
    40be:	69 f7       	brne	.-38     	; 0x409a <__udivmodsi4_loop>
    40c0:	60 95       	com	r22
    40c2:	70 95       	com	r23
    40c4:	80 95       	com	r24
    40c6:	90 95       	com	r25
    40c8:	9b 01       	movw	r18, r22
    40ca:	ac 01       	movw	r20, r24
    40cc:	bd 01       	movw	r22, r26
    40ce:	cf 01       	movw	r24, r30
    40d0:	08 95       	ret

000040d2 <__divmodsi4>:
    40d2:	05 2e       	mov	r0, r21
    40d4:	97 fb       	bst	r25, 7
    40d6:	16 f4       	brtc	.+4      	; 0x40dc <__divmodsi4+0xa>
    40d8:	00 94       	com	r0
    40da:	0f d0       	rcall	.+30     	; 0x40fa <__negsi2>
    40dc:	57 fd       	sbrc	r21, 7
    40de:	05 d0       	rcall	.+10     	; 0x40ea <__divmodsi4_neg2>
    40e0:	d6 df       	rcall	.-84     	; 0x408e <__udivmodsi4>
    40e2:	07 fc       	sbrc	r0, 7
    40e4:	02 d0       	rcall	.+4      	; 0x40ea <__divmodsi4_neg2>
    40e6:	46 f4       	brtc	.+16     	; 0x40f8 <__divmodsi4_exit>
    40e8:	08 c0       	rjmp	.+16     	; 0x40fa <__negsi2>

000040ea <__divmodsi4_neg2>:
    40ea:	50 95       	com	r21
    40ec:	40 95       	com	r20
    40ee:	30 95       	com	r19
    40f0:	21 95       	neg	r18
    40f2:	3f 4f       	sbci	r19, 0xFF	; 255
    40f4:	4f 4f       	sbci	r20, 0xFF	; 255
    40f6:	5f 4f       	sbci	r21, 0xFF	; 255

000040f8 <__divmodsi4_exit>:
    40f8:	08 95       	ret

000040fa <__negsi2>:
    40fa:	90 95       	com	r25
    40fc:	80 95       	com	r24
    40fe:	70 95       	com	r23
    4100:	61 95       	neg	r22
    4102:	7f 4f       	sbci	r23, 0xFF	; 255
    4104:	8f 4f       	sbci	r24, 0xFF	; 255
    4106:	9f 4f       	sbci	r25, 0xFF	; 255
    4108:	08 95       	ret

0000410a <__tablejump2__>:
    410a:	ee 0f       	add	r30, r30
    410c:	ff 1f       	adc	r31, r31
    410e:	88 1f       	adc	r24, r24
    4110:	8b bf       	out	0x3b, r24	; 59
    4112:	07 90       	elpm	r0, Z+
    4114:	f6 91       	elpm	r31, Z
    4116:	e0 2d       	mov	r30, r0
    4118:	1b be       	out	0x3b, r1	; 59
    411a:	19 94       	eijmp

0000411c <__muluhisi3>:
    411c:	af d0       	rcall	.+350    	; 0x427c <__umulhisi3>
    411e:	a5 9f       	mul	r26, r21
    4120:	90 0d       	add	r25, r0
    4122:	b4 9f       	mul	r27, r20
    4124:	90 0d       	add	r25, r0
    4126:	a4 9f       	mul	r26, r20
    4128:	80 0d       	add	r24, r0
    412a:	91 1d       	adc	r25, r1
    412c:	11 24       	eor	r1, r1
    412e:	08 95       	ret

00004130 <__muldi3>:
    4130:	df 93       	push	r29
    4132:	cf 93       	push	r28
    4134:	1f 93       	push	r17
    4136:	0f 93       	push	r16
    4138:	9a 9d       	mul	r25, r10
    413a:	f0 2d       	mov	r31, r0
    413c:	21 9f       	mul	r18, r17
    413e:	f0 0d       	add	r31, r0
    4140:	8b 9d       	mul	r24, r11
    4142:	f0 0d       	add	r31, r0
    4144:	8a 9d       	mul	r24, r10
    4146:	e0 2d       	mov	r30, r0
    4148:	f1 0d       	add	r31, r1
    414a:	03 9f       	mul	r16, r19
    414c:	f0 0d       	add	r31, r0
    414e:	02 9f       	mul	r16, r18
    4150:	e0 0d       	add	r30, r0
    4152:	f1 1d       	adc	r31, r1
    4154:	4e 9d       	mul	r20, r14
    4156:	e0 0d       	add	r30, r0
    4158:	f1 1d       	adc	r31, r1
    415a:	5e 9d       	mul	r21, r14
    415c:	f0 0d       	add	r31, r0
    415e:	4f 9d       	mul	r20, r15
    4160:	f0 0d       	add	r31, r0
    4162:	7f 93       	push	r23
    4164:	6f 93       	push	r22
    4166:	bf 92       	push	r11
    4168:	af 92       	push	r10
    416a:	5f 93       	push	r21
    416c:	4f 93       	push	r20
    416e:	d5 01       	movw	r26, r10
    4170:	85 d0       	rcall	.+266    	; 0x427c <__umulhisi3>
    4172:	8b 01       	movw	r16, r22
    4174:	ac 01       	movw	r20, r24
    4176:	d7 01       	movw	r26, r14
    4178:	81 d0       	rcall	.+258    	; 0x427c <__umulhisi3>
    417a:	eb 01       	movw	r28, r22
    417c:	e8 0f       	add	r30, r24
    417e:	f9 1f       	adc	r31, r25
    4180:	d6 01       	movw	r26, r12
    4182:	1f d0       	rcall	.+62     	; 0x41c2 <__muldi3_6>
    4184:	2f 91       	pop	r18
    4186:	3f 91       	pop	r19
    4188:	d6 01       	movw	r26, r12
    418a:	78 d0       	rcall	.+240    	; 0x427c <__umulhisi3>
    418c:	c6 0f       	add	r28, r22
    418e:	d7 1f       	adc	r29, r23
    4190:	e8 1f       	adc	r30, r24
    4192:	f9 1f       	adc	r31, r25
    4194:	af 91       	pop	r26
    4196:	bf 91       	pop	r27
    4198:	14 d0       	rcall	.+40     	; 0x41c2 <__muldi3_6>
    419a:	2f 91       	pop	r18
    419c:	3f 91       	pop	r19
    419e:	6e d0       	rcall	.+220    	; 0x427c <__umulhisi3>
    41a0:	c6 0f       	add	r28, r22
    41a2:	d7 1f       	adc	r29, r23
    41a4:	e8 1f       	adc	r30, r24
    41a6:	f9 1f       	adc	r31, r25
    41a8:	d6 01       	movw	r26, r12
    41aa:	68 d0       	rcall	.+208    	; 0x427c <__umulhisi3>
    41ac:	e6 0f       	add	r30, r22
    41ae:	f7 1f       	adc	r31, r23
    41b0:	98 01       	movw	r18, r16
    41b2:	be 01       	movw	r22, r28
    41b4:	cf 01       	movw	r24, r30
    41b6:	11 24       	eor	r1, r1
    41b8:	0f 91       	pop	r16
    41ba:	1f 91       	pop	r17
    41bc:	cf 91       	pop	r28
    41be:	df 91       	pop	r29
    41c0:	08 95       	ret

000041c2 <__muldi3_6>:
    41c2:	5c d0       	rcall	.+184    	; 0x427c <__umulhisi3>
    41c4:	46 0f       	add	r20, r22
    41c6:	57 1f       	adc	r21, r23
    41c8:	c8 1f       	adc	r28, r24
    41ca:	d9 1f       	adc	r29, r25
    41cc:	08 f4       	brcc	.+2      	; 0x41d0 <__muldi3_6+0xe>
    41ce:	31 96       	adiw	r30, 0x01	; 1
    41d0:	08 95       	ret

000041d2 <__ashldi3>:
    41d2:	0f 93       	push	r16
    41d4:	08 30       	cpi	r16, 0x08	; 8
    41d6:	90 f0       	brcs	.+36     	; 0x41fc <__ashldi3+0x2a>
    41d8:	98 2f       	mov	r25, r24
    41da:	87 2f       	mov	r24, r23
    41dc:	76 2f       	mov	r23, r22
    41de:	65 2f       	mov	r22, r21
    41e0:	54 2f       	mov	r21, r20
    41e2:	43 2f       	mov	r20, r19
    41e4:	32 2f       	mov	r19, r18
    41e6:	22 27       	eor	r18, r18
    41e8:	08 50       	subi	r16, 0x08	; 8
    41ea:	f4 cf       	rjmp	.-24     	; 0x41d4 <__ashldi3+0x2>
    41ec:	22 0f       	add	r18, r18
    41ee:	33 1f       	adc	r19, r19
    41f0:	44 1f       	adc	r20, r20
    41f2:	55 1f       	adc	r21, r21
    41f4:	66 1f       	adc	r22, r22
    41f6:	77 1f       	adc	r23, r23
    41f8:	88 1f       	adc	r24, r24
    41fa:	99 1f       	adc	r25, r25
    41fc:	0a 95       	dec	r16
    41fe:	b2 f7       	brpl	.-20     	; 0x41ec <__ashldi3+0x1a>
    4200:	0f 91       	pop	r16
    4202:	08 95       	ret

00004204 <__ashrdi3>:
    4204:	97 fb       	bst	r25, 7
    4206:	10 f8       	bld	r1, 0

00004208 <__lshrdi3>:
    4208:	16 94       	lsr	r1
    420a:	00 08       	sbc	r0, r0
    420c:	0f 93       	push	r16
    420e:	08 30       	cpi	r16, 0x08	; 8
    4210:	98 f0       	brcs	.+38     	; 0x4238 <__lshrdi3+0x30>
    4212:	08 50       	subi	r16, 0x08	; 8
    4214:	23 2f       	mov	r18, r19
    4216:	34 2f       	mov	r19, r20
    4218:	45 2f       	mov	r20, r21
    421a:	56 2f       	mov	r21, r22
    421c:	67 2f       	mov	r22, r23
    421e:	78 2f       	mov	r23, r24
    4220:	89 2f       	mov	r24, r25
    4222:	90 2d       	mov	r25, r0
    4224:	f4 cf       	rjmp	.-24     	; 0x420e <__lshrdi3+0x6>
    4226:	05 94       	asr	r0
    4228:	97 95       	ror	r25
    422a:	87 95       	ror	r24
    422c:	77 95       	ror	r23
    422e:	67 95       	ror	r22
    4230:	57 95       	ror	r21
    4232:	47 95       	ror	r20
    4234:	37 95       	ror	r19
    4236:	27 95       	ror	r18
    4238:	0a 95       	dec	r16
    423a:	aa f7       	brpl	.-22     	; 0x4226 <__lshrdi3+0x1e>
    423c:	0f 91       	pop	r16
    423e:	08 95       	ret

00004240 <__adddi3>:
    4240:	2a 0d       	add	r18, r10
    4242:	3b 1d       	adc	r19, r11
    4244:	4c 1d       	adc	r20, r12
    4246:	5d 1d       	adc	r21, r13
    4248:	6e 1d       	adc	r22, r14
    424a:	7f 1d       	adc	r23, r15
    424c:	80 1f       	adc	r24, r16
    424e:	91 1f       	adc	r25, r17
    4250:	08 95       	ret

00004252 <__subdi3>:
    4252:	2a 19       	sub	r18, r10
    4254:	3b 09       	sbc	r19, r11
    4256:	4c 09       	sbc	r20, r12
    4258:	5d 09       	sbc	r21, r13
    425a:	6e 09       	sbc	r22, r14
    425c:	7f 09       	sbc	r23, r15
    425e:	80 0b       	sbc	r24, r16
    4260:	91 0b       	sbc	r25, r17
    4262:	08 95       	ret

00004264 <__cmpdi2_s8>:
    4264:	00 24       	eor	r0, r0
    4266:	a7 fd       	sbrc	r26, 7
    4268:	00 94       	com	r0
    426a:	2a 17       	cp	r18, r26
    426c:	30 05       	cpc	r19, r0
    426e:	40 05       	cpc	r20, r0
    4270:	50 05       	cpc	r21, r0
    4272:	60 05       	cpc	r22, r0
    4274:	70 05       	cpc	r23, r0
    4276:	80 05       	cpc	r24, r0
    4278:	90 05       	cpc	r25, r0
    427a:	08 95       	ret

0000427c <__umulhisi3>:
    427c:	a2 9f       	mul	r26, r18
    427e:	b0 01       	movw	r22, r0
    4280:	b3 9f       	mul	r27, r19
    4282:	c0 01       	movw	r24, r0
    4284:	a3 9f       	mul	r26, r19
    4286:	70 0d       	add	r23, r0
    4288:	81 1d       	adc	r24, r1
    428a:	11 24       	eor	r1, r1
    428c:	91 1d       	adc	r25, r1
    428e:	b2 9f       	mul	r27, r18
    4290:	70 0d       	add	r23, r0
    4292:	81 1d       	adc	r24, r1
    4294:	11 24       	eor	r1, r1
    4296:	91 1d       	adc	r25, r1
    4298:	08 95       	ret

0000429a <__ftoa_engine>:
    429a:	28 30       	cpi	r18, 0x08	; 8
    429c:	08 f0       	brcs	.+2      	; 0x42a0 <__ftoa_engine+0x6>
    429e:	27 e0       	ldi	r18, 0x07	; 7
    42a0:	33 27       	eor	r19, r19
    42a2:	da 01       	movw	r26, r20
    42a4:	99 0f       	add	r25, r25
    42a6:	31 1d       	adc	r19, r1
    42a8:	87 fd       	sbrc	r24, 7
    42aa:	91 60       	ori	r25, 0x01	; 1
    42ac:	00 96       	adiw	r24, 0x00	; 0
    42ae:	61 05       	cpc	r22, r1
    42b0:	71 05       	cpc	r23, r1
    42b2:	39 f4       	brne	.+14     	; 0x42c2 <__ftoa_engine+0x28>
    42b4:	32 60       	ori	r19, 0x02	; 2
    42b6:	2e 5f       	subi	r18, 0xFE	; 254
    42b8:	3d 93       	st	X+, r19
    42ba:	30 e3       	ldi	r19, 0x30	; 48
    42bc:	2a 95       	dec	r18
    42be:	e1 f7       	brne	.-8      	; 0x42b8 <__ftoa_engine+0x1e>
    42c0:	08 95       	ret
    42c2:	9f 3f       	cpi	r25, 0xFF	; 255
    42c4:	30 f0       	brcs	.+12     	; 0x42d2 <__ftoa_engine+0x38>
    42c6:	80 38       	cpi	r24, 0x80	; 128
    42c8:	71 05       	cpc	r23, r1
    42ca:	61 05       	cpc	r22, r1
    42cc:	09 f0       	breq	.+2      	; 0x42d0 <__ftoa_engine+0x36>
    42ce:	3c 5f       	subi	r19, 0xFC	; 252
    42d0:	3c 5f       	subi	r19, 0xFC	; 252
    42d2:	3d 93       	st	X+, r19
    42d4:	91 30       	cpi	r25, 0x01	; 1
    42d6:	08 f0       	brcs	.+2      	; 0x42da <__ftoa_engine+0x40>
    42d8:	80 68       	ori	r24, 0x80	; 128
    42da:	91 1d       	adc	r25, r1
    42dc:	df 93       	push	r29
    42de:	cf 93       	push	r28
    42e0:	1f 93       	push	r17
    42e2:	0f 93       	push	r16
    42e4:	ff 92       	push	r15
    42e6:	ef 92       	push	r14
    42e8:	19 2f       	mov	r17, r25
    42ea:	98 7f       	andi	r25, 0xF8	; 248
    42ec:	96 95       	lsr	r25
    42ee:	e9 2f       	mov	r30, r25
    42f0:	96 95       	lsr	r25
    42f2:	96 95       	lsr	r25
    42f4:	e9 0f       	add	r30, r25
    42f6:	ff 27       	eor	r31, r31
    42f8:	e2 5a       	subi	r30, 0xA2	; 162
    42fa:	fc 4f       	sbci	r31, 0xFC	; 252
    42fc:	99 27       	eor	r25, r25
    42fe:	33 27       	eor	r19, r19
    4300:	ee 24       	eor	r14, r14
    4302:	ff 24       	eor	r15, r15
    4304:	a7 01       	movw	r20, r14
    4306:	e7 01       	movw	r28, r14
    4308:	05 90       	lpm	r0, Z+
    430a:	08 94       	sec
    430c:	07 94       	ror	r0
    430e:	28 f4       	brcc	.+10     	; 0x431a <__ftoa_engine+0x80>
    4310:	36 0f       	add	r19, r22
    4312:	e7 1e       	adc	r14, r23
    4314:	f8 1e       	adc	r15, r24
    4316:	49 1f       	adc	r20, r25
    4318:	51 1d       	adc	r21, r1
    431a:	66 0f       	add	r22, r22
    431c:	77 1f       	adc	r23, r23
    431e:	88 1f       	adc	r24, r24
    4320:	99 1f       	adc	r25, r25
    4322:	06 94       	lsr	r0
    4324:	a1 f7       	brne	.-24     	; 0x430e <__ftoa_engine+0x74>
    4326:	05 90       	lpm	r0, Z+
    4328:	07 94       	ror	r0
    432a:	28 f4       	brcc	.+10     	; 0x4336 <__ftoa_engine+0x9c>
    432c:	e7 0e       	add	r14, r23
    432e:	f8 1e       	adc	r15, r24
    4330:	49 1f       	adc	r20, r25
    4332:	56 1f       	adc	r21, r22
    4334:	c1 1d       	adc	r28, r1
    4336:	77 0f       	add	r23, r23
    4338:	88 1f       	adc	r24, r24
    433a:	99 1f       	adc	r25, r25
    433c:	66 1f       	adc	r22, r22
    433e:	06 94       	lsr	r0
    4340:	a1 f7       	brne	.-24     	; 0x432a <__ftoa_engine+0x90>
    4342:	05 90       	lpm	r0, Z+
    4344:	07 94       	ror	r0
    4346:	28 f4       	brcc	.+10     	; 0x4352 <__ftoa_engine+0xb8>
    4348:	f8 0e       	add	r15, r24
    434a:	49 1f       	adc	r20, r25
    434c:	56 1f       	adc	r21, r22
    434e:	c7 1f       	adc	r28, r23
    4350:	d1 1d       	adc	r29, r1
    4352:	88 0f       	add	r24, r24
    4354:	99 1f       	adc	r25, r25
    4356:	66 1f       	adc	r22, r22
    4358:	77 1f       	adc	r23, r23
    435a:	06 94       	lsr	r0
    435c:	a1 f7       	brne	.-24     	; 0x4346 <__ftoa_engine+0xac>
    435e:	05 90       	lpm	r0, Z+
    4360:	07 94       	ror	r0
    4362:	20 f4       	brcc	.+8      	; 0x436c <__ftoa_engine+0xd2>
    4364:	49 0f       	add	r20, r25
    4366:	56 1f       	adc	r21, r22
    4368:	c7 1f       	adc	r28, r23
    436a:	d8 1f       	adc	r29, r24
    436c:	99 0f       	add	r25, r25
    436e:	66 1f       	adc	r22, r22
    4370:	77 1f       	adc	r23, r23
    4372:	88 1f       	adc	r24, r24
    4374:	06 94       	lsr	r0
    4376:	a9 f7       	brne	.-22     	; 0x4362 <__ftoa_engine+0xc8>
    4378:	84 91       	lpm	r24, Z
    437a:	10 95       	com	r17
    437c:	17 70       	andi	r17, 0x07	; 7
    437e:	41 f0       	breq	.+16     	; 0x4390 <__ftoa_engine+0xf6>
    4380:	d6 95       	lsr	r29
    4382:	c7 95       	ror	r28
    4384:	57 95       	ror	r21
    4386:	47 95       	ror	r20
    4388:	f7 94       	ror	r15
    438a:	e7 94       	ror	r14
    438c:	1a 95       	dec	r17
    438e:	c1 f7       	brne	.-16     	; 0x4380 <__ftoa_engine+0xe6>
    4390:	e4 e0       	ldi	r30, 0x04	; 4
    4392:	f3 e0       	ldi	r31, 0x03	; 3
    4394:	68 94       	set
    4396:	15 90       	lpm	r1, Z+
    4398:	15 91       	lpm	r17, Z+
    439a:	35 91       	lpm	r19, Z+
    439c:	65 91       	lpm	r22, Z+
    439e:	95 91       	lpm	r25, Z+
    43a0:	05 90       	lpm	r0, Z+
    43a2:	7f e2       	ldi	r23, 0x2F	; 47
    43a4:	73 95       	inc	r23
    43a6:	e1 18       	sub	r14, r1
    43a8:	f1 0a       	sbc	r15, r17
    43aa:	43 0b       	sbc	r20, r19
    43ac:	56 0b       	sbc	r21, r22
    43ae:	c9 0b       	sbc	r28, r25
    43b0:	d0 09       	sbc	r29, r0
    43b2:	c0 f7       	brcc	.-16     	; 0x43a4 <__ftoa_engine+0x10a>
    43b4:	e1 0c       	add	r14, r1
    43b6:	f1 1e       	adc	r15, r17
    43b8:	43 1f       	adc	r20, r19
    43ba:	56 1f       	adc	r21, r22
    43bc:	c9 1f       	adc	r28, r25
    43be:	d0 1d       	adc	r29, r0
    43c0:	7e f4       	brtc	.+30     	; 0x43e0 <__ftoa_engine+0x146>
    43c2:	70 33       	cpi	r23, 0x30	; 48
    43c4:	11 f4       	brne	.+4      	; 0x43ca <__ftoa_engine+0x130>
    43c6:	8a 95       	dec	r24
    43c8:	e6 cf       	rjmp	.-52     	; 0x4396 <__ftoa_engine+0xfc>
    43ca:	e8 94       	clt
    43cc:	01 50       	subi	r16, 0x01	; 1
    43ce:	30 f0       	brcs	.+12     	; 0x43dc <__ftoa_engine+0x142>
    43d0:	08 0f       	add	r16, r24
    43d2:	0a f4       	brpl	.+2      	; 0x43d6 <__ftoa_engine+0x13c>
    43d4:	00 27       	eor	r16, r16
    43d6:	02 17       	cp	r16, r18
    43d8:	08 f4       	brcc	.+2      	; 0x43dc <__ftoa_engine+0x142>
    43da:	20 2f       	mov	r18, r16
    43dc:	23 95       	inc	r18
    43de:	02 2f       	mov	r16, r18
    43e0:	7a 33       	cpi	r23, 0x3A	; 58
    43e2:	28 f0       	brcs	.+10     	; 0x43ee <__ftoa_engine+0x154>
    43e4:	79 e3       	ldi	r23, 0x39	; 57
    43e6:	7d 93       	st	X+, r23
    43e8:	2a 95       	dec	r18
    43ea:	e9 f7       	brne	.-6      	; 0x43e6 <__ftoa_engine+0x14c>
    43ec:	10 c0       	rjmp	.+32     	; 0x440e <__ftoa_engine+0x174>
    43ee:	7d 93       	st	X+, r23
    43f0:	2a 95       	dec	r18
    43f2:	89 f6       	brne	.-94     	; 0x4396 <__ftoa_engine+0xfc>
    43f4:	06 94       	lsr	r0
    43f6:	97 95       	ror	r25
    43f8:	67 95       	ror	r22
    43fa:	37 95       	ror	r19
    43fc:	17 95       	ror	r17
    43fe:	17 94       	ror	r1
    4400:	e1 18       	sub	r14, r1
    4402:	f1 0a       	sbc	r15, r17
    4404:	43 0b       	sbc	r20, r19
    4406:	56 0b       	sbc	r21, r22
    4408:	c9 0b       	sbc	r28, r25
    440a:	d0 09       	sbc	r29, r0
    440c:	98 f0       	brcs	.+38     	; 0x4434 <__ftoa_engine+0x19a>
    440e:	23 95       	inc	r18
    4410:	7e 91       	ld	r23, -X
    4412:	73 95       	inc	r23
    4414:	7a 33       	cpi	r23, 0x3A	; 58
    4416:	08 f0       	brcs	.+2      	; 0x441a <__ftoa_engine+0x180>
    4418:	70 e3       	ldi	r23, 0x30	; 48
    441a:	7c 93       	st	X, r23
    441c:	20 13       	cpse	r18, r16
    441e:	b8 f7       	brcc	.-18     	; 0x440e <__ftoa_engine+0x174>
    4420:	7e 91       	ld	r23, -X
    4422:	70 61       	ori	r23, 0x10	; 16
    4424:	7d 93       	st	X+, r23
    4426:	30 f0       	brcs	.+12     	; 0x4434 <__ftoa_engine+0x19a>
    4428:	83 95       	inc	r24
    442a:	71 e3       	ldi	r23, 0x31	; 49
    442c:	7d 93       	st	X+, r23
    442e:	70 e3       	ldi	r23, 0x30	; 48
    4430:	2a 95       	dec	r18
    4432:	e1 f7       	brne	.-8      	; 0x442c <__ftoa_engine+0x192>
    4434:	11 24       	eor	r1, r1
    4436:	ef 90       	pop	r14
    4438:	ff 90       	pop	r15
    443a:	0f 91       	pop	r16
    443c:	1f 91       	pop	r17
    443e:	cf 91       	pop	r28
    4440:	df 91       	pop	r29
    4442:	99 27       	eor	r25, r25
    4444:	87 fd       	sbrc	r24, 7
    4446:	90 95       	com	r25
    4448:	08 95       	ret

0000444a <strnlen_P>:
    444a:	fc 01       	movw	r30, r24
    444c:	05 90       	lpm	r0, Z+
    444e:	61 50       	subi	r22, 0x01	; 1
    4450:	70 40       	sbci	r23, 0x00	; 0
    4452:	01 10       	cpse	r0, r1
    4454:	d8 f7       	brcc	.-10     	; 0x444c <strnlen_P+0x2>
    4456:	80 95       	com	r24
    4458:	90 95       	com	r25
    445a:	8e 0f       	add	r24, r30
    445c:	9f 1f       	adc	r25, r31
    445e:	08 95       	ret

00004460 <strnlen>:
    4460:	fc 01       	movw	r30, r24
    4462:	61 50       	subi	r22, 0x01	; 1
    4464:	70 40       	sbci	r23, 0x00	; 0
    4466:	01 90       	ld	r0, Z+
    4468:	01 10       	cpse	r0, r1
    446a:	d8 f7       	brcc	.-10     	; 0x4462 <strnlen+0x2>
    446c:	80 95       	com	r24
    446e:	90 95       	com	r25
    4470:	8e 0f       	add	r24, r30
    4472:	9f 1f       	adc	r25, r31
    4474:	08 95       	ret

00004476 <fdevopen>:
    4476:	0f 93       	push	r16
    4478:	1f 93       	push	r17
    447a:	cf 93       	push	r28
    447c:	df 93       	push	r29
    447e:	00 97       	sbiw	r24, 0x00	; 0
    4480:	31 f4       	brne	.+12     	; 0x448e <fdevopen+0x18>
    4482:	61 15       	cp	r22, r1
    4484:	71 05       	cpc	r23, r1
    4486:	19 f4       	brne	.+6      	; 0x448e <fdevopen+0x18>
    4488:	80 e0       	ldi	r24, 0x00	; 0
    448a:	90 e0       	ldi	r25, 0x00	; 0
    448c:	39 c0       	rjmp	.+114    	; 0x4500 <fdevopen+0x8a>
    448e:	8b 01       	movw	r16, r22
    4490:	ec 01       	movw	r28, r24
    4492:	6e e0       	ldi	r22, 0x0E	; 14
    4494:	70 e0       	ldi	r23, 0x00	; 0
    4496:	81 e0       	ldi	r24, 0x01	; 1
    4498:	90 e0       	ldi	r25, 0x00	; 0
    449a:	36 d1       	rcall	.+620    	; 0x4708 <calloc>
    449c:	fc 01       	movw	r30, r24
    449e:	89 2b       	or	r24, r25
    44a0:	99 f3       	breq	.-26     	; 0x4488 <fdevopen+0x12>
    44a2:	80 e8       	ldi	r24, 0x80	; 128
    44a4:	83 83       	std	Z+3, r24	; 0x03
    44a6:	01 15       	cp	r16, r1
    44a8:	11 05       	cpc	r17, r1
    44aa:	71 f0       	breq	.+28     	; 0x44c8 <fdevopen+0x52>
    44ac:	02 87       	std	Z+10, r16	; 0x0a
    44ae:	13 87       	std	Z+11, r17	; 0x0b
    44b0:	81 e8       	ldi	r24, 0x81	; 129
    44b2:	83 83       	std	Z+3, r24	; 0x03
    44b4:	80 91 dc 20 	lds	r24, 0x20DC	; 0x8020dc <__iob>
    44b8:	90 91 dd 20 	lds	r25, 0x20DD	; 0x8020dd <__iob+0x1>
    44bc:	89 2b       	or	r24, r25
    44be:	21 f4       	brne	.+8      	; 0x44c8 <fdevopen+0x52>
    44c0:	e0 93 dc 20 	sts	0x20DC, r30	; 0x8020dc <__iob>
    44c4:	f0 93 dd 20 	sts	0x20DD, r31	; 0x8020dd <__iob+0x1>
    44c8:	20 97       	sbiw	r28, 0x00	; 0
    44ca:	c9 f0       	breq	.+50     	; 0x44fe <fdevopen+0x88>
    44cc:	c0 87       	std	Z+8, r28	; 0x08
    44ce:	d1 87       	std	Z+9, r29	; 0x09
    44d0:	83 81       	ldd	r24, Z+3	; 0x03
    44d2:	82 60       	ori	r24, 0x02	; 2
    44d4:	83 83       	std	Z+3, r24	; 0x03
    44d6:	80 91 de 20 	lds	r24, 0x20DE	; 0x8020de <__iob+0x2>
    44da:	90 91 df 20 	lds	r25, 0x20DF	; 0x8020df <__iob+0x3>
    44de:	89 2b       	or	r24, r25
    44e0:	71 f4       	brne	.+28     	; 0x44fe <fdevopen+0x88>
    44e2:	e0 93 de 20 	sts	0x20DE, r30	; 0x8020de <__iob+0x2>
    44e6:	f0 93 df 20 	sts	0x20DF, r31	; 0x8020df <__iob+0x3>
    44ea:	80 91 e0 20 	lds	r24, 0x20E0	; 0x8020e0 <__iob+0x4>
    44ee:	90 91 e1 20 	lds	r25, 0x20E1	; 0x8020e1 <__iob+0x5>
    44f2:	89 2b       	or	r24, r25
    44f4:	21 f4       	brne	.+8      	; 0x44fe <fdevopen+0x88>
    44f6:	e0 93 e0 20 	sts	0x20E0, r30	; 0x8020e0 <__iob+0x4>
    44fa:	f0 93 e1 20 	sts	0x20E1, r31	; 0x8020e1 <__iob+0x5>
    44fe:	cf 01       	movw	r24, r30
    4500:	df 91       	pop	r29
    4502:	cf 91       	pop	r28
    4504:	1f 91       	pop	r17
    4506:	0f 91       	pop	r16
    4508:	08 95       	ret

0000450a <fputc>:
    450a:	0f 93       	push	r16
    450c:	1f 93       	push	r17
    450e:	cf 93       	push	r28
    4510:	df 93       	push	r29
    4512:	fb 01       	movw	r30, r22
    4514:	23 81       	ldd	r18, Z+3	; 0x03
    4516:	21 fd       	sbrc	r18, 1
    4518:	03 c0       	rjmp	.+6      	; 0x4520 <fputc+0x16>
    451a:	8f ef       	ldi	r24, 0xFF	; 255
    451c:	9f ef       	ldi	r25, 0xFF	; 255
    451e:	2c c0       	rjmp	.+88     	; 0x4578 <fputc+0x6e>
    4520:	22 ff       	sbrs	r18, 2
    4522:	16 c0       	rjmp	.+44     	; 0x4550 <fputc+0x46>
    4524:	46 81       	ldd	r20, Z+6	; 0x06
    4526:	57 81       	ldd	r21, Z+7	; 0x07
    4528:	24 81       	ldd	r18, Z+4	; 0x04
    452a:	35 81       	ldd	r19, Z+5	; 0x05
    452c:	42 17       	cp	r20, r18
    452e:	53 07       	cpc	r21, r19
    4530:	44 f4       	brge	.+16     	; 0x4542 <fputc+0x38>
    4532:	a0 81       	ld	r26, Z
    4534:	b1 81       	ldd	r27, Z+1	; 0x01
    4536:	9d 01       	movw	r18, r26
    4538:	2f 5f       	subi	r18, 0xFF	; 255
    453a:	3f 4f       	sbci	r19, 0xFF	; 255
    453c:	20 83       	st	Z, r18
    453e:	31 83       	std	Z+1, r19	; 0x01
    4540:	8c 93       	st	X, r24
    4542:	26 81       	ldd	r18, Z+6	; 0x06
    4544:	37 81       	ldd	r19, Z+7	; 0x07
    4546:	2f 5f       	subi	r18, 0xFF	; 255
    4548:	3f 4f       	sbci	r19, 0xFF	; 255
    454a:	26 83       	std	Z+6, r18	; 0x06
    454c:	37 83       	std	Z+7, r19	; 0x07
    454e:	14 c0       	rjmp	.+40     	; 0x4578 <fputc+0x6e>
    4550:	8b 01       	movw	r16, r22
    4552:	ec 01       	movw	r28, r24
    4554:	fb 01       	movw	r30, r22
    4556:	00 84       	ldd	r0, Z+8	; 0x08
    4558:	f1 85       	ldd	r31, Z+9	; 0x09
    455a:	e0 2d       	mov	r30, r0
    455c:	19 95       	eicall
    455e:	89 2b       	or	r24, r25
    4560:	e1 f6       	brne	.-72     	; 0x451a <fputc+0x10>
    4562:	d8 01       	movw	r26, r16
    4564:	16 96       	adiw	r26, 0x06	; 6
    4566:	8d 91       	ld	r24, X+
    4568:	9c 91       	ld	r25, X
    456a:	17 97       	sbiw	r26, 0x07	; 7
    456c:	01 96       	adiw	r24, 0x01	; 1
    456e:	16 96       	adiw	r26, 0x06	; 6
    4570:	8d 93       	st	X+, r24
    4572:	9c 93       	st	X, r25
    4574:	17 97       	sbiw	r26, 0x07	; 7
    4576:	ce 01       	movw	r24, r28
    4578:	df 91       	pop	r29
    457a:	cf 91       	pop	r28
    457c:	1f 91       	pop	r17
    457e:	0f 91       	pop	r16
    4580:	08 95       	ret

00004582 <printf>:
    4582:	cf 93       	push	r28
    4584:	df 93       	push	r29
    4586:	cd b7       	in	r28, 0x3d	; 61
    4588:	de b7       	in	r29, 0x3e	; 62
    458a:	ae 01       	movw	r20, r28
    458c:	4a 5f       	subi	r20, 0xFA	; 250
    458e:	5f 4f       	sbci	r21, 0xFF	; 255
    4590:	fa 01       	movw	r30, r20
    4592:	61 91       	ld	r22, Z+
    4594:	71 91       	ld	r23, Z+
    4596:	af 01       	movw	r20, r30
    4598:	80 91 de 20 	lds	r24, 0x20DE	; 0x8020de <__iob+0x2>
    459c:	90 91 df 20 	lds	r25, 0x20DF	; 0x8020df <__iob+0x3>
    45a0:	f3 d9       	rcall	.-3098   	; 0x3988 <vfprintf>
    45a2:	df 91       	pop	r29
    45a4:	cf 91       	pop	r28
    45a6:	08 95       	ret

000045a8 <puts>:
    45a8:	0f 93       	push	r16
    45aa:	1f 93       	push	r17
    45ac:	cf 93       	push	r28
    45ae:	df 93       	push	r29
    45b0:	e0 91 de 20 	lds	r30, 0x20DE	; 0x8020de <__iob+0x2>
    45b4:	f0 91 df 20 	lds	r31, 0x20DF	; 0x8020df <__iob+0x3>
    45b8:	23 81       	ldd	r18, Z+3	; 0x03
    45ba:	21 ff       	sbrs	r18, 1
    45bc:	1b c0       	rjmp	.+54     	; 0x45f4 <puts+0x4c>
    45be:	8c 01       	movw	r16, r24
    45c0:	d0 e0       	ldi	r29, 0x00	; 0
    45c2:	c0 e0       	ldi	r28, 0x00	; 0
    45c4:	f8 01       	movw	r30, r16
    45c6:	81 91       	ld	r24, Z+
    45c8:	8f 01       	movw	r16, r30
    45ca:	60 91 de 20 	lds	r22, 0x20DE	; 0x8020de <__iob+0x2>
    45ce:	70 91 df 20 	lds	r23, 0x20DF	; 0x8020df <__iob+0x3>
    45d2:	db 01       	movw	r26, r22
    45d4:	18 96       	adiw	r26, 0x08	; 8
    45d6:	ed 91       	ld	r30, X+
    45d8:	fc 91       	ld	r31, X
    45da:	19 97       	sbiw	r26, 0x09	; 9
    45dc:	88 23       	and	r24, r24
    45de:	31 f0       	breq	.+12     	; 0x45ec <puts+0x44>
    45e0:	19 95       	eicall
    45e2:	89 2b       	or	r24, r25
    45e4:	79 f3       	breq	.-34     	; 0x45c4 <puts+0x1c>
    45e6:	df ef       	ldi	r29, 0xFF	; 255
    45e8:	cf ef       	ldi	r28, 0xFF	; 255
    45ea:	ec cf       	rjmp	.-40     	; 0x45c4 <puts+0x1c>
    45ec:	8a e0       	ldi	r24, 0x0A	; 10
    45ee:	19 95       	eicall
    45f0:	89 2b       	or	r24, r25
    45f2:	19 f0       	breq	.+6      	; 0x45fa <puts+0x52>
    45f4:	8f ef       	ldi	r24, 0xFF	; 255
    45f6:	9f ef       	ldi	r25, 0xFF	; 255
    45f8:	02 c0       	rjmp	.+4      	; 0x45fe <puts+0x56>
    45fa:	8d 2f       	mov	r24, r29
    45fc:	9c 2f       	mov	r25, r28
    45fe:	df 91       	pop	r29
    4600:	cf 91       	pop	r28
    4602:	1f 91       	pop	r17
    4604:	0f 91       	pop	r16
    4606:	08 95       	ret

00004608 <vsprintf>:
    4608:	0f 93       	push	r16
    460a:	1f 93       	push	r17
    460c:	cf 93       	push	r28
    460e:	df 93       	push	r29
    4610:	cd b7       	in	r28, 0x3d	; 61
    4612:	de b7       	in	r29, 0x3e	; 62
    4614:	2e 97       	sbiw	r28, 0x0e	; 14
    4616:	cd bf       	out	0x3d, r28	; 61
    4618:	de bf       	out	0x3e, r29	; 62
    461a:	8c 01       	movw	r16, r24
    461c:	86 e0       	ldi	r24, 0x06	; 6
    461e:	8c 83       	std	Y+4, r24	; 0x04
    4620:	09 83       	std	Y+1, r16	; 0x01
    4622:	1a 83       	std	Y+2, r17	; 0x02
    4624:	8f ef       	ldi	r24, 0xFF	; 255
    4626:	9f e7       	ldi	r25, 0x7F	; 127
    4628:	8d 83       	std	Y+5, r24	; 0x05
    462a:	9e 83       	std	Y+6, r25	; 0x06
    462c:	ce 01       	movw	r24, r28
    462e:	01 96       	adiw	r24, 0x01	; 1
    4630:	ab d9       	rcall	.-3242   	; 0x3988 <vfprintf>
    4632:	ef 81       	ldd	r30, Y+7	; 0x07
    4634:	f8 85       	ldd	r31, Y+8	; 0x08
    4636:	e0 0f       	add	r30, r16
    4638:	f1 1f       	adc	r31, r17
    463a:	10 82       	st	Z, r1
    463c:	2e 96       	adiw	r28, 0x0e	; 14
    463e:	cd bf       	out	0x3d, r28	; 61
    4640:	de bf       	out	0x3e, r29	; 62
    4642:	df 91       	pop	r29
    4644:	cf 91       	pop	r28
    4646:	1f 91       	pop	r17
    4648:	0f 91       	pop	r16
    464a:	08 95       	ret

0000464c <__ultoa_invert>:
    464c:	fa 01       	movw	r30, r20
    464e:	aa 27       	eor	r26, r26
    4650:	28 30       	cpi	r18, 0x08	; 8
    4652:	51 f1       	breq	.+84     	; 0x46a8 <__ultoa_invert+0x5c>
    4654:	20 31       	cpi	r18, 0x10	; 16
    4656:	81 f1       	breq	.+96     	; 0x46b8 <__ultoa_invert+0x6c>
    4658:	e8 94       	clt
    465a:	6f 93       	push	r22
    465c:	6e 7f       	andi	r22, 0xFE	; 254
    465e:	6e 5f       	subi	r22, 0xFE	; 254
    4660:	7f 4f       	sbci	r23, 0xFF	; 255
    4662:	8f 4f       	sbci	r24, 0xFF	; 255
    4664:	9f 4f       	sbci	r25, 0xFF	; 255
    4666:	af 4f       	sbci	r26, 0xFF	; 255
    4668:	b1 e0       	ldi	r27, 0x01	; 1
    466a:	3e d0       	rcall	.+124    	; 0x46e8 <__ultoa_invert+0x9c>
    466c:	b4 e0       	ldi	r27, 0x04	; 4
    466e:	3c d0       	rcall	.+120    	; 0x46e8 <__ultoa_invert+0x9c>
    4670:	67 0f       	add	r22, r23
    4672:	78 1f       	adc	r23, r24
    4674:	89 1f       	adc	r24, r25
    4676:	9a 1f       	adc	r25, r26
    4678:	a1 1d       	adc	r26, r1
    467a:	68 0f       	add	r22, r24
    467c:	79 1f       	adc	r23, r25
    467e:	8a 1f       	adc	r24, r26
    4680:	91 1d       	adc	r25, r1
    4682:	a1 1d       	adc	r26, r1
    4684:	6a 0f       	add	r22, r26
    4686:	71 1d       	adc	r23, r1
    4688:	81 1d       	adc	r24, r1
    468a:	91 1d       	adc	r25, r1
    468c:	a1 1d       	adc	r26, r1
    468e:	20 d0       	rcall	.+64     	; 0x46d0 <__ultoa_invert+0x84>
    4690:	09 f4       	brne	.+2      	; 0x4694 <__ultoa_invert+0x48>
    4692:	68 94       	set
    4694:	3f 91       	pop	r19
    4696:	2a e0       	ldi	r18, 0x0A	; 10
    4698:	26 9f       	mul	r18, r22
    469a:	11 24       	eor	r1, r1
    469c:	30 19       	sub	r19, r0
    469e:	30 5d       	subi	r19, 0xD0	; 208
    46a0:	31 93       	st	Z+, r19
    46a2:	de f6       	brtc	.-74     	; 0x465a <__ultoa_invert+0xe>
    46a4:	cf 01       	movw	r24, r30
    46a6:	08 95       	ret
    46a8:	46 2f       	mov	r20, r22
    46aa:	47 70       	andi	r20, 0x07	; 7
    46ac:	40 5d       	subi	r20, 0xD0	; 208
    46ae:	41 93       	st	Z+, r20
    46b0:	b3 e0       	ldi	r27, 0x03	; 3
    46b2:	0f d0       	rcall	.+30     	; 0x46d2 <__ultoa_invert+0x86>
    46b4:	c9 f7       	brne	.-14     	; 0x46a8 <__ultoa_invert+0x5c>
    46b6:	f6 cf       	rjmp	.-20     	; 0x46a4 <__ultoa_invert+0x58>
    46b8:	46 2f       	mov	r20, r22
    46ba:	4f 70       	andi	r20, 0x0F	; 15
    46bc:	40 5d       	subi	r20, 0xD0	; 208
    46be:	4a 33       	cpi	r20, 0x3A	; 58
    46c0:	18 f0       	brcs	.+6      	; 0x46c8 <__ultoa_invert+0x7c>
    46c2:	49 5d       	subi	r20, 0xD9	; 217
    46c4:	31 fd       	sbrc	r19, 1
    46c6:	40 52       	subi	r20, 0x20	; 32
    46c8:	41 93       	st	Z+, r20
    46ca:	02 d0       	rcall	.+4      	; 0x46d0 <__ultoa_invert+0x84>
    46cc:	a9 f7       	brne	.-22     	; 0x46b8 <__ultoa_invert+0x6c>
    46ce:	ea cf       	rjmp	.-44     	; 0x46a4 <__ultoa_invert+0x58>
    46d0:	b4 e0       	ldi	r27, 0x04	; 4
    46d2:	a6 95       	lsr	r26
    46d4:	97 95       	ror	r25
    46d6:	87 95       	ror	r24
    46d8:	77 95       	ror	r23
    46da:	67 95       	ror	r22
    46dc:	ba 95       	dec	r27
    46de:	c9 f7       	brne	.-14     	; 0x46d2 <__ultoa_invert+0x86>
    46e0:	00 97       	sbiw	r24, 0x00	; 0
    46e2:	61 05       	cpc	r22, r1
    46e4:	71 05       	cpc	r23, r1
    46e6:	08 95       	ret
    46e8:	9b 01       	movw	r18, r22
    46ea:	ac 01       	movw	r20, r24
    46ec:	0a 2e       	mov	r0, r26
    46ee:	06 94       	lsr	r0
    46f0:	57 95       	ror	r21
    46f2:	47 95       	ror	r20
    46f4:	37 95       	ror	r19
    46f6:	27 95       	ror	r18
    46f8:	ba 95       	dec	r27
    46fa:	c9 f7       	brne	.-14     	; 0x46ee <__ultoa_invert+0xa2>
    46fc:	62 0f       	add	r22, r18
    46fe:	73 1f       	adc	r23, r19
    4700:	84 1f       	adc	r24, r20
    4702:	95 1f       	adc	r25, r21
    4704:	a0 1d       	adc	r26, r0
    4706:	08 95       	ret

00004708 <calloc>:
    4708:	0f 93       	push	r16
    470a:	1f 93       	push	r17
    470c:	cf 93       	push	r28
    470e:	df 93       	push	r29
    4710:	86 9f       	mul	r24, r22
    4712:	80 01       	movw	r16, r0
    4714:	87 9f       	mul	r24, r23
    4716:	10 0d       	add	r17, r0
    4718:	96 9f       	mul	r25, r22
    471a:	10 0d       	add	r17, r0
    471c:	11 24       	eor	r1, r1
    471e:	c8 01       	movw	r24, r16
    4720:	0d d0       	rcall	.+26     	; 0x473c <malloc>
    4722:	ec 01       	movw	r28, r24
    4724:	00 97       	sbiw	r24, 0x00	; 0
    4726:	21 f0       	breq	.+8      	; 0x4730 <calloc+0x28>
    4728:	a8 01       	movw	r20, r16
    472a:	60 e0       	ldi	r22, 0x00	; 0
    472c:	70 e0       	ldi	r23, 0x00	; 0
    472e:	27 d1       	rcall	.+590    	; 0x497e <memset>
    4730:	ce 01       	movw	r24, r28
    4732:	df 91       	pop	r29
    4734:	cf 91       	pop	r28
    4736:	1f 91       	pop	r17
    4738:	0f 91       	pop	r16
    473a:	08 95       	ret

0000473c <malloc>:
    473c:	0f 93       	push	r16
    473e:	1f 93       	push	r17
    4740:	cf 93       	push	r28
    4742:	df 93       	push	r29
    4744:	82 30       	cpi	r24, 0x02	; 2
    4746:	91 05       	cpc	r25, r1
    4748:	10 f4       	brcc	.+4      	; 0x474e <malloc+0x12>
    474a:	82 e0       	ldi	r24, 0x02	; 2
    474c:	90 e0       	ldi	r25, 0x00	; 0
    474e:	e0 91 e4 20 	lds	r30, 0x20E4	; 0x8020e4 <__flp>
    4752:	f0 91 e5 20 	lds	r31, 0x20E5	; 0x8020e5 <__flp+0x1>
    4756:	20 e0       	ldi	r18, 0x00	; 0
    4758:	30 e0       	ldi	r19, 0x00	; 0
    475a:	a0 e0       	ldi	r26, 0x00	; 0
    475c:	b0 e0       	ldi	r27, 0x00	; 0
    475e:	30 97       	sbiw	r30, 0x00	; 0
    4760:	19 f1       	breq	.+70     	; 0x47a8 <malloc+0x6c>
    4762:	40 81       	ld	r20, Z
    4764:	51 81       	ldd	r21, Z+1	; 0x01
    4766:	02 81       	ldd	r16, Z+2	; 0x02
    4768:	13 81       	ldd	r17, Z+3	; 0x03
    476a:	48 17       	cp	r20, r24
    476c:	59 07       	cpc	r21, r25
    476e:	c8 f0       	brcs	.+50     	; 0x47a2 <malloc+0x66>
    4770:	84 17       	cp	r24, r20
    4772:	95 07       	cpc	r25, r21
    4774:	69 f4       	brne	.+26     	; 0x4790 <malloc+0x54>
    4776:	10 97       	sbiw	r26, 0x00	; 0
    4778:	31 f0       	breq	.+12     	; 0x4786 <malloc+0x4a>
    477a:	12 96       	adiw	r26, 0x02	; 2
    477c:	0c 93       	st	X, r16
    477e:	12 97       	sbiw	r26, 0x02	; 2
    4780:	13 96       	adiw	r26, 0x03	; 3
    4782:	1c 93       	st	X, r17
    4784:	27 c0       	rjmp	.+78     	; 0x47d4 <malloc+0x98>
    4786:	00 93 e4 20 	sts	0x20E4, r16	; 0x8020e4 <__flp>
    478a:	10 93 e5 20 	sts	0x20E5, r17	; 0x8020e5 <__flp+0x1>
    478e:	22 c0       	rjmp	.+68     	; 0x47d4 <malloc+0x98>
    4790:	21 15       	cp	r18, r1
    4792:	31 05       	cpc	r19, r1
    4794:	19 f0       	breq	.+6      	; 0x479c <malloc+0x60>
    4796:	42 17       	cp	r20, r18
    4798:	53 07       	cpc	r21, r19
    479a:	18 f4       	brcc	.+6      	; 0x47a2 <malloc+0x66>
    479c:	9a 01       	movw	r18, r20
    479e:	bd 01       	movw	r22, r26
    47a0:	ef 01       	movw	r28, r30
    47a2:	df 01       	movw	r26, r30
    47a4:	f8 01       	movw	r30, r16
    47a6:	db cf       	rjmp	.-74     	; 0x475e <malloc+0x22>
    47a8:	21 15       	cp	r18, r1
    47aa:	31 05       	cpc	r19, r1
    47ac:	f9 f0       	breq	.+62     	; 0x47ec <malloc+0xb0>
    47ae:	28 1b       	sub	r18, r24
    47b0:	39 0b       	sbc	r19, r25
    47b2:	24 30       	cpi	r18, 0x04	; 4
    47b4:	31 05       	cpc	r19, r1
    47b6:	80 f4       	brcc	.+32     	; 0x47d8 <malloc+0x9c>
    47b8:	8a 81       	ldd	r24, Y+2	; 0x02
    47ba:	9b 81       	ldd	r25, Y+3	; 0x03
    47bc:	61 15       	cp	r22, r1
    47be:	71 05       	cpc	r23, r1
    47c0:	21 f0       	breq	.+8      	; 0x47ca <malloc+0x8e>
    47c2:	fb 01       	movw	r30, r22
    47c4:	82 83       	std	Z+2, r24	; 0x02
    47c6:	93 83       	std	Z+3, r25	; 0x03
    47c8:	04 c0       	rjmp	.+8      	; 0x47d2 <malloc+0x96>
    47ca:	80 93 e4 20 	sts	0x20E4, r24	; 0x8020e4 <__flp>
    47ce:	90 93 e5 20 	sts	0x20E5, r25	; 0x8020e5 <__flp+0x1>
    47d2:	fe 01       	movw	r30, r28
    47d4:	32 96       	adiw	r30, 0x02	; 2
    47d6:	44 c0       	rjmp	.+136    	; 0x4860 <malloc+0x124>
    47d8:	fe 01       	movw	r30, r28
    47da:	e2 0f       	add	r30, r18
    47dc:	f3 1f       	adc	r31, r19
    47de:	81 93       	st	Z+, r24
    47e0:	91 93       	st	Z+, r25
    47e2:	22 50       	subi	r18, 0x02	; 2
    47e4:	31 09       	sbc	r19, r1
    47e6:	28 83       	st	Y, r18
    47e8:	39 83       	std	Y+1, r19	; 0x01
    47ea:	3a c0       	rjmp	.+116    	; 0x4860 <malloc+0x124>
    47ec:	20 91 e2 20 	lds	r18, 0x20E2	; 0x8020e2 <__brkval>
    47f0:	30 91 e3 20 	lds	r19, 0x20E3	; 0x8020e3 <__brkval+0x1>
    47f4:	23 2b       	or	r18, r19
    47f6:	41 f4       	brne	.+16     	; 0x4808 <malloc+0xcc>
    47f8:	20 91 02 20 	lds	r18, 0x2002	; 0x802002 <__malloc_heap_start>
    47fc:	30 91 03 20 	lds	r19, 0x2003	; 0x802003 <__malloc_heap_start+0x1>
    4800:	20 93 e2 20 	sts	0x20E2, r18	; 0x8020e2 <__brkval>
    4804:	30 93 e3 20 	sts	0x20E3, r19	; 0x8020e3 <__brkval+0x1>
    4808:	20 91 00 20 	lds	r18, 0x2000	; 0x802000 <__data_start>
    480c:	30 91 01 20 	lds	r19, 0x2001	; 0x802001 <__data_start+0x1>
    4810:	21 15       	cp	r18, r1
    4812:	31 05       	cpc	r19, r1
    4814:	41 f4       	brne	.+16     	; 0x4826 <malloc+0xea>
    4816:	2d b7       	in	r18, 0x3d	; 61
    4818:	3e b7       	in	r19, 0x3e	; 62
    481a:	40 91 04 20 	lds	r20, 0x2004	; 0x802004 <__malloc_margin>
    481e:	50 91 05 20 	lds	r21, 0x2005	; 0x802005 <__malloc_margin+0x1>
    4822:	24 1b       	sub	r18, r20
    4824:	35 0b       	sbc	r19, r21
    4826:	e0 91 e2 20 	lds	r30, 0x20E2	; 0x8020e2 <__brkval>
    482a:	f0 91 e3 20 	lds	r31, 0x20E3	; 0x8020e3 <__brkval+0x1>
    482e:	e2 17       	cp	r30, r18
    4830:	f3 07       	cpc	r31, r19
    4832:	a0 f4       	brcc	.+40     	; 0x485c <malloc+0x120>
    4834:	2e 1b       	sub	r18, r30
    4836:	3f 0b       	sbc	r19, r31
    4838:	28 17       	cp	r18, r24
    483a:	39 07       	cpc	r19, r25
    483c:	78 f0       	brcs	.+30     	; 0x485c <malloc+0x120>
    483e:	ac 01       	movw	r20, r24
    4840:	4e 5f       	subi	r20, 0xFE	; 254
    4842:	5f 4f       	sbci	r21, 0xFF	; 255
    4844:	24 17       	cp	r18, r20
    4846:	35 07       	cpc	r19, r21
    4848:	48 f0       	brcs	.+18     	; 0x485c <malloc+0x120>
    484a:	4e 0f       	add	r20, r30
    484c:	5f 1f       	adc	r21, r31
    484e:	40 93 e2 20 	sts	0x20E2, r20	; 0x8020e2 <__brkval>
    4852:	50 93 e3 20 	sts	0x20E3, r21	; 0x8020e3 <__brkval+0x1>
    4856:	81 93       	st	Z+, r24
    4858:	91 93       	st	Z+, r25
    485a:	02 c0       	rjmp	.+4      	; 0x4860 <malloc+0x124>
    485c:	e0 e0       	ldi	r30, 0x00	; 0
    485e:	f0 e0       	ldi	r31, 0x00	; 0
    4860:	cf 01       	movw	r24, r30
    4862:	df 91       	pop	r29
    4864:	cf 91       	pop	r28
    4866:	1f 91       	pop	r17
    4868:	0f 91       	pop	r16
    486a:	08 95       	ret

0000486c <free>:
    486c:	cf 93       	push	r28
    486e:	df 93       	push	r29
    4870:	00 97       	sbiw	r24, 0x00	; 0
    4872:	09 f4       	brne	.+2      	; 0x4876 <free+0xa>
    4874:	81 c0       	rjmp	.+258    	; 0x4978 <free+0x10c>
    4876:	fc 01       	movw	r30, r24
    4878:	32 97       	sbiw	r30, 0x02	; 2
    487a:	12 82       	std	Z+2, r1	; 0x02
    487c:	13 82       	std	Z+3, r1	; 0x03
    487e:	a0 91 e4 20 	lds	r26, 0x20E4	; 0x8020e4 <__flp>
    4882:	b0 91 e5 20 	lds	r27, 0x20E5	; 0x8020e5 <__flp+0x1>
    4886:	10 97       	sbiw	r26, 0x00	; 0
    4888:	81 f4       	brne	.+32     	; 0x48aa <free+0x3e>
    488a:	20 81       	ld	r18, Z
    488c:	31 81       	ldd	r19, Z+1	; 0x01
    488e:	82 0f       	add	r24, r18
    4890:	93 1f       	adc	r25, r19
    4892:	20 91 e2 20 	lds	r18, 0x20E2	; 0x8020e2 <__brkval>
    4896:	30 91 e3 20 	lds	r19, 0x20E3	; 0x8020e3 <__brkval+0x1>
    489a:	28 17       	cp	r18, r24
    489c:	39 07       	cpc	r19, r25
    489e:	51 f5       	brne	.+84     	; 0x48f4 <free+0x88>
    48a0:	e0 93 e2 20 	sts	0x20E2, r30	; 0x8020e2 <__brkval>
    48a4:	f0 93 e3 20 	sts	0x20E3, r31	; 0x8020e3 <__brkval+0x1>
    48a8:	67 c0       	rjmp	.+206    	; 0x4978 <free+0x10c>
    48aa:	ed 01       	movw	r28, r26
    48ac:	20 e0       	ldi	r18, 0x00	; 0
    48ae:	30 e0       	ldi	r19, 0x00	; 0
    48b0:	ce 17       	cp	r28, r30
    48b2:	df 07       	cpc	r29, r31
    48b4:	40 f4       	brcc	.+16     	; 0x48c6 <free+0x5a>
    48b6:	4a 81       	ldd	r20, Y+2	; 0x02
    48b8:	5b 81       	ldd	r21, Y+3	; 0x03
    48ba:	9e 01       	movw	r18, r28
    48bc:	41 15       	cp	r20, r1
    48be:	51 05       	cpc	r21, r1
    48c0:	f1 f0       	breq	.+60     	; 0x48fe <free+0x92>
    48c2:	ea 01       	movw	r28, r20
    48c4:	f5 cf       	rjmp	.-22     	; 0x48b0 <free+0x44>
    48c6:	c2 83       	std	Z+2, r28	; 0x02
    48c8:	d3 83       	std	Z+3, r29	; 0x03
    48ca:	40 81       	ld	r20, Z
    48cc:	51 81       	ldd	r21, Z+1	; 0x01
    48ce:	84 0f       	add	r24, r20
    48d0:	95 1f       	adc	r25, r21
    48d2:	c8 17       	cp	r28, r24
    48d4:	d9 07       	cpc	r29, r25
    48d6:	59 f4       	brne	.+22     	; 0x48ee <free+0x82>
    48d8:	88 81       	ld	r24, Y
    48da:	99 81       	ldd	r25, Y+1	; 0x01
    48dc:	84 0f       	add	r24, r20
    48de:	95 1f       	adc	r25, r21
    48e0:	02 96       	adiw	r24, 0x02	; 2
    48e2:	80 83       	st	Z, r24
    48e4:	91 83       	std	Z+1, r25	; 0x01
    48e6:	8a 81       	ldd	r24, Y+2	; 0x02
    48e8:	9b 81       	ldd	r25, Y+3	; 0x03
    48ea:	82 83       	std	Z+2, r24	; 0x02
    48ec:	93 83       	std	Z+3, r25	; 0x03
    48ee:	21 15       	cp	r18, r1
    48f0:	31 05       	cpc	r19, r1
    48f2:	29 f4       	brne	.+10     	; 0x48fe <free+0x92>
    48f4:	e0 93 e4 20 	sts	0x20E4, r30	; 0x8020e4 <__flp>
    48f8:	f0 93 e5 20 	sts	0x20E5, r31	; 0x8020e5 <__flp+0x1>
    48fc:	3d c0       	rjmp	.+122    	; 0x4978 <free+0x10c>
    48fe:	e9 01       	movw	r28, r18
    4900:	ea 83       	std	Y+2, r30	; 0x02
    4902:	fb 83       	std	Y+3, r31	; 0x03
    4904:	49 91       	ld	r20, Y+
    4906:	59 91       	ld	r21, Y+
    4908:	c4 0f       	add	r28, r20
    490a:	d5 1f       	adc	r29, r21
    490c:	ec 17       	cp	r30, r28
    490e:	fd 07       	cpc	r31, r29
    4910:	61 f4       	brne	.+24     	; 0x492a <free+0xbe>
    4912:	80 81       	ld	r24, Z
    4914:	91 81       	ldd	r25, Z+1	; 0x01
    4916:	84 0f       	add	r24, r20
    4918:	95 1f       	adc	r25, r21
    491a:	02 96       	adiw	r24, 0x02	; 2
    491c:	e9 01       	movw	r28, r18
    491e:	88 83       	st	Y, r24
    4920:	99 83       	std	Y+1, r25	; 0x01
    4922:	82 81       	ldd	r24, Z+2	; 0x02
    4924:	93 81       	ldd	r25, Z+3	; 0x03
    4926:	8a 83       	std	Y+2, r24	; 0x02
    4928:	9b 83       	std	Y+3, r25	; 0x03
    492a:	e0 e0       	ldi	r30, 0x00	; 0
    492c:	f0 e0       	ldi	r31, 0x00	; 0
    492e:	12 96       	adiw	r26, 0x02	; 2
    4930:	8d 91       	ld	r24, X+
    4932:	9c 91       	ld	r25, X
    4934:	13 97       	sbiw	r26, 0x03	; 3
    4936:	00 97       	sbiw	r24, 0x00	; 0
    4938:	19 f0       	breq	.+6      	; 0x4940 <free+0xd4>
    493a:	fd 01       	movw	r30, r26
    493c:	dc 01       	movw	r26, r24
    493e:	f7 cf       	rjmp	.-18     	; 0x492e <free+0xc2>
    4940:	8d 91       	ld	r24, X+
    4942:	9c 91       	ld	r25, X
    4944:	11 97       	sbiw	r26, 0x01	; 1
    4946:	9d 01       	movw	r18, r26
    4948:	2e 5f       	subi	r18, 0xFE	; 254
    494a:	3f 4f       	sbci	r19, 0xFF	; 255
    494c:	82 0f       	add	r24, r18
    494e:	93 1f       	adc	r25, r19
    4950:	20 91 e2 20 	lds	r18, 0x20E2	; 0x8020e2 <__brkval>
    4954:	30 91 e3 20 	lds	r19, 0x20E3	; 0x8020e3 <__brkval+0x1>
    4958:	28 17       	cp	r18, r24
    495a:	39 07       	cpc	r19, r25
    495c:	69 f4       	brne	.+26     	; 0x4978 <free+0x10c>
    495e:	30 97       	sbiw	r30, 0x00	; 0
    4960:	29 f4       	brne	.+10     	; 0x496c <free+0x100>
    4962:	10 92 e4 20 	sts	0x20E4, r1	; 0x8020e4 <__flp>
    4966:	10 92 e5 20 	sts	0x20E5, r1	; 0x8020e5 <__flp+0x1>
    496a:	02 c0       	rjmp	.+4      	; 0x4970 <free+0x104>
    496c:	12 82       	std	Z+2, r1	; 0x02
    496e:	13 82       	std	Z+3, r1	; 0x03
    4970:	a0 93 e2 20 	sts	0x20E2, r26	; 0x8020e2 <__brkval>
    4974:	b0 93 e3 20 	sts	0x20E3, r27	; 0x8020e3 <__brkval+0x1>
    4978:	df 91       	pop	r29
    497a:	cf 91       	pop	r28
    497c:	08 95       	ret

0000497e <memset>:
    497e:	dc 01       	movw	r26, r24
    4980:	01 c0       	rjmp	.+2      	; 0x4984 <memset+0x6>
    4982:	6d 93       	st	X+, r22
    4984:	41 50       	subi	r20, 0x01	; 1
    4986:	50 40       	sbci	r21, 0x00	; 0
    4988:	e0 f7       	brcc	.-8      	; 0x4982 <memset+0x4>
    498a:	08 95       	ret

0000498c <_exit>:
    498c:	f8 94       	cli

0000498e <__stop_program>:
    498e:	ff cf       	rjmp	.-2      	; 0x498e <__stop_program>
