
CanSat Probe Code.elf:     file format elf32-avr

Sections:
Idx Name          Size      VMA       LMA       File off  Algn
  0 .text         0000474a  00000000  00000000  00000094  2**1
                  CONTENTS, ALLOC, LOAD, READONLY, CODE
  1 .data         00000058  00802000  0000474a  000047de  2**0
                  CONTENTS, ALLOC, LOAD, DATA
  2 .bss          00000080  00802058  00802058  00004836  2**0
                  ALLOC
  3 .comment      0000005c  00000000  00000000  00004836  2**0
                  CONTENTS, READONLY
  4 .note.gnu.avr.deviceinfo 00000040  00000000  00000000  00004894  2**2
                  CONTENTS, READONLY
  5 .debug_aranges 00000598  00000000  00000000  000048d8  2**3
                  CONTENTS, READONLY, DEBUGGING
  6 .debug_info   00010c11  00000000  00000000  00004e70  2**0
                  CONTENTS, READONLY, DEBUGGING
  7 .debug_abbrev 00005e05  00000000  00000000  00015a81  2**0
                  CONTENTS, READONLY, DEBUGGING
  8 .debug_line   00009374  00000000  00000000  0001b886  2**0
                  CONTENTS, READONLY, DEBUGGING
  9 .debug_frame  00001c64  00000000  00000000  00024bfc  2**2
                  CONTENTS, READONLY, DEBUGGING
 10 .debug_str    00034c8f  00000000  00000000  00026860  2**0
                  CONTENTS, READONLY, DEBUGGING
 11 .debug_loc    00005fca  00000000  00000000  0005b4ef  2**0
                  CONTENTS, READONLY, DEBUGGING
 12 .debug_ranges 00000500  00000000  00000000  000614c0  2**3
                  CONTENTS, READONLY, DEBUGGING
 13 .debug_macro  0000c280  00000000  00000000  000619c0  2**0
                  CONTENTS, READONLY, DEBUGGING

Disassembly of section .text:

00000000 <__vectors>:
       0:	fe c1       	rjmp	.+1020   	; 0x3fe <__ctors_end>
       2:	00 00       	nop
       4:	22 c2       	rjmp	.+1092   	; 0x44a <__bad_interrupt>
       6:	00 00       	nop
       8:	20 c2       	rjmp	.+1088   	; 0x44a <__bad_interrupt>
       a:	00 00       	nop
       c:	1e c2       	rjmp	.+1084   	; 0x44a <__bad_interrupt>
       e:	00 00       	nop
      10:	1c c2       	rjmp	.+1080   	; 0x44a <__bad_interrupt>
      12:	00 00       	nop
      14:	1a c2       	rjmp	.+1076   	; 0x44a <__bad_interrupt>
      16:	00 00       	nop
      18:	18 c2       	rjmp	.+1072   	; 0x44a <__bad_interrupt>
      1a:	00 00       	nop
      1c:	16 c2       	rjmp	.+1068   	; 0x44a <__bad_interrupt>
      1e:	00 00       	nop
      20:	14 c2       	rjmp	.+1064   	; 0x44a <__bad_interrupt>
      22:	00 00       	nop
      24:	12 c2       	rjmp	.+1060   	; 0x44a <__bad_interrupt>
      26:	00 00       	nop
      28:	10 c2       	rjmp	.+1056   	; 0x44a <__bad_interrupt>
      2a:	00 00       	nop
      2c:	0e c2       	rjmp	.+1052   	; 0x44a <__bad_interrupt>
      2e:	00 00       	nop
      30:	0c c2       	rjmp	.+1048   	; 0x44a <__bad_interrupt>
      32:	00 00       	nop
      34:	a2 c2       	rjmp	.+1348   	; 0x57a <__vector_13>
      36:	00 00       	nop
      38:	ea c5       	rjmp	.+3028   	; 0xc0e <__vector_14>
      3a:	00 00       	nop
      3c:	20 c6       	rjmp	.+3136   	; 0xc7e <__vector_15>
      3e:	00 00       	nop
      40:	56 c6       	rjmp	.+3244   	; 0xcee <__vector_16>
      42:	00 00       	nop
      44:	8c c6       	rjmp	.+3352   	; 0xd5e <__vector_17>
      46:	00 00       	nop
      48:	c2 c6       	rjmp	.+3460   	; 0xdce <__vector_18>
      4a:	00 00       	nop
      4c:	f8 c6       	rjmp	.+3568   	; 0xe3e <__vector_19>
      4e:	00 00       	nop
      50:	2e c7       	rjmp	.+3676   	; 0xeae <__vector_20>
      52:	00 00       	nop
      54:	64 c7       	rjmp	.+3784   	; 0xf1e <__vector_21>
      56:	00 00       	nop
      58:	9a c7       	rjmp	.+3892   	; 0xf8e <__vector_22>
      5a:	00 00       	nop
      5c:	d0 c7       	rjmp	.+4000   	; 0xffe <__vector_23>
      5e:	00 00       	nop
      60:	f4 c1       	rjmp	.+1000   	; 0x44a <__bad_interrupt>
      62:	00 00       	nop
      64:	f2 c1       	rjmp	.+996    	; 0x44a <__bad_interrupt>
      66:	00 00       	nop
      68:	f0 c1       	rjmp	.+992    	; 0x44a <__bad_interrupt>
      6a:	00 00       	nop
      6c:	ee c1       	rjmp	.+988    	; 0x44a <__bad_interrupt>
      6e:	00 00       	nop
      70:	ec c1       	rjmp	.+984    	; 0x44a <__bad_interrupt>
      72:	00 00       	nop
      74:	ea c1       	rjmp	.+980    	; 0x44a <__bad_interrupt>
      76:	00 00       	nop
      78:	e8 c1       	rjmp	.+976    	; 0x44a <__bad_interrupt>
      7a:	00 00       	nop
      7c:	e6 c1       	rjmp	.+972    	; 0x44a <__bad_interrupt>
      7e:	00 00       	nop
      80:	e4 c1       	rjmp	.+968    	; 0x44a <__bad_interrupt>
      82:	00 00       	nop
      84:	e2 c1       	rjmp	.+964    	; 0x44a <__bad_interrupt>
      86:	00 00       	nop
      88:	e0 c1       	rjmp	.+960    	; 0x44a <__bad_interrupt>
      8a:	00 00       	nop
      8c:	de c1       	rjmp	.+956    	; 0x44a <__bad_interrupt>
      8e:	00 00       	nop
      90:	dc c1       	rjmp	.+952    	; 0x44a <__bad_interrupt>
      92:	00 00       	nop
      94:	da c1       	rjmp	.+948    	; 0x44a <__bad_interrupt>
      96:	00 00       	nop
      98:	d8 c1       	rjmp	.+944    	; 0x44a <__bad_interrupt>
      9a:	00 00       	nop
      9c:	b4 c4       	rjmp	.+2408   	; 0xa06 <__vector_39>
      9e:	00 00       	nop
      a0:	ef c4       	rjmp	.+2526   	; 0xa80 <__vector_40>
      a2:	00 00       	nop
      a4:	2a c5       	rjmp	.+2644   	; 0xafa <__vector_41>
      a6:	00 00       	nop
      a8:	65 c5       	rjmp	.+2762   	; 0xb74 <__vector_42>
      aa:	00 00       	nop
      ac:	ce c1       	rjmp	.+924    	; 0x44a <__bad_interrupt>
      ae:	00 00       	nop
      b0:	cc c1       	rjmp	.+920    	; 0x44a <__bad_interrupt>
      b2:	00 00       	nop
      b4:	ca c1       	rjmp	.+916    	; 0x44a <__bad_interrupt>
      b6:	00 00       	nop
      b8:	c4 c2       	rjmp	.+1416   	; 0x642 <__vector_46>
      ba:	00 00       	nop
      bc:	0c 94 67 0a 	jmp	0x14ce	; 0x14ce <__vector_47>
      c0:	0c 94 9f 0a 	jmp	0x153e	; 0x153e <__vector_48>
      c4:	0c 94 d7 0a 	jmp	0x15ae	; 0x15ae <__vector_49>
      c8:	0c 94 0f 0b 	jmp	0x161e	; 0x161e <__vector_50>
      cc:	0c 94 47 0b 	jmp	0x168e	; 0x168e <__vector_51>
      d0:	0c 94 7f 0b 	jmp	0x16fe	; 0x16fe <__vector_52>
      d4:	0c 94 b7 0b 	jmp	0x176e	; 0x176e <__vector_53>
      d8:	0c 94 ef 0b 	jmp	0x17de	; 0x17de <__vector_54>
      dc:	0c 94 27 0c 	jmp	0x184e	; 0x184e <__vector_55>
      e0:	0c 94 5f 0c 	jmp	0x18be	; 0x18be <__vector_56>
      e4:	b2 c1       	rjmp	.+868    	; 0x44a <__bad_interrupt>
      e6:	00 00       	nop
      e8:	b0 c1       	rjmp	.+864    	; 0x44a <__bad_interrupt>
      ea:	00 00       	nop
      ec:	ae c1       	rjmp	.+860    	; 0x44a <__bad_interrupt>
      ee:	00 00       	nop
      f0:	ac c1       	rjmp	.+856    	; 0x44a <__bad_interrupt>
      f2:	00 00       	nop
      f4:	aa c1       	rjmp	.+852    	; 0x44a <__bad_interrupt>
      f6:	00 00       	nop
      f8:	a8 c1       	rjmp	.+848    	; 0x44a <__bad_interrupt>
      fa:	00 00       	nop
      fc:	a6 c1       	rjmp	.+844    	; 0x44a <__bad_interrupt>
      fe:	00 00       	nop
     100:	a4 c1       	rjmp	.+840    	; 0x44a <__bad_interrupt>
     102:	00 00       	nop
     104:	a2 c1       	rjmp	.+836    	; 0x44a <__bad_interrupt>
     106:	00 00       	nop
     108:	a0 c1       	rjmp	.+832    	; 0x44a <__bad_interrupt>
     10a:	00 00       	nop
     10c:	9e c1       	rjmp	.+828    	; 0x44a <__bad_interrupt>
     10e:	00 00       	nop
     110:	9c c1       	rjmp	.+824    	; 0x44a <__bad_interrupt>
     112:	00 00       	nop
     114:	9a c1       	rjmp	.+820    	; 0x44a <__bad_interrupt>
     116:	00 00       	nop
     118:	98 c1       	rjmp	.+816    	; 0x44a <__bad_interrupt>
     11a:	00 00       	nop
     11c:	80 c3       	rjmp	.+1792   	; 0x81e <__vector_71>
     11e:	00 00       	nop
     120:	bb c3       	rjmp	.+1910   	; 0x898 <__vector_72>
     122:	00 00       	nop
     124:	f6 c3       	rjmp	.+2028   	; 0x912 <__vector_73>
     126:	00 00       	nop
     128:	31 c4       	rjmp	.+2146   	; 0x98c <__vector_74>
     12a:	00 00       	nop
     12c:	8e c1       	rjmp	.+796    	; 0x44a <__bad_interrupt>
     12e:	00 00       	nop
     130:	56 c2       	rjmp	.+1196   	; 0x5de <__vector_76>
     132:	00 00       	nop
     134:	9c c7       	rjmp	.+3896   	; 0x106e <__vector_77>
     136:	00 00       	nop
     138:	d2 c7       	rjmp	.+4004   	; 0x10de <__vector_78>
     13a:	00 00       	nop
     13c:	0c 94 a7 08 	jmp	0x114e	; 0x114e <__vector_79>
     140:	0c 94 df 08 	jmp	0x11be	; 0x11be <__vector_80>
     144:	0c 94 17 09 	jmp	0x122e	; 0x122e <__vector_81>
     148:	0c 94 4f 09 	jmp	0x129e	; 0x129e <__vector_82>
     14c:	0c 94 87 09 	jmp	0x130e	; 0x130e <__vector_83>
     150:	0c 94 bf 09 	jmp	0x137e	; 0x137e <__vector_84>
     154:	0c 94 f7 09 	jmp	0x13ee	; 0x13ee <__vector_85>
     158:	0c 94 2f 0a 	jmp	0x145e	; 0x145e <__vector_86>
     15c:	76 c1       	rjmp	.+748    	; 0x44a <__bad_interrupt>
     15e:	00 00       	nop
     160:	0c 94 c1 15 	jmp	0x2b82	; 0x2b82 <__vector_88>
     164:	72 c1       	rjmp	.+740    	; 0x44a <__bad_interrupt>
     166:	00 00       	nop
     168:	70 c1       	rjmp	.+736    	; 0x44a <__bad_interrupt>
     16a:	00 00       	nop
     16c:	6e c1       	rjmp	.+732    	; 0x44a <__bad_interrupt>
     16e:	00 00       	nop
     170:	6c c1       	rjmp	.+728    	; 0x44a <__bad_interrupt>
     172:	00 00       	nop
     174:	6a c1       	rjmp	.+724    	; 0x44a <__bad_interrupt>
     176:	00 00       	nop
     178:	68 c1       	rjmp	.+720    	; 0x44a <__bad_interrupt>
     17a:	00 00       	nop
     17c:	66 c1       	rjmp	.+716    	; 0x44a <__bad_interrupt>
     17e:	00 00       	nop
     180:	64 c1       	rjmp	.+712    	; 0x44a <__bad_interrupt>
     182:	00 00       	nop
     184:	62 c1       	rjmp	.+708    	; 0x44a <__bad_interrupt>
     186:	00 00       	nop
     188:	60 c1       	rjmp	.+704    	; 0x44a <__bad_interrupt>
     18a:	00 00       	nop
     18c:	5e c1       	rjmp	.+700    	; 0x44a <__bad_interrupt>
     18e:	00 00       	nop
     190:	5c c1       	rjmp	.+696    	; 0x44a <__bad_interrupt>
     192:	00 00       	nop
     194:	5a c1       	rjmp	.+692    	; 0x44a <__bad_interrupt>
     196:	00 00       	nop
     198:	58 c1       	rjmp	.+688    	; 0x44a <__bad_interrupt>
     19a:	00 00       	nop
     19c:	56 c1       	rjmp	.+684    	; 0x44a <__bad_interrupt>
     19e:	00 00       	nop
     1a0:	54 c1       	rjmp	.+680    	; 0x44a <__bad_interrupt>
     1a2:	00 00       	nop
     1a4:	52 c1       	rjmp	.+676    	; 0x44a <__bad_interrupt>
     1a6:	00 00       	nop
     1a8:	50 c1       	rjmp	.+672    	; 0x44a <__bad_interrupt>
     1aa:	00 00       	nop
     1ac:	7c c2       	rjmp	.+1272   	; 0x6a6 <__vector_107>
     1ae:	00 00       	nop
     1b0:	0c 94 97 0c 	jmp	0x192e	; 0x192e <__vector_108>
     1b4:	0c 94 cf 0c 	jmp	0x199e	; 0x199e <__vector_109>
     1b8:	0c 94 07 0d 	jmp	0x1a0e	; 0x1a0e <__vector_110>
     1bc:	0c 94 3f 0d 	jmp	0x1a7e	; 0x1a7e <__vector_111>
     1c0:	0c 94 77 0d 	jmp	0x1aee	; 0x1aee <__vector_112>
     1c4:	0c 94 af 0d 	jmp	0x1b5e	; 0x1b5e <__vector_113>
     1c8:	0c 94 e7 0d 	jmp	0x1bce	; 0x1bce <__vector_114>
     1cc:	0c 94 1f 0e 	jmp	0x1c3e	; 0x1c3e <__vector_115>
     1d0:	0c 94 57 0e 	jmp	0x1cae	; 0x1cae <__vector_116>
     1d4:	0c 94 8f 0e 	jmp	0x1d1e	; 0x1d1e <__vector_117>
     1d8:	38 c1       	rjmp	.+624    	; 0x44a <__bad_interrupt>
     1da:	00 00       	nop
     1dc:	36 c1       	rjmp	.+620    	; 0x44a <__bad_interrupt>
     1de:	00 00       	nop
     1e0:	34 c1       	rjmp	.+616    	; 0x44a <__bad_interrupt>
     1e2:	00 00       	nop
     1e4:	32 c1       	rjmp	.+612    	; 0x44a <__bad_interrupt>
     1e6:	00 00       	nop
     1e8:	30 c1       	rjmp	.+608    	; 0x44a <__bad_interrupt>
     1ea:	00 00       	nop
     1ec:	2e c1       	rjmp	.+604    	; 0x44a <__bad_interrupt>
     1ee:	00 00       	nop
     1f0:	2c c1       	rjmp	.+600    	; 0x44a <__bad_interrupt>
     1f2:	00 00       	nop
     1f4:	2a c1       	rjmp	.+596    	; 0x44a <__bad_interrupt>
     1f6:	00 00       	nop
     1f8:	28 c1       	rjmp	.+592    	; 0x44a <__bad_interrupt>
     1fa:	00 00       	nop
     1fc:	f2 15       	cp	r31, r2
     1fe:	00 16       	cp	r0, r16
     200:	00 16       	cp	r0, r16
     202:	00 16       	cp	r0, r16
     204:	00 16       	cp	r0, r16
     206:	f7 15       	cp	r31, r7
     208:	00 16       	cp	r0, r16
     20a:	fb 15       	cp	r31, r11
     20c:	fd 15       	cp	r31, r13
     20e:	f9 15       	cp	r31, r9
     210:	00 16       	cp	r0, r16
     212:	00 16       	cp	r0, r16
     214:	00 16       	cp	r0, r16
     216:	00 16       	cp	r0, r16
     218:	00 16       	cp	r0, r16
     21a:	00 16       	cp	r0, r16
     21c:	00 16       	cp	r0, r16
     21e:	00 16       	cp	r0, r16
     220:	00 16       	cp	r0, r16
     222:	00 16       	cp	r0, r16
     224:	00 16       	cp	r0, r16
     226:	00 16       	cp	r0, r16
     228:	00 16       	cp	r0, r16
     22a:	00 16       	cp	r0, r16
     22c:	00 16       	cp	r0, r16
     22e:	00 16       	cp	r0, r16
     230:	00 16       	cp	r0, r16
     232:	00 16       	cp	r0, r16
     234:	00 16       	cp	r0, r16
     236:	00 16       	cp	r0, r16
     238:	00 16       	cp	r0, r16
     23a:	00 16       	cp	r0, r16
     23c:	00 16       	cp	r0, r16
     23e:	00 16       	cp	r0, r16
     240:	00 16       	cp	r0, r16
     242:	00 16       	cp	r0, r16
     244:	00 16       	cp	r0, r16
     246:	00 16       	cp	r0, r16
     248:	00 16       	cp	r0, r16
     24a:	00 16       	cp	r0, r16
     24c:	00 16       	cp	r0, r16
     24e:	00 16       	cp	r0, r16
     250:	00 16       	cp	r0, r16
     252:	00 16       	cp	r0, r16
     254:	00 16       	cp	r0, r16
     256:	00 16       	cp	r0, r16
     258:	00 16       	cp	r0, r16
     25a:	00 16       	cp	r0, r16
     25c:	00 16       	cp	r0, r16
     25e:	00 16       	cp	r0, r16
     260:	00 16       	cp	r0, r16
     262:	00 16       	cp	r0, r16
     264:	00 16       	cp	r0, r16
     266:	00 16       	cp	r0, r16
     268:	00 16       	cp	r0, r16
     26a:	00 16       	cp	r0, r16
     26c:	00 16       	cp	r0, r16
     26e:	00 16       	cp	r0, r16
     270:	00 16       	cp	r0, r16
     272:	00 16       	cp	r0, r16
     274:	00 16       	cp	r0, r16
     276:	f5 15       	cp	r31, r5
     278:	ff 15       	cp	r31, r15
     27a:	08 00       	.word	0x0008	; ????
     27c:	00 00       	nop
     27e:	be 92       	st	-X, r11
     280:	24 49       	sbci	r18, 0x94	; 148
     282:	12 3e       	cpi	r17, 0xE2	; 226
     284:	ab aa       	std	Y+51, r10	; 0x33
     286:	aa 2a       	or	r10, r26
     288:	be cd       	rjmp	.-1156   	; 0xfffffe06 <__eeprom_end+0xff7efe06>
     28a:	cc cc       	rjmp	.-1640   	; 0xfffffc24 <__eeprom_end+0xff7efc24>
     28c:	4c 3e       	cpi	r20, 0xEC	; 236
     28e:	00 00       	nop
     290:	00 80       	ld	r0, Z
     292:	be ab       	std	Y+54, r27	; 0x36
     294:	aa aa       	std	Y+50, r10	; 0x32
     296:	aa 3e       	cpi	r26, 0xEA	; 234
     298:	00 00       	nop
     29a:	00 00       	nop
     29c:	bf 00       	.word	0x00bf	; ????
     29e:	00 00       	nop
     2a0:	80 3f       	cpi	r24, 0xF0	; 240
     2a2:	00 00       	nop
     2a4:	00 00       	nop
     2a6:	00 08       	sbc	r0, r0
     2a8:	41 78       	andi	r20, 0x81	; 129
     2aa:	d3 bb       	out	0x13, r29	; 19
     2ac:	43 87       	std	Z+11, r20	; 0x0b
     2ae:	d1 13       	cpse	r29, r17
     2b0:	3d 19       	sub	r19, r13
     2b2:	0e 3c       	cpi	r16, 0xCE	; 206
     2b4:	c3 bd       	out	0x23, r28	; 35
     2b6:	42 82       	std	Z+2, r4	; 0x02
     2b8:	ad 2b       	or	r26, r29
     2ba:	3e 68       	ori	r19, 0x8E	; 142
     2bc:	ec 82       	std	Y+4, r14	; 0x04
     2be:	76 be       	out	0x36, r7	; 54
     2c0:	d9 8f       	std	Y+25, r29	; 0x19
     2c2:	e1 a9       	ldd	r30, Z+49	; 0x31
     2c4:	3e 4c       	sbci	r19, 0xCE	; 206
     2c6:	80 ef       	ldi	r24, 0xF0	; 240
     2c8:	ff be       	out	0x3f, r15	; 63
     2ca:	01 c4       	rjmp	.+2050   	; 0xace <__vector_40+0x4e>
     2cc:	ff 7f       	andi	r31, 0xFF	; 255
     2ce:	3f 00       	.word	0x003f	; ????
     2d0:	00 00       	nop
     2d2:	00 00       	nop
     2d4:	07 63       	ori	r16, 0x37	; 55
     2d6:	42 36       	cpi	r20, 0x62	; 98
     2d8:	b7 9b       	sbis	0x16, 7	; 22
     2da:	d8 a7       	std	Y+40, r29	; 0x28
     2dc:	1a 39       	cpi	r17, 0x9A	; 154
     2de:	68 56       	subi	r22, 0x68	; 104
     2e0:	18 ae       	std	Y+56, r1	; 0x38
     2e2:	ba ab       	std	Y+50, r27	; 0x32
     2e4:	55 8c       	ldd	r5, Z+29	; 0x1d
     2e6:	1d 3c       	cpi	r17, 0xCD	; 205
     2e8:	b7 cc       	rjmp	.-1682   	; 0xfffffc58 <__eeprom_end+0xff7efc58>
     2ea:	57 63       	ori	r21, 0x37	; 55
     2ec:	bd 6d       	ori	r27, 0xDD	; 221
     2ee:	ed fd       	.word	0xfded	; ????
     2f0:	75 3e       	cpi	r23, 0xE5	; 229
     2f2:	f6 17       	cp	r31, r22
     2f4:	72 31       	cpi	r23, 0x12	; 18
     2f6:	bf 00       	.word	0x00bf	; ????
     2f8:	00 00       	nop
     2fa:	80 3f       	cpi	r24, 0xF0	; 240

000002fc <__trampolines_end>:
     2fc:	6e 61       	ori	r22, 0x1E	; 30
     2fe:	6e 00       	.word	0x006e	; ????

00000300 <__c.2332>:
     300:	69 6e 66 00 00 40 7a 10 f3 5a 00 a0 72 4e 18 09     inf..@z..Z..rN..
     310:	00 10 a5 d4 e8 00 00 e8 76 48 17 00 00 e4 0b 54     ........vH.....T
     320:	02 00 00 ca 9a 3b 00 00 00 e1 f5 05 00 00 80 96     .....;..........
     330:	98 00 00 00 40 42 0f 00 00 00 a0 86 01 00 00 00     ....@B..........
     340:	10 27 00 00 00 00 e8 03 00 00 00 00 64 00 00 00     .'..........d...
     350:	00 00 0a 00 00 00 00 00 01 00 00 00 00 00 2c 76     ..............,v
     360:	d8 88 dc 67 4f 08 23 df c1 df ae 59 e1 b1 b7 96     ...gO.#....Y....
     370:	e5 e3 e4 53 c6 3a e6 51 99 76 96 e8 e6 c2 84 26     ...S.:.Q.v.....&
     380:	eb 89 8c 9b 62 ed 40 7c 6f fc ef bc 9c 9f 40 f2     ....b.@|o.....@.
     390:	ba a5 6f a5 f4 90 05 5a 2a f7 5c 93 6b 6c f9 67     ..o....Z*.\.kl.g
     3a0:	6d c1 1b fc e0 e4 0d 47 fe f5 20 e6 b5 00 d0 ed     m......G.. .....
     3b0:	90 2e 03 00 94 35 77 05 00 80 84 1e 08 00 00 20     .....5w........ 
     3c0:	4e 0a 00 00 00 c8 0c 33 33 33 33 0f 98 6e 12 83     N......3333..n..
     3d0:	11 41 ef 8d 21 14 89 3b e6 55 16 cf fe e6 db 18     .A..!..;.U......
     3e0:	d1 84 4b 38 1b f7 7c 1d 90 1d a4 bb e4 24 20 32     ..K8..|......$ 2
     3f0:	84 72 5e 22 81 00 c9 f1 24 ec a1 e5 3d 27           .r^"....$...='

000003fe <__ctors_end>:
     3fe:	11 24       	eor	r1, r1
     400:	1f be       	out	0x3f, r1	; 63
     402:	cf ef       	ldi	r28, 0xFF	; 255
     404:	cd bf       	out	0x3d, r28	; 61
     406:	df e3       	ldi	r29, 0x3F	; 63
     408:	de bf       	out	0x3e, r29	; 62
     40a:	00 e0       	ldi	r16, 0x00	; 0
     40c:	0c bf       	out	0x3c, r16	; 60
     40e:	18 be       	out	0x38, r1	; 56
     410:	19 be       	out	0x39, r1	; 57
     412:	1a be       	out	0x3a, r1	; 58
     414:	1b be       	out	0x3b, r1	; 59

00000416 <__do_copy_data>:
     416:	10 e2       	ldi	r17, 0x20	; 32
     418:	a0 e0       	ldi	r26, 0x00	; 0
     41a:	b0 e2       	ldi	r27, 0x20	; 32
     41c:	ea e4       	ldi	r30, 0x4A	; 74
     41e:	f7 e4       	ldi	r31, 0x47	; 71
     420:	00 e0       	ldi	r16, 0x00	; 0
     422:	0b bf       	out	0x3b, r16	; 59
     424:	02 c0       	rjmp	.+4      	; 0x42a <__do_copy_data+0x14>
     426:	07 90       	elpm	r0, Z+
     428:	0d 92       	st	X+, r0
     42a:	a8 35       	cpi	r26, 0x58	; 88
     42c:	b1 07       	cpc	r27, r17
     42e:	d9 f7       	brne	.-10     	; 0x426 <__do_copy_data+0x10>
     430:	1b be       	out	0x3b, r1	; 59

00000432 <__do_clear_bss>:
     432:	20 e2       	ldi	r18, 0x20	; 32
     434:	a8 e5       	ldi	r26, 0x58	; 88
     436:	b0 e2       	ldi	r27, 0x20	; 32
     438:	01 c0       	rjmp	.+2      	; 0x43c <.do_clear_bss_start>

0000043a <.do_clear_bss_loop>:
     43a:	1d 92       	st	X+, r1

0000043c <.do_clear_bss_start>:
     43c:	a8 3d       	cpi	r26, 0xD8	; 216
     43e:	b2 07       	cpc	r27, r18
     440:	e1 f7       	brne	.-8      	; 0x43a <.do_clear_bss_loop>
     442:	0e 94 82 17 	call	0x2f04	; 0x2f04 <main>
     446:	0c 94 a3 23 	jmp	0x4746	; 0x4746 <_exit>

0000044a <__bad_interrupt>:
     44a:	da cd       	rjmp	.-1100   	; 0x0 <__vectors>

0000044c <twim_interrupt_handler>:
 * \brief Common TWI master interrupt service routine.
 *
 *  Check current status and calls the appropriate handler.
 */
static void twim_interrupt_handler(void)
{
     44c:	cf 93       	push	r28
     44e:	df 93       	push	r29
	uint8_t const master_status = transfer.bus->MASTER.STATUS;
     450:	e0 91 58 20 	lds	r30, 0x2058	; 0x802058 <__data_end>
     454:	f0 91 59 20 	lds	r31, 0x2059	; 0x802059 <__data_end+0x1>
     458:	84 81       	ldd	r24, Z+4	; 0x04

	if (master_status & TWI_MASTER_ARBLOST_bm) {
     45a:	83 ff       	sbrs	r24, 3
     45c:	08 c0       	rjmp	.+16     	; 0x46e <twim_interrupt_handler+0x22>

		transfer.bus->MASTER.STATUS = master_status | TWI_MASTER_ARBLOST_bm;
     45e:	88 60       	ori	r24, 0x08	; 8
     460:	84 83       	std	Z+4, r24	; 0x04
		transfer.bus->MASTER.CTRLC  = TWI_MASTER_CMD_STOP_gc;
     462:	83 e0       	ldi	r24, 0x03	; 3
     464:	83 83       	std	Z+3, r24	; 0x03
		transfer.status = ERR_BUSY;
     466:	86 ef       	ldi	r24, 0xF6	; 246
     468:	80 93 62 20 	sts	0x2062, r24	; 0x802062 <__data_end+0xa>
     46c:	83 c0       	rjmp	.+262    	; 0x574 <twim_interrupt_handler+0x128>

	} else if ((master_status & TWI_MASTER_BUSERR_bm) ||
     46e:	98 2f       	mov	r25, r24
     470:	94 71       	andi	r25, 0x14	; 20
     472:	31 f0       	breq	.+12     	; 0x480 <twim_interrupt_handler+0x34>
		(master_status & TWI_MASTER_RXACK_bm)) {

		transfer.bus->MASTER.CTRLC = TWI_MASTER_CMD_STOP_gc;
     474:	83 e0       	ldi	r24, 0x03	; 3
     476:	83 83       	std	Z+3, r24	; 0x03
		transfer.status = ERR_IO_ERROR;
     478:	8f ef       	ldi	r24, 0xFF	; 255
     47a:	80 93 62 20 	sts	0x2062, r24	; 0x802062 <__data_end+0xa>
     47e:	7a c0       	rjmp	.+244    	; 0x574 <twim_interrupt_handler+0x128>

	} else if (master_status & TWI_MASTER_WIF_bm) {
     480:	86 ff       	sbrs	r24, 6
     482:	43 c0       	rjmp	.+134    	; 0x50a <twim_interrupt_handler+0xbe>
 *  Handles TWI transactions (master write) and responses to (N)ACK.
 */
static inline void twim_write_handler(void)
{
	TWI_t * const         bus = transfer.bus;
	twi_package_t * const pkg = transfer.pkg;
     484:	c8 e5       	ldi	r28, 0x58	; 88
     486:	d0 e2       	ldi	r29, 0x20	; 32
     488:	aa 81       	ldd	r26, Y+2	; 0x02
     48a:	bb 81       	ldd	r27, Y+3	; 0x03

	if (transfer.addr_count < pkg->addr_length) {
     48c:	8c 81       	ldd	r24, Y+4	; 0x04
     48e:	9d 81       	ldd	r25, Y+5	; 0x05
     490:	14 96       	adiw	r26, 0x04	; 4
     492:	2d 91       	ld	r18, X+
     494:	3c 91       	ld	r19, X
     496:	15 97       	sbiw	r26, 0x05	; 5
     498:	82 17       	cp	r24, r18
     49a:	93 07       	cpc	r25, r19
     49c:	6c f4       	brge	.+26     	; 0x4b8 <twim_interrupt_handler+0x6c>

		const uint8_t * const data = pkg->addr;
		bus->MASTER.DATA = data[transfer.addr_count++];
     49e:	9c 01       	movw	r18, r24
     4a0:	2f 5f       	subi	r18, 0xFF	; 255
     4a2:	3f 4f       	sbci	r19, 0xFF	; 255
     4a4:	20 93 5c 20 	sts	0x205C, r18	; 0x80205c <__data_end+0x4>
     4a8:	30 93 5d 20 	sts	0x205D, r19	; 0x80205d <__data_end+0x5>
     4ac:	a8 0f       	add	r26, r24
     4ae:	b9 1f       	adc	r27, r25
     4b0:	11 96       	adiw	r26, 0x01	; 1
     4b2:	8c 91       	ld	r24, X
     4b4:	87 83       	std	Z+7, r24	; 0x07
     4b6:	5e c0       	rjmp	.+188    	; 0x574 <twim_interrupt_handler+0x128>

	} else if (transfer.data_count < pkg->length) {
     4b8:	80 91 5e 20 	lds	r24, 0x205E	; 0x80205e <__data_end+0x6>
     4bc:	90 91 5f 20 	lds	r25, 0x205F	; 0x80205f <__data_end+0x7>
     4c0:	18 96       	adiw	r26, 0x08	; 8
     4c2:	2d 91       	ld	r18, X+
     4c4:	3c 91       	ld	r19, X
     4c6:	19 97       	sbiw	r26, 0x09	; 9
     4c8:	82 17       	cp	r24, r18
     4ca:	93 07       	cpc	r25, r19
     4cc:	c8 f4       	brcc	.+50     	; 0x500 <twim_interrupt_handler+0xb4>

		if (transfer.read) {
     4ce:	20 91 60 20 	lds	r18, 0x2060	; 0x802060 <__data_end+0x8>
     4d2:	22 23       	and	r18, r18
     4d4:	21 f0       	breq	.+8      	; 0x4de <twim_interrupt_handler+0x92>

			/* Send repeated START condition (Address|R/W=1). */

			bus->MASTER.ADDR |= 0x01;
     4d6:	86 81       	ldd	r24, Z+6	; 0x06
     4d8:	81 60       	ori	r24, 0x01	; 1
     4da:	86 83       	std	Z+6, r24	; 0x06
     4dc:	4b c0       	rjmp	.+150    	; 0x574 <twim_interrupt_handler+0x128>

		} else {
			const uint8_t * const data = pkg->buffer;
     4de:	16 96       	adiw	r26, 0x06	; 6
     4e0:	2d 91       	ld	r18, X+
     4e2:	3c 91       	ld	r19, X
     4e4:	17 97       	sbiw	r26, 0x07	; 7
			bus->MASTER.DATA = data[transfer.data_count++];
     4e6:	ac 01       	movw	r20, r24
     4e8:	4f 5f       	subi	r20, 0xFF	; 255
     4ea:	5f 4f       	sbci	r21, 0xFF	; 255
     4ec:	40 93 5e 20 	sts	0x205E, r20	; 0x80205e <__data_end+0x6>
     4f0:	50 93 5f 20 	sts	0x205F, r21	; 0x80205f <__data_end+0x7>
     4f4:	d9 01       	movw	r26, r18
     4f6:	a8 0f       	add	r26, r24
     4f8:	b9 1f       	adc	r27, r25
     4fa:	8c 91       	ld	r24, X
     4fc:	87 83       	std	Z+7, r24	; 0x07
     4fe:	3a c0       	rjmp	.+116    	; 0x574 <twim_interrupt_handler+0x128>

	} else {

		/* Send STOP condition to complete the transaction. */

		bus->MASTER.CTRLC = TWI_MASTER_CMD_STOP_gc;
     500:	83 e0       	ldi	r24, 0x03	; 3
     502:	83 83       	std	Z+3, r24	; 0x03
		transfer.status = STATUS_OK;
     504:	10 92 62 20 	sts	0x2062, r1	; 0x802062 <__data_end+0xa>
     508:	35 c0       	rjmp	.+106    	; 0x574 <twim_interrupt_handler+0x128>

	} else if (master_status & TWI_MASTER_WIF_bm) {

		twim_write_handler();

	} else if (master_status & TWI_MASTER_RIF_bm) {
     50a:	88 23       	and	r24, r24
     50c:	84 f5       	brge	.+96     	; 0x56e <twim_interrupt_handler+0x122>
 *  reading bytes from the TWI slave.
 */
static inline void twim_read_handler(void)
{
	TWI_t * const         bus = transfer.bus;
	twi_package_t * const pkg = transfer.pkg;
     50e:	a8 e5       	ldi	r26, 0x58	; 88
     510:	b0 e2       	ldi	r27, 0x20	; 32
     512:	12 96       	adiw	r26, 0x02	; 2
     514:	cd 91       	ld	r28, X+
     516:	dc 91       	ld	r29, X
     518:	13 97       	sbiw	r26, 0x03	; 3

	if (transfer.data_count < pkg->length) {
     51a:	16 96       	adiw	r26, 0x06	; 6
     51c:	8d 91       	ld	r24, X+
     51e:	9c 91       	ld	r25, X
     520:	17 97       	sbiw	r26, 0x07	; 7
     522:	28 85       	ldd	r18, Y+8	; 0x08
     524:	39 85       	ldd	r19, Y+9	; 0x09
     526:	82 17       	cp	r24, r18
     528:	93 07       	cpc	r25, r19
     52a:	d8 f4       	brcc	.+54     	; 0x562 <twim_interrupt_handler+0x116>

		uint8_t * const data = pkg->buffer;
     52c:	6e 81       	ldd	r22, Y+6	; 0x06
     52e:	7f 81       	ldd	r23, Y+7	; 0x07
		data[transfer.data_count++] = bus->MASTER.DATA;
     530:	9c 01       	movw	r18, r24
     532:	2f 5f       	subi	r18, 0xFF	; 255
     534:	3f 4f       	sbci	r19, 0xFF	; 255
     536:	20 93 5e 20 	sts	0x205E, r18	; 0x80205e <__data_end+0x6>
     53a:	30 93 5f 20 	sts	0x205F, r19	; 0x80205f <__data_end+0x7>
     53e:	47 81       	ldd	r20, Z+7	; 0x07
     540:	db 01       	movw	r26, r22
     542:	a8 0f       	add	r26, r24
     544:	b9 1f       	adc	r27, r25
     546:	4c 93       	st	X, r20

		/* If there is more to read, issue ACK and start a byte read.
		 * Otherwise, issue NACK and STOP to complete the transaction.
		 */
		if (transfer.data_count < pkg->length) {
     548:	88 85       	ldd	r24, Y+8	; 0x08
     54a:	99 85       	ldd	r25, Y+9	; 0x09
     54c:	28 17       	cp	r18, r24
     54e:	39 07       	cpc	r19, r25
     550:	18 f4       	brcc	.+6      	; 0x558 <twim_interrupt_handler+0x10c>

			bus->MASTER.CTRLC = TWI_MASTER_CMD_RECVTRANS_gc;
     552:	82 e0       	ldi	r24, 0x02	; 2
     554:	83 83       	std	Z+3, r24	; 0x03
     556:	0e c0       	rjmp	.+28     	; 0x574 <twim_interrupt_handler+0x128>

		} else {

			bus->MASTER.CTRLC = TWI_MASTER_ACKACT_bm | TWI_MASTER_CMD_STOP_gc;
     558:	87 e0       	ldi	r24, 0x07	; 7
     55a:	83 83       	std	Z+3, r24	; 0x03
			transfer.status = STATUS_OK;
     55c:	10 92 62 20 	sts	0x2062, r1	; 0x802062 <__data_end+0xa>
     560:	09 c0       	rjmp	.+18     	; 0x574 <twim_interrupt_handler+0x128>

	} else {

		/* Issue STOP and buffer overflow condition. */

		bus->MASTER.CTRLC = TWI_MASTER_CMD_STOP_gc;
     562:	83 e0       	ldi	r24, 0x03	; 3
     564:	83 83       	std	Z+3, r24	; 0x03
		transfer.status = ERR_NO_MEMORY;
     566:	89 ef       	ldi	r24, 0xF9	; 249
     568:	80 93 62 20 	sts	0x2062, r24	; 0x802062 <__data_end+0xa>
     56c:	03 c0       	rjmp	.+6      	; 0x574 <twim_interrupt_handler+0x128>

		twim_read_handler();

	} else {

		transfer.status = ERR_PROTOCOL;
     56e:	8b ef       	ldi	r24, 0xFB	; 251
     570:	80 93 62 20 	sts	0x2062, r24	; 0x802062 <__data_end+0xa>
	}
}
     574:	df 91       	pop	r29
     576:	cf 91       	pop	r28
     578:	08 95       	ret

0000057a <__vector_13>:
 * parameters specified in the global \c transfer structure.
 */
static void twim_interrupt_handler(void);

#ifdef TWIC
ISR(TWIC_TWIM_vect) { twim_interrupt_handler(); }
     57a:	1f 92       	push	r1
     57c:	0f 92       	push	r0
     57e:	0f b6       	in	r0, 0x3f	; 63
     580:	0f 92       	push	r0
     582:	11 24       	eor	r1, r1
     584:	08 b6       	in	r0, 0x38	; 56
     586:	0f 92       	push	r0
     588:	18 be       	out	0x38, r1	; 56
     58a:	09 b6       	in	r0, 0x39	; 57
     58c:	0f 92       	push	r0
     58e:	19 be       	out	0x39, r1	; 57
     590:	0b b6       	in	r0, 0x3b	; 59
     592:	0f 92       	push	r0
     594:	1b be       	out	0x3b, r1	; 59
     596:	2f 93       	push	r18
     598:	3f 93       	push	r19
     59a:	4f 93       	push	r20
     59c:	5f 93       	push	r21
     59e:	6f 93       	push	r22
     5a0:	7f 93       	push	r23
     5a2:	8f 93       	push	r24
     5a4:	9f 93       	push	r25
     5a6:	af 93       	push	r26
     5a8:	bf 93       	push	r27
     5aa:	ef 93       	push	r30
     5ac:	ff 93       	push	r31
     5ae:	4e df       	rcall	.-356    	; 0x44c <twim_interrupt_handler>
     5b0:	ff 91       	pop	r31
     5b2:	ef 91       	pop	r30
     5b4:	bf 91       	pop	r27
     5b6:	af 91       	pop	r26
     5b8:	9f 91       	pop	r25
     5ba:	8f 91       	pop	r24
     5bc:	7f 91       	pop	r23
     5be:	6f 91       	pop	r22
     5c0:	5f 91       	pop	r21
     5c2:	4f 91       	pop	r20
     5c4:	3f 91       	pop	r19
     5c6:	2f 91       	pop	r18
     5c8:	0f 90       	pop	r0
     5ca:	0b be       	out	0x3b, r0	; 59
     5cc:	0f 90       	pop	r0
     5ce:	09 be       	out	0x39, r0	; 57
     5d0:	0f 90       	pop	r0
     5d2:	08 be       	out	0x38, r0	; 56
     5d4:	0f 90       	pop	r0
     5d6:	0f be       	out	0x3f, r0	; 63
     5d8:	0f 90       	pop	r0
     5da:	1f 90       	pop	r1
     5dc:	18 95       	reti

000005de <__vector_76>:
#endif
#ifdef TWID
ISR(TWID_TWIM_vect) { twim_interrupt_handler(); }
     5de:	1f 92       	push	r1
     5e0:	0f 92       	push	r0
     5e2:	0f b6       	in	r0, 0x3f	; 63
     5e4:	0f 92       	push	r0
     5e6:	11 24       	eor	r1, r1
     5e8:	08 b6       	in	r0, 0x38	; 56
     5ea:	0f 92       	push	r0
     5ec:	18 be       	out	0x38, r1	; 56
     5ee:	09 b6       	in	r0, 0x39	; 57
     5f0:	0f 92       	push	r0
     5f2:	19 be       	out	0x39, r1	; 57
     5f4:	0b b6       	in	r0, 0x3b	; 59
     5f6:	0f 92       	push	r0
     5f8:	1b be       	out	0x3b, r1	; 59
     5fa:	2f 93       	push	r18
     5fc:	3f 93       	push	r19
     5fe:	4f 93       	push	r20
     600:	5f 93       	push	r21
     602:	6f 93       	push	r22
     604:	7f 93       	push	r23
     606:	8f 93       	push	r24
     608:	9f 93       	push	r25
     60a:	af 93       	push	r26
     60c:	bf 93       	push	r27
     60e:	ef 93       	push	r30
     610:	ff 93       	push	r31
     612:	1c df       	rcall	.-456    	; 0x44c <twim_interrupt_handler>
     614:	ff 91       	pop	r31
     616:	ef 91       	pop	r30
     618:	bf 91       	pop	r27
     61a:	af 91       	pop	r26
     61c:	9f 91       	pop	r25
     61e:	8f 91       	pop	r24
     620:	7f 91       	pop	r23
     622:	6f 91       	pop	r22
     624:	5f 91       	pop	r21
     626:	4f 91       	pop	r20
     628:	3f 91       	pop	r19
     62a:	2f 91       	pop	r18
     62c:	0f 90       	pop	r0
     62e:	0b be       	out	0x3b, r0	; 59
     630:	0f 90       	pop	r0
     632:	09 be       	out	0x39, r0	; 57
     634:	0f 90       	pop	r0
     636:	08 be       	out	0x38, r0	; 56
     638:	0f 90       	pop	r0
     63a:	0f be       	out	0x3f, r0	; 63
     63c:	0f 90       	pop	r0
     63e:	1f 90       	pop	r1
     640:	18 95       	reti

00000642 <__vector_46>:
#endif
#ifdef TWIE
ISR(TWIE_TWIM_vect) { twim_interrupt_handler(); }
     642:	1f 92       	push	r1
     644:	0f 92       	push	r0
     646:	0f b6       	in	r0, 0x3f	; 63
     648:	0f 92       	push	r0
     64a:	11 24       	eor	r1, r1
     64c:	08 b6       	in	r0, 0x38	; 56
     64e:	0f 92       	push	r0
     650:	18 be       	out	0x38, r1	; 56
     652:	09 b6       	in	r0, 0x39	; 57
     654:	0f 92       	push	r0
     656:	19 be       	out	0x39, r1	; 57
     658:	0b b6       	in	r0, 0x3b	; 59
     65a:	0f 92       	push	r0
     65c:	1b be       	out	0x3b, r1	; 59
     65e:	2f 93       	push	r18
     660:	3f 93       	push	r19
     662:	4f 93       	push	r20
     664:	5f 93       	push	r21
     666:	6f 93       	push	r22
     668:	7f 93       	push	r23
     66a:	8f 93       	push	r24
     66c:	9f 93       	push	r25
     66e:	af 93       	push	r26
     670:	bf 93       	push	r27
     672:	ef 93       	push	r30
     674:	ff 93       	push	r31
     676:	ea de       	rcall	.-556    	; 0x44c <twim_interrupt_handler>
     678:	ff 91       	pop	r31
     67a:	ef 91       	pop	r30
     67c:	bf 91       	pop	r27
     67e:	af 91       	pop	r26
     680:	9f 91       	pop	r25
     682:	8f 91       	pop	r24
     684:	7f 91       	pop	r23
     686:	6f 91       	pop	r22
     688:	5f 91       	pop	r21
     68a:	4f 91       	pop	r20
     68c:	3f 91       	pop	r19
     68e:	2f 91       	pop	r18
     690:	0f 90       	pop	r0
     692:	0b be       	out	0x3b, r0	; 59
     694:	0f 90       	pop	r0
     696:	09 be       	out	0x39, r0	; 57
     698:	0f 90       	pop	r0
     69a:	08 be       	out	0x38, r0	; 56
     69c:	0f 90       	pop	r0
     69e:	0f be       	out	0x3f, r0	; 63
     6a0:	0f 90       	pop	r0
     6a2:	1f 90       	pop	r1
     6a4:	18 95       	reti

000006a6 <__vector_107>:
#endif
#ifdef TWIF
ISR(TWIF_TWIM_vect) { twim_interrupt_handler(); }
     6a6:	1f 92       	push	r1
     6a8:	0f 92       	push	r0
     6aa:	0f b6       	in	r0, 0x3f	; 63
     6ac:	0f 92       	push	r0
     6ae:	11 24       	eor	r1, r1
     6b0:	08 b6       	in	r0, 0x38	; 56
     6b2:	0f 92       	push	r0
     6b4:	18 be       	out	0x38, r1	; 56
     6b6:	09 b6       	in	r0, 0x39	; 57
     6b8:	0f 92       	push	r0
     6ba:	19 be       	out	0x39, r1	; 57
     6bc:	0b b6       	in	r0, 0x3b	; 59
     6be:	0f 92       	push	r0
     6c0:	1b be       	out	0x3b, r1	; 59
     6c2:	2f 93       	push	r18
     6c4:	3f 93       	push	r19
     6c6:	4f 93       	push	r20
     6c8:	5f 93       	push	r21
     6ca:	6f 93       	push	r22
     6cc:	7f 93       	push	r23
     6ce:	8f 93       	push	r24
     6d0:	9f 93       	push	r25
     6d2:	af 93       	push	r26
     6d4:	bf 93       	push	r27
     6d6:	ef 93       	push	r30
     6d8:	ff 93       	push	r31
     6da:	b8 de       	rcall	.-656    	; 0x44c <twim_interrupt_handler>
     6dc:	ff 91       	pop	r31
     6de:	ef 91       	pop	r30
     6e0:	bf 91       	pop	r27
     6e2:	af 91       	pop	r26
     6e4:	9f 91       	pop	r25
     6e6:	8f 91       	pop	r24
     6e8:	7f 91       	pop	r23
     6ea:	6f 91       	pop	r22
     6ec:	5f 91       	pop	r21
     6ee:	4f 91       	pop	r20
     6f0:	3f 91       	pop	r19
     6f2:	2f 91       	pop	r18
     6f4:	0f 90       	pop	r0
     6f6:	0b be       	out	0x3b, r0	; 59
     6f8:	0f 90       	pop	r0
     6fa:	09 be       	out	0x39, r0	; 57
     6fc:	0f 90       	pop	r0
     6fe:	08 be       	out	0x38, r0	; 56
     700:	0f 90       	pop	r0
     702:	0f be       	out	0x3f, r0	; 63
     704:	0f 90       	pop	r0
     706:	1f 90       	pop	r1
     708:	18 95       	reti

0000070a <wdt_reset_mcu>:
uint8_t temp;
	/*
	 * WDT enabled (minimum timeout period for max. security)
	 */
	temp = WDT_PER_8CLK_gc | (1 << WDT_ENABLE_bp) | (1 << WDT_CEN_bp);
	ccp_write_io((void *)&WDT.CTRL, temp);
     70a:	63 e0       	ldi	r22, 0x03	; 3
     70c:	80 e8       	ldi	r24, 0x80	; 128
     70e:	90 e0       	ldi	r25, 0x00	; 0
     710:	6e d2       	rcall	.+1244   	; 0xbee <ccp_write_io>
/*! \brief Wait until WD settings are synchronized to the WD clock domain.
 *
 */
static inline void wdt_wait_while_busy(void)
{
	while ((WDT.STATUS & WDT_SYNCBUSY_bm) == WDT_SYNCBUSY_bm) {
     712:	e0 e8       	ldi	r30, 0x80	; 128
     714:	f0 e0       	ldi	r31, 0x00	; 0
     716:	82 81       	ldd	r24, Z+2	; 0x02
     718:	80 fd       	sbrc	r24, 0
     71a:	fd cf       	rjmp	.-6      	; 0x716 <wdt_reset_mcu+0xc>
	wdt_wait_while_busy();
	/*
	 * WDT enabled (maximum window period for max. security)
	 */
	temp = WDT_WPER_8KCLK_gc | (1 << WDT_WEN_bp) | (1 << WDT_WCEN_bp);
	ccp_write_io((void *)&WDT.WINCTRL, temp);
     71c:	6b e2       	ldi	r22, 0x2B	; 43
     71e:	81 e8       	ldi	r24, 0x81	; 129
     720:	90 e0       	ldi	r25, 0x00	; 0
     722:	65 d2       	rcall	.+1226   	; 0xbee <ccp_write_io>
     724:	e0 e8       	ldi	r30, 0x80	; 128
     726:	f0 e0       	ldi	r31, 0x00	; 0
     728:	82 81       	ldd	r24, Z+2	; 0x02
     72a:	80 fd       	sbrc	r24, 0
     72c:	fd cf       	rjmp	.-6      	; 0x728 <wdt_reset_mcu+0x1e>
	wdt_wait_while_busy();
	/*
	 * WDT Reset during window => WDT generates an Hard Reset.
	 */
	wdt_reset();
     72e:	a8 95       	wdr
     730:	ff cf       	rjmp	.-2      	; 0x730 <wdt_reset_mcu+0x26>

00000732 <sysclk_init>:
#  include <nvm.h>
#endif


void sysclk_init(void)
{
     732:	cf 93       	push	r28
     734:	df 93       	push	r29
     736:	1f 92       	push	r1
     738:	1f 92       	push	r1
     73a:	cd b7       	in	r28, 0x3d	; 61
     73c:	de b7       	in	r29, 0x3e	; 62
#endif
	bool need_rc2mhz = false;

	/* Turn off all peripheral clocks that can be turned off. */
	for (i = 0; i <= SYSCLK_PORT_F; i++) {
		*(reg++) = 0xff;
     73e:	8f ef       	ldi	r24, 0xFF	; 255
     740:	80 93 70 00 	sts	0x0070, r24	; 0x800070 <__TEXT_REGION_LENGTH__+0x700070>
     744:	80 93 71 00 	sts	0x0071, r24	; 0x800071 <__TEXT_REGION_LENGTH__+0x700071>
     748:	80 93 72 00 	sts	0x0072, r24	; 0x800072 <__TEXT_REGION_LENGTH__+0x700072>
     74c:	80 93 73 00 	sts	0x0073, r24	; 0x800073 <__TEXT_REGION_LENGTH__+0x700073>
     750:	80 93 74 00 	sts	0x0074, r24	; 0x800074 <__TEXT_REGION_LENGTH__+0x700074>
     754:	80 93 75 00 	sts	0x0075, r24	; 0x800075 <__TEXT_REGION_LENGTH__+0x700075>
     758:	80 93 76 00 	sts	0x0076, r24	; 0x800076 <__TEXT_REGION_LENGTH__+0x700076>

typedef uint8_t irqflags_t;

static inline irqflags_t cpu_irq_save(void)
{
	volatile irqflags_t flags = SREG;
     75c:	8f b7       	in	r24, 0x3f	; 63
     75e:	8a 83       	std	Y+2, r24	; 0x02
	cpu_irq_disable();
     760:	f8 94       	cli
	return flags;
     762:	9a 81       	ldd	r25, Y+2	; 0x02
	irqflags_t flags;

	Assert(id != OSC_ID_USBSOF);

	flags = cpu_irq_save();
	OSC.CTRL |= id;
     764:	e0 e5       	ldi	r30, 0x50	; 80
     766:	f0 e0       	ldi	r31, 0x00	; 0
     768:	80 81       	ld	r24, Z
     76a:	82 60       	ori	r24, 0x02	; 2
     76c:	80 83       	st	Z, r24
}

static inline void cpu_irq_restore(irqflags_t flags)
{
	barrier();
	SREG = flags;
     76e:	9f bf       	out	0x3f, r25	; 63

static inline bool osc_is_ready(uint8_t id)
{
	Assert(id != OSC_ID_USBSOF);

	return OSC.STATUS & id;
     770:	81 81       	ldd	r24, Z+1	; 0x01
 *
 * \param id A number identifying the oscillator to wait for.
 */
static inline void osc_wait_ready(uint8_t id)
{
	while (!osc_is_ready(id)) {
     772:	81 ff       	sbrs	r24, 1
     774:	fd cf       	rjmp	.-6      	; 0x770 <sysclk_init+0x3e>
		default:
			//unhandled_case(CONFIG_SYSCLK_SOURCE);
			return;
		}

		ccp_write_io((uint8_t *)&CLK.CTRL, CONFIG_SYSCLK_SOURCE);
     776:	61 e0       	ldi	r22, 0x01	; 1
     778:	80 e4       	ldi	r24, 0x40	; 64
     77a:	90 e0       	ldi	r25, 0x00	; 0
     77c:	38 d2       	rcall	.+1136   	; 0xbee <ccp_write_io>

typedef uint8_t irqflags_t;

static inline irqflags_t cpu_irq_save(void)
{
	volatile irqflags_t flags = SREG;
     77e:	8f b7       	in	r24, 0x3f	; 63
     780:	89 83       	std	Y+1, r24	; 0x01
	cpu_irq_disable();
     782:	f8 94       	cli
	return flags;
     784:	99 81       	ldd	r25, Y+1	; 0x01
	irqflags_t flags;

	Assert(id != OSC_ID_USBSOF);

	flags = cpu_irq_save();
	OSC.CTRL &= ~id;
     786:	e0 e5       	ldi	r30, 0x50	; 80
     788:	f0 e0       	ldi	r31, 0x00	; 0
     78a:	80 81       	ld	r24, Z
     78c:	8e 7f       	andi	r24, 0xFE	; 254
     78e:	80 83       	st	Z, r24
}

static inline void cpu_irq_restore(irqflags_t flags)
{
	barrier();
	SREG = flags;
     790:	9f bf       	out	0x3f, r25	; 63
	}

#ifdef CONFIG_RTC_SOURCE
	sysclk_rtcsrc_enable(CONFIG_RTC_SOURCE);
#endif
}
     792:	0f 90       	pop	r0
     794:	0f 90       	pop	r0
     796:	df 91       	pop	r29
     798:	cf 91       	pop	r28
     79a:	08 95       	ret

0000079c <sysclk_enable_module>:

void sysclk_enable_module(enum sysclk_port_id port, uint8_t id)
{
     79c:	cf 93       	push	r28
     79e:	df 93       	push	r29
     7a0:	1f 92       	push	r1
     7a2:	cd b7       	in	r28, 0x3d	; 61
     7a4:	de b7       	in	r29, 0x3e	; 62

typedef uint8_t irqflags_t;

static inline irqflags_t cpu_irq_save(void)
{
	volatile irqflags_t flags = SREG;
     7a6:	9f b7       	in	r25, 0x3f	; 63
     7a8:	99 83       	std	Y+1, r25	; 0x01
	cpu_irq_disable();
     7aa:	f8 94       	cli
	return flags;
     7ac:	99 81       	ldd	r25, Y+1	; 0x01
	irqflags_t flags = cpu_irq_save();

	*((uint8_t *)&PR.PRGEN + port) &= ~id;
     7ae:	e8 2f       	mov	r30, r24
     7b0:	f0 e0       	ldi	r31, 0x00	; 0
     7b2:	e0 59       	subi	r30, 0x90	; 144
     7b4:	ff 4f       	sbci	r31, 0xFF	; 255
     7b6:	60 95       	com	r22
     7b8:	80 81       	ld	r24, Z
     7ba:	68 23       	and	r22, r24
     7bc:	60 83       	st	Z, r22
}

static inline void cpu_irq_restore(irqflags_t flags)
{
	barrier();
	SREG = flags;
     7be:	9f bf       	out	0x3f, r25	; 63

	cpu_irq_restore(flags);
}
     7c0:	0f 90       	pop	r0
     7c2:	df 91       	pop	r29
     7c4:	cf 91       	pop	r28
     7c6:	08 95       	ret

000007c8 <_read>:
#elif (defined(__GNUC__) && (XMEGA || MEGA) )

int _read (int *f); // Remove GCC compiler warning

int _read (int *f)
{
     7c8:	cf 93       	push	r28
     7ca:	df 93       	push	r29
     7cc:	1f 92       	push	r1
     7ce:	cd b7       	in	r28, 0x3d	; 61
     7d0:	de b7       	in	r29, 0x3e	; 62
	char c;
	ptr_get(stdio_base,&c);
     7d2:	80 91 b7 20 	lds	r24, 0x20B7	; 0x8020b7 <stdio_base>
     7d6:	90 91 b8 20 	lds	r25, 0x20B8	; 0x8020b8 <stdio_base+0x1>
     7da:	e0 91 b3 20 	lds	r30, 0x20B3	; 0x8020b3 <ptr_get>
     7de:	f0 91 b4 20 	lds	r31, 0x20B4	; 0x8020b4 <ptr_get+0x1>
     7e2:	be 01       	movw	r22, r28
     7e4:	6f 5f       	subi	r22, 0xFF	; 255
     7e6:	7f 4f       	sbci	r23, 0xFF	; 255
     7e8:	19 95       	eicall
	return c;
     7ea:	89 81       	ldd	r24, Y+1	; 0x01
}
     7ec:	08 2e       	mov	r0, r24
     7ee:	00 0c       	add	r0, r0
     7f0:	99 0b       	sbc	r25, r25
     7f2:	0f 90       	pop	r0
     7f4:	df 91       	pop	r29
     7f6:	cf 91       	pop	r28
     7f8:	08 95       	ret

000007fa <_write>:
#elif (defined(__GNUC__) && (XMEGA || MEGA))

int _write (char c, int *f);

int _write (char c, int *f)
{
     7fa:	68 2f       	mov	r22, r24
	if (ptr_put(stdio_base, c) < 0) {
     7fc:	80 91 b7 20 	lds	r24, 0x20B7	; 0x8020b7 <stdio_base>
     800:	90 91 b8 20 	lds	r25, 0x20B8	; 0x8020b8 <stdio_base+0x1>
     804:	e0 91 b5 20 	lds	r30, 0x20B5	; 0x8020b5 <ptr_put>
     808:	f0 91 b6 20 	lds	r31, 0x20B6	; 0x8020b6 <ptr_put+0x1>
     80c:	19 95       	eicall
     80e:	99 23       	and	r25, r25
     810:	1c f0       	brlt	.+6      	; 0x818 <_write+0x1e>
		return -1;
	}
	return 1;
     812:	81 e0       	ldi	r24, 0x01	; 1
     814:	90 e0       	ldi	r25, 0x00	; 0
     816:	08 95       	ret
int _write (char c, int *f);

int _write (char c, int *f)
{
	if (ptr_put(stdio_base, c) < 0) {
		return -1;
     818:	8f ef       	ldi	r24, 0xFF	; 255
     81a:	9f ef       	ldi	r25, 0xFF	; 255
	}
	return 1;
}
     81c:	08 95       	ret

0000081e <__vector_71>:
 *
 * Calls the callback function that has been set for the ADC when the channel's
 * interrupt flag is set, if its interrupt has been enabled.
 */
ISR(ADCA_CH0_vect)
{
     81e:	1f 92       	push	r1
     820:	0f 92       	push	r0
     822:	0f b6       	in	r0, 0x3f	; 63
     824:	0f 92       	push	r0
     826:	11 24       	eor	r1, r1
     828:	08 b6       	in	r0, 0x38	; 56
     82a:	0f 92       	push	r0
     82c:	18 be       	out	0x38, r1	; 56
     82e:	09 b6       	in	r0, 0x39	; 57
     830:	0f 92       	push	r0
     832:	19 be       	out	0x39, r1	; 57
     834:	0b b6       	in	r0, 0x3b	; 59
     836:	0f 92       	push	r0
     838:	1b be       	out	0x3b, r1	; 59
     83a:	2f 93       	push	r18
     83c:	3f 93       	push	r19
     83e:	4f 93       	push	r20
     840:	5f 93       	push	r21
     842:	6f 93       	push	r22
     844:	7f 93       	push	r23
     846:	8f 93       	push	r24
     848:	9f 93       	push	r25
     84a:	af 93       	push	r26
     84c:	bf 93       	push	r27
     84e:	ef 93       	push	r30
     850:	ff 93       	push	r31
	adca_callback(&ADCA, ADC_CH0, adc_get_result(&ADCA, ADC_CH0));
     852:	40 91 24 02 	lds	r20, 0x0224	; 0x800224 <__TEXT_REGION_LENGTH__+0x700224>
     856:	50 91 25 02 	lds	r21, 0x0225	; 0x800225 <__TEXT_REGION_LENGTH__+0x700225>
     85a:	e0 91 bb 20 	lds	r30, 0x20BB	; 0x8020bb <adca_callback>
     85e:	f0 91 bc 20 	lds	r31, 0x20BC	; 0x8020bc <adca_callback+0x1>
     862:	61 e0       	ldi	r22, 0x01	; 1
     864:	80 e0       	ldi	r24, 0x00	; 0
     866:	92 e0       	ldi	r25, 0x02	; 2
     868:	19 95       	eicall
}
     86a:	ff 91       	pop	r31
     86c:	ef 91       	pop	r30
     86e:	bf 91       	pop	r27
     870:	af 91       	pop	r26
     872:	9f 91       	pop	r25
     874:	8f 91       	pop	r24
     876:	7f 91       	pop	r23
     878:	6f 91       	pop	r22
     87a:	5f 91       	pop	r21
     87c:	4f 91       	pop	r20
     87e:	3f 91       	pop	r19
     880:	2f 91       	pop	r18
     882:	0f 90       	pop	r0
     884:	0b be       	out	0x3b, r0	; 59
     886:	0f 90       	pop	r0
     888:	09 be       	out	0x39, r0	; 57
     88a:	0f 90       	pop	r0
     88c:	08 be       	out	0x38, r0	; 56
     88e:	0f 90       	pop	r0
     890:	0f be       	out	0x3f, r0	; 63
     892:	0f 90       	pop	r0
     894:	1f 90       	pop	r1
     896:	18 95       	reti

00000898 <__vector_72>:
 *
 * Calls the callback function that has been set for the ADC when the channel's
 * interrupt flag is set, if its interrupt has been enabled.
 */
ISR(ADCA_CH1_vect)
{
     898:	1f 92       	push	r1
     89a:	0f 92       	push	r0
     89c:	0f b6       	in	r0, 0x3f	; 63
     89e:	0f 92       	push	r0
     8a0:	11 24       	eor	r1, r1
     8a2:	08 b6       	in	r0, 0x38	; 56
     8a4:	0f 92       	push	r0
     8a6:	18 be       	out	0x38, r1	; 56
     8a8:	09 b6       	in	r0, 0x39	; 57
     8aa:	0f 92       	push	r0
     8ac:	19 be       	out	0x39, r1	; 57
     8ae:	0b b6       	in	r0, 0x3b	; 59
     8b0:	0f 92       	push	r0
     8b2:	1b be       	out	0x3b, r1	; 59
     8b4:	2f 93       	push	r18
     8b6:	3f 93       	push	r19
     8b8:	4f 93       	push	r20
     8ba:	5f 93       	push	r21
     8bc:	6f 93       	push	r22
     8be:	7f 93       	push	r23
     8c0:	8f 93       	push	r24
     8c2:	9f 93       	push	r25
     8c4:	af 93       	push	r26
     8c6:	bf 93       	push	r27
     8c8:	ef 93       	push	r30
     8ca:	ff 93       	push	r31
	adca_callback(&ADCA, ADC_CH1, adc_get_result(&ADCA, ADC_CH1));
     8cc:	40 91 2c 02 	lds	r20, 0x022C	; 0x80022c <__TEXT_REGION_LENGTH__+0x70022c>
     8d0:	50 91 2d 02 	lds	r21, 0x022D	; 0x80022d <__TEXT_REGION_LENGTH__+0x70022d>
     8d4:	e0 91 bb 20 	lds	r30, 0x20BB	; 0x8020bb <adca_callback>
     8d8:	f0 91 bc 20 	lds	r31, 0x20BC	; 0x8020bc <adca_callback+0x1>
     8dc:	62 e0       	ldi	r22, 0x02	; 2
     8de:	80 e0       	ldi	r24, 0x00	; 0
     8e0:	92 e0       	ldi	r25, 0x02	; 2
     8e2:	19 95       	eicall
}
     8e4:	ff 91       	pop	r31
     8e6:	ef 91       	pop	r30
     8e8:	bf 91       	pop	r27
     8ea:	af 91       	pop	r26
     8ec:	9f 91       	pop	r25
     8ee:	8f 91       	pop	r24
     8f0:	7f 91       	pop	r23
     8f2:	6f 91       	pop	r22
     8f4:	5f 91       	pop	r21
     8f6:	4f 91       	pop	r20
     8f8:	3f 91       	pop	r19
     8fa:	2f 91       	pop	r18
     8fc:	0f 90       	pop	r0
     8fe:	0b be       	out	0x3b, r0	; 59
     900:	0f 90       	pop	r0
     902:	09 be       	out	0x39, r0	; 57
     904:	0f 90       	pop	r0
     906:	08 be       	out	0x38, r0	; 56
     908:	0f 90       	pop	r0
     90a:	0f be       	out	0x3f, r0	; 63
     90c:	0f 90       	pop	r0
     90e:	1f 90       	pop	r1
     910:	18 95       	reti

00000912 <__vector_73>:
 *
 * Calls the callback function that has been set for the ADC when the channel's
 * interrupt flag is set, if its interrupt has been enabled.
 */
ISR(ADCA_CH2_vect)
{
     912:	1f 92       	push	r1
     914:	0f 92       	push	r0
     916:	0f b6       	in	r0, 0x3f	; 63
     918:	0f 92       	push	r0
     91a:	11 24       	eor	r1, r1
     91c:	08 b6       	in	r0, 0x38	; 56
     91e:	0f 92       	push	r0
     920:	18 be       	out	0x38, r1	; 56
     922:	09 b6       	in	r0, 0x39	; 57
     924:	0f 92       	push	r0
     926:	19 be       	out	0x39, r1	; 57
     928:	0b b6       	in	r0, 0x3b	; 59
     92a:	0f 92       	push	r0
     92c:	1b be       	out	0x3b, r1	; 59
     92e:	2f 93       	push	r18
     930:	3f 93       	push	r19
     932:	4f 93       	push	r20
     934:	5f 93       	push	r21
     936:	6f 93       	push	r22
     938:	7f 93       	push	r23
     93a:	8f 93       	push	r24
     93c:	9f 93       	push	r25
     93e:	af 93       	push	r26
     940:	bf 93       	push	r27
     942:	ef 93       	push	r30
     944:	ff 93       	push	r31
	adca_callback(&ADCA, ADC_CH2, adc_get_result(&ADCA, ADC_CH2));
     946:	40 91 34 02 	lds	r20, 0x0234	; 0x800234 <__TEXT_REGION_LENGTH__+0x700234>
     94a:	50 91 35 02 	lds	r21, 0x0235	; 0x800235 <__TEXT_REGION_LENGTH__+0x700235>
     94e:	e0 91 bb 20 	lds	r30, 0x20BB	; 0x8020bb <adca_callback>
     952:	f0 91 bc 20 	lds	r31, 0x20BC	; 0x8020bc <adca_callback+0x1>
     956:	64 e0       	ldi	r22, 0x04	; 4
     958:	80 e0       	ldi	r24, 0x00	; 0
     95a:	92 e0       	ldi	r25, 0x02	; 2
     95c:	19 95       	eicall
}
     95e:	ff 91       	pop	r31
     960:	ef 91       	pop	r30
     962:	bf 91       	pop	r27
     964:	af 91       	pop	r26
     966:	9f 91       	pop	r25
     968:	8f 91       	pop	r24
     96a:	7f 91       	pop	r23
     96c:	6f 91       	pop	r22
     96e:	5f 91       	pop	r21
     970:	4f 91       	pop	r20
     972:	3f 91       	pop	r19
     974:	2f 91       	pop	r18
     976:	0f 90       	pop	r0
     978:	0b be       	out	0x3b, r0	; 59
     97a:	0f 90       	pop	r0
     97c:	09 be       	out	0x39, r0	; 57
     97e:	0f 90       	pop	r0
     980:	08 be       	out	0x38, r0	; 56
     982:	0f 90       	pop	r0
     984:	0f be       	out	0x3f, r0	; 63
     986:	0f 90       	pop	r0
     988:	1f 90       	pop	r1
     98a:	18 95       	reti

0000098c <__vector_74>:
 *
 * Calls the callback function that has been set for the ADC when the channel's
 * interrupt flag is set, if its interrupt has been enabled.
 */
ISR(ADCA_CH3_vect)
{
     98c:	1f 92       	push	r1
     98e:	0f 92       	push	r0
     990:	0f b6       	in	r0, 0x3f	; 63
     992:	0f 92       	push	r0
     994:	11 24       	eor	r1, r1
     996:	08 b6       	in	r0, 0x38	; 56
     998:	0f 92       	push	r0
     99a:	18 be       	out	0x38, r1	; 56
     99c:	09 b6       	in	r0, 0x39	; 57
     99e:	0f 92       	push	r0
     9a0:	19 be       	out	0x39, r1	; 57
     9a2:	0b b6       	in	r0, 0x3b	; 59
     9a4:	0f 92       	push	r0
     9a6:	1b be       	out	0x3b, r1	; 59
     9a8:	2f 93       	push	r18
     9aa:	3f 93       	push	r19
     9ac:	4f 93       	push	r20
     9ae:	5f 93       	push	r21
     9b0:	6f 93       	push	r22
     9b2:	7f 93       	push	r23
     9b4:	8f 93       	push	r24
     9b6:	9f 93       	push	r25
     9b8:	af 93       	push	r26
     9ba:	bf 93       	push	r27
     9bc:	ef 93       	push	r30
     9be:	ff 93       	push	r31
	adca_callback(&ADCA, ADC_CH3, adc_get_result(&ADCA, ADC_CH3));
     9c0:	40 91 3c 02 	lds	r20, 0x023C	; 0x80023c <__TEXT_REGION_LENGTH__+0x70023c>
     9c4:	50 91 3d 02 	lds	r21, 0x023D	; 0x80023d <__TEXT_REGION_LENGTH__+0x70023d>
     9c8:	e0 91 bb 20 	lds	r30, 0x20BB	; 0x8020bb <adca_callback>
     9cc:	f0 91 bc 20 	lds	r31, 0x20BC	; 0x8020bc <adca_callback+0x1>
     9d0:	68 e0       	ldi	r22, 0x08	; 8
     9d2:	80 e0       	ldi	r24, 0x00	; 0
     9d4:	92 e0       	ldi	r25, 0x02	; 2
     9d6:	19 95       	eicall
}
     9d8:	ff 91       	pop	r31
     9da:	ef 91       	pop	r30
     9dc:	bf 91       	pop	r27
     9de:	af 91       	pop	r26
     9e0:	9f 91       	pop	r25
     9e2:	8f 91       	pop	r24
     9e4:	7f 91       	pop	r23
     9e6:	6f 91       	pop	r22
     9e8:	5f 91       	pop	r21
     9ea:	4f 91       	pop	r20
     9ec:	3f 91       	pop	r19
     9ee:	2f 91       	pop	r18
     9f0:	0f 90       	pop	r0
     9f2:	0b be       	out	0x3b, r0	; 59
     9f4:	0f 90       	pop	r0
     9f6:	09 be       	out	0x39, r0	; 57
     9f8:	0f 90       	pop	r0
     9fa:	08 be       	out	0x38, r0	; 56
     9fc:	0f 90       	pop	r0
     9fe:	0f be       	out	0x3f, r0	; 63
     a00:	0f 90       	pop	r0
     a02:	1f 90       	pop	r1
     a04:	18 95       	reti

00000a06 <__vector_39>:
 *
 * Calls the callback function that has been set for the ADC when the channel's
 * interrupt flag is set, if its interrupt has been enabled.
 */
ISR(ADCB_CH0_vect)
{
     a06:	1f 92       	push	r1
     a08:	0f 92       	push	r0
     a0a:	0f b6       	in	r0, 0x3f	; 63
     a0c:	0f 92       	push	r0
     a0e:	11 24       	eor	r1, r1
     a10:	08 b6       	in	r0, 0x38	; 56
     a12:	0f 92       	push	r0
     a14:	18 be       	out	0x38, r1	; 56
     a16:	09 b6       	in	r0, 0x39	; 57
     a18:	0f 92       	push	r0
     a1a:	19 be       	out	0x39, r1	; 57
     a1c:	0b b6       	in	r0, 0x3b	; 59
     a1e:	0f 92       	push	r0
     a20:	1b be       	out	0x3b, r1	; 59
     a22:	2f 93       	push	r18
     a24:	3f 93       	push	r19
     a26:	4f 93       	push	r20
     a28:	5f 93       	push	r21
     a2a:	6f 93       	push	r22
     a2c:	7f 93       	push	r23
     a2e:	8f 93       	push	r24
     a30:	9f 93       	push	r25
     a32:	af 93       	push	r26
     a34:	bf 93       	push	r27
     a36:	ef 93       	push	r30
     a38:	ff 93       	push	r31
	adcb_callback(&ADCB, ADC_CH0, adc_get_result(&ADCB, ADC_CH0));
     a3a:	40 91 64 02 	lds	r20, 0x0264	; 0x800264 <__TEXT_REGION_LENGTH__+0x700264>
     a3e:	50 91 65 02 	lds	r21, 0x0265	; 0x800265 <__TEXT_REGION_LENGTH__+0x700265>
     a42:	e0 91 b9 20 	lds	r30, 0x20B9	; 0x8020b9 <adcb_callback>
     a46:	f0 91 ba 20 	lds	r31, 0x20BA	; 0x8020ba <adcb_callback+0x1>
     a4a:	61 e0       	ldi	r22, 0x01	; 1
     a4c:	80 e4       	ldi	r24, 0x40	; 64
     a4e:	92 e0       	ldi	r25, 0x02	; 2
     a50:	19 95       	eicall
}
     a52:	ff 91       	pop	r31
     a54:	ef 91       	pop	r30
     a56:	bf 91       	pop	r27
     a58:	af 91       	pop	r26
     a5a:	9f 91       	pop	r25
     a5c:	8f 91       	pop	r24
     a5e:	7f 91       	pop	r23
     a60:	6f 91       	pop	r22
     a62:	5f 91       	pop	r21
     a64:	4f 91       	pop	r20
     a66:	3f 91       	pop	r19
     a68:	2f 91       	pop	r18
     a6a:	0f 90       	pop	r0
     a6c:	0b be       	out	0x3b, r0	; 59
     a6e:	0f 90       	pop	r0
     a70:	09 be       	out	0x39, r0	; 57
     a72:	0f 90       	pop	r0
     a74:	08 be       	out	0x38, r0	; 56
     a76:	0f 90       	pop	r0
     a78:	0f be       	out	0x3f, r0	; 63
     a7a:	0f 90       	pop	r0
     a7c:	1f 90       	pop	r1
     a7e:	18 95       	reti

00000a80 <__vector_40>:
 *
 * Calls the callback function that has been set for the ADC when the channel's
 * interrupt flag is set, if its interrupt has been enabled.
 */
ISR(ADCB_CH1_vect)
{
     a80:	1f 92       	push	r1
     a82:	0f 92       	push	r0
     a84:	0f b6       	in	r0, 0x3f	; 63
     a86:	0f 92       	push	r0
     a88:	11 24       	eor	r1, r1
     a8a:	08 b6       	in	r0, 0x38	; 56
     a8c:	0f 92       	push	r0
     a8e:	18 be       	out	0x38, r1	; 56
     a90:	09 b6       	in	r0, 0x39	; 57
     a92:	0f 92       	push	r0
     a94:	19 be       	out	0x39, r1	; 57
     a96:	0b b6       	in	r0, 0x3b	; 59
     a98:	0f 92       	push	r0
     a9a:	1b be       	out	0x3b, r1	; 59
     a9c:	2f 93       	push	r18
     a9e:	3f 93       	push	r19
     aa0:	4f 93       	push	r20
     aa2:	5f 93       	push	r21
     aa4:	6f 93       	push	r22
     aa6:	7f 93       	push	r23
     aa8:	8f 93       	push	r24
     aaa:	9f 93       	push	r25
     aac:	af 93       	push	r26
     aae:	bf 93       	push	r27
     ab0:	ef 93       	push	r30
     ab2:	ff 93       	push	r31
	adcb_callback(&ADCB, ADC_CH1, adc_get_result(&ADCB, ADC_CH1));
     ab4:	40 91 6c 02 	lds	r20, 0x026C	; 0x80026c <__TEXT_REGION_LENGTH__+0x70026c>
     ab8:	50 91 6d 02 	lds	r21, 0x026D	; 0x80026d <__TEXT_REGION_LENGTH__+0x70026d>
     abc:	e0 91 b9 20 	lds	r30, 0x20B9	; 0x8020b9 <adcb_callback>
     ac0:	f0 91 ba 20 	lds	r31, 0x20BA	; 0x8020ba <adcb_callback+0x1>
     ac4:	62 e0       	ldi	r22, 0x02	; 2
     ac6:	80 e4       	ldi	r24, 0x40	; 64
     ac8:	92 e0       	ldi	r25, 0x02	; 2
     aca:	19 95       	eicall
}
     acc:	ff 91       	pop	r31
     ace:	ef 91       	pop	r30
     ad0:	bf 91       	pop	r27
     ad2:	af 91       	pop	r26
     ad4:	9f 91       	pop	r25
     ad6:	8f 91       	pop	r24
     ad8:	7f 91       	pop	r23
     ada:	6f 91       	pop	r22
     adc:	5f 91       	pop	r21
     ade:	4f 91       	pop	r20
     ae0:	3f 91       	pop	r19
     ae2:	2f 91       	pop	r18
     ae4:	0f 90       	pop	r0
     ae6:	0b be       	out	0x3b, r0	; 59
     ae8:	0f 90       	pop	r0
     aea:	09 be       	out	0x39, r0	; 57
     aec:	0f 90       	pop	r0
     aee:	08 be       	out	0x38, r0	; 56
     af0:	0f 90       	pop	r0
     af2:	0f be       	out	0x3f, r0	; 63
     af4:	0f 90       	pop	r0
     af6:	1f 90       	pop	r1
     af8:	18 95       	reti

00000afa <__vector_41>:
 *
 * Calls the callback function that has been set for the ADC when the channel's
 * interrupt flag is set, if its interrupt has been enabled.
 */
ISR(ADCB_CH2_vect)
{
     afa:	1f 92       	push	r1
     afc:	0f 92       	push	r0
     afe:	0f b6       	in	r0, 0x3f	; 63
     b00:	0f 92       	push	r0
     b02:	11 24       	eor	r1, r1
     b04:	08 b6       	in	r0, 0x38	; 56
     b06:	0f 92       	push	r0
     b08:	18 be       	out	0x38, r1	; 56
     b0a:	09 b6       	in	r0, 0x39	; 57
     b0c:	0f 92       	push	r0
     b0e:	19 be       	out	0x39, r1	; 57
     b10:	0b b6       	in	r0, 0x3b	; 59
     b12:	0f 92       	push	r0
     b14:	1b be       	out	0x3b, r1	; 59
     b16:	2f 93       	push	r18
     b18:	3f 93       	push	r19
     b1a:	4f 93       	push	r20
     b1c:	5f 93       	push	r21
     b1e:	6f 93       	push	r22
     b20:	7f 93       	push	r23
     b22:	8f 93       	push	r24
     b24:	9f 93       	push	r25
     b26:	af 93       	push	r26
     b28:	bf 93       	push	r27
     b2a:	ef 93       	push	r30
     b2c:	ff 93       	push	r31
	adcb_callback(&ADCB, ADC_CH2, adc_get_result(&ADCB, ADC_CH2));
     b2e:	40 91 74 02 	lds	r20, 0x0274	; 0x800274 <__TEXT_REGION_LENGTH__+0x700274>
     b32:	50 91 75 02 	lds	r21, 0x0275	; 0x800275 <__TEXT_REGION_LENGTH__+0x700275>
     b36:	e0 91 b9 20 	lds	r30, 0x20B9	; 0x8020b9 <adcb_callback>
     b3a:	f0 91 ba 20 	lds	r31, 0x20BA	; 0x8020ba <adcb_callback+0x1>
     b3e:	64 e0       	ldi	r22, 0x04	; 4
     b40:	80 e4       	ldi	r24, 0x40	; 64
     b42:	92 e0       	ldi	r25, 0x02	; 2
     b44:	19 95       	eicall
}
     b46:	ff 91       	pop	r31
     b48:	ef 91       	pop	r30
     b4a:	bf 91       	pop	r27
     b4c:	af 91       	pop	r26
     b4e:	9f 91       	pop	r25
     b50:	8f 91       	pop	r24
     b52:	7f 91       	pop	r23
     b54:	6f 91       	pop	r22
     b56:	5f 91       	pop	r21
     b58:	4f 91       	pop	r20
     b5a:	3f 91       	pop	r19
     b5c:	2f 91       	pop	r18
     b5e:	0f 90       	pop	r0
     b60:	0b be       	out	0x3b, r0	; 59
     b62:	0f 90       	pop	r0
     b64:	09 be       	out	0x39, r0	; 57
     b66:	0f 90       	pop	r0
     b68:	08 be       	out	0x38, r0	; 56
     b6a:	0f 90       	pop	r0
     b6c:	0f be       	out	0x3f, r0	; 63
     b6e:	0f 90       	pop	r0
     b70:	1f 90       	pop	r1
     b72:	18 95       	reti

00000b74 <__vector_42>:
 *
 * Calls the callback function that has been set for the ADC when the channel's
 * interrupt flag is set, if its interrupt has been enabled.
 */
ISR(ADCB_CH3_vect)
{
     b74:	1f 92       	push	r1
     b76:	0f 92       	push	r0
     b78:	0f b6       	in	r0, 0x3f	; 63
     b7a:	0f 92       	push	r0
     b7c:	11 24       	eor	r1, r1
     b7e:	08 b6       	in	r0, 0x38	; 56
     b80:	0f 92       	push	r0
     b82:	18 be       	out	0x38, r1	; 56
     b84:	09 b6       	in	r0, 0x39	; 57
     b86:	0f 92       	push	r0
     b88:	19 be       	out	0x39, r1	; 57
     b8a:	0b b6       	in	r0, 0x3b	; 59
     b8c:	0f 92       	push	r0
     b8e:	1b be       	out	0x3b, r1	; 59
     b90:	2f 93       	push	r18
     b92:	3f 93       	push	r19
     b94:	4f 93       	push	r20
     b96:	5f 93       	push	r21
     b98:	6f 93       	push	r22
     b9a:	7f 93       	push	r23
     b9c:	8f 93       	push	r24
     b9e:	9f 93       	push	r25
     ba0:	af 93       	push	r26
     ba2:	bf 93       	push	r27
     ba4:	ef 93       	push	r30
     ba6:	ff 93       	push	r31
	adcb_callback(&ADCB, ADC_CH3, adc_get_result(&ADCB, ADC_CH3));
     ba8:	40 91 7c 02 	lds	r20, 0x027C	; 0x80027c <__TEXT_REGION_LENGTH__+0x70027c>
     bac:	50 91 7d 02 	lds	r21, 0x027D	; 0x80027d <__TEXT_REGION_LENGTH__+0x70027d>
     bb0:	e0 91 b9 20 	lds	r30, 0x20B9	; 0x8020b9 <adcb_callback>
     bb4:	f0 91 ba 20 	lds	r31, 0x20BA	; 0x8020ba <adcb_callback+0x1>
     bb8:	68 e0       	ldi	r22, 0x08	; 8
     bba:	80 e4       	ldi	r24, 0x40	; 64
     bbc:	92 e0       	ldi	r25, 0x02	; 2
     bbe:	19 95       	eicall
}
     bc0:	ff 91       	pop	r31
     bc2:	ef 91       	pop	r30
     bc4:	bf 91       	pop	r27
     bc6:	af 91       	pop	r26
     bc8:	9f 91       	pop	r25
     bca:	8f 91       	pop	r24
     bcc:	7f 91       	pop	r23
     bce:	6f 91       	pop	r22
     bd0:	5f 91       	pop	r21
     bd2:	4f 91       	pop	r20
     bd4:	3f 91       	pop	r19
     bd6:	2f 91       	pop	r18
     bd8:	0f 90       	pop	r0
     bda:	0b be       	out	0x3b, r0	; 59
     bdc:	0f 90       	pop	r0
     bde:	09 be       	out	0x39, r0	; 57
     be0:	0f 90       	pop	r0
     be2:	08 be       	out	0x38, r0	; 56
     be4:	0f 90       	pop	r0
     be6:	0f be       	out	0x3f, r0	; 63
     be8:	0f 90       	pop	r0
     bea:	1f 90       	pop	r1
     bec:	18 95       	reti

00000bee <ccp_write_io>:

	PUBLIC_FUNCTION(ccp_write_io)

#if defined(__GNUC__)

	out     RAMPZ, r1               // Reset bits 23:16 of Z
     bee:	1b be       	out	0x3b, r1	; 59
	movw    r30, r24                // Load addr into Z
     bf0:	fc 01       	movw	r30, r24
	ldi     r18, CCP_IOREG          // Load magic CCP value
     bf2:	28 ed       	ldi	r18, 0xD8	; 216
	out     CCP, r18                // Start CCP handshake
     bf4:	24 bf       	out	0x34, r18	; 52
	st      Z, r22                  // Write value to I/O register
     bf6:	60 83       	st	Z, r22
	ret                             // Return to caller
     bf8:	08 95       	ret

00000bfa <nvm_read_byte>:
#endif

#ifndef __DOXYGEN__
	PUBLIC_FUNCTION(nvm_read_byte)
#if defined(__GNUC__)
	lds r20, NVM_CMD          ; Store NVM command register
     bfa:	40 91 ca 01 	lds	r20, 0x01CA	; 0x8001ca <__TEXT_REGION_LENGTH__+0x7001ca>
	mov ZL, r22               ; Load byte index into low byte of Z.
     bfe:	e6 2f       	mov	r30, r22
	mov ZH, r23               ; Load high byte into Z.
     c00:	f7 2f       	mov	r31, r23
	sts NVM_CMD, r24          ; Load prepared command into NVM Command register.
     c02:	80 93 ca 01 	sts	0x01CA, r24	; 0x8001ca <__TEXT_REGION_LENGTH__+0x7001ca>
	lpm r24, Z                ; Perform an LPM to read out byte
     c06:	84 91       	lpm	r24, Z
	sts NVM_CMD, r20          ; Restore NVM command register
     c08:	40 93 ca 01 	sts	0x01CA, r20	; 0x8001ca <__TEXT_REGION_LENGTH__+0x7001ca>
	sts NVM_CMD, r16          ; Load prepared command into NVM Command register.
	lpm r16, Z                ; Perform an LPM to read out byte
	sts NVM_CMD, r20          ; Restore NVM command register
#endif

	ret
     c0c:	08 95       	ret

00000c0e <__vector_14>:
 *
 * This function will handle interrupt on Timer Counter CO overflow and
 * call the callback function.
 */
ISR(TCC0_OVF_vect)
{
     c0e:	1f 92       	push	r1
     c10:	0f 92       	push	r0
     c12:	0f b6       	in	r0, 0x3f	; 63
     c14:	0f 92       	push	r0
     c16:	11 24       	eor	r1, r1
     c18:	08 b6       	in	r0, 0x38	; 56
     c1a:	0f 92       	push	r0
     c1c:	18 be       	out	0x38, r1	; 56
     c1e:	09 b6       	in	r0, 0x39	; 57
     c20:	0f 92       	push	r0
     c22:	19 be       	out	0x39, r1	; 57
     c24:	0b b6       	in	r0, 0x3b	; 59
     c26:	0f 92       	push	r0
     c28:	1b be       	out	0x3b, r1	; 59
     c2a:	2f 93       	push	r18
     c2c:	3f 93       	push	r19
     c2e:	4f 93       	push	r20
     c30:	5f 93       	push	r21
     c32:	6f 93       	push	r22
     c34:	7f 93       	push	r23
     c36:	8f 93       	push	r24
     c38:	9f 93       	push	r25
     c3a:	af 93       	push	r26
     c3c:	bf 93       	push	r27
     c3e:	ef 93       	push	r30
     c40:	ff 93       	push	r31
	if (tc_tcc0_ovf_callback) {
     c42:	e0 91 b1 20 	lds	r30, 0x20B1	; 0x8020b1 <tc_tcc0_ovf_callback>
     c46:	f0 91 b2 20 	lds	r31, 0x20B2	; 0x8020b2 <tc_tcc0_ovf_callback+0x1>
     c4a:	30 97       	sbiw	r30, 0x00	; 0
     c4c:	09 f0       	breq	.+2      	; 0xc50 <__vector_14+0x42>
		tc_tcc0_ovf_callback();
     c4e:	19 95       	eicall
	}
}
     c50:	ff 91       	pop	r31
     c52:	ef 91       	pop	r30
     c54:	bf 91       	pop	r27
     c56:	af 91       	pop	r26
     c58:	9f 91       	pop	r25
     c5a:	8f 91       	pop	r24
     c5c:	7f 91       	pop	r23
     c5e:	6f 91       	pop	r22
     c60:	5f 91       	pop	r21
     c62:	4f 91       	pop	r20
     c64:	3f 91       	pop	r19
     c66:	2f 91       	pop	r18
     c68:	0f 90       	pop	r0
     c6a:	0b be       	out	0x3b, r0	; 59
     c6c:	0f 90       	pop	r0
     c6e:	09 be       	out	0x39, r0	; 57
     c70:	0f 90       	pop	r0
     c72:	08 be       	out	0x38, r0	; 56
     c74:	0f 90       	pop	r0
     c76:	0f be       	out	0x3f, r0	; 63
     c78:	0f 90       	pop	r0
     c7a:	1f 90       	pop	r1
     c7c:	18 95       	reti

00000c7e <__vector_15>:
 *
 * This function will handle interrupt on Timer Counter CO error and
 * call the callback function.
 */
ISR(TCC0_ERR_vect)
{
     c7e:	1f 92       	push	r1
     c80:	0f 92       	push	r0
     c82:	0f b6       	in	r0, 0x3f	; 63
     c84:	0f 92       	push	r0
     c86:	11 24       	eor	r1, r1
     c88:	08 b6       	in	r0, 0x38	; 56
     c8a:	0f 92       	push	r0
     c8c:	18 be       	out	0x38, r1	; 56
     c8e:	09 b6       	in	r0, 0x39	; 57
     c90:	0f 92       	push	r0
     c92:	19 be       	out	0x39, r1	; 57
     c94:	0b b6       	in	r0, 0x3b	; 59
     c96:	0f 92       	push	r0
     c98:	1b be       	out	0x3b, r1	; 59
     c9a:	2f 93       	push	r18
     c9c:	3f 93       	push	r19
     c9e:	4f 93       	push	r20
     ca0:	5f 93       	push	r21
     ca2:	6f 93       	push	r22
     ca4:	7f 93       	push	r23
     ca6:	8f 93       	push	r24
     ca8:	9f 93       	push	r25
     caa:	af 93       	push	r26
     cac:	bf 93       	push	r27
     cae:	ef 93       	push	r30
     cb0:	ff 93       	push	r31
	if (tc_tcc0_err_callback) {
     cb2:	e0 91 af 20 	lds	r30, 0x20AF	; 0x8020af <tc_tcc0_err_callback>
     cb6:	f0 91 b0 20 	lds	r31, 0x20B0	; 0x8020b0 <tc_tcc0_err_callback+0x1>
     cba:	30 97       	sbiw	r30, 0x00	; 0
     cbc:	09 f0       	breq	.+2      	; 0xcc0 <__vector_15+0x42>
		tc_tcc0_err_callback();
     cbe:	19 95       	eicall
	}
}
     cc0:	ff 91       	pop	r31
     cc2:	ef 91       	pop	r30
     cc4:	bf 91       	pop	r27
     cc6:	af 91       	pop	r26
     cc8:	9f 91       	pop	r25
     cca:	8f 91       	pop	r24
     ccc:	7f 91       	pop	r23
     cce:	6f 91       	pop	r22
     cd0:	5f 91       	pop	r21
     cd2:	4f 91       	pop	r20
     cd4:	3f 91       	pop	r19
     cd6:	2f 91       	pop	r18
     cd8:	0f 90       	pop	r0
     cda:	0b be       	out	0x3b, r0	; 59
     cdc:	0f 90       	pop	r0
     cde:	09 be       	out	0x39, r0	; 57
     ce0:	0f 90       	pop	r0
     ce2:	08 be       	out	0x38, r0	; 56
     ce4:	0f 90       	pop	r0
     ce6:	0f be       	out	0x3f, r0	; 63
     ce8:	0f 90       	pop	r0
     cea:	1f 90       	pop	r1
     cec:	18 95       	reti

00000cee <__vector_16>:
 *
 * This function will handle interrupt on Timer Counter CO Compare/CaptureA and
 * call the callback function.
 */
ISR(TCC0_CCA_vect)
{
     cee:	1f 92       	push	r1
     cf0:	0f 92       	push	r0
     cf2:	0f b6       	in	r0, 0x3f	; 63
     cf4:	0f 92       	push	r0
     cf6:	11 24       	eor	r1, r1
     cf8:	08 b6       	in	r0, 0x38	; 56
     cfa:	0f 92       	push	r0
     cfc:	18 be       	out	0x38, r1	; 56
     cfe:	09 b6       	in	r0, 0x39	; 57
     d00:	0f 92       	push	r0
     d02:	19 be       	out	0x39, r1	; 57
     d04:	0b b6       	in	r0, 0x3b	; 59
     d06:	0f 92       	push	r0
     d08:	1b be       	out	0x3b, r1	; 59
     d0a:	2f 93       	push	r18
     d0c:	3f 93       	push	r19
     d0e:	4f 93       	push	r20
     d10:	5f 93       	push	r21
     d12:	6f 93       	push	r22
     d14:	7f 93       	push	r23
     d16:	8f 93       	push	r24
     d18:	9f 93       	push	r25
     d1a:	af 93       	push	r26
     d1c:	bf 93       	push	r27
     d1e:	ef 93       	push	r30
     d20:	ff 93       	push	r31
	if (tc_tcc0_cca_callback) {
     d22:	e0 91 ad 20 	lds	r30, 0x20AD	; 0x8020ad <tc_tcc0_cca_callback>
     d26:	f0 91 ae 20 	lds	r31, 0x20AE	; 0x8020ae <tc_tcc0_cca_callback+0x1>
     d2a:	30 97       	sbiw	r30, 0x00	; 0
     d2c:	09 f0       	breq	.+2      	; 0xd30 <__vector_16+0x42>
		tc_tcc0_cca_callback();
     d2e:	19 95       	eicall
	}
}
     d30:	ff 91       	pop	r31
     d32:	ef 91       	pop	r30
     d34:	bf 91       	pop	r27
     d36:	af 91       	pop	r26
     d38:	9f 91       	pop	r25
     d3a:	8f 91       	pop	r24
     d3c:	7f 91       	pop	r23
     d3e:	6f 91       	pop	r22
     d40:	5f 91       	pop	r21
     d42:	4f 91       	pop	r20
     d44:	3f 91       	pop	r19
     d46:	2f 91       	pop	r18
     d48:	0f 90       	pop	r0
     d4a:	0b be       	out	0x3b, r0	; 59
     d4c:	0f 90       	pop	r0
     d4e:	09 be       	out	0x39, r0	; 57
     d50:	0f 90       	pop	r0
     d52:	08 be       	out	0x38, r0	; 56
     d54:	0f 90       	pop	r0
     d56:	0f be       	out	0x3f, r0	; 63
     d58:	0f 90       	pop	r0
     d5a:	1f 90       	pop	r1
     d5c:	18 95       	reti

00000d5e <__vector_17>:
 *
 * This function will handle interrupt on Timer Counter CO Compare/CaptureB and
 * call the callback function.
 */
ISR(TCC0_CCB_vect)
{
     d5e:	1f 92       	push	r1
     d60:	0f 92       	push	r0
     d62:	0f b6       	in	r0, 0x3f	; 63
     d64:	0f 92       	push	r0
     d66:	11 24       	eor	r1, r1
     d68:	08 b6       	in	r0, 0x38	; 56
     d6a:	0f 92       	push	r0
     d6c:	18 be       	out	0x38, r1	; 56
     d6e:	09 b6       	in	r0, 0x39	; 57
     d70:	0f 92       	push	r0
     d72:	19 be       	out	0x39, r1	; 57
     d74:	0b b6       	in	r0, 0x3b	; 59
     d76:	0f 92       	push	r0
     d78:	1b be       	out	0x3b, r1	; 59
     d7a:	2f 93       	push	r18
     d7c:	3f 93       	push	r19
     d7e:	4f 93       	push	r20
     d80:	5f 93       	push	r21
     d82:	6f 93       	push	r22
     d84:	7f 93       	push	r23
     d86:	8f 93       	push	r24
     d88:	9f 93       	push	r25
     d8a:	af 93       	push	r26
     d8c:	bf 93       	push	r27
     d8e:	ef 93       	push	r30
     d90:	ff 93       	push	r31
	if (tc_tcc0_ccb_callback) {
     d92:	e0 91 ab 20 	lds	r30, 0x20AB	; 0x8020ab <tc_tcc0_ccb_callback>
     d96:	f0 91 ac 20 	lds	r31, 0x20AC	; 0x8020ac <tc_tcc0_ccb_callback+0x1>
     d9a:	30 97       	sbiw	r30, 0x00	; 0
     d9c:	09 f0       	breq	.+2      	; 0xda0 <__vector_17+0x42>
		tc_tcc0_ccb_callback();
     d9e:	19 95       	eicall
	}
}
     da0:	ff 91       	pop	r31
     da2:	ef 91       	pop	r30
     da4:	bf 91       	pop	r27
     da6:	af 91       	pop	r26
     da8:	9f 91       	pop	r25
     daa:	8f 91       	pop	r24
     dac:	7f 91       	pop	r23
     dae:	6f 91       	pop	r22
     db0:	5f 91       	pop	r21
     db2:	4f 91       	pop	r20
     db4:	3f 91       	pop	r19
     db6:	2f 91       	pop	r18
     db8:	0f 90       	pop	r0
     dba:	0b be       	out	0x3b, r0	; 59
     dbc:	0f 90       	pop	r0
     dbe:	09 be       	out	0x39, r0	; 57
     dc0:	0f 90       	pop	r0
     dc2:	08 be       	out	0x38, r0	; 56
     dc4:	0f 90       	pop	r0
     dc6:	0f be       	out	0x3f, r0	; 63
     dc8:	0f 90       	pop	r0
     dca:	1f 90       	pop	r1
     dcc:	18 95       	reti

00000dce <__vector_18>:
 *
 * This function will handle interrupt on Timer Counter CO Compare/CaptureC and
 * call the callback function.
 */
ISR(TCC0_CCC_vect)
{
     dce:	1f 92       	push	r1
     dd0:	0f 92       	push	r0
     dd2:	0f b6       	in	r0, 0x3f	; 63
     dd4:	0f 92       	push	r0
     dd6:	11 24       	eor	r1, r1
     dd8:	08 b6       	in	r0, 0x38	; 56
     dda:	0f 92       	push	r0
     ddc:	18 be       	out	0x38, r1	; 56
     dde:	09 b6       	in	r0, 0x39	; 57
     de0:	0f 92       	push	r0
     de2:	19 be       	out	0x39, r1	; 57
     de4:	0b b6       	in	r0, 0x3b	; 59
     de6:	0f 92       	push	r0
     de8:	1b be       	out	0x3b, r1	; 59
     dea:	2f 93       	push	r18
     dec:	3f 93       	push	r19
     dee:	4f 93       	push	r20
     df0:	5f 93       	push	r21
     df2:	6f 93       	push	r22
     df4:	7f 93       	push	r23
     df6:	8f 93       	push	r24
     df8:	9f 93       	push	r25
     dfa:	af 93       	push	r26
     dfc:	bf 93       	push	r27
     dfe:	ef 93       	push	r30
     e00:	ff 93       	push	r31
	if (tc_tcc0_ccc_callback) {
     e02:	e0 91 a9 20 	lds	r30, 0x20A9	; 0x8020a9 <tc_tcc0_ccc_callback>
     e06:	f0 91 aa 20 	lds	r31, 0x20AA	; 0x8020aa <tc_tcc0_ccc_callback+0x1>
     e0a:	30 97       	sbiw	r30, 0x00	; 0
     e0c:	09 f0       	breq	.+2      	; 0xe10 <__vector_18+0x42>
		tc_tcc0_ccc_callback();
     e0e:	19 95       	eicall
	}
}
     e10:	ff 91       	pop	r31
     e12:	ef 91       	pop	r30
     e14:	bf 91       	pop	r27
     e16:	af 91       	pop	r26
     e18:	9f 91       	pop	r25
     e1a:	8f 91       	pop	r24
     e1c:	7f 91       	pop	r23
     e1e:	6f 91       	pop	r22
     e20:	5f 91       	pop	r21
     e22:	4f 91       	pop	r20
     e24:	3f 91       	pop	r19
     e26:	2f 91       	pop	r18
     e28:	0f 90       	pop	r0
     e2a:	0b be       	out	0x3b, r0	; 59
     e2c:	0f 90       	pop	r0
     e2e:	09 be       	out	0x39, r0	; 57
     e30:	0f 90       	pop	r0
     e32:	08 be       	out	0x38, r0	; 56
     e34:	0f 90       	pop	r0
     e36:	0f be       	out	0x3f, r0	; 63
     e38:	0f 90       	pop	r0
     e3a:	1f 90       	pop	r1
     e3c:	18 95       	reti

00000e3e <__vector_19>:
 *
 * This function will handle interrupt on Timer Counter CO Compare/CaptureD and
 * call the callback function.
 */
ISR(TCC0_CCD_vect)
{
     e3e:	1f 92       	push	r1
     e40:	0f 92       	push	r0
     e42:	0f b6       	in	r0, 0x3f	; 63
     e44:	0f 92       	push	r0
     e46:	11 24       	eor	r1, r1
     e48:	08 b6       	in	r0, 0x38	; 56
     e4a:	0f 92       	push	r0
     e4c:	18 be       	out	0x38, r1	; 56
     e4e:	09 b6       	in	r0, 0x39	; 57
     e50:	0f 92       	push	r0
     e52:	19 be       	out	0x39, r1	; 57
     e54:	0b b6       	in	r0, 0x3b	; 59
     e56:	0f 92       	push	r0
     e58:	1b be       	out	0x3b, r1	; 59
     e5a:	2f 93       	push	r18
     e5c:	3f 93       	push	r19
     e5e:	4f 93       	push	r20
     e60:	5f 93       	push	r21
     e62:	6f 93       	push	r22
     e64:	7f 93       	push	r23
     e66:	8f 93       	push	r24
     e68:	9f 93       	push	r25
     e6a:	af 93       	push	r26
     e6c:	bf 93       	push	r27
     e6e:	ef 93       	push	r30
     e70:	ff 93       	push	r31
	if (tc_tcc0_ccd_callback) {
     e72:	e0 91 a7 20 	lds	r30, 0x20A7	; 0x8020a7 <tc_tcc0_ccd_callback>
     e76:	f0 91 a8 20 	lds	r31, 0x20A8	; 0x8020a8 <tc_tcc0_ccd_callback+0x1>
     e7a:	30 97       	sbiw	r30, 0x00	; 0
     e7c:	09 f0       	breq	.+2      	; 0xe80 <__vector_19+0x42>
		tc_tcc0_ccd_callback();
     e7e:	19 95       	eicall
	}
}
     e80:	ff 91       	pop	r31
     e82:	ef 91       	pop	r30
     e84:	bf 91       	pop	r27
     e86:	af 91       	pop	r26
     e88:	9f 91       	pop	r25
     e8a:	8f 91       	pop	r24
     e8c:	7f 91       	pop	r23
     e8e:	6f 91       	pop	r22
     e90:	5f 91       	pop	r21
     e92:	4f 91       	pop	r20
     e94:	3f 91       	pop	r19
     e96:	2f 91       	pop	r18
     e98:	0f 90       	pop	r0
     e9a:	0b be       	out	0x3b, r0	; 59
     e9c:	0f 90       	pop	r0
     e9e:	09 be       	out	0x39, r0	; 57
     ea0:	0f 90       	pop	r0
     ea2:	08 be       	out	0x38, r0	; 56
     ea4:	0f 90       	pop	r0
     ea6:	0f be       	out	0x3f, r0	; 63
     ea8:	0f 90       	pop	r0
     eaa:	1f 90       	pop	r1
     eac:	18 95       	reti

00000eae <__vector_20>:
 *
 * This function will handle interrupt on Timer Counter C1 overflow and
 * call the callback function.
 */
ISR(TCC1_OVF_vect)
{
     eae:	1f 92       	push	r1
     eb0:	0f 92       	push	r0
     eb2:	0f b6       	in	r0, 0x3f	; 63
     eb4:	0f 92       	push	r0
     eb6:	11 24       	eor	r1, r1
     eb8:	08 b6       	in	r0, 0x38	; 56
     eba:	0f 92       	push	r0
     ebc:	18 be       	out	0x38, r1	; 56
     ebe:	09 b6       	in	r0, 0x39	; 57
     ec0:	0f 92       	push	r0
     ec2:	19 be       	out	0x39, r1	; 57
     ec4:	0b b6       	in	r0, 0x3b	; 59
     ec6:	0f 92       	push	r0
     ec8:	1b be       	out	0x3b, r1	; 59
     eca:	2f 93       	push	r18
     ecc:	3f 93       	push	r19
     ece:	4f 93       	push	r20
     ed0:	5f 93       	push	r21
     ed2:	6f 93       	push	r22
     ed4:	7f 93       	push	r23
     ed6:	8f 93       	push	r24
     ed8:	9f 93       	push	r25
     eda:	af 93       	push	r26
     edc:	bf 93       	push	r27
     ede:	ef 93       	push	r30
     ee0:	ff 93       	push	r31
	if (tc_tcc1_ovf_callback) {
     ee2:	e0 91 a5 20 	lds	r30, 0x20A5	; 0x8020a5 <tc_tcc1_ovf_callback>
     ee6:	f0 91 a6 20 	lds	r31, 0x20A6	; 0x8020a6 <tc_tcc1_ovf_callback+0x1>
     eea:	30 97       	sbiw	r30, 0x00	; 0
     eec:	09 f0       	breq	.+2      	; 0xef0 <__vector_20+0x42>
		tc_tcc1_ovf_callback();
     eee:	19 95       	eicall
	}
}
     ef0:	ff 91       	pop	r31
     ef2:	ef 91       	pop	r30
     ef4:	bf 91       	pop	r27
     ef6:	af 91       	pop	r26
     ef8:	9f 91       	pop	r25
     efa:	8f 91       	pop	r24
     efc:	7f 91       	pop	r23
     efe:	6f 91       	pop	r22
     f00:	5f 91       	pop	r21
     f02:	4f 91       	pop	r20
     f04:	3f 91       	pop	r19
     f06:	2f 91       	pop	r18
     f08:	0f 90       	pop	r0
     f0a:	0b be       	out	0x3b, r0	; 59
     f0c:	0f 90       	pop	r0
     f0e:	09 be       	out	0x39, r0	; 57
     f10:	0f 90       	pop	r0
     f12:	08 be       	out	0x38, r0	; 56
     f14:	0f 90       	pop	r0
     f16:	0f be       	out	0x3f, r0	; 63
     f18:	0f 90       	pop	r0
     f1a:	1f 90       	pop	r1
     f1c:	18 95       	reti

00000f1e <__vector_21>:
 *
 * This function will handle interrupt on Timer Counter C1 error and
 * call the callback function.
 */
ISR(TCC1_ERR_vect)
{
     f1e:	1f 92       	push	r1
     f20:	0f 92       	push	r0
     f22:	0f b6       	in	r0, 0x3f	; 63
     f24:	0f 92       	push	r0
     f26:	11 24       	eor	r1, r1
     f28:	08 b6       	in	r0, 0x38	; 56
     f2a:	0f 92       	push	r0
     f2c:	18 be       	out	0x38, r1	; 56
     f2e:	09 b6       	in	r0, 0x39	; 57
     f30:	0f 92       	push	r0
     f32:	19 be       	out	0x39, r1	; 57
     f34:	0b b6       	in	r0, 0x3b	; 59
     f36:	0f 92       	push	r0
     f38:	1b be       	out	0x3b, r1	; 59
     f3a:	2f 93       	push	r18
     f3c:	3f 93       	push	r19
     f3e:	4f 93       	push	r20
     f40:	5f 93       	push	r21
     f42:	6f 93       	push	r22
     f44:	7f 93       	push	r23
     f46:	8f 93       	push	r24
     f48:	9f 93       	push	r25
     f4a:	af 93       	push	r26
     f4c:	bf 93       	push	r27
     f4e:	ef 93       	push	r30
     f50:	ff 93       	push	r31
	if (tc_tcc1_err_callback) {
     f52:	e0 91 a3 20 	lds	r30, 0x20A3	; 0x8020a3 <tc_tcc1_err_callback>
     f56:	f0 91 a4 20 	lds	r31, 0x20A4	; 0x8020a4 <tc_tcc1_err_callback+0x1>
     f5a:	30 97       	sbiw	r30, 0x00	; 0
     f5c:	09 f0       	breq	.+2      	; 0xf60 <__vector_21+0x42>
		tc_tcc1_err_callback();
     f5e:	19 95       	eicall
	}
}
     f60:	ff 91       	pop	r31
     f62:	ef 91       	pop	r30
     f64:	bf 91       	pop	r27
     f66:	af 91       	pop	r26
     f68:	9f 91       	pop	r25
     f6a:	8f 91       	pop	r24
     f6c:	7f 91       	pop	r23
     f6e:	6f 91       	pop	r22
     f70:	5f 91       	pop	r21
     f72:	4f 91       	pop	r20
     f74:	3f 91       	pop	r19
     f76:	2f 91       	pop	r18
     f78:	0f 90       	pop	r0
     f7a:	0b be       	out	0x3b, r0	; 59
     f7c:	0f 90       	pop	r0
     f7e:	09 be       	out	0x39, r0	; 57
     f80:	0f 90       	pop	r0
     f82:	08 be       	out	0x38, r0	; 56
     f84:	0f 90       	pop	r0
     f86:	0f be       	out	0x3f, r0	; 63
     f88:	0f 90       	pop	r0
     f8a:	1f 90       	pop	r1
     f8c:	18 95       	reti

00000f8e <__vector_22>:
 *
 * This function will handle interrupt on Timer Counter C1 Compare/CaptureA and
 * call the callback function.
 */
ISR(TCC1_CCA_vect)
{
     f8e:	1f 92       	push	r1
     f90:	0f 92       	push	r0
     f92:	0f b6       	in	r0, 0x3f	; 63
     f94:	0f 92       	push	r0
     f96:	11 24       	eor	r1, r1
     f98:	08 b6       	in	r0, 0x38	; 56
     f9a:	0f 92       	push	r0
     f9c:	18 be       	out	0x38, r1	; 56
     f9e:	09 b6       	in	r0, 0x39	; 57
     fa0:	0f 92       	push	r0
     fa2:	19 be       	out	0x39, r1	; 57
     fa4:	0b b6       	in	r0, 0x3b	; 59
     fa6:	0f 92       	push	r0
     fa8:	1b be       	out	0x3b, r1	; 59
     faa:	2f 93       	push	r18
     fac:	3f 93       	push	r19
     fae:	4f 93       	push	r20
     fb0:	5f 93       	push	r21
     fb2:	6f 93       	push	r22
     fb4:	7f 93       	push	r23
     fb6:	8f 93       	push	r24
     fb8:	9f 93       	push	r25
     fba:	af 93       	push	r26
     fbc:	bf 93       	push	r27
     fbe:	ef 93       	push	r30
     fc0:	ff 93       	push	r31
	if (tc_tcc1_cca_callback) {
     fc2:	e0 91 a1 20 	lds	r30, 0x20A1	; 0x8020a1 <tc_tcc1_cca_callback>
     fc6:	f0 91 a2 20 	lds	r31, 0x20A2	; 0x8020a2 <tc_tcc1_cca_callback+0x1>
     fca:	30 97       	sbiw	r30, 0x00	; 0
     fcc:	09 f0       	breq	.+2      	; 0xfd0 <__vector_22+0x42>
		tc_tcc1_cca_callback();
     fce:	19 95       	eicall
	}
}
     fd0:	ff 91       	pop	r31
     fd2:	ef 91       	pop	r30
     fd4:	bf 91       	pop	r27
     fd6:	af 91       	pop	r26
     fd8:	9f 91       	pop	r25
     fda:	8f 91       	pop	r24
     fdc:	7f 91       	pop	r23
     fde:	6f 91       	pop	r22
     fe0:	5f 91       	pop	r21
     fe2:	4f 91       	pop	r20
     fe4:	3f 91       	pop	r19
     fe6:	2f 91       	pop	r18
     fe8:	0f 90       	pop	r0
     fea:	0b be       	out	0x3b, r0	; 59
     fec:	0f 90       	pop	r0
     fee:	09 be       	out	0x39, r0	; 57
     ff0:	0f 90       	pop	r0
     ff2:	08 be       	out	0x38, r0	; 56
     ff4:	0f 90       	pop	r0
     ff6:	0f be       	out	0x3f, r0	; 63
     ff8:	0f 90       	pop	r0
     ffa:	1f 90       	pop	r1
     ffc:	18 95       	reti

00000ffe <__vector_23>:
 *
 * This function will handle interrupt on Timer Counter C1 Compare/CaptureB and
 * call the callback function.
 */
ISR(TCC1_CCB_vect)
{
     ffe:	1f 92       	push	r1
    1000:	0f 92       	push	r0
    1002:	0f b6       	in	r0, 0x3f	; 63
    1004:	0f 92       	push	r0
    1006:	11 24       	eor	r1, r1
    1008:	08 b6       	in	r0, 0x38	; 56
    100a:	0f 92       	push	r0
    100c:	18 be       	out	0x38, r1	; 56
    100e:	09 b6       	in	r0, 0x39	; 57
    1010:	0f 92       	push	r0
    1012:	19 be       	out	0x39, r1	; 57
    1014:	0b b6       	in	r0, 0x3b	; 59
    1016:	0f 92       	push	r0
    1018:	1b be       	out	0x3b, r1	; 59
    101a:	2f 93       	push	r18
    101c:	3f 93       	push	r19
    101e:	4f 93       	push	r20
    1020:	5f 93       	push	r21
    1022:	6f 93       	push	r22
    1024:	7f 93       	push	r23
    1026:	8f 93       	push	r24
    1028:	9f 93       	push	r25
    102a:	af 93       	push	r26
    102c:	bf 93       	push	r27
    102e:	ef 93       	push	r30
    1030:	ff 93       	push	r31
	if (tc_tcc1_ccb_callback) {
    1032:	e0 91 9f 20 	lds	r30, 0x209F	; 0x80209f <tc_tcc1_ccb_callback>
    1036:	f0 91 a0 20 	lds	r31, 0x20A0	; 0x8020a0 <tc_tcc1_ccb_callback+0x1>
    103a:	30 97       	sbiw	r30, 0x00	; 0
    103c:	09 f0       	breq	.+2      	; 0x1040 <__vector_23+0x42>
		tc_tcc1_ccb_callback();
    103e:	19 95       	eicall
	}
}
    1040:	ff 91       	pop	r31
    1042:	ef 91       	pop	r30
    1044:	bf 91       	pop	r27
    1046:	af 91       	pop	r26
    1048:	9f 91       	pop	r25
    104a:	8f 91       	pop	r24
    104c:	7f 91       	pop	r23
    104e:	6f 91       	pop	r22
    1050:	5f 91       	pop	r21
    1052:	4f 91       	pop	r20
    1054:	3f 91       	pop	r19
    1056:	2f 91       	pop	r18
    1058:	0f 90       	pop	r0
    105a:	0b be       	out	0x3b, r0	; 59
    105c:	0f 90       	pop	r0
    105e:	09 be       	out	0x39, r0	; 57
    1060:	0f 90       	pop	r0
    1062:	08 be       	out	0x38, r0	; 56
    1064:	0f 90       	pop	r0
    1066:	0f be       	out	0x3f, r0	; 63
    1068:	0f 90       	pop	r0
    106a:	1f 90       	pop	r1
    106c:	18 95       	reti

0000106e <__vector_77>:
 *
 * This function will handle interrupt on Timer Counter D0 overflow and
 * call the callback function.
 */
ISR(TCD0_OVF_vect)
{
    106e:	1f 92       	push	r1
    1070:	0f 92       	push	r0
    1072:	0f b6       	in	r0, 0x3f	; 63
    1074:	0f 92       	push	r0
    1076:	11 24       	eor	r1, r1
    1078:	08 b6       	in	r0, 0x38	; 56
    107a:	0f 92       	push	r0
    107c:	18 be       	out	0x38, r1	; 56
    107e:	09 b6       	in	r0, 0x39	; 57
    1080:	0f 92       	push	r0
    1082:	19 be       	out	0x39, r1	; 57
    1084:	0b b6       	in	r0, 0x3b	; 59
    1086:	0f 92       	push	r0
    1088:	1b be       	out	0x3b, r1	; 59
    108a:	2f 93       	push	r18
    108c:	3f 93       	push	r19
    108e:	4f 93       	push	r20
    1090:	5f 93       	push	r21
    1092:	6f 93       	push	r22
    1094:	7f 93       	push	r23
    1096:	8f 93       	push	r24
    1098:	9f 93       	push	r25
    109a:	af 93       	push	r26
    109c:	bf 93       	push	r27
    109e:	ef 93       	push	r30
    10a0:	ff 93       	push	r31
	if (tc_tcd0_ovf_callback) {
    10a2:	e0 91 9d 20 	lds	r30, 0x209D	; 0x80209d <tc_tcd0_ovf_callback>
    10a6:	f0 91 9e 20 	lds	r31, 0x209E	; 0x80209e <tc_tcd0_ovf_callback+0x1>
    10aa:	30 97       	sbiw	r30, 0x00	; 0
    10ac:	09 f0       	breq	.+2      	; 0x10b0 <__vector_77+0x42>
		tc_tcd0_ovf_callback();
    10ae:	19 95       	eicall
	}
}
    10b0:	ff 91       	pop	r31
    10b2:	ef 91       	pop	r30
    10b4:	bf 91       	pop	r27
    10b6:	af 91       	pop	r26
    10b8:	9f 91       	pop	r25
    10ba:	8f 91       	pop	r24
    10bc:	7f 91       	pop	r23
    10be:	6f 91       	pop	r22
    10c0:	5f 91       	pop	r21
    10c2:	4f 91       	pop	r20
    10c4:	3f 91       	pop	r19
    10c6:	2f 91       	pop	r18
    10c8:	0f 90       	pop	r0
    10ca:	0b be       	out	0x3b, r0	; 59
    10cc:	0f 90       	pop	r0
    10ce:	09 be       	out	0x39, r0	; 57
    10d0:	0f 90       	pop	r0
    10d2:	08 be       	out	0x38, r0	; 56
    10d4:	0f 90       	pop	r0
    10d6:	0f be       	out	0x3f, r0	; 63
    10d8:	0f 90       	pop	r0
    10da:	1f 90       	pop	r1
    10dc:	18 95       	reti

000010de <__vector_78>:
 *
 * This function will handle interrupt on Timer Counter D0 error and
 * call the callback function.
 */
ISR(TCD0_ERR_vect)
{
    10de:	1f 92       	push	r1
    10e0:	0f 92       	push	r0
    10e2:	0f b6       	in	r0, 0x3f	; 63
    10e4:	0f 92       	push	r0
    10e6:	11 24       	eor	r1, r1
    10e8:	08 b6       	in	r0, 0x38	; 56
    10ea:	0f 92       	push	r0
    10ec:	18 be       	out	0x38, r1	; 56
    10ee:	09 b6       	in	r0, 0x39	; 57
    10f0:	0f 92       	push	r0
    10f2:	19 be       	out	0x39, r1	; 57
    10f4:	0b b6       	in	r0, 0x3b	; 59
    10f6:	0f 92       	push	r0
    10f8:	1b be       	out	0x3b, r1	; 59
    10fa:	2f 93       	push	r18
    10fc:	3f 93       	push	r19
    10fe:	4f 93       	push	r20
    1100:	5f 93       	push	r21
    1102:	6f 93       	push	r22
    1104:	7f 93       	push	r23
    1106:	8f 93       	push	r24
    1108:	9f 93       	push	r25
    110a:	af 93       	push	r26
    110c:	bf 93       	push	r27
    110e:	ef 93       	push	r30
    1110:	ff 93       	push	r31
	if (tc_tcd0_err_callback) {
    1112:	e0 91 9b 20 	lds	r30, 0x209B	; 0x80209b <tc_tcd0_err_callback>
    1116:	f0 91 9c 20 	lds	r31, 0x209C	; 0x80209c <tc_tcd0_err_callback+0x1>
    111a:	30 97       	sbiw	r30, 0x00	; 0
    111c:	09 f0       	breq	.+2      	; 0x1120 <__vector_78+0x42>
		tc_tcd0_err_callback();
    111e:	19 95       	eicall
	}
}
    1120:	ff 91       	pop	r31
    1122:	ef 91       	pop	r30
    1124:	bf 91       	pop	r27
    1126:	af 91       	pop	r26
    1128:	9f 91       	pop	r25
    112a:	8f 91       	pop	r24
    112c:	7f 91       	pop	r23
    112e:	6f 91       	pop	r22
    1130:	5f 91       	pop	r21
    1132:	4f 91       	pop	r20
    1134:	3f 91       	pop	r19
    1136:	2f 91       	pop	r18
    1138:	0f 90       	pop	r0
    113a:	0b be       	out	0x3b, r0	; 59
    113c:	0f 90       	pop	r0
    113e:	09 be       	out	0x39, r0	; 57
    1140:	0f 90       	pop	r0
    1142:	08 be       	out	0x38, r0	; 56
    1144:	0f 90       	pop	r0
    1146:	0f be       	out	0x3f, r0	; 63
    1148:	0f 90       	pop	r0
    114a:	1f 90       	pop	r1
    114c:	18 95       	reti

0000114e <__vector_79>:
 *
 * This function will handle interrupt on Timer Counter D0 Compare/CaptureA and
 * call the callback function.
 */
ISR(TCD0_CCA_vect)
{
    114e:	1f 92       	push	r1
    1150:	0f 92       	push	r0
    1152:	0f b6       	in	r0, 0x3f	; 63
    1154:	0f 92       	push	r0
    1156:	11 24       	eor	r1, r1
    1158:	08 b6       	in	r0, 0x38	; 56
    115a:	0f 92       	push	r0
    115c:	18 be       	out	0x38, r1	; 56
    115e:	09 b6       	in	r0, 0x39	; 57
    1160:	0f 92       	push	r0
    1162:	19 be       	out	0x39, r1	; 57
    1164:	0b b6       	in	r0, 0x3b	; 59
    1166:	0f 92       	push	r0
    1168:	1b be       	out	0x3b, r1	; 59
    116a:	2f 93       	push	r18
    116c:	3f 93       	push	r19
    116e:	4f 93       	push	r20
    1170:	5f 93       	push	r21
    1172:	6f 93       	push	r22
    1174:	7f 93       	push	r23
    1176:	8f 93       	push	r24
    1178:	9f 93       	push	r25
    117a:	af 93       	push	r26
    117c:	bf 93       	push	r27
    117e:	ef 93       	push	r30
    1180:	ff 93       	push	r31
	if (tc_tcd0_cca_callback) {
    1182:	e0 91 99 20 	lds	r30, 0x2099	; 0x802099 <tc_tcd0_cca_callback>
    1186:	f0 91 9a 20 	lds	r31, 0x209A	; 0x80209a <tc_tcd0_cca_callback+0x1>
    118a:	30 97       	sbiw	r30, 0x00	; 0
    118c:	09 f0       	breq	.+2      	; 0x1190 <__vector_79+0x42>
		tc_tcd0_cca_callback();
    118e:	19 95       	eicall
	}
}
    1190:	ff 91       	pop	r31
    1192:	ef 91       	pop	r30
    1194:	bf 91       	pop	r27
    1196:	af 91       	pop	r26
    1198:	9f 91       	pop	r25
    119a:	8f 91       	pop	r24
    119c:	7f 91       	pop	r23
    119e:	6f 91       	pop	r22
    11a0:	5f 91       	pop	r21
    11a2:	4f 91       	pop	r20
    11a4:	3f 91       	pop	r19
    11a6:	2f 91       	pop	r18
    11a8:	0f 90       	pop	r0
    11aa:	0b be       	out	0x3b, r0	; 59
    11ac:	0f 90       	pop	r0
    11ae:	09 be       	out	0x39, r0	; 57
    11b0:	0f 90       	pop	r0
    11b2:	08 be       	out	0x38, r0	; 56
    11b4:	0f 90       	pop	r0
    11b6:	0f be       	out	0x3f, r0	; 63
    11b8:	0f 90       	pop	r0
    11ba:	1f 90       	pop	r1
    11bc:	18 95       	reti

000011be <__vector_80>:
 *
 * This function will handle interrupt on Timer Counter D0 Compare/CaptureB and
 * call the callback function.
 */
ISR(TCD0_CCB_vect)
{
    11be:	1f 92       	push	r1
    11c0:	0f 92       	push	r0
    11c2:	0f b6       	in	r0, 0x3f	; 63
    11c4:	0f 92       	push	r0
    11c6:	11 24       	eor	r1, r1
    11c8:	08 b6       	in	r0, 0x38	; 56
    11ca:	0f 92       	push	r0
    11cc:	18 be       	out	0x38, r1	; 56
    11ce:	09 b6       	in	r0, 0x39	; 57
    11d0:	0f 92       	push	r0
    11d2:	19 be       	out	0x39, r1	; 57
    11d4:	0b b6       	in	r0, 0x3b	; 59
    11d6:	0f 92       	push	r0
    11d8:	1b be       	out	0x3b, r1	; 59
    11da:	2f 93       	push	r18
    11dc:	3f 93       	push	r19
    11de:	4f 93       	push	r20
    11e0:	5f 93       	push	r21
    11e2:	6f 93       	push	r22
    11e4:	7f 93       	push	r23
    11e6:	8f 93       	push	r24
    11e8:	9f 93       	push	r25
    11ea:	af 93       	push	r26
    11ec:	bf 93       	push	r27
    11ee:	ef 93       	push	r30
    11f0:	ff 93       	push	r31
	if (tc_tcd0_ccb_callback) {
    11f2:	e0 91 97 20 	lds	r30, 0x2097	; 0x802097 <tc_tcd0_ccb_callback>
    11f6:	f0 91 98 20 	lds	r31, 0x2098	; 0x802098 <tc_tcd0_ccb_callback+0x1>
    11fa:	30 97       	sbiw	r30, 0x00	; 0
    11fc:	09 f0       	breq	.+2      	; 0x1200 <__vector_80+0x42>
		tc_tcd0_ccb_callback();
    11fe:	19 95       	eicall
	}
}
    1200:	ff 91       	pop	r31
    1202:	ef 91       	pop	r30
    1204:	bf 91       	pop	r27
    1206:	af 91       	pop	r26
    1208:	9f 91       	pop	r25
    120a:	8f 91       	pop	r24
    120c:	7f 91       	pop	r23
    120e:	6f 91       	pop	r22
    1210:	5f 91       	pop	r21
    1212:	4f 91       	pop	r20
    1214:	3f 91       	pop	r19
    1216:	2f 91       	pop	r18
    1218:	0f 90       	pop	r0
    121a:	0b be       	out	0x3b, r0	; 59
    121c:	0f 90       	pop	r0
    121e:	09 be       	out	0x39, r0	; 57
    1220:	0f 90       	pop	r0
    1222:	08 be       	out	0x38, r0	; 56
    1224:	0f 90       	pop	r0
    1226:	0f be       	out	0x3f, r0	; 63
    1228:	0f 90       	pop	r0
    122a:	1f 90       	pop	r1
    122c:	18 95       	reti

0000122e <__vector_81>:
 *
 * This function will handle interrupt on Timer Counter D0 Compare/CaptureC and
 * call the callback function.
 */
ISR(TCD0_CCC_vect)
{
    122e:	1f 92       	push	r1
    1230:	0f 92       	push	r0
    1232:	0f b6       	in	r0, 0x3f	; 63
    1234:	0f 92       	push	r0
    1236:	11 24       	eor	r1, r1
    1238:	08 b6       	in	r0, 0x38	; 56
    123a:	0f 92       	push	r0
    123c:	18 be       	out	0x38, r1	; 56
    123e:	09 b6       	in	r0, 0x39	; 57
    1240:	0f 92       	push	r0
    1242:	19 be       	out	0x39, r1	; 57
    1244:	0b b6       	in	r0, 0x3b	; 59
    1246:	0f 92       	push	r0
    1248:	1b be       	out	0x3b, r1	; 59
    124a:	2f 93       	push	r18
    124c:	3f 93       	push	r19
    124e:	4f 93       	push	r20
    1250:	5f 93       	push	r21
    1252:	6f 93       	push	r22
    1254:	7f 93       	push	r23
    1256:	8f 93       	push	r24
    1258:	9f 93       	push	r25
    125a:	af 93       	push	r26
    125c:	bf 93       	push	r27
    125e:	ef 93       	push	r30
    1260:	ff 93       	push	r31
	if (tc_tcd0_ccc_callback) {
    1262:	e0 91 95 20 	lds	r30, 0x2095	; 0x802095 <tc_tcd0_ccc_callback>
    1266:	f0 91 96 20 	lds	r31, 0x2096	; 0x802096 <tc_tcd0_ccc_callback+0x1>
    126a:	30 97       	sbiw	r30, 0x00	; 0
    126c:	09 f0       	breq	.+2      	; 0x1270 <__vector_81+0x42>
		tc_tcd0_ccc_callback();
    126e:	19 95       	eicall
	}
}
    1270:	ff 91       	pop	r31
    1272:	ef 91       	pop	r30
    1274:	bf 91       	pop	r27
    1276:	af 91       	pop	r26
    1278:	9f 91       	pop	r25
    127a:	8f 91       	pop	r24
    127c:	7f 91       	pop	r23
    127e:	6f 91       	pop	r22
    1280:	5f 91       	pop	r21
    1282:	4f 91       	pop	r20
    1284:	3f 91       	pop	r19
    1286:	2f 91       	pop	r18
    1288:	0f 90       	pop	r0
    128a:	0b be       	out	0x3b, r0	; 59
    128c:	0f 90       	pop	r0
    128e:	09 be       	out	0x39, r0	; 57
    1290:	0f 90       	pop	r0
    1292:	08 be       	out	0x38, r0	; 56
    1294:	0f 90       	pop	r0
    1296:	0f be       	out	0x3f, r0	; 63
    1298:	0f 90       	pop	r0
    129a:	1f 90       	pop	r1
    129c:	18 95       	reti

0000129e <__vector_82>:
 *
 * This function will handle interrupt on Timer Counter D0 Compare/CaptureD and
 * call the callback function.
 */
ISR(TCD0_CCD_vect)
{
    129e:	1f 92       	push	r1
    12a0:	0f 92       	push	r0
    12a2:	0f b6       	in	r0, 0x3f	; 63
    12a4:	0f 92       	push	r0
    12a6:	11 24       	eor	r1, r1
    12a8:	08 b6       	in	r0, 0x38	; 56
    12aa:	0f 92       	push	r0
    12ac:	18 be       	out	0x38, r1	; 56
    12ae:	09 b6       	in	r0, 0x39	; 57
    12b0:	0f 92       	push	r0
    12b2:	19 be       	out	0x39, r1	; 57
    12b4:	0b b6       	in	r0, 0x3b	; 59
    12b6:	0f 92       	push	r0
    12b8:	1b be       	out	0x3b, r1	; 59
    12ba:	2f 93       	push	r18
    12bc:	3f 93       	push	r19
    12be:	4f 93       	push	r20
    12c0:	5f 93       	push	r21
    12c2:	6f 93       	push	r22
    12c4:	7f 93       	push	r23
    12c6:	8f 93       	push	r24
    12c8:	9f 93       	push	r25
    12ca:	af 93       	push	r26
    12cc:	bf 93       	push	r27
    12ce:	ef 93       	push	r30
    12d0:	ff 93       	push	r31
	if (tc_tcd0_ccd_callback) {
    12d2:	e0 91 93 20 	lds	r30, 0x2093	; 0x802093 <tc_tcd0_ccd_callback>
    12d6:	f0 91 94 20 	lds	r31, 0x2094	; 0x802094 <tc_tcd0_ccd_callback+0x1>
    12da:	30 97       	sbiw	r30, 0x00	; 0
    12dc:	09 f0       	breq	.+2      	; 0x12e0 <__vector_82+0x42>
		tc_tcd0_ccd_callback();
    12de:	19 95       	eicall
	}
}
    12e0:	ff 91       	pop	r31
    12e2:	ef 91       	pop	r30
    12e4:	bf 91       	pop	r27
    12e6:	af 91       	pop	r26
    12e8:	9f 91       	pop	r25
    12ea:	8f 91       	pop	r24
    12ec:	7f 91       	pop	r23
    12ee:	6f 91       	pop	r22
    12f0:	5f 91       	pop	r21
    12f2:	4f 91       	pop	r20
    12f4:	3f 91       	pop	r19
    12f6:	2f 91       	pop	r18
    12f8:	0f 90       	pop	r0
    12fa:	0b be       	out	0x3b, r0	; 59
    12fc:	0f 90       	pop	r0
    12fe:	09 be       	out	0x39, r0	; 57
    1300:	0f 90       	pop	r0
    1302:	08 be       	out	0x38, r0	; 56
    1304:	0f 90       	pop	r0
    1306:	0f be       	out	0x3f, r0	; 63
    1308:	0f 90       	pop	r0
    130a:	1f 90       	pop	r1
    130c:	18 95       	reti

0000130e <__vector_83>:
 *
 * This function will handle interrupt on Timer Counter D1 overflow and
 * call the callback function.
 */
ISR(TCD1_OVF_vect)
{
    130e:	1f 92       	push	r1
    1310:	0f 92       	push	r0
    1312:	0f b6       	in	r0, 0x3f	; 63
    1314:	0f 92       	push	r0
    1316:	11 24       	eor	r1, r1
    1318:	08 b6       	in	r0, 0x38	; 56
    131a:	0f 92       	push	r0
    131c:	18 be       	out	0x38, r1	; 56
    131e:	09 b6       	in	r0, 0x39	; 57
    1320:	0f 92       	push	r0
    1322:	19 be       	out	0x39, r1	; 57
    1324:	0b b6       	in	r0, 0x3b	; 59
    1326:	0f 92       	push	r0
    1328:	1b be       	out	0x3b, r1	; 59
    132a:	2f 93       	push	r18
    132c:	3f 93       	push	r19
    132e:	4f 93       	push	r20
    1330:	5f 93       	push	r21
    1332:	6f 93       	push	r22
    1334:	7f 93       	push	r23
    1336:	8f 93       	push	r24
    1338:	9f 93       	push	r25
    133a:	af 93       	push	r26
    133c:	bf 93       	push	r27
    133e:	ef 93       	push	r30
    1340:	ff 93       	push	r31
	if (tc_tcd1_ovf_callback) {
    1342:	e0 91 91 20 	lds	r30, 0x2091	; 0x802091 <tc_tcd1_ovf_callback>
    1346:	f0 91 92 20 	lds	r31, 0x2092	; 0x802092 <tc_tcd1_ovf_callback+0x1>
    134a:	30 97       	sbiw	r30, 0x00	; 0
    134c:	09 f0       	breq	.+2      	; 0x1350 <__vector_83+0x42>
		tc_tcd1_ovf_callback();
    134e:	19 95       	eicall
	}
}
    1350:	ff 91       	pop	r31
    1352:	ef 91       	pop	r30
    1354:	bf 91       	pop	r27
    1356:	af 91       	pop	r26
    1358:	9f 91       	pop	r25
    135a:	8f 91       	pop	r24
    135c:	7f 91       	pop	r23
    135e:	6f 91       	pop	r22
    1360:	5f 91       	pop	r21
    1362:	4f 91       	pop	r20
    1364:	3f 91       	pop	r19
    1366:	2f 91       	pop	r18
    1368:	0f 90       	pop	r0
    136a:	0b be       	out	0x3b, r0	; 59
    136c:	0f 90       	pop	r0
    136e:	09 be       	out	0x39, r0	; 57
    1370:	0f 90       	pop	r0
    1372:	08 be       	out	0x38, r0	; 56
    1374:	0f 90       	pop	r0
    1376:	0f be       	out	0x3f, r0	; 63
    1378:	0f 90       	pop	r0
    137a:	1f 90       	pop	r1
    137c:	18 95       	reti

0000137e <__vector_84>:
 *
 * This function will handle interrupt on Timer Counter D1 error and
 * call the callback function.
 */
ISR(TCD1_ERR_vect)
{
    137e:	1f 92       	push	r1
    1380:	0f 92       	push	r0
    1382:	0f b6       	in	r0, 0x3f	; 63
    1384:	0f 92       	push	r0
    1386:	11 24       	eor	r1, r1
    1388:	08 b6       	in	r0, 0x38	; 56
    138a:	0f 92       	push	r0
    138c:	18 be       	out	0x38, r1	; 56
    138e:	09 b6       	in	r0, 0x39	; 57
    1390:	0f 92       	push	r0
    1392:	19 be       	out	0x39, r1	; 57
    1394:	0b b6       	in	r0, 0x3b	; 59
    1396:	0f 92       	push	r0
    1398:	1b be       	out	0x3b, r1	; 59
    139a:	2f 93       	push	r18
    139c:	3f 93       	push	r19
    139e:	4f 93       	push	r20
    13a0:	5f 93       	push	r21
    13a2:	6f 93       	push	r22
    13a4:	7f 93       	push	r23
    13a6:	8f 93       	push	r24
    13a8:	9f 93       	push	r25
    13aa:	af 93       	push	r26
    13ac:	bf 93       	push	r27
    13ae:	ef 93       	push	r30
    13b0:	ff 93       	push	r31
	if (tc_tcd1_err_callback) {
    13b2:	e0 91 8f 20 	lds	r30, 0x208F	; 0x80208f <tc_tcd1_err_callback>
    13b6:	f0 91 90 20 	lds	r31, 0x2090	; 0x802090 <tc_tcd1_err_callback+0x1>
    13ba:	30 97       	sbiw	r30, 0x00	; 0
    13bc:	09 f0       	breq	.+2      	; 0x13c0 <__vector_84+0x42>
		tc_tcd1_err_callback();
    13be:	19 95       	eicall
	}
}
    13c0:	ff 91       	pop	r31
    13c2:	ef 91       	pop	r30
    13c4:	bf 91       	pop	r27
    13c6:	af 91       	pop	r26
    13c8:	9f 91       	pop	r25
    13ca:	8f 91       	pop	r24
    13cc:	7f 91       	pop	r23
    13ce:	6f 91       	pop	r22
    13d0:	5f 91       	pop	r21
    13d2:	4f 91       	pop	r20
    13d4:	3f 91       	pop	r19
    13d6:	2f 91       	pop	r18
    13d8:	0f 90       	pop	r0
    13da:	0b be       	out	0x3b, r0	; 59
    13dc:	0f 90       	pop	r0
    13de:	09 be       	out	0x39, r0	; 57
    13e0:	0f 90       	pop	r0
    13e2:	08 be       	out	0x38, r0	; 56
    13e4:	0f 90       	pop	r0
    13e6:	0f be       	out	0x3f, r0	; 63
    13e8:	0f 90       	pop	r0
    13ea:	1f 90       	pop	r1
    13ec:	18 95       	reti

000013ee <__vector_85>:
 *
 * This function will handle interrupt on Timer Counter D1 Compare/CaptureA and
 * call the callback function.
 */
ISR(TCD1_CCA_vect)
{
    13ee:	1f 92       	push	r1
    13f0:	0f 92       	push	r0
    13f2:	0f b6       	in	r0, 0x3f	; 63
    13f4:	0f 92       	push	r0
    13f6:	11 24       	eor	r1, r1
    13f8:	08 b6       	in	r0, 0x38	; 56
    13fa:	0f 92       	push	r0
    13fc:	18 be       	out	0x38, r1	; 56
    13fe:	09 b6       	in	r0, 0x39	; 57
    1400:	0f 92       	push	r0
    1402:	19 be       	out	0x39, r1	; 57
    1404:	0b b6       	in	r0, 0x3b	; 59
    1406:	0f 92       	push	r0
    1408:	1b be       	out	0x3b, r1	; 59
    140a:	2f 93       	push	r18
    140c:	3f 93       	push	r19
    140e:	4f 93       	push	r20
    1410:	5f 93       	push	r21
    1412:	6f 93       	push	r22
    1414:	7f 93       	push	r23
    1416:	8f 93       	push	r24
    1418:	9f 93       	push	r25
    141a:	af 93       	push	r26
    141c:	bf 93       	push	r27
    141e:	ef 93       	push	r30
    1420:	ff 93       	push	r31
	if (tc_tcd1_cca_callback) {
    1422:	e0 91 8d 20 	lds	r30, 0x208D	; 0x80208d <tc_tcd1_cca_callback>
    1426:	f0 91 8e 20 	lds	r31, 0x208E	; 0x80208e <tc_tcd1_cca_callback+0x1>
    142a:	30 97       	sbiw	r30, 0x00	; 0
    142c:	09 f0       	breq	.+2      	; 0x1430 <__vector_85+0x42>
		tc_tcd1_cca_callback();
    142e:	19 95       	eicall
	}
}
    1430:	ff 91       	pop	r31
    1432:	ef 91       	pop	r30
    1434:	bf 91       	pop	r27
    1436:	af 91       	pop	r26
    1438:	9f 91       	pop	r25
    143a:	8f 91       	pop	r24
    143c:	7f 91       	pop	r23
    143e:	6f 91       	pop	r22
    1440:	5f 91       	pop	r21
    1442:	4f 91       	pop	r20
    1444:	3f 91       	pop	r19
    1446:	2f 91       	pop	r18
    1448:	0f 90       	pop	r0
    144a:	0b be       	out	0x3b, r0	; 59
    144c:	0f 90       	pop	r0
    144e:	09 be       	out	0x39, r0	; 57
    1450:	0f 90       	pop	r0
    1452:	08 be       	out	0x38, r0	; 56
    1454:	0f 90       	pop	r0
    1456:	0f be       	out	0x3f, r0	; 63
    1458:	0f 90       	pop	r0
    145a:	1f 90       	pop	r1
    145c:	18 95       	reti

0000145e <__vector_86>:
 *
 * This function will handle interrupt on Timer Counter D1 Compare/CaptureB and
 * call the callback function.
 */
ISR(TCD1_CCB_vect)
{
    145e:	1f 92       	push	r1
    1460:	0f 92       	push	r0
    1462:	0f b6       	in	r0, 0x3f	; 63
    1464:	0f 92       	push	r0
    1466:	11 24       	eor	r1, r1
    1468:	08 b6       	in	r0, 0x38	; 56
    146a:	0f 92       	push	r0
    146c:	18 be       	out	0x38, r1	; 56
    146e:	09 b6       	in	r0, 0x39	; 57
    1470:	0f 92       	push	r0
    1472:	19 be       	out	0x39, r1	; 57
    1474:	0b b6       	in	r0, 0x3b	; 59
    1476:	0f 92       	push	r0
    1478:	1b be       	out	0x3b, r1	; 59
    147a:	2f 93       	push	r18
    147c:	3f 93       	push	r19
    147e:	4f 93       	push	r20
    1480:	5f 93       	push	r21
    1482:	6f 93       	push	r22
    1484:	7f 93       	push	r23
    1486:	8f 93       	push	r24
    1488:	9f 93       	push	r25
    148a:	af 93       	push	r26
    148c:	bf 93       	push	r27
    148e:	ef 93       	push	r30
    1490:	ff 93       	push	r31
	if (tc_tcd1_ccb_callback) {
    1492:	e0 91 8b 20 	lds	r30, 0x208B	; 0x80208b <tc_tcd1_ccb_callback>
    1496:	f0 91 8c 20 	lds	r31, 0x208C	; 0x80208c <tc_tcd1_ccb_callback+0x1>
    149a:	30 97       	sbiw	r30, 0x00	; 0
    149c:	09 f0       	breq	.+2      	; 0x14a0 <__vector_86+0x42>
		tc_tcd1_ccb_callback();
    149e:	19 95       	eicall
	}
}
    14a0:	ff 91       	pop	r31
    14a2:	ef 91       	pop	r30
    14a4:	bf 91       	pop	r27
    14a6:	af 91       	pop	r26
    14a8:	9f 91       	pop	r25
    14aa:	8f 91       	pop	r24
    14ac:	7f 91       	pop	r23
    14ae:	6f 91       	pop	r22
    14b0:	5f 91       	pop	r21
    14b2:	4f 91       	pop	r20
    14b4:	3f 91       	pop	r19
    14b6:	2f 91       	pop	r18
    14b8:	0f 90       	pop	r0
    14ba:	0b be       	out	0x3b, r0	; 59
    14bc:	0f 90       	pop	r0
    14be:	09 be       	out	0x39, r0	; 57
    14c0:	0f 90       	pop	r0
    14c2:	08 be       	out	0x38, r0	; 56
    14c4:	0f 90       	pop	r0
    14c6:	0f be       	out	0x3f, r0	; 63
    14c8:	0f 90       	pop	r0
    14ca:	1f 90       	pop	r1
    14cc:	18 95       	reti

000014ce <__vector_47>:
 *
 * This function will handle interrupt on Timer Counter E0 overflow and
 * call the callback function.
 */
ISR(TCE0_OVF_vect)
{
    14ce:	1f 92       	push	r1
    14d0:	0f 92       	push	r0
    14d2:	0f b6       	in	r0, 0x3f	; 63
    14d4:	0f 92       	push	r0
    14d6:	11 24       	eor	r1, r1
    14d8:	08 b6       	in	r0, 0x38	; 56
    14da:	0f 92       	push	r0
    14dc:	18 be       	out	0x38, r1	; 56
    14de:	09 b6       	in	r0, 0x39	; 57
    14e0:	0f 92       	push	r0
    14e2:	19 be       	out	0x39, r1	; 57
    14e4:	0b b6       	in	r0, 0x3b	; 59
    14e6:	0f 92       	push	r0
    14e8:	1b be       	out	0x3b, r1	; 59
    14ea:	2f 93       	push	r18
    14ec:	3f 93       	push	r19
    14ee:	4f 93       	push	r20
    14f0:	5f 93       	push	r21
    14f2:	6f 93       	push	r22
    14f4:	7f 93       	push	r23
    14f6:	8f 93       	push	r24
    14f8:	9f 93       	push	r25
    14fa:	af 93       	push	r26
    14fc:	bf 93       	push	r27
    14fe:	ef 93       	push	r30
    1500:	ff 93       	push	r31
	if (tc_tce0_ovf_callback) {
    1502:	e0 91 89 20 	lds	r30, 0x2089	; 0x802089 <tc_tce0_ovf_callback>
    1506:	f0 91 8a 20 	lds	r31, 0x208A	; 0x80208a <tc_tce0_ovf_callback+0x1>
    150a:	30 97       	sbiw	r30, 0x00	; 0
    150c:	09 f0       	breq	.+2      	; 0x1510 <__vector_47+0x42>
		tc_tce0_ovf_callback();
    150e:	19 95       	eicall
	}
}
    1510:	ff 91       	pop	r31
    1512:	ef 91       	pop	r30
    1514:	bf 91       	pop	r27
    1516:	af 91       	pop	r26
    1518:	9f 91       	pop	r25
    151a:	8f 91       	pop	r24
    151c:	7f 91       	pop	r23
    151e:	6f 91       	pop	r22
    1520:	5f 91       	pop	r21
    1522:	4f 91       	pop	r20
    1524:	3f 91       	pop	r19
    1526:	2f 91       	pop	r18
    1528:	0f 90       	pop	r0
    152a:	0b be       	out	0x3b, r0	; 59
    152c:	0f 90       	pop	r0
    152e:	09 be       	out	0x39, r0	; 57
    1530:	0f 90       	pop	r0
    1532:	08 be       	out	0x38, r0	; 56
    1534:	0f 90       	pop	r0
    1536:	0f be       	out	0x3f, r0	; 63
    1538:	0f 90       	pop	r0
    153a:	1f 90       	pop	r1
    153c:	18 95       	reti

0000153e <__vector_48>:
 *
 * This function will handle interrupt on Timer Counter E0 error and
 * call the callback function.
 */
ISR(TCE0_ERR_vect)
{
    153e:	1f 92       	push	r1
    1540:	0f 92       	push	r0
    1542:	0f b6       	in	r0, 0x3f	; 63
    1544:	0f 92       	push	r0
    1546:	11 24       	eor	r1, r1
    1548:	08 b6       	in	r0, 0x38	; 56
    154a:	0f 92       	push	r0
    154c:	18 be       	out	0x38, r1	; 56
    154e:	09 b6       	in	r0, 0x39	; 57
    1550:	0f 92       	push	r0
    1552:	19 be       	out	0x39, r1	; 57
    1554:	0b b6       	in	r0, 0x3b	; 59
    1556:	0f 92       	push	r0
    1558:	1b be       	out	0x3b, r1	; 59
    155a:	2f 93       	push	r18
    155c:	3f 93       	push	r19
    155e:	4f 93       	push	r20
    1560:	5f 93       	push	r21
    1562:	6f 93       	push	r22
    1564:	7f 93       	push	r23
    1566:	8f 93       	push	r24
    1568:	9f 93       	push	r25
    156a:	af 93       	push	r26
    156c:	bf 93       	push	r27
    156e:	ef 93       	push	r30
    1570:	ff 93       	push	r31
	if (tc_tce0_err_callback) {
    1572:	e0 91 87 20 	lds	r30, 0x2087	; 0x802087 <tc_tce0_err_callback>
    1576:	f0 91 88 20 	lds	r31, 0x2088	; 0x802088 <tc_tce0_err_callback+0x1>
    157a:	30 97       	sbiw	r30, 0x00	; 0
    157c:	09 f0       	breq	.+2      	; 0x1580 <__vector_48+0x42>
		tc_tce0_err_callback();
    157e:	19 95       	eicall
	}
}
    1580:	ff 91       	pop	r31
    1582:	ef 91       	pop	r30
    1584:	bf 91       	pop	r27
    1586:	af 91       	pop	r26
    1588:	9f 91       	pop	r25
    158a:	8f 91       	pop	r24
    158c:	7f 91       	pop	r23
    158e:	6f 91       	pop	r22
    1590:	5f 91       	pop	r21
    1592:	4f 91       	pop	r20
    1594:	3f 91       	pop	r19
    1596:	2f 91       	pop	r18
    1598:	0f 90       	pop	r0
    159a:	0b be       	out	0x3b, r0	; 59
    159c:	0f 90       	pop	r0
    159e:	09 be       	out	0x39, r0	; 57
    15a0:	0f 90       	pop	r0
    15a2:	08 be       	out	0x38, r0	; 56
    15a4:	0f 90       	pop	r0
    15a6:	0f be       	out	0x3f, r0	; 63
    15a8:	0f 90       	pop	r0
    15aa:	1f 90       	pop	r1
    15ac:	18 95       	reti

000015ae <__vector_49>:
 *
 * This function will handle interrupt on Timer Counter E0 Compare/CaptureA and
 * call the callback function.
 */
ISR(TCE0_CCA_vect)
{
    15ae:	1f 92       	push	r1
    15b0:	0f 92       	push	r0
    15b2:	0f b6       	in	r0, 0x3f	; 63
    15b4:	0f 92       	push	r0
    15b6:	11 24       	eor	r1, r1
    15b8:	08 b6       	in	r0, 0x38	; 56
    15ba:	0f 92       	push	r0
    15bc:	18 be       	out	0x38, r1	; 56
    15be:	09 b6       	in	r0, 0x39	; 57
    15c0:	0f 92       	push	r0
    15c2:	19 be       	out	0x39, r1	; 57
    15c4:	0b b6       	in	r0, 0x3b	; 59
    15c6:	0f 92       	push	r0
    15c8:	1b be       	out	0x3b, r1	; 59
    15ca:	2f 93       	push	r18
    15cc:	3f 93       	push	r19
    15ce:	4f 93       	push	r20
    15d0:	5f 93       	push	r21
    15d2:	6f 93       	push	r22
    15d4:	7f 93       	push	r23
    15d6:	8f 93       	push	r24
    15d8:	9f 93       	push	r25
    15da:	af 93       	push	r26
    15dc:	bf 93       	push	r27
    15de:	ef 93       	push	r30
    15e0:	ff 93       	push	r31
	if (tc_tce0_cca_callback) {
    15e2:	e0 91 85 20 	lds	r30, 0x2085	; 0x802085 <tc_tce0_cca_callback>
    15e6:	f0 91 86 20 	lds	r31, 0x2086	; 0x802086 <tc_tce0_cca_callback+0x1>
    15ea:	30 97       	sbiw	r30, 0x00	; 0
    15ec:	09 f0       	breq	.+2      	; 0x15f0 <__vector_49+0x42>
		tc_tce0_cca_callback();
    15ee:	19 95       	eicall
	}
}
    15f0:	ff 91       	pop	r31
    15f2:	ef 91       	pop	r30
    15f4:	bf 91       	pop	r27
    15f6:	af 91       	pop	r26
    15f8:	9f 91       	pop	r25
    15fa:	8f 91       	pop	r24
    15fc:	7f 91       	pop	r23
    15fe:	6f 91       	pop	r22
    1600:	5f 91       	pop	r21
    1602:	4f 91       	pop	r20
    1604:	3f 91       	pop	r19
    1606:	2f 91       	pop	r18
    1608:	0f 90       	pop	r0
    160a:	0b be       	out	0x3b, r0	; 59
    160c:	0f 90       	pop	r0
    160e:	09 be       	out	0x39, r0	; 57
    1610:	0f 90       	pop	r0
    1612:	08 be       	out	0x38, r0	; 56
    1614:	0f 90       	pop	r0
    1616:	0f be       	out	0x3f, r0	; 63
    1618:	0f 90       	pop	r0
    161a:	1f 90       	pop	r1
    161c:	18 95       	reti

0000161e <__vector_50>:
 *
 * This function will handle interrupt on Timer Counter E0 Compare/CaptureB and
 * call the callback function.
 */
ISR(TCE0_CCB_vect)
{
    161e:	1f 92       	push	r1
    1620:	0f 92       	push	r0
    1622:	0f b6       	in	r0, 0x3f	; 63
    1624:	0f 92       	push	r0
    1626:	11 24       	eor	r1, r1
    1628:	08 b6       	in	r0, 0x38	; 56
    162a:	0f 92       	push	r0
    162c:	18 be       	out	0x38, r1	; 56
    162e:	09 b6       	in	r0, 0x39	; 57
    1630:	0f 92       	push	r0
    1632:	19 be       	out	0x39, r1	; 57
    1634:	0b b6       	in	r0, 0x3b	; 59
    1636:	0f 92       	push	r0
    1638:	1b be       	out	0x3b, r1	; 59
    163a:	2f 93       	push	r18
    163c:	3f 93       	push	r19
    163e:	4f 93       	push	r20
    1640:	5f 93       	push	r21
    1642:	6f 93       	push	r22
    1644:	7f 93       	push	r23
    1646:	8f 93       	push	r24
    1648:	9f 93       	push	r25
    164a:	af 93       	push	r26
    164c:	bf 93       	push	r27
    164e:	ef 93       	push	r30
    1650:	ff 93       	push	r31
	if (tc_tce0_ccb_callback) {
    1652:	e0 91 83 20 	lds	r30, 0x2083	; 0x802083 <tc_tce0_ccb_callback>
    1656:	f0 91 84 20 	lds	r31, 0x2084	; 0x802084 <tc_tce0_ccb_callback+0x1>
    165a:	30 97       	sbiw	r30, 0x00	; 0
    165c:	09 f0       	breq	.+2      	; 0x1660 <__vector_50+0x42>
		tc_tce0_ccb_callback();
    165e:	19 95       	eicall
	}
}
    1660:	ff 91       	pop	r31
    1662:	ef 91       	pop	r30
    1664:	bf 91       	pop	r27
    1666:	af 91       	pop	r26
    1668:	9f 91       	pop	r25
    166a:	8f 91       	pop	r24
    166c:	7f 91       	pop	r23
    166e:	6f 91       	pop	r22
    1670:	5f 91       	pop	r21
    1672:	4f 91       	pop	r20
    1674:	3f 91       	pop	r19
    1676:	2f 91       	pop	r18
    1678:	0f 90       	pop	r0
    167a:	0b be       	out	0x3b, r0	; 59
    167c:	0f 90       	pop	r0
    167e:	09 be       	out	0x39, r0	; 57
    1680:	0f 90       	pop	r0
    1682:	08 be       	out	0x38, r0	; 56
    1684:	0f 90       	pop	r0
    1686:	0f be       	out	0x3f, r0	; 63
    1688:	0f 90       	pop	r0
    168a:	1f 90       	pop	r1
    168c:	18 95       	reti

0000168e <__vector_51>:
 *
 * This function will handle interrupt on Timer Counter E0 Compare/CaptureC and
 * call the callback function.
 */
ISR(TCE0_CCC_vect)
{
    168e:	1f 92       	push	r1
    1690:	0f 92       	push	r0
    1692:	0f b6       	in	r0, 0x3f	; 63
    1694:	0f 92       	push	r0
    1696:	11 24       	eor	r1, r1
    1698:	08 b6       	in	r0, 0x38	; 56
    169a:	0f 92       	push	r0
    169c:	18 be       	out	0x38, r1	; 56
    169e:	09 b6       	in	r0, 0x39	; 57
    16a0:	0f 92       	push	r0
    16a2:	19 be       	out	0x39, r1	; 57
    16a4:	0b b6       	in	r0, 0x3b	; 59
    16a6:	0f 92       	push	r0
    16a8:	1b be       	out	0x3b, r1	; 59
    16aa:	2f 93       	push	r18
    16ac:	3f 93       	push	r19
    16ae:	4f 93       	push	r20
    16b0:	5f 93       	push	r21
    16b2:	6f 93       	push	r22
    16b4:	7f 93       	push	r23
    16b6:	8f 93       	push	r24
    16b8:	9f 93       	push	r25
    16ba:	af 93       	push	r26
    16bc:	bf 93       	push	r27
    16be:	ef 93       	push	r30
    16c0:	ff 93       	push	r31
	if (tc_tce0_ccc_callback) {
    16c2:	e0 91 81 20 	lds	r30, 0x2081	; 0x802081 <tc_tce0_ccc_callback>
    16c6:	f0 91 82 20 	lds	r31, 0x2082	; 0x802082 <tc_tce0_ccc_callback+0x1>
    16ca:	30 97       	sbiw	r30, 0x00	; 0
    16cc:	09 f0       	breq	.+2      	; 0x16d0 <__vector_51+0x42>
		tc_tce0_ccc_callback();
    16ce:	19 95       	eicall
	}
}
    16d0:	ff 91       	pop	r31
    16d2:	ef 91       	pop	r30
    16d4:	bf 91       	pop	r27
    16d6:	af 91       	pop	r26
    16d8:	9f 91       	pop	r25
    16da:	8f 91       	pop	r24
    16dc:	7f 91       	pop	r23
    16de:	6f 91       	pop	r22
    16e0:	5f 91       	pop	r21
    16e2:	4f 91       	pop	r20
    16e4:	3f 91       	pop	r19
    16e6:	2f 91       	pop	r18
    16e8:	0f 90       	pop	r0
    16ea:	0b be       	out	0x3b, r0	; 59
    16ec:	0f 90       	pop	r0
    16ee:	09 be       	out	0x39, r0	; 57
    16f0:	0f 90       	pop	r0
    16f2:	08 be       	out	0x38, r0	; 56
    16f4:	0f 90       	pop	r0
    16f6:	0f be       	out	0x3f, r0	; 63
    16f8:	0f 90       	pop	r0
    16fa:	1f 90       	pop	r1
    16fc:	18 95       	reti

000016fe <__vector_52>:
 *
 * This function will handle interrupt on Timer Counter E0 Compare/CaptureD and
 * call the callback function.
 */
ISR(TCE0_CCD_vect)
{
    16fe:	1f 92       	push	r1
    1700:	0f 92       	push	r0
    1702:	0f b6       	in	r0, 0x3f	; 63
    1704:	0f 92       	push	r0
    1706:	11 24       	eor	r1, r1
    1708:	08 b6       	in	r0, 0x38	; 56
    170a:	0f 92       	push	r0
    170c:	18 be       	out	0x38, r1	; 56
    170e:	09 b6       	in	r0, 0x39	; 57
    1710:	0f 92       	push	r0
    1712:	19 be       	out	0x39, r1	; 57
    1714:	0b b6       	in	r0, 0x3b	; 59
    1716:	0f 92       	push	r0
    1718:	1b be       	out	0x3b, r1	; 59
    171a:	2f 93       	push	r18
    171c:	3f 93       	push	r19
    171e:	4f 93       	push	r20
    1720:	5f 93       	push	r21
    1722:	6f 93       	push	r22
    1724:	7f 93       	push	r23
    1726:	8f 93       	push	r24
    1728:	9f 93       	push	r25
    172a:	af 93       	push	r26
    172c:	bf 93       	push	r27
    172e:	ef 93       	push	r30
    1730:	ff 93       	push	r31
	if (tc_tce0_ccd_callback) {
    1732:	e0 91 7f 20 	lds	r30, 0x207F	; 0x80207f <tc_tce0_ccd_callback>
    1736:	f0 91 80 20 	lds	r31, 0x2080	; 0x802080 <tc_tce0_ccd_callback+0x1>
    173a:	30 97       	sbiw	r30, 0x00	; 0
    173c:	09 f0       	breq	.+2      	; 0x1740 <__vector_52+0x42>
		tc_tce0_ccd_callback();
    173e:	19 95       	eicall
	}
}
    1740:	ff 91       	pop	r31
    1742:	ef 91       	pop	r30
    1744:	bf 91       	pop	r27
    1746:	af 91       	pop	r26
    1748:	9f 91       	pop	r25
    174a:	8f 91       	pop	r24
    174c:	7f 91       	pop	r23
    174e:	6f 91       	pop	r22
    1750:	5f 91       	pop	r21
    1752:	4f 91       	pop	r20
    1754:	3f 91       	pop	r19
    1756:	2f 91       	pop	r18
    1758:	0f 90       	pop	r0
    175a:	0b be       	out	0x3b, r0	; 59
    175c:	0f 90       	pop	r0
    175e:	09 be       	out	0x39, r0	; 57
    1760:	0f 90       	pop	r0
    1762:	08 be       	out	0x38, r0	; 56
    1764:	0f 90       	pop	r0
    1766:	0f be       	out	0x3f, r0	; 63
    1768:	0f 90       	pop	r0
    176a:	1f 90       	pop	r1
    176c:	18 95       	reti

0000176e <__vector_53>:
 *
 * This function will handle interrupt on Timer Counter E1 overflow and
 * call the callback function.
 */
ISR(TCE1_OVF_vect)
{
    176e:	1f 92       	push	r1
    1770:	0f 92       	push	r0
    1772:	0f b6       	in	r0, 0x3f	; 63
    1774:	0f 92       	push	r0
    1776:	11 24       	eor	r1, r1
    1778:	08 b6       	in	r0, 0x38	; 56
    177a:	0f 92       	push	r0
    177c:	18 be       	out	0x38, r1	; 56
    177e:	09 b6       	in	r0, 0x39	; 57
    1780:	0f 92       	push	r0
    1782:	19 be       	out	0x39, r1	; 57
    1784:	0b b6       	in	r0, 0x3b	; 59
    1786:	0f 92       	push	r0
    1788:	1b be       	out	0x3b, r1	; 59
    178a:	2f 93       	push	r18
    178c:	3f 93       	push	r19
    178e:	4f 93       	push	r20
    1790:	5f 93       	push	r21
    1792:	6f 93       	push	r22
    1794:	7f 93       	push	r23
    1796:	8f 93       	push	r24
    1798:	9f 93       	push	r25
    179a:	af 93       	push	r26
    179c:	bf 93       	push	r27
    179e:	ef 93       	push	r30
    17a0:	ff 93       	push	r31
	if (tc_tce1_ovf_callback) {
    17a2:	e0 91 7d 20 	lds	r30, 0x207D	; 0x80207d <tc_tce1_ovf_callback>
    17a6:	f0 91 7e 20 	lds	r31, 0x207E	; 0x80207e <tc_tce1_ovf_callback+0x1>
    17aa:	30 97       	sbiw	r30, 0x00	; 0
    17ac:	09 f0       	breq	.+2      	; 0x17b0 <__vector_53+0x42>
		tc_tce1_ovf_callback();
    17ae:	19 95       	eicall
	}
}
    17b0:	ff 91       	pop	r31
    17b2:	ef 91       	pop	r30
    17b4:	bf 91       	pop	r27
    17b6:	af 91       	pop	r26
    17b8:	9f 91       	pop	r25
    17ba:	8f 91       	pop	r24
    17bc:	7f 91       	pop	r23
    17be:	6f 91       	pop	r22
    17c0:	5f 91       	pop	r21
    17c2:	4f 91       	pop	r20
    17c4:	3f 91       	pop	r19
    17c6:	2f 91       	pop	r18
    17c8:	0f 90       	pop	r0
    17ca:	0b be       	out	0x3b, r0	; 59
    17cc:	0f 90       	pop	r0
    17ce:	09 be       	out	0x39, r0	; 57
    17d0:	0f 90       	pop	r0
    17d2:	08 be       	out	0x38, r0	; 56
    17d4:	0f 90       	pop	r0
    17d6:	0f be       	out	0x3f, r0	; 63
    17d8:	0f 90       	pop	r0
    17da:	1f 90       	pop	r1
    17dc:	18 95       	reti

000017de <__vector_54>:
 *
 * This function will handle interrupt on Timer Counter E1 error and
 * call the callback function.
 */
ISR(TCE1_ERR_vect)
{
    17de:	1f 92       	push	r1
    17e0:	0f 92       	push	r0
    17e2:	0f b6       	in	r0, 0x3f	; 63
    17e4:	0f 92       	push	r0
    17e6:	11 24       	eor	r1, r1
    17e8:	08 b6       	in	r0, 0x38	; 56
    17ea:	0f 92       	push	r0
    17ec:	18 be       	out	0x38, r1	; 56
    17ee:	09 b6       	in	r0, 0x39	; 57
    17f0:	0f 92       	push	r0
    17f2:	19 be       	out	0x39, r1	; 57
    17f4:	0b b6       	in	r0, 0x3b	; 59
    17f6:	0f 92       	push	r0
    17f8:	1b be       	out	0x3b, r1	; 59
    17fa:	2f 93       	push	r18
    17fc:	3f 93       	push	r19
    17fe:	4f 93       	push	r20
    1800:	5f 93       	push	r21
    1802:	6f 93       	push	r22
    1804:	7f 93       	push	r23
    1806:	8f 93       	push	r24
    1808:	9f 93       	push	r25
    180a:	af 93       	push	r26
    180c:	bf 93       	push	r27
    180e:	ef 93       	push	r30
    1810:	ff 93       	push	r31
	if (tc_tce1_err_callback) {
    1812:	e0 91 7b 20 	lds	r30, 0x207B	; 0x80207b <tc_tce1_err_callback>
    1816:	f0 91 7c 20 	lds	r31, 0x207C	; 0x80207c <tc_tce1_err_callback+0x1>
    181a:	30 97       	sbiw	r30, 0x00	; 0
    181c:	09 f0       	breq	.+2      	; 0x1820 <__vector_54+0x42>
		tc_tce1_err_callback();
    181e:	19 95       	eicall
	}
}
    1820:	ff 91       	pop	r31
    1822:	ef 91       	pop	r30
    1824:	bf 91       	pop	r27
    1826:	af 91       	pop	r26
    1828:	9f 91       	pop	r25
    182a:	8f 91       	pop	r24
    182c:	7f 91       	pop	r23
    182e:	6f 91       	pop	r22
    1830:	5f 91       	pop	r21
    1832:	4f 91       	pop	r20
    1834:	3f 91       	pop	r19
    1836:	2f 91       	pop	r18
    1838:	0f 90       	pop	r0
    183a:	0b be       	out	0x3b, r0	; 59
    183c:	0f 90       	pop	r0
    183e:	09 be       	out	0x39, r0	; 57
    1840:	0f 90       	pop	r0
    1842:	08 be       	out	0x38, r0	; 56
    1844:	0f 90       	pop	r0
    1846:	0f be       	out	0x3f, r0	; 63
    1848:	0f 90       	pop	r0
    184a:	1f 90       	pop	r1
    184c:	18 95       	reti

0000184e <__vector_55>:
 *
 * This function will handle interrupt on Timer Counter E1 Compare/CaptureA and
 * call the callback function.
 */
ISR(TCE1_CCA_vect)
{
    184e:	1f 92       	push	r1
    1850:	0f 92       	push	r0
    1852:	0f b6       	in	r0, 0x3f	; 63
    1854:	0f 92       	push	r0
    1856:	11 24       	eor	r1, r1
    1858:	08 b6       	in	r0, 0x38	; 56
    185a:	0f 92       	push	r0
    185c:	18 be       	out	0x38, r1	; 56
    185e:	09 b6       	in	r0, 0x39	; 57
    1860:	0f 92       	push	r0
    1862:	19 be       	out	0x39, r1	; 57
    1864:	0b b6       	in	r0, 0x3b	; 59
    1866:	0f 92       	push	r0
    1868:	1b be       	out	0x3b, r1	; 59
    186a:	2f 93       	push	r18
    186c:	3f 93       	push	r19
    186e:	4f 93       	push	r20
    1870:	5f 93       	push	r21
    1872:	6f 93       	push	r22
    1874:	7f 93       	push	r23
    1876:	8f 93       	push	r24
    1878:	9f 93       	push	r25
    187a:	af 93       	push	r26
    187c:	bf 93       	push	r27
    187e:	ef 93       	push	r30
    1880:	ff 93       	push	r31
	if (tc_tce1_cca_callback) {
    1882:	e0 91 79 20 	lds	r30, 0x2079	; 0x802079 <tc_tce1_cca_callback>
    1886:	f0 91 7a 20 	lds	r31, 0x207A	; 0x80207a <tc_tce1_cca_callback+0x1>
    188a:	30 97       	sbiw	r30, 0x00	; 0
    188c:	09 f0       	breq	.+2      	; 0x1890 <__vector_55+0x42>
		tc_tce1_cca_callback();
    188e:	19 95       	eicall
	}
}
    1890:	ff 91       	pop	r31
    1892:	ef 91       	pop	r30
    1894:	bf 91       	pop	r27
    1896:	af 91       	pop	r26
    1898:	9f 91       	pop	r25
    189a:	8f 91       	pop	r24
    189c:	7f 91       	pop	r23
    189e:	6f 91       	pop	r22
    18a0:	5f 91       	pop	r21
    18a2:	4f 91       	pop	r20
    18a4:	3f 91       	pop	r19
    18a6:	2f 91       	pop	r18
    18a8:	0f 90       	pop	r0
    18aa:	0b be       	out	0x3b, r0	; 59
    18ac:	0f 90       	pop	r0
    18ae:	09 be       	out	0x39, r0	; 57
    18b0:	0f 90       	pop	r0
    18b2:	08 be       	out	0x38, r0	; 56
    18b4:	0f 90       	pop	r0
    18b6:	0f be       	out	0x3f, r0	; 63
    18b8:	0f 90       	pop	r0
    18ba:	1f 90       	pop	r1
    18bc:	18 95       	reti

000018be <__vector_56>:
 *
 * This function will handle interrupt on Timer Counter E1 Compare/CaptureB and
 * call the callback function.
 */
ISR(TCE1_CCB_vect)
{
    18be:	1f 92       	push	r1
    18c0:	0f 92       	push	r0
    18c2:	0f b6       	in	r0, 0x3f	; 63
    18c4:	0f 92       	push	r0
    18c6:	11 24       	eor	r1, r1
    18c8:	08 b6       	in	r0, 0x38	; 56
    18ca:	0f 92       	push	r0
    18cc:	18 be       	out	0x38, r1	; 56
    18ce:	09 b6       	in	r0, 0x39	; 57
    18d0:	0f 92       	push	r0
    18d2:	19 be       	out	0x39, r1	; 57
    18d4:	0b b6       	in	r0, 0x3b	; 59
    18d6:	0f 92       	push	r0
    18d8:	1b be       	out	0x3b, r1	; 59
    18da:	2f 93       	push	r18
    18dc:	3f 93       	push	r19
    18de:	4f 93       	push	r20
    18e0:	5f 93       	push	r21
    18e2:	6f 93       	push	r22
    18e4:	7f 93       	push	r23
    18e6:	8f 93       	push	r24
    18e8:	9f 93       	push	r25
    18ea:	af 93       	push	r26
    18ec:	bf 93       	push	r27
    18ee:	ef 93       	push	r30
    18f0:	ff 93       	push	r31
	if (tc_tce1_ccb_callback) {
    18f2:	e0 91 77 20 	lds	r30, 0x2077	; 0x802077 <tc_tce1_ccb_callback>
    18f6:	f0 91 78 20 	lds	r31, 0x2078	; 0x802078 <tc_tce1_ccb_callback+0x1>
    18fa:	30 97       	sbiw	r30, 0x00	; 0
    18fc:	09 f0       	breq	.+2      	; 0x1900 <__vector_56+0x42>
		tc_tce1_ccb_callback();
    18fe:	19 95       	eicall
	}
}
    1900:	ff 91       	pop	r31
    1902:	ef 91       	pop	r30
    1904:	bf 91       	pop	r27
    1906:	af 91       	pop	r26
    1908:	9f 91       	pop	r25
    190a:	8f 91       	pop	r24
    190c:	7f 91       	pop	r23
    190e:	6f 91       	pop	r22
    1910:	5f 91       	pop	r21
    1912:	4f 91       	pop	r20
    1914:	3f 91       	pop	r19
    1916:	2f 91       	pop	r18
    1918:	0f 90       	pop	r0
    191a:	0b be       	out	0x3b, r0	; 59
    191c:	0f 90       	pop	r0
    191e:	09 be       	out	0x39, r0	; 57
    1920:	0f 90       	pop	r0
    1922:	08 be       	out	0x38, r0	; 56
    1924:	0f 90       	pop	r0
    1926:	0f be       	out	0x3f, r0	; 63
    1928:	0f 90       	pop	r0
    192a:	1f 90       	pop	r1
    192c:	18 95       	reti

0000192e <__vector_108>:
 *
 * This function will handle interrupt on Timer Counter F0 overflow and
 * call the callback function.
 */
ISR(TCF0_OVF_vect)
{
    192e:	1f 92       	push	r1
    1930:	0f 92       	push	r0
    1932:	0f b6       	in	r0, 0x3f	; 63
    1934:	0f 92       	push	r0
    1936:	11 24       	eor	r1, r1
    1938:	08 b6       	in	r0, 0x38	; 56
    193a:	0f 92       	push	r0
    193c:	18 be       	out	0x38, r1	; 56
    193e:	09 b6       	in	r0, 0x39	; 57
    1940:	0f 92       	push	r0
    1942:	19 be       	out	0x39, r1	; 57
    1944:	0b b6       	in	r0, 0x3b	; 59
    1946:	0f 92       	push	r0
    1948:	1b be       	out	0x3b, r1	; 59
    194a:	2f 93       	push	r18
    194c:	3f 93       	push	r19
    194e:	4f 93       	push	r20
    1950:	5f 93       	push	r21
    1952:	6f 93       	push	r22
    1954:	7f 93       	push	r23
    1956:	8f 93       	push	r24
    1958:	9f 93       	push	r25
    195a:	af 93       	push	r26
    195c:	bf 93       	push	r27
    195e:	ef 93       	push	r30
    1960:	ff 93       	push	r31
	if (tc_tcf0_ovf_callback) {
    1962:	e0 91 75 20 	lds	r30, 0x2075	; 0x802075 <tc_tcf0_ovf_callback>
    1966:	f0 91 76 20 	lds	r31, 0x2076	; 0x802076 <tc_tcf0_ovf_callback+0x1>
    196a:	30 97       	sbiw	r30, 0x00	; 0
    196c:	09 f0       	breq	.+2      	; 0x1970 <__vector_108+0x42>
		tc_tcf0_ovf_callback();
    196e:	19 95       	eicall
	}
}
    1970:	ff 91       	pop	r31
    1972:	ef 91       	pop	r30
    1974:	bf 91       	pop	r27
    1976:	af 91       	pop	r26
    1978:	9f 91       	pop	r25
    197a:	8f 91       	pop	r24
    197c:	7f 91       	pop	r23
    197e:	6f 91       	pop	r22
    1980:	5f 91       	pop	r21
    1982:	4f 91       	pop	r20
    1984:	3f 91       	pop	r19
    1986:	2f 91       	pop	r18
    1988:	0f 90       	pop	r0
    198a:	0b be       	out	0x3b, r0	; 59
    198c:	0f 90       	pop	r0
    198e:	09 be       	out	0x39, r0	; 57
    1990:	0f 90       	pop	r0
    1992:	08 be       	out	0x38, r0	; 56
    1994:	0f 90       	pop	r0
    1996:	0f be       	out	0x3f, r0	; 63
    1998:	0f 90       	pop	r0
    199a:	1f 90       	pop	r1
    199c:	18 95       	reti

0000199e <__vector_109>:
 *
 * This function will handle interrupt on Timer Counter F0 error and
 * call the callback function.
 */
ISR(TCF0_ERR_vect)
{
    199e:	1f 92       	push	r1
    19a0:	0f 92       	push	r0
    19a2:	0f b6       	in	r0, 0x3f	; 63
    19a4:	0f 92       	push	r0
    19a6:	11 24       	eor	r1, r1
    19a8:	08 b6       	in	r0, 0x38	; 56
    19aa:	0f 92       	push	r0
    19ac:	18 be       	out	0x38, r1	; 56
    19ae:	09 b6       	in	r0, 0x39	; 57
    19b0:	0f 92       	push	r0
    19b2:	19 be       	out	0x39, r1	; 57
    19b4:	0b b6       	in	r0, 0x3b	; 59
    19b6:	0f 92       	push	r0
    19b8:	1b be       	out	0x3b, r1	; 59
    19ba:	2f 93       	push	r18
    19bc:	3f 93       	push	r19
    19be:	4f 93       	push	r20
    19c0:	5f 93       	push	r21
    19c2:	6f 93       	push	r22
    19c4:	7f 93       	push	r23
    19c6:	8f 93       	push	r24
    19c8:	9f 93       	push	r25
    19ca:	af 93       	push	r26
    19cc:	bf 93       	push	r27
    19ce:	ef 93       	push	r30
    19d0:	ff 93       	push	r31
	if (tc_tcf0_err_callback) {
    19d2:	e0 91 73 20 	lds	r30, 0x2073	; 0x802073 <tc_tcf0_err_callback>
    19d6:	f0 91 74 20 	lds	r31, 0x2074	; 0x802074 <tc_tcf0_err_callback+0x1>
    19da:	30 97       	sbiw	r30, 0x00	; 0
    19dc:	09 f0       	breq	.+2      	; 0x19e0 <__vector_109+0x42>
		tc_tcf0_err_callback();
    19de:	19 95       	eicall
	}
}
    19e0:	ff 91       	pop	r31
    19e2:	ef 91       	pop	r30
    19e4:	bf 91       	pop	r27
    19e6:	af 91       	pop	r26
    19e8:	9f 91       	pop	r25
    19ea:	8f 91       	pop	r24
    19ec:	7f 91       	pop	r23
    19ee:	6f 91       	pop	r22
    19f0:	5f 91       	pop	r21
    19f2:	4f 91       	pop	r20
    19f4:	3f 91       	pop	r19
    19f6:	2f 91       	pop	r18
    19f8:	0f 90       	pop	r0
    19fa:	0b be       	out	0x3b, r0	; 59
    19fc:	0f 90       	pop	r0
    19fe:	09 be       	out	0x39, r0	; 57
    1a00:	0f 90       	pop	r0
    1a02:	08 be       	out	0x38, r0	; 56
    1a04:	0f 90       	pop	r0
    1a06:	0f be       	out	0x3f, r0	; 63
    1a08:	0f 90       	pop	r0
    1a0a:	1f 90       	pop	r1
    1a0c:	18 95       	reti

00001a0e <__vector_110>:
 *
 * This function will handle interrupt on Timer Counter F0 Compare/CaptureA and
 * call the callback function.
 */
ISR(TCF0_CCA_vect)
{
    1a0e:	1f 92       	push	r1
    1a10:	0f 92       	push	r0
    1a12:	0f b6       	in	r0, 0x3f	; 63
    1a14:	0f 92       	push	r0
    1a16:	11 24       	eor	r1, r1
    1a18:	08 b6       	in	r0, 0x38	; 56
    1a1a:	0f 92       	push	r0
    1a1c:	18 be       	out	0x38, r1	; 56
    1a1e:	09 b6       	in	r0, 0x39	; 57
    1a20:	0f 92       	push	r0
    1a22:	19 be       	out	0x39, r1	; 57
    1a24:	0b b6       	in	r0, 0x3b	; 59
    1a26:	0f 92       	push	r0
    1a28:	1b be       	out	0x3b, r1	; 59
    1a2a:	2f 93       	push	r18
    1a2c:	3f 93       	push	r19
    1a2e:	4f 93       	push	r20
    1a30:	5f 93       	push	r21
    1a32:	6f 93       	push	r22
    1a34:	7f 93       	push	r23
    1a36:	8f 93       	push	r24
    1a38:	9f 93       	push	r25
    1a3a:	af 93       	push	r26
    1a3c:	bf 93       	push	r27
    1a3e:	ef 93       	push	r30
    1a40:	ff 93       	push	r31
	if (tc_tcf0_cca_callback) {
    1a42:	e0 91 71 20 	lds	r30, 0x2071	; 0x802071 <tc_tcf0_cca_callback>
    1a46:	f0 91 72 20 	lds	r31, 0x2072	; 0x802072 <tc_tcf0_cca_callback+0x1>
    1a4a:	30 97       	sbiw	r30, 0x00	; 0
    1a4c:	09 f0       	breq	.+2      	; 0x1a50 <__vector_110+0x42>
		tc_tcf0_cca_callback();
    1a4e:	19 95       	eicall
	}
}
    1a50:	ff 91       	pop	r31
    1a52:	ef 91       	pop	r30
    1a54:	bf 91       	pop	r27
    1a56:	af 91       	pop	r26
    1a58:	9f 91       	pop	r25
    1a5a:	8f 91       	pop	r24
    1a5c:	7f 91       	pop	r23
    1a5e:	6f 91       	pop	r22
    1a60:	5f 91       	pop	r21
    1a62:	4f 91       	pop	r20
    1a64:	3f 91       	pop	r19
    1a66:	2f 91       	pop	r18
    1a68:	0f 90       	pop	r0
    1a6a:	0b be       	out	0x3b, r0	; 59
    1a6c:	0f 90       	pop	r0
    1a6e:	09 be       	out	0x39, r0	; 57
    1a70:	0f 90       	pop	r0
    1a72:	08 be       	out	0x38, r0	; 56
    1a74:	0f 90       	pop	r0
    1a76:	0f be       	out	0x3f, r0	; 63
    1a78:	0f 90       	pop	r0
    1a7a:	1f 90       	pop	r1
    1a7c:	18 95       	reti

00001a7e <__vector_111>:
 *
 * This function will handle interrupt on Timer Counter F0 Compare/CaptureB and
 * call the callback function.
 */
ISR(TCF0_CCB_vect)
{
    1a7e:	1f 92       	push	r1
    1a80:	0f 92       	push	r0
    1a82:	0f b6       	in	r0, 0x3f	; 63
    1a84:	0f 92       	push	r0
    1a86:	11 24       	eor	r1, r1
    1a88:	08 b6       	in	r0, 0x38	; 56
    1a8a:	0f 92       	push	r0
    1a8c:	18 be       	out	0x38, r1	; 56
    1a8e:	09 b6       	in	r0, 0x39	; 57
    1a90:	0f 92       	push	r0
    1a92:	19 be       	out	0x39, r1	; 57
    1a94:	0b b6       	in	r0, 0x3b	; 59
    1a96:	0f 92       	push	r0
    1a98:	1b be       	out	0x3b, r1	; 59
    1a9a:	2f 93       	push	r18
    1a9c:	3f 93       	push	r19
    1a9e:	4f 93       	push	r20
    1aa0:	5f 93       	push	r21
    1aa2:	6f 93       	push	r22
    1aa4:	7f 93       	push	r23
    1aa6:	8f 93       	push	r24
    1aa8:	9f 93       	push	r25
    1aaa:	af 93       	push	r26
    1aac:	bf 93       	push	r27
    1aae:	ef 93       	push	r30
    1ab0:	ff 93       	push	r31
	if (tc_tcf0_ccb_callback) {
    1ab2:	e0 91 6f 20 	lds	r30, 0x206F	; 0x80206f <tc_tcf0_ccb_callback>
    1ab6:	f0 91 70 20 	lds	r31, 0x2070	; 0x802070 <tc_tcf0_ccb_callback+0x1>
    1aba:	30 97       	sbiw	r30, 0x00	; 0
    1abc:	09 f0       	breq	.+2      	; 0x1ac0 <__vector_111+0x42>
		tc_tcf0_ccb_callback();
    1abe:	19 95       	eicall
	}
}
    1ac0:	ff 91       	pop	r31
    1ac2:	ef 91       	pop	r30
    1ac4:	bf 91       	pop	r27
    1ac6:	af 91       	pop	r26
    1ac8:	9f 91       	pop	r25
    1aca:	8f 91       	pop	r24
    1acc:	7f 91       	pop	r23
    1ace:	6f 91       	pop	r22
    1ad0:	5f 91       	pop	r21
    1ad2:	4f 91       	pop	r20
    1ad4:	3f 91       	pop	r19
    1ad6:	2f 91       	pop	r18
    1ad8:	0f 90       	pop	r0
    1ada:	0b be       	out	0x3b, r0	; 59
    1adc:	0f 90       	pop	r0
    1ade:	09 be       	out	0x39, r0	; 57
    1ae0:	0f 90       	pop	r0
    1ae2:	08 be       	out	0x38, r0	; 56
    1ae4:	0f 90       	pop	r0
    1ae6:	0f be       	out	0x3f, r0	; 63
    1ae8:	0f 90       	pop	r0
    1aea:	1f 90       	pop	r1
    1aec:	18 95       	reti

00001aee <__vector_112>:
 *
 * This function will handle interrupt on Timer Counter F0 Compare/CaptureC and
 * call the callback function.
 */
ISR(TCF0_CCC_vect)
{
    1aee:	1f 92       	push	r1
    1af0:	0f 92       	push	r0
    1af2:	0f b6       	in	r0, 0x3f	; 63
    1af4:	0f 92       	push	r0
    1af6:	11 24       	eor	r1, r1
    1af8:	08 b6       	in	r0, 0x38	; 56
    1afa:	0f 92       	push	r0
    1afc:	18 be       	out	0x38, r1	; 56
    1afe:	09 b6       	in	r0, 0x39	; 57
    1b00:	0f 92       	push	r0
    1b02:	19 be       	out	0x39, r1	; 57
    1b04:	0b b6       	in	r0, 0x3b	; 59
    1b06:	0f 92       	push	r0
    1b08:	1b be       	out	0x3b, r1	; 59
    1b0a:	2f 93       	push	r18
    1b0c:	3f 93       	push	r19
    1b0e:	4f 93       	push	r20
    1b10:	5f 93       	push	r21
    1b12:	6f 93       	push	r22
    1b14:	7f 93       	push	r23
    1b16:	8f 93       	push	r24
    1b18:	9f 93       	push	r25
    1b1a:	af 93       	push	r26
    1b1c:	bf 93       	push	r27
    1b1e:	ef 93       	push	r30
    1b20:	ff 93       	push	r31
	if (tc_tcf0_ccc_callback) {
    1b22:	e0 91 6d 20 	lds	r30, 0x206D	; 0x80206d <tc_tcf0_ccc_callback>
    1b26:	f0 91 6e 20 	lds	r31, 0x206E	; 0x80206e <tc_tcf0_ccc_callback+0x1>
    1b2a:	30 97       	sbiw	r30, 0x00	; 0
    1b2c:	09 f0       	breq	.+2      	; 0x1b30 <__vector_112+0x42>
		tc_tcf0_ccc_callback();
    1b2e:	19 95       	eicall
	}
}
    1b30:	ff 91       	pop	r31
    1b32:	ef 91       	pop	r30
    1b34:	bf 91       	pop	r27
    1b36:	af 91       	pop	r26
    1b38:	9f 91       	pop	r25
    1b3a:	8f 91       	pop	r24
    1b3c:	7f 91       	pop	r23
    1b3e:	6f 91       	pop	r22
    1b40:	5f 91       	pop	r21
    1b42:	4f 91       	pop	r20
    1b44:	3f 91       	pop	r19
    1b46:	2f 91       	pop	r18
    1b48:	0f 90       	pop	r0
    1b4a:	0b be       	out	0x3b, r0	; 59
    1b4c:	0f 90       	pop	r0
    1b4e:	09 be       	out	0x39, r0	; 57
    1b50:	0f 90       	pop	r0
    1b52:	08 be       	out	0x38, r0	; 56
    1b54:	0f 90       	pop	r0
    1b56:	0f be       	out	0x3f, r0	; 63
    1b58:	0f 90       	pop	r0
    1b5a:	1f 90       	pop	r1
    1b5c:	18 95       	reti

00001b5e <__vector_113>:
 *
 * This function will handle interrupt on Timer Counter F0 Compare/CaptureD and
 * call the callback function.
 */
ISR(TCF0_CCD_vect)
{
    1b5e:	1f 92       	push	r1
    1b60:	0f 92       	push	r0
    1b62:	0f b6       	in	r0, 0x3f	; 63
    1b64:	0f 92       	push	r0
    1b66:	11 24       	eor	r1, r1
    1b68:	08 b6       	in	r0, 0x38	; 56
    1b6a:	0f 92       	push	r0
    1b6c:	18 be       	out	0x38, r1	; 56
    1b6e:	09 b6       	in	r0, 0x39	; 57
    1b70:	0f 92       	push	r0
    1b72:	19 be       	out	0x39, r1	; 57
    1b74:	0b b6       	in	r0, 0x3b	; 59
    1b76:	0f 92       	push	r0
    1b78:	1b be       	out	0x3b, r1	; 59
    1b7a:	2f 93       	push	r18
    1b7c:	3f 93       	push	r19
    1b7e:	4f 93       	push	r20
    1b80:	5f 93       	push	r21
    1b82:	6f 93       	push	r22
    1b84:	7f 93       	push	r23
    1b86:	8f 93       	push	r24
    1b88:	9f 93       	push	r25
    1b8a:	af 93       	push	r26
    1b8c:	bf 93       	push	r27
    1b8e:	ef 93       	push	r30
    1b90:	ff 93       	push	r31
	if (tc_tcf0_ccd_callback) {
    1b92:	e0 91 6b 20 	lds	r30, 0x206B	; 0x80206b <tc_tcf0_ccd_callback>
    1b96:	f0 91 6c 20 	lds	r31, 0x206C	; 0x80206c <tc_tcf0_ccd_callback+0x1>
    1b9a:	30 97       	sbiw	r30, 0x00	; 0
    1b9c:	09 f0       	breq	.+2      	; 0x1ba0 <__vector_113+0x42>
		tc_tcf0_ccd_callback();
    1b9e:	19 95       	eicall
	}
}
    1ba0:	ff 91       	pop	r31
    1ba2:	ef 91       	pop	r30
    1ba4:	bf 91       	pop	r27
    1ba6:	af 91       	pop	r26
    1ba8:	9f 91       	pop	r25
    1baa:	8f 91       	pop	r24
    1bac:	7f 91       	pop	r23
    1bae:	6f 91       	pop	r22
    1bb0:	5f 91       	pop	r21
    1bb2:	4f 91       	pop	r20
    1bb4:	3f 91       	pop	r19
    1bb6:	2f 91       	pop	r18
    1bb8:	0f 90       	pop	r0
    1bba:	0b be       	out	0x3b, r0	; 59
    1bbc:	0f 90       	pop	r0
    1bbe:	09 be       	out	0x39, r0	; 57
    1bc0:	0f 90       	pop	r0
    1bc2:	08 be       	out	0x38, r0	; 56
    1bc4:	0f 90       	pop	r0
    1bc6:	0f be       	out	0x3f, r0	; 63
    1bc8:	0f 90       	pop	r0
    1bca:	1f 90       	pop	r1
    1bcc:	18 95       	reti

00001bce <__vector_114>:
 *
 * This function will handle interrupt on Timer Counter F1 overflow and
 * call the callback function.
 */
ISR(TCF1_OVF_vect)
{
    1bce:	1f 92       	push	r1
    1bd0:	0f 92       	push	r0
    1bd2:	0f b6       	in	r0, 0x3f	; 63
    1bd4:	0f 92       	push	r0
    1bd6:	11 24       	eor	r1, r1
    1bd8:	08 b6       	in	r0, 0x38	; 56
    1bda:	0f 92       	push	r0
    1bdc:	18 be       	out	0x38, r1	; 56
    1bde:	09 b6       	in	r0, 0x39	; 57
    1be0:	0f 92       	push	r0
    1be2:	19 be       	out	0x39, r1	; 57
    1be4:	0b b6       	in	r0, 0x3b	; 59
    1be6:	0f 92       	push	r0
    1be8:	1b be       	out	0x3b, r1	; 59
    1bea:	2f 93       	push	r18
    1bec:	3f 93       	push	r19
    1bee:	4f 93       	push	r20
    1bf0:	5f 93       	push	r21
    1bf2:	6f 93       	push	r22
    1bf4:	7f 93       	push	r23
    1bf6:	8f 93       	push	r24
    1bf8:	9f 93       	push	r25
    1bfa:	af 93       	push	r26
    1bfc:	bf 93       	push	r27
    1bfe:	ef 93       	push	r30
    1c00:	ff 93       	push	r31
	if (tc_tcf1_ovf_callback) {
    1c02:	e0 91 69 20 	lds	r30, 0x2069	; 0x802069 <tc_tcf1_ovf_callback>
    1c06:	f0 91 6a 20 	lds	r31, 0x206A	; 0x80206a <tc_tcf1_ovf_callback+0x1>
    1c0a:	30 97       	sbiw	r30, 0x00	; 0
    1c0c:	09 f0       	breq	.+2      	; 0x1c10 <__vector_114+0x42>
		tc_tcf1_ovf_callback();
    1c0e:	19 95       	eicall
	}
}
    1c10:	ff 91       	pop	r31
    1c12:	ef 91       	pop	r30
    1c14:	bf 91       	pop	r27
    1c16:	af 91       	pop	r26
    1c18:	9f 91       	pop	r25
    1c1a:	8f 91       	pop	r24
    1c1c:	7f 91       	pop	r23
    1c1e:	6f 91       	pop	r22
    1c20:	5f 91       	pop	r21
    1c22:	4f 91       	pop	r20
    1c24:	3f 91       	pop	r19
    1c26:	2f 91       	pop	r18
    1c28:	0f 90       	pop	r0
    1c2a:	0b be       	out	0x3b, r0	; 59
    1c2c:	0f 90       	pop	r0
    1c2e:	09 be       	out	0x39, r0	; 57
    1c30:	0f 90       	pop	r0
    1c32:	08 be       	out	0x38, r0	; 56
    1c34:	0f 90       	pop	r0
    1c36:	0f be       	out	0x3f, r0	; 63
    1c38:	0f 90       	pop	r0
    1c3a:	1f 90       	pop	r1
    1c3c:	18 95       	reti

00001c3e <__vector_115>:
 *
 * This function will handle interrupt on Timer Counter F1 error and
 * call the callback function.
 */
ISR(TCF1_ERR_vect)
{
    1c3e:	1f 92       	push	r1
    1c40:	0f 92       	push	r0
    1c42:	0f b6       	in	r0, 0x3f	; 63
    1c44:	0f 92       	push	r0
    1c46:	11 24       	eor	r1, r1
    1c48:	08 b6       	in	r0, 0x38	; 56
    1c4a:	0f 92       	push	r0
    1c4c:	18 be       	out	0x38, r1	; 56
    1c4e:	09 b6       	in	r0, 0x39	; 57
    1c50:	0f 92       	push	r0
    1c52:	19 be       	out	0x39, r1	; 57
    1c54:	0b b6       	in	r0, 0x3b	; 59
    1c56:	0f 92       	push	r0
    1c58:	1b be       	out	0x3b, r1	; 59
    1c5a:	2f 93       	push	r18
    1c5c:	3f 93       	push	r19
    1c5e:	4f 93       	push	r20
    1c60:	5f 93       	push	r21
    1c62:	6f 93       	push	r22
    1c64:	7f 93       	push	r23
    1c66:	8f 93       	push	r24
    1c68:	9f 93       	push	r25
    1c6a:	af 93       	push	r26
    1c6c:	bf 93       	push	r27
    1c6e:	ef 93       	push	r30
    1c70:	ff 93       	push	r31
	if (tc_tcf1_err_callback) {
    1c72:	e0 91 67 20 	lds	r30, 0x2067	; 0x802067 <tc_tcf1_err_callback>
    1c76:	f0 91 68 20 	lds	r31, 0x2068	; 0x802068 <tc_tcf1_err_callback+0x1>
    1c7a:	30 97       	sbiw	r30, 0x00	; 0
    1c7c:	09 f0       	breq	.+2      	; 0x1c80 <__vector_115+0x42>
		tc_tcf1_err_callback();
    1c7e:	19 95       	eicall
	}
}
    1c80:	ff 91       	pop	r31
    1c82:	ef 91       	pop	r30
    1c84:	bf 91       	pop	r27
    1c86:	af 91       	pop	r26
    1c88:	9f 91       	pop	r25
    1c8a:	8f 91       	pop	r24
    1c8c:	7f 91       	pop	r23
    1c8e:	6f 91       	pop	r22
    1c90:	5f 91       	pop	r21
    1c92:	4f 91       	pop	r20
    1c94:	3f 91       	pop	r19
    1c96:	2f 91       	pop	r18
    1c98:	0f 90       	pop	r0
    1c9a:	0b be       	out	0x3b, r0	; 59
    1c9c:	0f 90       	pop	r0
    1c9e:	09 be       	out	0x39, r0	; 57
    1ca0:	0f 90       	pop	r0
    1ca2:	08 be       	out	0x38, r0	; 56
    1ca4:	0f 90       	pop	r0
    1ca6:	0f be       	out	0x3f, r0	; 63
    1ca8:	0f 90       	pop	r0
    1caa:	1f 90       	pop	r1
    1cac:	18 95       	reti

00001cae <__vector_116>:
 *
 * This function will handle interrupt on Timer Counter F1 Compare/CaptureA and
 * call the callback function.
 */
ISR(TCF1_CCA_vect)
{
    1cae:	1f 92       	push	r1
    1cb0:	0f 92       	push	r0
    1cb2:	0f b6       	in	r0, 0x3f	; 63
    1cb4:	0f 92       	push	r0
    1cb6:	11 24       	eor	r1, r1
    1cb8:	08 b6       	in	r0, 0x38	; 56
    1cba:	0f 92       	push	r0
    1cbc:	18 be       	out	0x38, r1	; 56
    1cbe:	09 b6       	in	r0, 0x39	; 57
    1cc0:	0f 92       	push	r0
    1cc2:	19 be       	out	0x39, r1	; 57
    1cc4:	0b b6       	in	r0, 0x3b	; 59
    1cc6:	0f 92       	push	r0
    1cc8:	1b be       	out	0x3b, r1	; 59
    1cca:	2f 93       	push	r18
    1ccc:	3f 93       	push	r19
    1cce:	4f 93       	push	r20
    1cd0:	5f 93       	push	r21
    1cd2:	6f 93       	push	r22
    1cd4:	7f 93       	push	r23
    1cd6:	8f 93       	push	r24
    1cd8:	9f 93       	push	r25
    1cda:	af 93       	push	r26
    1cdc:	bf 93       	push	r27
    1cde:	ef 93       	push	r30
    1ce0:	ff 93       	push	r31
	if (tc_tcf1_cca_callback) {
    1ce2:	e0 91 65 20 	lds	r30, 0x2065	; 0x802065 <tc_tcf1_cca_callback>
    1ce6:	f0 91 66 20 	lds	r31, 0x2066	; 0x802066 <tc_tcf1_cca_callback+0x1>
    1cea:	30 97       	sbiw	r30, 0x00	; 0
    1cec:	09 f0       	breq	.+2      	; 0x1cf0 <__vector_116+0x42>
		tc_tcf1_cca_callback();
    1cee:	19 95       	eicall
	}
}
    1cf0:	ff 91       	pop	r31
    1cf2:	ef 91       	pop	r30
    1cf4:	bf 91       	pop	r27
    1cf6:	af 91       	pop	r26
    1cf8:	9f 91       	pop	r25
    1cfa:	8f 91       	pop	r24
    1cfc:	7f 91       	pop	r23
    1cfe:	6f 91       	pop	r22
    1d00:	5f 91       	pop	r21
    1d02:	4f 91       	pop	r20
    1d04:	3f 91       	pop	r19
    1d06:	2f 91       	pop	r18
    1d08:	0f 90       	pop	r0
    1d0a:	0b be       	out	0x3b, r0	; 59
    1d0c:	0f 90       	pop	r0
    1d0e:	09 be       	out	0x39, r0	; 57
    1d10:	0f 90       	pop	r0
    1d12:	08 be       	out	0x38, r0	; 56
    1d14:	0f 90       	pop	r0
    1d16:	0f be       	out	0x3f, r0	; 63
    1d18:	0f 90       	pop	r0
    1d1a:	1f 90       	pop	r1
    1d1c:	18 95       	reti

00001d1e <__vector_117>:
 *
 * This function will handle interrupt on Timer Counter F1 Compare/CaptureB and
 * call the callback function.
 */
ISR(TCF1_CCB_vect)
{
    1d1e:	1f 92       	push	r1
    1d20:	0f 92       	push	r0
    1d22:	0f b6       	in	r0, 0x3f	; 63
    1d24:	0f 92       	push	r0
    1d26:	11 24       	eor	r1, r1
    1d28:	08 b6       	in	r0, 0x38	; 56
    1d2a:	0f 92       	push	r0
    1d2c:	18 be       	out	0x38, r1	; 56
    1d2e:	09 b6       	in	r0, 0x39	; 57
    1d30:	0f 92       	push	r0
    1d32:	19 be       	out	0x39, r1	; 57
    1d34:	0b b6       	in	r0, 0x3b	; 59
    1d36:	0f 92       	push	r0
    1d38:	1b be       	out	0x3b, r1	; 59
    1d3a:	2f 93       	push	r18
    1d3c:	3f 93       	push	r19
    1d3e:	4f 93       	push	r20
    1d40:	5f 93       	push	r21
    1d42:	6f 93       	push	r22
    1d44:	7f 93       	push	r23
    1d46:	8f 93       	push	r24
    1d48:	9f 93       	push	r25
    1d4a:	af 93       	push	r26
    1d4c:	bf 93       	push	r27
    1d4e:	ef 93       	push	r30
    1d50:	ff 93       	push	r31
	if (tc_tcf1_ccb_callback) {
    1d52:	e0 91 63 20 	lds	r30, 0x2063	; 0x802063 <tc_tcf1_ccb_callback>
    1d56:	f0 91 64 20 	lds	r31, 0x2064	; 0x802064 <tc_tcf1_ccb_callback+0x1>
    1d5a:	30 97       	sbiw	r30, 0x00	; 0
    1d5c:	09 f0       	breq	.+2      	; 0x1d60 <__vector_117+0x42>
		tc_tcf1_ccb_callback();
    1d5e:	19 95       	eicall
	}
}
    1d60:	ff 91       	pop	r31
    1d62:	ef 91       	pop	r30
    1d64:	bf 91       	pop	r27
    1d66:	af 91       	pop	r26
    1d68:	9f 91       	pop	r25
    1d6a:	8f 91       	pop	r24
    1d6c:	7f 91       	pop	r23
    1d6e:	6f 91       	pop	r22
    1d70:	5f 91       	pop	r21
    1d72:	4f 91       	pop	r20
    1d74:	3f 91       	pop	r19
    1d76:	2f 91       	pop	r18
    1d78:	0f 90       	pop	r0
    1d7a:	0b be       	out	0x3b, r0	; 59
    1d7c:	0f 90       	pop	r0
    1d7e:	09 be       	out	0x39, r0	; 57
    1d80:	0f 90       	pop	r0
    1d82:	08 be       	out	0x38, r0	; 56
    1d84:	0f 90       	pop	r0
    1d86:	0f be       	out	0x3f, r0	; 63
    1d88:	0f 90       	pop	r0
    1d8a:	1f 90       	pop	r1
    1d8c:	18 95       	reti

00001d8e <usart_putchar>:

	if (baud_offset != USART_BAUD_UNDEFINED) {
		(usart)->BAUDCTRLB = (uint8_t)((uint16_t)baudctrl);
		(usart)->BAUDCTRLA = (uint8_t)((uint16_t)baudctrl >> 8);
	}
}
    1d8e:	fc 01       	movw	r30, r24
    1d90:	91 81       	ldd	r25, Z+1	; 0x01
    1d92:	95 ff       	sbrs	r25, 5
    1d94:	fd cf       	rjmp	.-6      	; 0x1d90 <usart_putchar+0x2>
    1d96:	60 83       	st	Z, r22
    1d98:	80 e0       	ldi	r24, 0x00	; 0
    1d9a:	90 e0       	ldi	r25, 0x00	; 0
    1d9c:	08 95       	ret

00001d9e <usart_getchar>:
    1d9e:	fc 01       	movw	r30, r24
    1da0:	91 81       	ldd	r25, Z+1	; 0x01
    1da2:	99 23       	and	r25, r25
    1da4:	ec f7       	brge	.-6      	; 0x1da0 <usart_getchar+0x2>
    1da6:	80 81       	ld	r24, Z
    1da8:	08 95       	ret

00001daa <usart_set_baudrate>:
 * \retval true if the hardware supports the baud rate
 * \retval false if the hardware does not support the baud rate (i.e. it's
 *               either too high or too low.)
 */
bool usart_set_baudrate(USART_t *usart, uint32_t baud, uint32_t cpu_hz)
{
    1daa:	4f 92       	push	r4
    1dac:	5f 92       	push	r5
    1dae:	6f 92       	push	r6
    1db0:	7f 92       	push	r7
    1db2:	8f 92       	push	r8
    1db4:	9f 92       	push	r9
    1db6:	af 92       	push	r10
    1db8:	bf 92       	push	r11
    1dba:	ef 92       	push	r14
    1dbc:	ff 92       	push	r15
    1dbe:	0f 93       	push	r16
    1dc0:	1f 93       	push	r17
    1dc2:	cf 93       	push	r28
    1dc4:	7c 01       	movw	r14, r24
    1dc6:	4a 01       	movw	r8, r20
    1dc8:	5b 01       	movw	r10, r22
    1dca:	28 01       	movw	r4, r16
    1dcc:	39 01       	movw	r6, r18
	/* 8 = (2^0) * 8 * (2^0) = (2^BSCALE_MIN) * 8 * (BSEL_MIN) */
	max_rate = cpu_hz / 8;
	/* 4194304 = (2^7) * 8 * (2^12) = (2^BSCALE_MAX) * 8 * (BSEL_MAX+1) */
	min_rate = cpu_hz / 4194304;

	if (!((usart)->CTRLB & USART_CLK2X_bm)) {
    1dce:	fc 01       	movw	r30, r24
    1dd0:	84 81       	ldd	r24, Z+4	; 0x04
    1dd2:	82 ff       	sbrs	r24, 2
    1dd4:	16 c0       	rjmp	.+44     	; 0x1e02 <usart_set_baudrate+0x58>

	/*
	 * Check if the hardware supports the given baud rate
	 */
	/* 8 = (2^0) * 8 * (2^0) = (2^BSCALE_MIN) * 8 * (BSEL_MIN) */
	max_rate = cpu_hz / 8;
    1dd6:	d9 01       	movw	r26, r18
    1dd8:	c8 01       	movw	r24, r16
    1dda:	68 94       	set
    1ddc:	12 f8       	bld	r1, 2
    1dde:	b6 95       	lsr	r27
    1de0:	a7 95       	ror	r26
    1de2:	97 95       	ror	r25
    1de4:	87 95       	ror	r24
    1de6:	16 94       	lsr	r1
    1de8:	d1 f7       	brne	.-12     	; 0x1dde <usart_set_baudrate+0x34>
	/* 4194304 = (2^7) * 8 * (2^12) = (2^BSCALE_MAX) * 8 * (BSEL_MAX+1) */
	min_rate = cpu_hz / 4194304;
    1dea:	b9 01       	movw	r22, r18
    1dec:	a8 01       	movw	r20, r16
    1dee:	03 2e       	mov	r0, r19
    1df0:	36 e1       	ldi	r19, 0x16	; 22
    1df2:	76 95       	lsr	r23
    1df4:	67 95       	ror	r22
    1df6:	57 95       	ror	r21
    1df8:	47 95       	ror	r20
    1dfa:	3a 95       	dec	r19
    1dfc:	d1 f7       	brne	.-12     	; 0x1df2 <usart_set_baudrate+0x48>
    1dfe:	30 2d       	mov	r19, r0
    1e00:	15 c0       	rjmp	.+42     	; 0x1e2c <usart_set_baudrate+0x82>

	if (!((usart)->CTRLB & USART_CLK2X_bm)) {
		max_rate /= 2;
    1e02:	d9 01       	movw	r26, r18
    1e04:	c8 01       	movw	r24, r16
    1e06:	68 94       	set
    1e08:	13 f8       	bld	r1, 3
    1e0a:	b6 95       	lsr	r27
    1e0c:	a7 95       	ror	r26
    1e0e:	97 95       	ror	r25
    1e10:	87 95       	ror	r24
    1e12:	16 94       	lsr	r1
    1e14:	d1 f7       	brne	.-12     	; 0x1e0a <usart_set_baudrate+0x60>
		min_rate /= 2;
    1e16:	b9 01       	movw	r22, r18
    1e18:	a8 01       	movw	r20, r16
    1e1a:	03 2e       	mov	r0, r19
    1e1c:	37 e1       	ldi	r19, 0x17	; 23
    1e1e:	76 95       	lsr	r23
    1e20:	67 95       	ror	r22
    1e22:	57 95       	ror	r21
    1e24:	47 95       	ror	r20
    1e26:	3a 95       	dec	r19
    1e28:	d1 f7       	brne	.-12     	; 0x1e1e <usart_set_baudrate+0x74>
    1e2a:	30 2d       	mov	r19, r0
	}

	if ((baud > max_rate) || (baud < min_rate)) {
    1e2c:	88 15       	cp	r24, r8
    1e2e:	99 05       	cpc	r25, r9
    1e30:	aa 05       	cpc	r26, r10
    1e32:	bb 05       	cpc	r27, r11
    1e34:	08 f4       	brcc	.+2      	; 0x1e38 <usart_set_baudrate+0x8e>
    1e36:	a6 c0       	rjmp	.+332    	; 0x1f84 <usart_set_baudrate+0x1da>
    1e38:	84 16       	cp	r8, r20
    1e3a:	95 06       	cpc	r9, r21
    1e3c:	a6 06       	cpc	r10, r22
    1e3e:	b7 06       	cpc	r11, r23
    1e40:	08 f4       	brcc	.+2      	; 0x1e44 <usart_set_baudrate+0x9a>
    1e42:	a2 c0       	rjmp	.+324    	; 0x1f88 <usart_set_baudrate+0x1de>
		return false;
	}

	/* Check if double speed is enabled. */
	if (!((usart)->CTRLB & USART_CLK2X_bm)) {
    1e44:	f7 01       	movw	r30, r14
    1e46:	84 81       	ldd	r24, Z+4	; 0x04
    1e48:	82 fd       	sbrc	r24, 2
    1e4a:	04 c0       	rjmp	.+8      	; 0x1e54 <usart_set_baudrate+0xaa>
		baud *= 2;
    1e4c:	88 0c       	add	r8, r8
    1e4e:	99 1c       	adc	r9, r9
    1e50:	aa 1c       	adc	r10, r10
    1e52:	bb 1c       	adc	r11, r11
	}

	/* Find the lowest possible exponent. */
	limit = 0xfffU >> 4;
	ratio = cpu_hz / baud;
    1e54:	c3 01       	movw	r24, r6
    1e56:	b2 01       	movw	r22, r4
    1e58:	a5 01       	movw	r20, r10
    1e5a:	94 01       	movw	r18, r8
    1e5c:	0e 94 46 1f 	call	0x3e8c	; 0x3e8c <__udivmodsi4>

	for (exp = -7; exp < 7; exp++) {
		if (ratio < limit) {
    1e60:	2f 3f       	cpi	r18, 0xFF	; 255
    1e62:	31 05       	cpc	r19, r1
    1e64:	41 05       	cpc	r20, r1
    1e66:	51 05       	cpc	r21, r1
    1e68:	08 f4       	brcc	.+2      	; 0x1e6c <usart_set_baudrate+0xc2>
    1e6a:	90 c0       	rjmp	.+288    	; 0x1f8c <usart_set_baudrate+0x1e2>
    1e6c:	8f ef       	ldi	r24, 0xFF	; 255
    1e6e:	90 e0       	ldi	r25, 0x00	; 0
    1e70:	a0 e0       	ldi	r26, 0x00	; 0
    1e72:	b0 e0       	ldi	r27, 0x00	; 0
    1e74:	c9 ef       	ldi	r28, 0xF9	; 249
    1e76:	05 c0       	rjmp	.+10     	; 0x1e82 <usart_set_baudrate+0xd8>
    1e78:	28 17       	cp	r18, r24
    1e7a:	39 07       	cpc	r19, r25
    1e7c:	4a 07       	cpc	r20, r26
    1e7e:	5b 07       	cpc	r21, r27
    1e80:	58 f0       	brcs	.+22     	; 0x1e98 <usart_set_baudrate+0xee>
			break;
		}

		limit <<= 1;
    1e82:	88 0f       	add	r24, r24
    1e84:	99 1f       	adc	r25, r25
    1e86:	aa 1f       	adc	r26, r26
    1e88:	bb 1f       	adc	r27, r27

		if (exp < -3) {
    1e8a:	cd 3f       	cpi	r28, 0xFD	; 253
    1e8c:	0c f4       	brge	.+2      	; 0x1e90 <usart_set_baudrate+0xe6>
			limit |= 1;
    1e8e:	81 60       	ori	r24, 0x01	; 1
    1e90:	cf 5f       	subi	r28, 0xFF	; 255

	/* Find the lowest possible exponent. */
	limit = 0xfffU >> 4;
	ratio = cpu_hz / baud;

	for (exp = -7; exp < 7; exp++) {
    1e92:	c7 30       	cpi	r28, 0x07	; 7
    1e94:	89 f7       	brne	.-30     	; 0x1e78 <usart_set_baudrate+0xce>
    1e96:	4f c0       	rjmp	.+158    	; 0x1f36 <usart_set_baudrate+0x18c>
	 * point.
	 *
	 * The formula for calculating BSEL is slightly different when exp is
	 * negative than it is when exp is positive.
	 */
	if (exp < 0) {
    1e98:	cc 23       	and	r28, r28
    1e9a:	0c f0       	brlt	.+2      	; 0x1e9e <usart_set_baudrate+0xf4>
    1e9c:	4c c0       	rjmp	.+152    	; 0x1f36 <usart_set_baudrate+0x18c>
		/* We are supposed to subtract 1, then apply BSCALE. We want to
		 * apply BSCALE first, so we need to turn everything inside the
		 * parenthesis into a single fractional expression.
		 */
		cpu_hz -= 8 * baud;
    1e9e:	d5 01       	movw	r26, r10
    1ea0:	c4 01       	movw	r24, r8
    1ea2:	88 0f       	add	r24, r24
    1ea4:	99 1f       	adc	r25, r25
    1ea6:	aa 1f       	adc	r26, r26
    1ea8:	bb 1f       	adc	r27, r27
    1eaa:	88 0f       	add	r24, r24
    1eac:	99 1f       	adc	r25, r25
    1eae:	aa 1f       	adc	r26, r26
    1eb0:	bb 1f       	adc	r27, r27
    1eb2:	88 0f       	add	r24, r24
    1eb4:	99 1f       	adc	r25, r25
    1eb6:	aa 1f       	adc	r26, r26
    1eb8:	bb 1f       	adc	r27, r27
    1eba:	48 1a       	sub	r4, r24
    1ebc:	59 0a       	sbc	r5, r25
    1ebe:	6a 0a       	sbc	r6, r26
    1ec0:	7b 0a       	sbc	r7, r27
		/* If we end up with a left-shift after taking the final
		 * divide-by-8 into account, do the shift before the divide.
		 * Otherwise, left-shift the denominator instead (effectively
		 * resulting in an overall right shift.)
		 */
		if (exp <= -3) {
    1ec2:	ce 3f       	cpi	r28, 0xFE	; 254
    1ec4:	f4 f4       	brge	.+60     	; 0x1f02 <usart_set_baudrate+0x158>
			div = ((cpu_hz << (-exp - 3)) + baud / 2) / baud;
    1ec6:	8d ef       	ldi	r24, 0xFD	; 253
    1ec8:	9f ef       	ldi	r25, 0xFF	; 255
    1eca:	8c 1b       	sub	r24, r28
    1ecc:	91 09       	sbc	r25, r1
    1ece:	c7 fd       	sbrc	r28, 7
    1ed0:	93 95       	inc	r25
    1ed2:	04 c0       	rjmp	.+8      	; 0x1edc <usart_set_baudrate+0x132>
    1ed4:	44 0c       	add	r4, r4
    1ed6:	55 1c       	adc	r5, r5
    1ed8:	66 1c       	adc	r6, r6
    1eda:	77 1c       	adc	r7, r7
    1edc:	8a 95       	dec	r24
    1ede:	d2 f7       	brpl	.-12     	; 0x1ed4 <usart_set_baudrate+0x12a>
    1ee0:	d5 01       	movw	r26, r10
    1ee2:	c4 01       	movw	r24, r8
    1ee4:	b6 95       	lsr	r27
    1ee6:	a7 95       	ror	r26
    1ee8:	97 95       	ror	r25
    1eea:	87 95       	ror	r24
    1eec:	bc 01       	movw	r22, r24
    1eee:	cd 01       	movw	r24, r26
    1ef0:	64 0d       	add	r22, r4
    1ef2:	75 1d       	adc	r23, r5
    1ef4:	86 1d       	adc	r24, r6
    1ef6:	97 1d       	adc	r25, r7
    1ef8:	a5 01       	movw	r20, r10
    1efa:	94 01       	movw	r18, r8
    1efc:	0e 94 46 1f 	call	0x3e8c	; 0x3e8c <__udivmodsi4>
    1f00:	37 c0       	rjmp	.+110    	; 0x1f70 <usart_set_baudrate+0x1c6>
		} else {
			baud <<= exp + 3;
    1f02:	83 e0       	ldi	r24, 0x03	; 3
    1f04:	8c 0f       	add	r24, r28
    1f06:	a5 01       	movw	r20, r10
    1f08:	94 01       	movw	r18, r8
    1f0a:	04 c0       	rjmp	.+8      	; 0x1f14 <usart_set_baudrate+0x16a>
    1f0c:	22 0f       	add	r18, r18
    1f0e:	33 1f       	adc	r19, r19
    1f10:	44 1f       	adc	r20, r20
    1f12:	55 1f       	adc	r21, r21
    1f14:	8a 95       	dec	r24
    1f16:	d2 f7       	brpl	.-12     	; 0x1f0c <usart_set_baudrate+0x162>
			div = (cpu_hz + baud / 2) / baud;
    1f18:	da 01       	movw	r26, r20
    1f1a:	c9 01       	movw	r24, r18
    1f1c:	b6 95       	lsr	r27
    1f1e:	a7 95       	ror	r26
    1f20:	97 95       	ror	r25
    1f22:	87 95       	ror	r24
    1f24:	bc 01       	movw	r22, r24
    1f26:	cd 01       	movw	r24, r26
    1f28:	64 0d       	add	r22, r4
    1f2a:	75 1d       	adc	r23, r5
    1f2c:	86 1d       	adc	r24, r6
    1f2e:	97 1d       	adc	r25, r7
    1f30:	0e 94 46 1f 	call	0x3e8c	; 0x3e8c <__udivmodsi4>
    1f34:	1d c0       	rjmp	.+58     	; 0x1f70 <usart_set_baudrate+0x1c6>
		}
	} else {
		/* We will always do a right shift in this case, but we need to
		 * shift three extra positions because of the divide-by-8.
		 */
		baud <<= exp + 3;
    1f36:	83 e0       	ldi	r24, 0x03	; 3
    1f38:	8c 0f       	add	r24, r28
    1f3a:	a5 01       	movw	r20, r10
    1f3c:	94 01       	movw	r18, r8
    1f3e:	04 c0       	rjmp	.+8      	; 0x1f48 <usart_set_baudrate+0x19e>
    1f40:	22 0f       	add	r18, r18
    1f42:	33 1f       	adc	r19, r19
    1f44:	44 1f       	adc	r20, r20
    1f46:	55 1f       	adc	r21, r21
    1f48:	8a 95       	dec	r24
    1f4a:	d2 f7       	brpl	.-12     	; 0x1f40 <usart_set_baudrate+0x196>
		div = (cpu_hz + baud / 2) / baud - 1;
    1f4c:	da 01       	movw	r26, r20
    1f4e:	c9 01       	movw	r24, r18
    1f50:	b6 95       	lsr	r27
    1f52:	a7 95       	ror	r26
    1f54:	97 95       	ror	r25
    1f56:	87 95       	ror	r24
    1f58:	bc 01       	movw	r22, r24
    1f5a:	cd 01       	movw	r24, r26
    1f5c:	64 0d       	add	r22, r4
    1f5e:	75 1d       	adc	r23, r5
    1f60:	86 1d       	adc	r24, r6
    1f62:	97 1d       	adc	r25, r7
    1f64:	0e 94 46 1f 	call	0x3e8c	; 0x3e8c <__udivmodsi4>
    1f68:	21 50       	subi	r18, 0x01	; 1
    1f6a:	31 09       	sbc	r19, r1
    1f6c:	41 09       	sbc	r20, r1
    1f6e:	51 09       	sbc	r21, r1
	}

	(usart)->BAUDCTRLB = (uint8_t)(((div >> 8) & 0X0F) | (exp << 4));
    1f70:	83 2f       	mov	r24, r19
    1f72:	8f 70       	andi	r24, 0x0F	; 15
    1f74:	c2 95       	swap	r28
    1f76:	c0 7f       	andi	r28, 0xF0	; 240
    1f78:	c8 2b       	or	r28, r24
    1f7a:	f7 01       	movw	r30, r14
    1f7c:	c7 83       	std	Z+7, r28	; 0x07
	(usart)->BAUDCTRLA = (uint8_t)div;
    1f7e:	26 83       	std	Z+6, r18	; 0x06

	return true;
    1f80:	81 e0       	ldi	r24, 0x01	; 1
    1f82:	18 c0       	rjmp	.+48     	; 0x1fb4 <usart_set_baudrate+0x20a>
		max_rate /= 2;
		min_rate /= 2;
	}

	if ((baud > max_rate) || (baud < min_rate)) {
		return false;
    1f84:	80 e0       	ldi	r24, 0x00	; 0
    1f86:	16 c0       	rjmp	.+44     	; 0x1fb4 <usart_set_baudrate+0x20a>
    1f88:	80 e0       	ldi	r24, 0x00	; 0
    1f8a:	14 c0       	rjmp	.+40     	; 0x1fb4 <usart_set_baudrate+0x20a>
	if (exp < 0) {
		/* We are supposed to subtract 1, then apply BSCALE. We want to
		 * apply BSCALE first, so we need to turn everything inside the
		 * parenthesis into a single fractional expression.
		 */
		cpu_hz -= 8 * baud;
    1f8c:	d5 01       	movw	r26, r10
    1f8e:	c4 01       	movw	r24, r8
    1f90:	88 0f       	add	r24, r24
    1f92:	99 1f       	adc	r25, r25
    1f94:	aa 1f       	adc	r26, r26
    1f96:	bb 1f       	adc	r27, r27
    1f98:	88 0f       	add	r24, r24
    1f9a:	99 1f       	adc	r25, r25
    1f9c:	aa 1f       	adc	r26, r26
    1f9e:	bb 1f       	adc	r27, r27
    1fa0:	88 0f       	add	r24, r24
    1fa2:	99 1f       	adc	r25, r25
    1fa4:	aa 1f       	adc	r26, r26
    1fa6:	bb 1f       	adc	r27, r27
    1fa8:	48 1a       	sub	r4, r24
    1faa:	59 0a       	sbc	r5, r25
    1fac:	6a 0a       	sbc	r6, r26
    1fae:	7b 0a       	sbc	r7, r27

	/* Find the lowest possible exponent. */
	limit = 0xfffU >> 4;
	ratio = cpu_hz / baud;

	for (exp = -7; exp < 7; exp++) {
    1fb0:	c9 ef       	ldi	r28, 0xF9	; 249
    1fb2:	89 cf       	rjmp	.-238    	; 0x1ec6 <usart_set_baudrate+0x11c>

	(usart)->BAUDCTRLB = (uint8_t)(((div >> 8) & 0X0F) | (exp << 4));
	(usart)->BAUDCTRLA = (uint8_t)div;

	return true;
}
    1fb4:	cf 91       	pop	r28
    1fb6:	1f 91       	pop	r17
    1fb8:	0f 91       	pop	r16
    1fba:	ff 90       	pop	r15
    1fbc:	ef 90       	pop	r14
    1fbe:	bf 90       	pop	r11
    1fc0:	af 90       	pop	r10
    1fc2:	9f 90       	pop	r9
    1fc4:	8f 90       	pop	r8
    1fc6:	7f 90       	pop	r7
    1fc8:	6f 90       	pop	r6
    1fca:	5f 90       	pop	r5
    1fcc:	4f 90       	pop	r4
    1fce:	08 95       	ret

00001fd0 <usart_init_rs232>:
 *
 * \retval true if the initialization was successfull
 * \retval false if the initialization failed (error in baud rate calculation)
 */
bool usart_init_rs232(USART_t *usart, const usart_rs232_options_t *opt)
{
    1fd0:	0f 93       	push	r16
    1fd2:	1f 93       	push	r17
    1fd4:	cf 93       	push	r28
    1fd6:	df 93       	push	r29
    1fd8:	ec 01       	movw	r28, r24
    1fda:	8b 01       	movw	r16, r22
 *
 * \param module Pointer to the module's base address.
 */
static inline void sysclk_enable_peripheral_clock(const volatile void *module)
{
	if (module == NULL) {
    1fdc:	00 97       	sbiw	r24, 0x00	; 0
    1fde:	09 f4       	brne	.+2      	; 0x1fe2 <usart_init_rs232+0x12>
    1fe0:	5d c1       	rjmp	.+698    	; 0x229c <usart_init_rs232+0x2cc>
		Assert(false);
	}
#ifdef AES
	else if (module == &AES) {
    1fe2:	80 3c       	cpi	r24, 0xC0	; 192
    1fe4:	91 05       	cpc	r25, r1
    1fe6:	29 f4       	brne	.+10     	; 0x1ff2 <usart_init_rs232+0x22>
		sysclk_enable_module(SYSCLK_PORT_GEN, SYSCLK_AES);
    1fe8:	60 e1       	ldi	r22, 0x10	; 16
    1fea:	80 e0       	ldi	r24, 0x00	; 0
    1fec:	0e 94 ce 03 	call	0x79c	; 0x79c <sysclk_enable_module>
    1ff0:	55 c1       	rjmp	.+682    	; 0x229c <usart_init_rs232+0x2cc>
	}
#endif
#ifdef EBI
	else if (module == &EBI) {
    1ff2:	c0 34       	cpi	r28, 0x40	; 64
    1ff4:	84 e0       	ldi	r24, 0x04	; 4
    1ff6:	d8 07       	cpc	r29, r24
    1ff8:	29 f4       	brne	.+10     	; 0x2004 <usart_init_rs232+0x34>
		sysclk_enable_module(SYSCLK_PORT_GEN, SYSCLK_EBI);
    1ffa:	68 e0       	ldi	r22, 0x08	; 8
    1ffc:	80 e0       	ldi	r24, 0x00	; 0
    1ffe:	0e 94 ce 03 	call	0x79c	; 0x79c <sysclk_enable_module>
    2002:	4c c1       	rjmp	.+664    	; 0x229c <usart_init_rs232+0x2cc>
	}
#endif
#ifdef RTC
	else if (module == &RTC) {
    2004:	c1 15       	cp	r28, r1
    2006:	e4 e0       	ldi	r30, 0x04	; 4
    2008:	de 07       	cpc	r29, r30
    200a:	29 f4       	brne	.+10     	; 0x2016 <usart_init_rs232+0x46>
		sysclk_enable_module(SYSCLK_PORT_GEN, SYSCLK_RTC);
    200c:	64 e0       	ldi	r22, 0x04	; 4
    200e:	80 e0       	ldi	r24, 0x00	; 0
    2010:	0e 94 ce 03 	call	0x79c	; 0x79c <sysclk_enable_module>
    2014:	43 c1       	rjmp	.+646    	; 0x229c <usart_init_rs232+0x2cc>
	}
#endif
#ifdef EVSYS
	else if (module == &EVSYS) {
    2016:	c0 38       	cpi	r28, 0x80	; 128
    2018:	f1 e0       	ldi	r31, 0x01	; 1
    201a:	df 07       	cpc	r29, r31
    201c:	29 f4       	brne	.+10     	; 0x2028 <usart_init_rs232+0x58>
		sysclk_enable_module(SYSCLK_PORT_GEN, SYSCLK_EVSYS);
    201e:	62 e0       	ldi	r22, 0x02	; 2
    2020:	80 e0       	ldi	r24, 0x00	; 0
    2022:	0e 94 ce 03 	call	0x79c	; 0x79c <sysclk_enable_module>
    2026:	3a c1       	rjmp	.+628    	; 0x229c <usart_init_rs232+0x2cc>
	}
#endif
#ifdef DMA
	else if (module == &DMA) {
    2028:	c1 15       	cp	r28, r1
    202a:	81 e0       	ldi	r24, 0x01	; 1
    202c:	d8 07       	cpc	r29, r24
    202e:	29 f4       	brne	.+10     	; 0x203a <usart_init_rs232+0x6a>
		sysclk_enable_module(SYSCLK_PORT_GEN, SYSCLK_DMA);
    2030:	61 e0       	ldi	r22, 0x01	; 1
    2032:	80 e0       	ldi	r24, 0x00	; 0
    2034:	0e 94 ce 03 	call	0x79c	; 0x79c <sysclk_enable_module>
    2038:	31 c1       	rjmp	.+610    	; 0x229c <usart_init_rs232+0x2cc>
	else if (module == &EDMA) {
		sysclk_enable_module(SYSCLK_PORT_GEN, SYSCLK_EDMA);
	}
#endif
#ifdef ACA
	else if (module == &ACA) {
    203a:	c0 38       	cpi	r28, 0x80	; 128
    203c:	e3 e0       	ldi	r30, 0x03	; 3
    203e:	de 07       	cpc	r29, r30
    2040:	29 f4       	brne	.+10     	; 0x204c <usart_init_rs232+0x7c>
		sysclk_enable_module(SYSCLK_PORT_A, SYSCLK_AC);
    2042:	61 e0       	ldi	r22, 0x01	; 1
    2044:	81 e0       	ldi	r24, 0x01	; 1
    2046:	0e 94 ce 03 	call	0x79c	; 0x79c <sysclk_enable_module>
    204a:	28 c1       	rjmp	.+592    	; 0x229c <usart_init_rs232+0x2cc>
	}
#endif
#ifdef ACB
	else if (module == &ACB) {
    204c:	c0 39       	cpi	r28, 0x90	; 144
    204e:	f3 e0       	ldi	r31, 0x03	; 3
    2050:	df 07       	cpc	r29, r31
    2052:	29 f4       	brne	.+10     	; 0x205e <usart_init_rs232+0x8e>
		sysclk_enable_module(SYSCLK_PORT_B, SYSCLK_AC);
    2054:	61 e0       	ldi	r22, 0x01	; 1
    2056:	82 e0       	ldi	r24, 0x02	; 2
    2058:	0e 94 ce 03 	call	0x79c	; 0x79c <sysclk_enable_module>
    205c:	1f c1       	rjmp	.+574    	; 0x229c <usart_init_rs232+0x2cc>
	}
#endif
#ifdef ADCA
	else if (module == &ADCA) {
    205e:	c1 15       	cp	r28, r1
    2060:	82 e0       	ldi	r24, 0x02	; 2
    2062:	d8 07       	cpc	r29, r24
    2064:	29 f4       	brne	.+10     	; 0x2070 <usart_init_rs232+0xa0>
		sysclk_enable_module(SYSCLK_PORT_A, SYSCLK_ADC);
    2066:	62 e0       	ldi	r22, 0x02	; 2
    2068:	81 e0       	ldi	r24, 0x01	; 1
    206a:	0e 94 ce 03 	call	0x79c	; 0x79c <sysclk_enable_module>
    206e:	16 c1       	rjmp	.+556    	; 0x229c <usart_init_rs232+0x2cc>
	}
#endif
#ifdef ADCB
	else if (module == &ADCB) {
    2070:	c0 34       	cpi	r28, 0x40	; 64
    2072:	e2 e0       	ldi	r30, 0x02	; 2
    2074:	de 07       	cpc	r29, r30
    2076:	29 f4       	brne	.+10     	; 0x2082 <usart_init_rs232+0xb2>
		sysclk_enable_module(SYSCLK_PORT_B, SYSCLK_ADC);
    2078:	62 e0       	ldi	r22, 0x02	; 2
    207a:	82 e0       	ldi	r24, 0x02	; 2
    207c:	0e 94 ce 03 	call	0x79c	; 0x79c <sysclk_enable_module>
    2080:	0d c1       	rjmp	.+538    	; 0x229c <usart_init_rs232+0x2cc>
	}
#endif
#ifdef DACA
	else if (module == &DACA) {
    2082:	c1 15       	cp	r28, r1
    2084:	f3 e0       	ldi	r31, 0x03	; 3
    2086:	df 07       	cpc	r29, r31
    2088:	29 f4       	brne	.+10     	; 0x2094 <usart_init_rs232+0xc4>
		sysclk_enable_module(SYSCLK_PORT_A, SYSCLK_DAC);
    208a:	64 e0       	ldi	r22, 0x04	; 4
    208c:	81 e0       	ldi	r24, 0x01	; 1
    208e:	0e 94 ce 03 	call	0x79c	; 0x79c <sysclk_enable_module>
    2092:	04 c1       	rjmp	.+520    	; 0x229c <usart_init_rs232+0x2cc>
	}
#endif
// Workaround for bad XMEGA D header file
#if !XMEGA_D
#ifdef DACB
	else if (module == &DACB) {
    2094:	c0 32       	cpi	r28, 0x20	; 32
    2096:	83 e0       	ldi	r24, 0x03	; 3
    2098:	d8 07       	cpc	r29, r24
    209a:	29 f4       	brne	.+10     	; 0x20a6 <usart_init_rs232+0xd6>
		sysclk_enable_module(SYSCLK_PORT_B, SYSCLK_DAC);
    209c:	64 e0       	ldi	r22, 0x04	; 4
    209e:	82 e0       	ldi	r24, 0x02	; 2
    20a0:	0e 94 ce 03 	call	0x79c	; 0x79c <sysclk_enable_module>
    20a4:	fb c0       	rjmp	.+502    	; 0x229c <usart_init_rs232+0x2cc>
	}
#endif
#endif // Workaround end
#ifdef TCC0
	else if (module == &TCC0) {
    20a6:	c1 15       	cp	r28, r1
    20a8:	e8 e0       	ldi	r30, 0x08	; 8
    20aa:	de 07       	cpc	r29, r30
    20ac:	29 f4       	brne	.+10     	; 0x20b8 <usart_init_rs232+0xe8>
		sysclk_enable_module(SYSCLK_PORT_C, SYSCLK_TC0);
    20ae:	61 e0       	ldi	r22, 0x01	; 1
    20b0:	83 e0       	ldi	r24, 0x03	; 3
    20b2:	0e 94 ce 03 	call	0x79c	; 0x79c <sysclk_enable_module>
    20b6:	f2 c0       	rjmp	.+484    	; 0x229c <usart_init_rs232+0x2cc>
	}
#endif
#ifdef TCD0
	else if (module == &TCD0) {
    20b8:	c1 15       	cp	r28, r1
    20ba:	f9 e0       	ldi	r31, 0x09	; 9
    20bc:	df 07       	cpc	r29, r31
    20be:	29 f4       	brne	.+10     	; 0x20ca <usart_init_rs232+0xfa>
		sysclk_enable_module(SYSCLK_PORT_D, SYSCLK_TC0);
    20c0:	61 e0       	ldi	r22, 0x01	; 1
    20c2:	84 e0       	ldi	r24, 0x04	; 4
    20c4:	0e 94 ce 03 	call	0x79c	; 0x79c <sysclk_enable_module>
    20c8:	e9 c0       	rjmp	.+466    	; 0x229c <usart_init_rs232+0x2cc>
	}
#endif
#ifdef TCE0
	else if (module == &TCE0) {
    20ca:	c1 15       	cp	r28, r1
    20cc:	8a e0       	ldi	r24, 0x0A	; 10
    20ce:	d8 07       	cpc	r29, r24
    20d0:	29 f4       	brne	.+10     	; 0x20dc <usart_init_rs232+0x10c>
		sysclk_enable_module(SYSCLK_PORT_E, SYSCLK_TC0);
    20d2:	61 e0       	ldi	r22, 0x01	; 1
    20d4:	85 e0       	ldi	r24, 0x05	; 5
    20d6:	0e 94 ce 03 	call	0x79c	; 0x79c <sysclk_enable_module>
    20da:	e0 c0       	rjmp	.+448    	; 0x229c <usart_init_rs232+0x2cc>
	}
#endif
#ifdef TCF0
	else if (module == &TCF0) {
    20dc:	c1 15       	cp	r28, r1
    20de:	eb e0       	ldi	r30, 0x0B	; 11
    20e0:	de 07       	cpc	r29, r30
    20e2:	29 f4       	brne	.+10     	; 0x20ee <usart_init_rs232+0x11e>
		sysclk_enable_module(SYSCLK_PORT_F, SYSCLK_TC0);
    20e4:	61 e0       	ldi	r22, 0x01	; 1
    20e6:	86 e0       	ldi	r24, 0x06	; 6
    20e8:	0e 94 ce 03 	call	0x79c	; 0x79c <sysclk_enable_module>
    20ec:	d7 c0       	rjmp	.+430    	; 0x229c <usart_init_rs232+0x2cc>
	}
#endif
#ifdef TCC1
	else if (module == &TCC1) {
    20ee:	c0 34       	cpi	r28, 0x40	; 64
    20f0:	f8 e0       	ldi	r31, 0x08	; 8
    20f2:	df 07       	cpc	r29, r31
    20f4:	29 f4       	brne	.+10     	; 0x2100 <usart_init_rs232+0x130>
		sysclk_enable_module(SYSCLK_PORT_C, SYSCLK_TC1);
    20f6:	62 e0       	ldi	r22, 0x02	; 2
    20f8:	83 e0       	ldi	r24, 0x03	; 3
    20fa:	0e 94 ce 03 	call	0x79c	; 0x79c <sysclk_enable_module>
    20fe:	ce c0       	rjmp	.+412    	; 0x229c <usart_init_rs232+0x2cc>
	}
#endif
#ifdef TCD1
	else if (module == &TCD1) {
    2100:	c0 34       	cpi	r28, 0x40	; 64
    2102:	89 e0       	ldi	r24, 0x09	; 9
    2104:	d8 07       	cpc	r29, r24
    2106:	29 f4       	brne	.+10     	; 0x2112 <usart_init_rs232+0x142>
		sysclk_enable_module(SYSCLK_PORT_D, SYSCLK_TC1);
    2108:	62 e0       	ldi	r22, 0x02	; 2
    210a:	84 e0       	ldi	r24, 0x04	; 4
    210c:	0e 94 ce 03 	call	0x79c	; 0x79c <sysclk_enable_module>
    2110:	c5 c0       	rjmp	.+394    	; 0x229c <usart_init_rs232+0x2cc>
	}
#endif
#ifdef TCE1
	else if (module == &TCE1) {
    2112:	c0 34       	cpi	r28, 0x40	; 64
    2114:	ea e0       	ldi	r30, 0x0A	; 10
    2116:	de 07       	cpc	r29, r30
    2118:	29 f4       	brne	.+10     	; 0x2124 <usart_init_rs232+0x154>
		sysclk_enable_module(SYSCLK_PORT_E, SYSCLK_TC1);
    211a:	62 e0       	ldi	r22, 0x02	; 2
    211c:	85 e0       	ldi	r24, 0x05	; 5
    211e:	0e 94 ce 03 	call	0x79c	; 0x79c <sysclk_enable_module>
    2122:	bc c0       	rjmp	.+376    	; 0x229c <usart_init_rs232+0x2cc>
	}
#endif
#ifdef TCF1
	else if (module == &TCF1) {
    2124:	c0 34       	cpi	r28, 0x40	; 64
    2126:	fb e0       	ldi	r31, 0x0B	; 11
    2128:	df 07       	cpc	r29, r31
    212a:	29 f4       	brne	.+10     	; 0x2136 <usart_init_rs232+0x166>
		sysclk_enable_module(SYSCLK_PORT_F, SYSCLK_TC1);
    212c:	62 e0       	ldi	r22, 0x02	; 2
    212e:	86 e0       	ldi	r24, 0x06	; 6
    2130:	0e 94 ce 03 	call	0x79c	; 0x79c <sysclk_enable_module>
    2134:	b3 c0       	rjmp	.+358    	; 0x229c <usart_init_rs232+0x2cc>
	else if (module == &TCD5) {
		sysclk_enable_module(SYSCLK_PORT_D, SYSCLK_TC5);
	}
#endif
#ifdef HIRESC
	else if (module == &HIRESC) {
    2136:	c0 39       	cpi	r28, 0x90	; 144
    2138:	88 e0       	ldi	r24, 0x08	; 8
    213a:	d8 07       	cpc	r29, r24
    213c:	29 f4       	brne	.+10     	; 0x2148 <usart_init_rs232+0x178>
			sysclk_enable_module(SYSCLK_PORT_C, SYSCLK_HIRES);
    213e:	64 e0       	ldi	r22, 0x04	; 4
    2140:	83 e0       	ldi	r24, 0x03	; 3
    2142:	0e 94 ce 03 	call	0x79c	; 0x79c <sysclk_enable_module>
    2146:	aa c0       	rjmp	.+340    	; 0x229c <usart_init_rs232+0x2cc>
	}
#endif
#ifdef HIRESD
	else if (module == &HIRESD) {
    2148:	c0 39       	cpi	r28, 0x90	; 144
    214a:	e9 e0       	ldi	r30, 0x09	; 9
    214c:	de 07       	cpc	r29, r30
    214e:	29 f4       	brne	.+10     	; 0x215a <usart_init_rs232+0x18a>
		sysclk_enable_module(SYSCLK_PORT_D, SYSCLK_HIRES);
    2150:	64 e0       	ldi	r22, 0x04	; 4
    2152:	84 e0       	ldi	r24, 0x04	; 4
    2154:	0e 94 ce 03 	call	0x79c	; 0x79c <sysclk_enable_module>
    2158:	a1 c0       	rjmp	.+322    	; 0x229c <usart_init_rs232+0x2cc>
	}
#endif
#ifdef HIRESE
	else if (module == &HIRESE) {
    215a:	c0 39       	cpi	r28, 0x90	; 144
    215c:	fa e0       	ldi	r31, 0x0A	; 10
    215e:	df 07       	cpc	r29, r31
    2160:	29 f4       	brne	.+10     	; 0x216c <usart_init_rs232+0x19c>
		sysclk_enable_module(SYSCLK_PORT_E, SYSCLK_HIRES);
    2162:	64 e0       	ldi	r22, 0x04	; 4
    2164:	85 e0       	ldi	r24, 0x05	; 5
    2166:	0e 94 ce 03 	call	0x79c	; 0x79c <sysclk_enable_module>
    216a:	98 c0       	rjmp	.+304    	; 0x229c <usart_init_rs232+0x2cc>
	}
#endif
#ifdef HIRESF
	else if (module == &HIRESF) {
    216c:	c0 39       	cpi	r28, 0x90	; 144
    216e:	8b e0       	ldi	r24, 0x0B	; 11
    2170:	d8 07       	cpc	r29, r24
    2172:	29 f4       	brne	.+10     	; 0x217e <usart_init_rs232+0x1ae>
		sysclk_enable_module(SYSCLK_PORT_F, SYSCLK_HIRES);
    2174:	64 e0       	ldi	r22, 0x04	; 4
    2176:	86 e0       	ldi	r24, 0x06	; 6
    2178:	0e 94 ce 03 	call	0x79c	; 0x79c <sysclk_enable_module>
    217c:	8f c0       	rjmp	.+286    	; 0x229c <usart_init_rs232+0x2cc>
	}
#endif
#ifdef SPIC
	else if (module == &SPIC) {
    217e:	c0 3c       	cpi	r28, 0xC0	; 192
    2180:	e8 e0       	ldi	r30, 0x08	; 8
    2182:	de 07       	cpc	r29, r30
    2184:	29 f4       	brne	.+10     	; 0x2190 <usart_init_rs232+0x1c0>
		sysclk_enable_module(SYSCLK_PORT_C, SYSCLK_SPI);
    2186:	68 e0       	ldi	r22, 0x08	; 8
    2188:	83 e0       	ldi	r24, 0x03	; 3
    218a:	0e 94 ce 03 	call	0x79c	; 0x79c <sysclk_enable_module>
    218e:	86 c0       	rjmp	.+268    	; 0x229c <usart_init_rs232+0x2cc>
	}
#endif
#ifdef SPID
	else if (module == &SPID) {
    2190:	c0 3c       	cpi	r28, 0xC0	; 192
    2192:	f9 e0       	ldi	r31, 0x09	; 9
    2194:	df 07       	cpc	r29, r31
    2196:	29 f4       	brne	.+10     	; 0x21a2 <usart_init_rs232+0x1d2>
		sysclk_enable_module(SYSCLK_PORT_D, SYSCLK_SPI);
    2198:	68 e0       	ldi	r22, 0x08	; 8
    219a:	84 e0       	ldi	r24, 0x04	; 4
    219c:	0e 94 ce 03 	call	0x79c	; 0x79c <sysclk_enable_module>
    21a0:	7d c0       	rjmp	.+250    	; 0x229c <usart_init_rs232+0x2cc>
	}
#endif
#ifdef SPIE
	else if (module == &SPIE) {
    21a2:	c0 3c       	cpi	r28, 0xC0	; 192
    21a4:	8a e0       	ldi	r24, 0x0A	; 10
    21a6:	d8 07       	cpc	r29, r24
    21a8:	29 f4       	brne	.+10     	; 0x21b4 <usart_init_rs232+0x1e4>
		sysclk_enable_module(SYSCLK_PORT_E, SYSCLK_SPI);
    21aa:	68 e0       	ldi	r22, 0x08	; 8
    21ac:	85 e0       	ldi	r24, 0x05	; 5
    21ae:	0e 94 ce 03 	call	0x79c	; 0x79c <sysclk_enable_module>
    21b2:	74 c0       	rjmp	.+232    	; 0x229c <usart_init_rs232+0x2cc>
	}
#endif
#ifdef SPIF
	else if (module == &SPIF) {
    21b4:	c0 3c       	cpi	r28, 0xC0	; 192
    21b6:	eb e0       	ldi	r30, 0x0B	; 11
    21b8:	de 07       	cpc	r29, r30
    21ba:	29 f4       	brne	.+10     	; 0x21c6 <usart_init_rs232+0x1f6>
		sysclk_enable_module(SYSCLK_PORT_F, SYSCLK_SPI);
    21bc:	68 e0       	ldi	r22, 0x08	; 8
    21be:	86 e0       	ldi	r24, 0x06	; 6
    21c0:	0e 94 ce 03 	call	0x79c	; 0x79c <sysclk_enable_module>
    21c4:	6b c0       	rjmp	.+214    	; 0x229c <usart_init_rs232+0x2cc>
	}
#endif
#ifdef USARTC0
	else if (module == &USARTC0) {
    21c6:	c0 3a       	cpi	r28, 0xA0	; 160
    21c8:	f8 e0       	ldi	r31, 0x08	; 8
    21ca:	df 07       	cpc	r29, r31
    21cc:	29 f4       	brne	.+10     	; 0x21d8 <usart_init_rs232+0x208>
		sysclk_enable_module(SYSCLK_PORT_C, SYSCLK_USART0);
    21ce:	60 e1       	ldi	r22, 0x10	; 16
    21d0:	83 e0       	ldi	r24, 0x03	; 3
    21d2:	0e 94 ce 03 	call	0x79c	; 0x79c <sysclk_enable_module>
    21d6:	62 c0       	rjmp	.+196    	; 0x229c <usart_init_rs232+0x2cc>
	}
#endif
#ifdef USARTD0
	else if (module == &USARTD0) {
    21d8:	c0 3a       	cpi	r28, 0xA0	; 160
    21da:	89 e0       	ldi	r24, 0x09	; 9
    21dc:	d8 07       	cpc	r29, r24
    21de:	29 f4       	brne	.+10     	; 0x21ea <usart_init_rs232+0x21a>
		sysclk_enable_module(SYSCLK_PORT_D, SYSCLK_USART0);
    21e0:	60 e1       	ldi	r22, 0x10	; 16
    21e2:	84 e0       	ldi	r24, 0x04	; 4
    21e4:	0e 94 ce 03 	call	0x79c	; 0x79c <sysclk_enable_module>
    21e8:	59 c0       	rjmp	.+178    	; 0x229c <usart_init_rs232+0x2cc>
	}
#endif
#ifdef USARTE0
	else if (module == &USARTE0) {
    21ea:	c0 3a       	cpi	r28, 0xA0	; 160
    21ec:	ea e0       	ldi	r30, 0x0A	; 10
    21ee:	de 07       	cpc	r29, r30
    21f0:	29 f4       	brne	.+10     	; 0x21fc <usart_init_rs232+0x22c>
		sysclk_enable_module(SYSCLK_PORT_E, SYSCLK_USART0);
    21f2:	60 e1       	ldi	r22, 0x10	; 16
    21f4:	85 e0       	ldi	r24, 0x05	; 5
    21f6:	0e 94 ce 03 	call	0x79c	; 0x79c <sysclk_enable_module>
    21fa:	50 c0       	rjmp	.+160    	; 0x229c <usart_init_rs232+0x2cc>
	}
#endif
#ifdef USARTF0
	else if (module == &USARTF0) {
    21fc:	c0 3a       	cpi	r28, 0xA0	; 160
    21fe:	fb e0       	ldi	r31, 0x0B	; 11
    2200:	df 07       	cpc	r29, r31
    2202:	29 f4       	brne	.+10     	; 0x220e <usart_init_rs232+0x23e>
		sysclk_enable_module(SYSCLK_PORT_F, SYSCLK_USART0);
    2204:	60 e1       	ldi	r22, 0x10	; 16
    2206:	86 e0       	ldi	r24, 0x06	; 6
    2208:	0e 94 ce 03 	call	0x79c	; 0x79c <sysclk_enable_module>
    220c:	47 c0       	rjmp	.+142    	; 0x229c <usart_init_rs232+0x2cc>
	}
#endif
#ifdef USARTC1
	else if (module == &USARTC1) {
    220e:	c0 3b       	cpi	r28, 0xB0	; 176
    2210:	88 e0       	ldi	r24, 0x08	; 8
    2212:	d8 07       	cpc	r29, r24
    2214:	29 f4       	brne	.+10     	; 0x2220 <usart_init_rs232+0x250>
		sysclk_enable_module(SYSCLK_PORT_C, SYSCLK_USART1);
    2216:	60 e2       	ldi	r22, 0x20	; 32
    2218:	83 e0       	ldi	r24, 0x03	; 3
    221a:	0e 94 ce 03 	call	0x79c	; 0x79c <sysclk_enable_module>
    221e:	3e c0       	rjmp	.+124    	; 0x229c <usart_init_rs232+0x2cc>
	}
#endif
#ifdef USARTD1
	else if (module == &USARTD1) {
    2220:	c0 3b       	cpi	r28, 0xB0	; 176
    2222:	e9 e0       	ldi	r30, 0x09	; 9
    2224:	de 07       	cpc	r29, r30
    2226:	29 f4       	brne	.+10     	; 0x2232 <usart_init_rs232+0x262>
		sysclk_enable_module(SYSCLK_PORT_D, SYSCLK_USART1);
    2228:	60 e2       	ldi	r22, 0x20	; 32
    222a:	84 e0       	ldi	r24, 0x04	; 4
    222c:	0e 94 ce 03 	call	0x79c	; 0x79c <sysclk_enable_module>
    2230:	35 c0       	rjmp	.+106    	; 0x229c <usart_init_rs232+0x2cc>
	}
#endif
#ifdef USARTE1
	else if (module == &USARTE1) {
    2232:	c0 3b       	cpi	r28, 0xB0	; 176
    2234:	fa e0       	ldi	r31, 0x0A	; 10
    2236:	df 07       	cpc	r29, r31
    2238:	29 f4       	brne	.+10     	; 0x2244 <usart_init_rs232+0x274>
		sysclk_enable_module(SYSCLK_PORT_E, SYSCLK_USART1);
    223a:	60 e2       	ldi	r22, 0x20	; 32
    223c:	85 e0       	ldi	r24, 0x05	; 5
    223e:	0e 94 ce 03 	call	0x79c	; 0x79c <sysclk_enable_module>
    2242:	2c c0       	rjmp	.+88     	; 0x229c <usart_init_rs232+0x2cc>
	}
#endif
#ifdef USARTF1
	else if (module == &USARTF1) {
    2244:	c0 3b       	cpi	r28, 0xB0	; 176
    2246:	8b e0       	ldi	r24, 0x0B	; 11
    2248:	d8 07       	cpc	r29, r24
    224a:	29 f4       	brne	.+10     	; 0x2256 <usart_init_rs232+0x286>
		sysclk_enable_module(SYSCLK_PORT_F, SYSCLK_USART1);
    224c:	60 e2       	ldi	r22, 0x20	; 32
    224e:	86 e0       	ldi	r24, 0x06	; 6
    2250:	0e 94 ce 03 	call	0x79c	; 0x79c <sysclk_enable_module>
    2254:	23 c0       	rjmp	.+70     	; 0x229c <usart_init_rs232+0x2cc>
	}
#endif
#ifdef TWIC
	else if (module == &TWIC) {
    2256:	c0 38       	cpi	r28, 0x80	; 128
    2258:	e4 e0       	ldi	r30, 0x04	; 4
    225a:	de 07       	cpc	r29, r30
    225c:	29 f4       	brne	.+10     	; 0x2268 <usart_init_rs232+0x298>
		sysclk_enable_module(SYSCLK_PORT_C, SYSCLK_TWI);
    225e:	60 e4       	ldi	r22, 0x40	; 64
    2260:	83 e0       	ldi	r24, 0x03	; 3
    2262:	0e 94 ce 03 	call	0x79c	; 0x79c <sysclk_enable_module>
    2266:	1a c0       	rjmp	.+52     	; 0x229c <usart_init_rs232+0x2cc>
	}
#endif
#ifdef TWID
	else if (module == &TWID) {
    2268:	c0 39       	cpi	r28, 0x90	; 144
    226a:	f4 e0       	ldi	r31, 0x04	; 4
    226c:	df 07       	cpc	r29, r31
    226e:	29 f4       	brne	.+10     	; 0x227a <usart_init_rs232+0x2aa>
		sysclk_enable_module(SYSCLK_PORT_D, SYSCLK_TWI);
    2270:	60 e4       	ldi	r22, 0x40	; 64
    2272:	84 e0       	ldi	r24, 0x04	; 4
    2274:	0e 94 ce 03 	call	0x79c	; 0x79c <sysclk_enable_module>
    2278:	11 c0       	rjmp	.+34     	; 0x229c <usart_init_rs232+0x2cc>
	}
#endif
#ifdef TWIE
	else if (module == &TWIE) {
    227a:	c0 3a       	cpi	r28, 0xA0	; 160
    227c:	84 e0       	ldi	r24, 0x04	; 4
    227e:	d8 07       	cpc	r29, r24
    2280:	29 f4       	brne	.+10     	; 0x228c <usart_init_rs232+0x2bc>
		sysclk_enable_module(SYSCLK_PORT_E, SYSCLK_TWI);
    2282:	60 e4       	ldi	r22, 0x40	; 64
    2284:	85 e0       	ldi	r24, 0x05	; 5
    2286:	0e 94 ce 03 	call	0x79c	; 0x79c <sysclk_enable_module>
    228a:	08 c0       	rjmp	.+16     	; 0x229c <usart_init_rs232+0x2cc>
	}
#endif
#ifdef TWIF
	else if (module == &TWIF) {
    228c:	c0 3b       	cpi	r28, 0xB0	; 176
    228e:	e4 e0       	ldi	r30, 0x04	; 4
    2290:	de 07       	cpc	r29, r30
    2292:	21 f4       	brne	.+8      	; 0x229c <usart_init_rs232+0x2cc>
		sysclk_enable_module(SYSCLK_PORT_F, SYSCLK_TWI);
    2294:	60 e4       	ldi	r22, 0x40	; 64
    2296:	86 e0       	ldi	r24, 0x06	; 6
    2298:	0e 94 ce 03 	call	0x79c	; 0x79c <sysclk_enable_module>
 * - 0x2        : IrDA mode.
 * - 0x3        : Master SPI mode.
 */
static inline void usart_set_mode(USART_t *usart, USART_CMODE_t usartmode)
{
	(usart)->CTRLC = ((usart)->CTRLC & (~USART_CMODE_gm)) | usartmode;
    229c:	8d 81       	ldd	r24, Y+5	; 0x05
    229e:	8f 73       	andi	r24, 0x3F	; 63
    22a0:	8d 83       	std	Y+5, r24	; 0x05
 *  \param twoStopBits Enable two stop bit mode. Use bool type.
 */
static inline void usart_format_set(USART_t *usart, USART_CHSIZE_t charSize,
		USART_PMODE_t parityMode, bool twoStopBits)
{
	(usart)->CTRLC = (uint8_t)charSize | parityMode
    22a2:	f8 01       	movw	r30, r16
    22a4:	95 81       	ldd	r25, Z+5	; 0x05
    22a6:	84 81       	ldd	r24, Z+4	; 0x04
    22a8:	89 2b       	or	r24, r25
    22aa:	96 81       	ldd	r25, Z+6	; 0x06
    22ac:	91 11       	cpse	r25, r1
    22ae:	98 e0       	ldi	r25, 0x08	; 8
    22b0:	89 2b       	or	r24, r25
    22b2:	8d 83       	std	Y+5, r24	; 0x05
	bool result;
	sysclk_enable_peripheral_clock(usart);
	usart_set_mode(usart, USART_CMODE_ASYNCHRONOUS_gc);
	usart_format_set(usart, opt->charlength, opt->paritytype,
			opt->stopbits);
	result = usart_set_baudrate(usart, opt->baudrate, sysclk_get_per_hz());
    22b4:	f8 01       	movw	r30, r16
    22b6:	40 81       	ld	r20, Z
    22b8:	51 81       	ldd	r21, Z+1	; 0x01
    22ba:	62 81       	ldd	r22, Z+2	; 0x02
    22bc:	73 81       	ldd	r23, Z+3	; 0x03
    22be:	00 e0       	ldi	r16, 0x00	; 0
    22c0:	18 e4       	ldi	r17, 0x48	; 72
    22c2:	28 ee       	ldi	r18, 0xE8	; 232
    22c4:	31 e0       	ldi	r19, 0x01	; 1
    22c6:	ce 01       	movw	r24, r28
    22c8:	70 dd       	rcall	.-1312   	; 0x1daa <usart_set_baudrate>
 *
 * \param usart Pointer to the USART module.
 */
static inline void usart_tx_enable(USART_t *usart)
{
	(usart)->CTRLB |= USART_TXEN_bm;
    22ca:	9c 81       	ldd	r25, Y+4	; 0x04
    22cc:	98 60       	ori	r25, 0x08	; 8
    22ce:	9c 83       	std	Y+4, r25	; 0x04
 *
 * \param usart Pointer to the USART module
 */
static inline void usart_rx_enable(USART_t *usart)
{
	(usart)->CTRLB |= USART_RXEN_bm;
    22d0:	9c 81       	ldd	r25, Y+4	; 0x04
    22d2:	90 61       	ori	r25, 0x10	; 16
    22d4:	9c 83       	std	Y+4, r25	; 0x04
	usart_tx_enable(usart);
	usart_rx_enable(usart);
	
	return result;
}
    22d6:	df 91       	pop	r29
    22d8:	cf 91       	pop	r28
    22da:	1f 91       	pop	r17
    22dc:	0f 91       	pop	r16
    22de:	08 95       	ret

000022e0 <Get_altitude>:
	//printf("altitude = %f \n", (float)altitude);
	return altitude;
}*/

//Old, working function. Uses TEMP from pressure sensor calculations. May as well use
float Get_altitude(uint32_t initial, uint32_t pressure){
    22e0:	4f 92       	push	r4
    22e2:	5f 92       	push	r5
    22e4:	6f 92       	push	r6
    22e6:	7f 92       	push	r7
    22e8:	8f 92       	push	r8
    22ea:	9f 92       	push	r9
    22ec:	af 92       	push	r10
    22ee:	bf 92       	push	r11
    22f0:	cf 92       	push	r12
    22f2:	df 92       	push	r13
    22f4:	ef 92       	push	r14
    22f6:	ff 92       	push	r15
    22f8:	29 01       	movw	r4, r18
    22fa:	3a 01       	movw	r6, r20
	//printf("Initial Pressure = %lu\n", initial);
	//printf("pressure = %lu \n", pressure);
	//printf("temperature = %li \n", TEMP/100);
	//float altitude = (((287.058 * (((float)(TEMP)/100)+273.15)/9.8))*log((float)initial/get_pressure())*3.28);	Not this one, this one's bad
	float altitude = (pow(((initial/100)/(pressure/100)),(1/5.257))-1)*((TEMP/100)+273.15)/.0065; //This is now right, just gotta use the thermistor
    22fc:	0f 2e       	mov	r0, r31
    22fe:	f4 e6       	ldi	r31, 0x64	; 100
    2300:	cf 2e       	mov	r12, r31
    2302:	d1 2c       	mov	r13, r1
    2304:	e1 2c       	mov	r14, r1
    2306:	f1 2c       	mov	r15, r1
    2308:	f0 2d       	mov	r31, r0
    230a:	a7 01       	movw	r20, r14
    230c:	96 01       	movw	r18, r12
    230e:	0e 94 46 1f 	call	0x3e8c	; 0x3e8c <__udivmodsi4>
    2312:	49 01       	movw	r8, r18
    2314:	5a 01       	movw	r10, r20
    2316:	c3 01       	movw	r24, r6
    2318:	b2 01       	movw	r22, r4
    231a:	a7 01       	movw	r20, r14
    231c:	96 01       	movw	r18, r12
    231e:	0e 94 46 1f 	call	0x3e8c	; 0x3e8c <__udivmodsi4>
    2322:	c5 01       	movw	r24, r10
    2324:	b4 01       	movw	r22, r8
    2326:	0e 94 46 1f 	call	0x3e8c	; 0x3e8c <__udivmodsi4>
    232a:	ca 01       	movw	r24, r20
    232c:	b9 01       	movw	r22, r18
    232e:	d5 d7       	rcall	.+4010   	; 0x32da <__floatunsisf>
    2330:	24 eb       	ldi	r18, 0xB4	; 180
    2332:	39 ec       	ldi	r19, 0xC9	; 201
    2334:	42 e4       	ldi	r20, 0x42	; 66
    2336:	5e e3       	ldi	r21, 0x3E	; 62
    2338:	0e 94 a3 1a 	call	0x3546	; 0x3546 <pow>
    233c:	4b 01       	movw	r8, r22
    233e:	5c 01       	movw	r10, r24
	//printf("altitude = %f \n", (float)altitude);
	return altitude;
    2340:	60 91 bd 20 	lds	r22, 0x20BD	; 0x8020bd <TEMP>
    2344:	70 91 be 20 	lds	r23, 0x20BE	; 0x8020be <TEMP+0x1>
    2348:	80 91 bf 20 	lds	r24, 0x20BF	; 0x8020bf <TEMP+0x2>
    234c:	90 91 c0 20 	lds	r25, 0x20C0	; 0x8020c0 <TEMP+0x3>
    2350:	a7 01       	movw	r20, r14
    2352:	96 01       	movw	r18, r12
    2354:	0e 94 68 1f 	call	0x3ed0	; 0x3ed0 <__divmodsi4>
    2358:	ca 01       	movw	r24, r20
    235a:	b9 01       	movw	r22, r18
    235c:	c0 d7       	rcall	.+3968   	; 0x32de <__floatsisf>
    235e:	23 e3       	ldi	r18, 0x33	; 51
    2360:	33 e9       	ldi	r19, 0x93	; 147
    2362:	48 e8       	ldi	r20, 0x88	; 136
    2364:	53 e4       	ldi	r21, 0x43	; 67
    2366:	bc d6       	rcall	.+3448   	; 0x30e0 <__addsf3>
    2368:	6b 01       	movw	r12, r22
    236a:	7c 01       	movw	r14, r24
    236c:	20 e0       	ldi	r18, 0x00	; 0
    236e:	30 e0       	ldi	r19, 0x00	; 0
    2370:	40 e8       	ldi	r20, 0x80	; 128
    2372:	5f e3       	ldi	r21, 0x3F	; 63
    2374:	c5 01       	movw	r24, r10
    2376:	b4 01       	movw	r22, r8
    2378:	b2 d6       	rcall	.+3428   	; 0x30de <__subsf3>
    237a:	9b 01       	movw	r18, r22
    237c:	ac 01       	movw	r20, r24
    237e:	c7 01       	movw	r24, r14
    2380:	b6 01       	movw	r22, r12
    2382:	0e 94 40 1a 	call	0x3480	; 0x3480 <__mulsf3>
    2386:	24 ef       	ldi	r18, 0xF4	; 244
    2388:	3d ef       	ldi	r19, 0xFD	; 253
    238a:	44 ed       	ldi	r20, 0xD4	; 212
    238c:	5b e3       	ldi	r21, 0x3B	; 59
    238e:	0c d7       	rcall	.+3608   	; 0x31a8 <__divsf3>
}
    2390:	ff 90       	pop	r15
    2392:	ef 90       	pop	r14
    2394:	df 90       	pop	r13
    2396:	cf 90       	pop	r12
    2398:	bf 90       	pop	r11
    239a:	af 90       	pop	r10
    239c:	9f 90       	pop	r9
    239e:	8f 90       	pop	r8
    23a0:	7f 90       	pop	r7
    23a2:	6f 90       	pop	r6
    23a4:	5f 90       	pop	r5
    23a6:	4f 90       	pop	r4
    23a8:	08 95       	ret

000023aa <__portable_avr_delay_cycles>:
	PORTE.OUTSET = 0b00000001;
}*/

void heatshield_solenoid(PORT_t* port){
	(*port).DIRSET = 0b10000000;
	(*port).OUTSET = 0b10000000;
    23aa:	04 c0       	rjmp	.+8      	; 0x23b4 <__portable_avr_delay_cycles+0xa>
    23ac:	61 50       	subi	r22, 0x01	; 1
    23ae:	71 09       	sbc	r23, r1
    23b0:	81 09       	sbc	r24, r1
    23b2:	91 09       	sbc	r25, r1
    23b4:	61 15       	cp	r22, r1
    23b6:	71 05       	cpc	r23, r1
    23b8:	81 05       	cpc	r24, r1
    23ba:	91 05       	cpc	r25, r1
    23bc:	b9 f7       	brne	.-18     	; 0x23ac <__portable_avr_delay_cycles+0x2>
    23be:	08 95       	ret

000023c0 <heatshield_hotwire>:
}

void heatshield_hotwire (void){
    23c0:	cf 93       	push	r28
    23c2:	df 93       	push	r29
	PORTD.DIR |= 0b00000010;
    23c4:	c0 e6       	ldi	r28, 0x60	; 96
    23c6:	d6 e0       	ldi	r29, 0x06	; 6
    23c8:	88 81       	ld	r24, Y
    23ca:	82 60       	ori	r24, 0x02	; 2
    23cc:	88 83       	st	Y, r24
	PORTD.OUT |= 0b00000010; //TODO: fix these port addresses
    23ce:	8c 81       	ldd	r24, Y+4	; 0x04
    23d0:	82 60       	ori	r24, 0x02	; 2
    23d2:	8c 83       	std	Y+4, r24	; 0x04
	delay_ms(4000);
    23d4:	66 e5       	ldi	r22, 0x56	; 86
    23d6:	75 e8       	ldi	r23, 0x85	; 133
    23d8:	85 e4       	ldi	r24, 0x45	; 69
    23da:	91 e0       	ldi	r25, 0x01	; 1
    23dc:	e6 df       	rcall	.-52     	; 0x23aa <__portable_avr_delay_cycles>
	PORTD.OUT &= 0b11111101;
    23de:	8c 81       	ldd	r24, Y+4	; 0x04
    23e0:	8d 7f       	andi	r24, 0xFD	; 253
    23e2:	8c 83       	std	Y+4, r24	; 0x04
}
    23e4:	df 91       	pop	r29
    23e6:	cf 91       	pop	r28
    23e8:	08 95       	ret

000023ea <parachute_hotwire>:

void parachute_hotwire (void) {
    23ea:	cf 93       	push	r28
    23ec:	df 93       	push	r29
	PORTD.DIR |= 0b00000010;
    23ee:	c0 e6       	ldi	r28, 0x60	; 96
    23f0:	d6 e0       	ldi	r29, 0x06	; 6
    23f2:	88 81       	ld	r24, Y
    23f4:	82 60       	ori	r24, 0x02	; 2
    23f6:	88 83       	st	Y, r24
	PORTD.OUT |= 0b00000010; //TODO: fix these port addresses
    23f8:	8c 81       	ldd	r24, Y+4	; 0x04
    23fa:	82 60       	ori	r24, 0x02	; 2
    23fc:	8c 83       	std	Y+4, r24	; 0x04
	delay_ms(4000);
    23fe:	66 e5       	ldi	r22, 0x56	; 86
    2400:	75 e8       	ldi	r23, 0x85	; 133
    2402:	85 e4       	ldi	r24, 0x45	; 69
    2404:	91 e0       	ldi	r25, 0x01	; 1
    2406:	d1 df       	rcall	.-94     	; 0x23aa <__portable_avr_delay_cycles>
	PORTD.OUT &= 0b11111101;
    2408:	8c 81       	ldd	r24, Y+4	; 0x04
    240a:	8d 7f       	andi	r24, 0xFD	; 253
    240c:	8c 83       	std	Y+4, r24	; 0x04
}
    240e:	df 91       	pop	r29
    2410:	cf 91       	pop	r28
    2412:	08 95       	ret

00002414 <heatshield_detatch_hotwire>:

void heatshield_detatch_hotwire(void){
    2414:	cf 93       	push	r28
    2416:	df 93       	push	r29
	PORTD.DIR |= 0b00000010;
    2418:	c0 e6       	ldi	r28, 0x60	; 96
    241a:	d6 e0       	ldi	r29, 0x06	; 6
    241c:	88 81       	ld	r24, Y
    241e:	82 60       	ori	r24, 0x02	; 2
    2420:	88 83       	st	Y, r24
	PORTD.OUT |= 0b00000010; //TODO: fix these port addresses
    2422:	8c 81       	ldd	r24, Y+4	; 0x04
    2424:	82 60       	ori	r24, 0x02	; 2
    2426:	8c 83       	std	Y+4, r24	; 0x04
	delay_ms(4000);
    2428:	66 e5       	ldi	r22, 0x56	; 86
    242a:	75 e8       	ldi	r23, 0x85	; 133
    242c:	85 e4       	ldi	r24, 0x45	; 69
    242e:	91 e0       	ldi	r25, 0x01	; 1
    2430:	bc df       	rcall	.-136    	; 0x23aa <__portable_avr_delay_cycles>
	PORTD.OUT &= 0b11111101;	
    2432:	8c 81       	ldd	r24, Y+4	; 0x04
    2434:	8d 7f       	andi	r24, 0xFD	; 253
    2436:	8c 83       	std	Y+4, r24	; 0x04
}
    2438:	df 91       	pop	r29
    243a:	cf 91       	pop	r28
    243c:	08 95       	ret

0000243e <buzzer_on>:

void buzzer_on(void){
	PORTB.DIR |= 0b00000001; 
    243e:	e0 e2       	ldi	r30, 0x20	; 32
    2440:	f6 e0       	ldi	r31, 0x06	; 6
    2442:	80 81       	ld	r24, Z
    2444:	81 60       	ori	r24, 0x01	; 1
    2446:	80 83       	st	Z, r24
	PORTB.OUT |= 0b00000001;
    2448:	84 81       	ldd	r24, Z+4	; 0x04
    244a:	81 60       	ori	r24, 0x01	; 1
    244c:	84 83       	std	Z+4, r24	; 0x04
    244e:	08 95       	ret

00002450 <buzzer_off>:
	
}
void buzzer_off(void){
	PORTB.DIR |= 0b00000001;  
    2450:	e0 e2       	ldi	r30, 0x20	; 32
    2452:	f6 e0       	ldi	r31, 0x06	; 6
    2454:	80 81       	ld	r24, Z
    2456:	81 60       	ori	r24, 0x01	; 1
    2458:	80 83       	st	Z, r24
	PORTB.OUT &= 0b11111110;
    245a:	84 81       	ldd	r24, Z+4	; 0x04
    245c:	8e 7f       	andi	r24, 0xFE	; 254
    245e:	84 83       	std	Z+4, r24	; 0x04
    2460:	08 95       	ret

00002462 <camera_on>:
	
}
void camera_on(void){
	PORTE.DIR |= 0b01000000;
    2462:	e0 e8       	ldi	r30, 0x80	; 128
    2464:	f6 e0       	ldi	r31, 0x06	; 6
    2466:	80 81       	ld	r24, Z
    2468:	80 64       	ori	r24, 0x40	; 64
    246a:	80 83       	st	Z, r24
	PORTE.OUT |= 0b01000000;
    246c:	84 81       	ldd	r24, Z+4	; 0x04
    246e:	80 64       	ori	r24, 0x40	; 64
    2470:	84 83       	std	Z+4, r24	; 0x04
    2472:	08 95       	ret

00002474 <__portable_avr_delay_cycles>:
 *
 * @{
 */
__always_optimize
static inline void __portable_avr_delay_cycles(unsigned long n)
{
    2474:	04 c0       	rjmp	.+8      	; 0x247e <__portable_avr_delay_cycles+0xa>
	while (n) {
		barrier();
		n--;
    2476:	61 50       	subi	r22, 0x01	; 1
    2478:	71 09       	sbc	r23, r1
    247a:	81 09       	sbc	r24, r1
    247c:	91 09       	sbc	r25, r1
 * @{
 */
__always_optimize
static inline void __portable_avr_delay_cycles(unsigned long n)
{
	while (n) {
    247e:	61 15       	cp	r22, r1
    2480:	71 05       	cpc	r23, r1
    2482:	81 05       	cpc	r24, r1
    2484:	91 05       	cpc	r25, r1
    2486:	b9 f7       	brne	.-18     	; 0x2476 <__portable_avr_delay_cycles+0x2>
    2488:	08 95       	ret

0000248a <SPI_init>:
uint16_t c5;
uint16_t c6;


void SPI_init(void){
	PORTD.DIRSET = 0b10110000;
    248a:	e0 e6       	ldi	r30, 0x60	; 96
    248c:	f6 e0       	ldi	r31, 0x06	; 6
    248e:	80 eb       	ldi	r24, 0xB0	; 176
    2490:	81 83       	std	Z+1, r24	; 0x01
	PORTD.DIRCLR = 0b01000000;
    2492:	90 e4       	ldi	r25, 0x40	; 64
    2494:	92 83       	std	Z+2, r25	; 0x02
	PORTD.OUTSET = 0b10110000;
    2496:	85 83       	std	Z+5, r24	; 0x05
	SPID.CTRL = 0b01010011;
    2498:	83 e5       	ldi	r24, 0x53	; 83
    249a:	80 93 c0 09 	sts	0x09C0, r24	; 0x8009c0 <__TEXT_REGION_LENGTH__+0x7009c0>
    249e:	08 95       	ret

000024a0 <SPI_write>:
}

void SPI_write(uint8_t data){
	SPID.DATA = data;
    24a0:	80 93 c3 09 	sts	0x09C3, r24	; 0x8009c3 <__TEXT_REGION_LENGTH__+0x7009c3>
	while(!(SPID.STATUS>>7));
    24a4:	e0 ec       	ldi	r30, 0xC0	; 192
    24a6:	f9 e0       	ldi	r31, 0x09	; 9
    24a8:	82 81       	ldd	r24, Z+2	; 0x02
    24aa:	88 23       	and	r24, r24
    24ac:	ec f7       	brge	.-6      	; 0x24a8 <SPI_write+0x8>
}
    24ae:	08 95       	ret

000024b0 <spi_read>:

uint8_t spi_read (void){
	SPI_write(0xFF);
    24b0:	8f ef       	ldi	r24, 0xFF	; 255
    24b2:	f6 df       	rcall	.-20     	; 0x24a0 <SPI_write>
	return SPID.DATA;
    24b4:	80 91 c3 09 	lds	r24, 0x09C3	; 0x8009c3 <__TEXT_REGION_LENGTH__+0x7009c3>
}
    24b8:	08 95       	ret

000024ba <prom_read>:
	//printf("c5: %u \n", c5);
	c6 = prom_read(0xAC);
	//printf("c6: %u \n", c6);
}

uint16_t prom_read(uint8_t command){
    24ba:	ff 92       	push	r15
    24bc:	0f 93       	push	r16
    24be:	1f 93       	push	r17
    24c0:	cf 93       	push	r28
    24c2:	df 93       	push	r29
	uint16_t data;
	PORTD.OUTCLR = 0b00000010;
    24c4:	00 e6       	ldi	r16, 0x60	; 96
    24c6:	16 e0       	ldi	r17, 0x06	; 6
    24c8:	68 94       	set
    24ca:	ff 24       	eor	r15, r15
    24cc:	f1 f8       	bld	r15, 1
    24ce:	f8 01       	movw	r30, r16
	SPI_write(command);
	data = ((uint16_t)spi_read())<<8;	//Bitshifting
    24d0:	f6 82       	std	Z+6, r15	; 0x06
    24d2:	e6 df       	rcall	.-52     	; 0x24a0 <SPI_write>
    24d4:	ed df       	rcall	.-38     	; 0x24b0 <spi_read>
    24d6:	c8 2f       	mov	r28, r24
    24d8:	d0 e0       	ldi	r29, 0x00	; 0
	data += spi_read();
    24da:	dc 2f       	mov	r29, r28
    24dc:	cc 27       	eor	r28, r28
    24de:	e8 df       	rcall	.-48     	; 0x24b0 <spi_read>
    24e0:	c8 0f       	add	r28, r24
	PORTD.OUTSET = 0b00000010;
    24e2:	d1 1d       	adc	r29, r1
    24e4:	f8 01       	movw	r30, r16
	delay_ms(1);
    24e6:	f5 82       	std	Z+5, r15	; 0x05
    24e8:	66 ed       	ldi	r22, 0xD6	; 214
    24ea:	74 e1       	ldi	r23, 0x14	; 20
    24ec:	80 e0       	ldi	r24, 0x00	; 0
    24ee:	90 e0       	ldi	r25, 0x00	; 0
	//printf("data: %lu \n", data);
	return data;
}
    24f0:	c1 df       	rcall	.-126    	; 0x2474 <__portable_avr_delay_cycles>
    24f2:	ce 01       	movw	r24, r28
    24f4:	df 91       	pop	r29
    24f6:	cf 91       	pop	r28
    24f8:	1f 91       	pop	r17
    24fa:	0f 91       	pop	r16
    24fc:	ff 90       	pop	r15
    24fe:	08 95       	ret

00002500 <ms5607_init>:
uint8_t spi_read (void){
	SPI_write(0xFF);
	return SPID.DATA;
}

void ms5607_init(void){
    2500:	1f 93       	push	r17
    2502:	cf 93       	push	r28
    2504:	df 93       	push	r29
	PORTD.OUTCLR = 0b00000010;
    2506:	c0 e6       	ldi	r28, 0x60	; 96
    2508:	d6 e0       	ldi	r29, 0x06	; 6
    250a:	12 e0       	ldi	r17, 0x02	; 2
    250c:	1e 83       	std	Y+6, r17	; 0x06
	SPI_write(0x1E);
    250e:	8e e1       	ldi	r24, 0x1E	; 30
    2510:	c7 df       	rcall	.-114    	; 0x24a0 <SPI_write>
	PORTD.OUTSET = 0b00000010;
    2512:	1d 83       	std	Y+5, r17	; 0x05
	delay_ms(10);
    2514:	66 e5       	ldi	r22, 0x56	; 86
    2516:	70 ed       	ldi	r23, 0xD0	; 208
    2518:	80 e0       	ldi	r24, 0x00	; 0
    251a:	90 e0       	ldi	r25, 0x00	; 0
	c1 = prom_read(0xA2);
    251c:	ab df       	rcall	.-170    	; 0x2474 <__portable_avr_delay_cycles>
    251e:	82 ea       	ldi	r24, 0xA2	; 162
    2520:	cc df       	rcall	.-104    	; 0x24ba <prom_read>
    2522:	80 93 c9 20 	sts	0x20C9, r24	; 0x8020c9 <c1>
    2526:	90 93 ca 20 	sts	0x20CA, r25	; 0x8020ca <c1+0x1>
	//printf("c1: %u \n", c1);
	c2 = prom_read(0xA4);
    252a:	84 ea       	ldi	r24, 0xA4	; 164
    252c:	c6 df       	rcall	.-116    	; 0x24ba <prom_read>
    252e:	80 93 c5 20 	sts	0x20C5, r24	; 0x8020c5 <c2>
    2532:	90 93 c6 20 	sts	0x20C6, r25	; 0x8020c6 <c2+0x1>
	//printf("c2: %u \n", c2);
	c3 = prom_read(0xA6);
    2536:	86 ea       	ldi	r24, 0xA6	; 166
    2538:	c0 df       	rcall	.-128    	; 0x24ba <prom_read>
    253a:	80 93 cb 20 	sts	0x20CB, r24	; 0x8020cb <c3>
    253e:	90 93 cc 20 	sts	0x20CC, r25	; 0x8020cc <c3+0x1>
	//printf("c3: %u \n", c3);
	c4 = prom_read(0xA8);
    2542:	88 ea       	ldi	r24, 0xA8	; 168
    2544:	ba df       	rcall	.-140    	; 0x24ba <prom_read>
    2546:	80 93 c3 20 	sts	0x20C3, r24	; 0x8020c3 <c4>
    254a:	90 93 c4 20 	sts	0x20C4, r25	; 0x8020c4 <c4+0x1>
	//printf("c4: %u \n", c4);
	c5 = prom_read(0xAA);
    254e:	8a ea       	ldi	r24, 0xAA	; 170
    2550:	b4 df       	rcall	.-152    	; 0x24ba <prom_read>
    2552:	80 93 c7 20 	sts	0x20C7, r24	; 0x8020c7 <c5>
    2556:	90 93 c8 20 	sts	0x20C8, r25	; 0x8020c8 <c5+0x1>
	//printf("c5: %u \n", c5);
	c6 = prom_read(0xAC);
    255a:	8c ea       	ldi	r24, 0xAC	; 172
    255c:	ae df       	rcall	.-164    	; 0x24ba <prom_read>
    255e:	80 93 c1 20 	sts	0x20C1, r24	; 0x8020c1 <c6>
    2562:	90 93 c2 20 	sts	0x20C2, r25	; 0x8020c2 <c6+0x1>
	//printf("c6: %u \n", c6);
}
    2566:	df 91       	pop	r29
    2568:	cf 91       	pop	r28
    256a:	1f 91       	pop	r17
    256c:	08 95       	ret

0000256e <data_read>:
	delay_ms(1);
	//printf("data: %lu \n", data);
	return data;
}

uint32_t data_read(uint8_t command){
    256e:	8f 92       	push	r8
    2570:	9f 92       	push	r9
    2572:	af 92       	push	r10
    2574:	bf 92       	push	r11
    2576:	cf 92       	push	r12
    2578:	df 92       	push	r13
    257a:	ef 92       	push	r14
    257c:	ff 92       	push	r15
    257e:	0f 93       	push	r16
    2580:	1f 93       	push	r17
    2582:	cf 93       	push	r28
	uint32_t data;
	PORTD.OUTCLR = 0b00000010;
    2584:	00 e6       	ldi	r16, 0x60	; 96
    2586:	16 e0       	ldi	r17, 0x06	; 6
    2588:	c2 e0       	ldi	r28, 0x02	; 2
    258a:	f8 01       	movw	r30, r16
	SPI_write(command);
    258c:	c6 83       	std	Z+6, r28	; 0x06
	PORTD.OUTSET = 0b00000010;
    258e:	88 df       	rcall	.-240    	; 0x24a0 <SPI_write>
    2590:	f8 01       	movw	r30, r16
	delay_ms(9);
    2592:	c5 83       	std	Z+5, r28	; 0x05
    2594:	61 e8       	ldi	r22, 0x81	; 129
    2596:	7b eb       	ldi	r23, 0xBB	; 187
    2598:	80 e0       	ldi	r24, 0x00	; 0
    259a:	90 e0       	ldi	r25, 0x00	; 0
	PORTD.OUTCLR = 0b00010000;
    259c:	6b df       	rcall	.-298    	; 0x2474 <__portable_avr_delay_cycles>
	SPI_write(0x00);
    259e:	80 e1       	ldi	r24, 0x10	; 16
    25a0:	f8 01       	movw	r30, r16
	data = ((uint32_t)spi_read())<<16;
    25a2:	86 83       	std	Z+6, r24	; 0x06
    25a4:	80 e0       	ldi	r24, 0x00	; 0
    25a6:	7c df       	rcall	.-264    	; 0x24a0 <SPI_write>
    25a8:	83 df       	rcall	.-250    	; 0x24b0 <spi_read>
    25aa:	c8 2e       	mov	r12, r24
    25ac:	d1 2c       	mov	r13, r1
    25ae:	e1 2c       	mov	r14, r1
    25b0:	f1 2c       	mov	r15, r1
	data += ((uint32_t)spi_read())<<8;
    25b2:	56 01       	movw	r10, r12
    25b4:	99 24       	eor	r9, r9
    25b6:	88 24       	eor	r8, r8
    25b8:	7b df       	rcall	.-266    	; 0x24b0 <spi_read>
    25ba:	c8 2e       	mov	r12, r24
    25bc:	d1 2c       	mov	r13, r1
    25be:	e1 2c       	mov	r14, r1
    25c0:	f1 2c       	mov	r15, r1
    25c2:	fe 2c       	mov	r15, r14
    25c4:	ed 2c       	mov	r14, r13
    25c6:	dc 2c       	mov	r13, r12
    25c8:	cc 24       	eor	r12, r12
    25ca:	c8 0c       	add	r12, r8
	data += spi_read();
    25cc:	d9 1c       	adc	r13, r9
    25ce:	ea 1c       	adc	r14, r10
	PORTC.OUTSET = 0b00000010;
    25d0:	fb 1c       	adc	r15, r11
    25d2:	6e df       	rcall	.-292    	; 0x24b0 <spi_read>
	return data;
    25d4:	c0 93 45 06 	sts	0x0645, r28	; 0x800645 <__TEXT_REGION_LENGTH__+0x700645>
    25d8:	a7 01       	movw	r20, r14
    25da:	96 01       	movw	r18, r12
    25dc:	28 0f       	add	r18, r24
    25de:	31 1d       	adc	r19, r1
    25e0:	41 1d       	adc	r20, r1
    25e2:	51 1d       	adc	r21, r1
}
    25e4:	ca 01       	movw	r24, r20
    25e6:	b9 01       	movw	r22, r18
    25e8:	cf 91       	pop	r28
    25ea:	1f 91       	pop	r17
    25ec:	0f 91       	pop	r16
    25ee:	ff 90       	pop	r15
    25f0:	ef 90       	pop	r14
    25f2:	df 90       	pop	r13
    25f4:	cf 90       	pop	r12
    25f6:	bf 90       	pop	r11
    25f8:	af 90       	pop	r10
    25fa:	9f 90       	pop	r9
    25fc:	8f 90       	pop	r8
    25fe:	08 95       	ret

00002600 <get_pressure>:

uint32_t get_pressure(void){
    2600:	2f 92       	push	r2
    2602:	3f 92       	push	r3
    2604:	4f 92       	push	r4
    2606:	5f 92       	push	r5
    2608:	6f 92       	push	r6
    260a:	7f 92       	push	r7
    260c:	8f 92       	push	r8
    260e:	9f 92       	push	r9
    2610:	af 92       	push	r10
    2612:	bf 92       	push	r11
    2614:	cf 92       	push	r12
    2616:	df 92       	push	r13
    2618:	ef 92       	push	r14
    261a:	ff 92       	push	r15
    261c:	0f 93       	push	r16
    261e:	1f 93       	push	r17
    2620:	cf 93       	push	r28
    2622:	df 93       	push	r29
    2624:	cd b7       	in	r28, 0x3d	; 61
    2626:	de b7       	in	r29, 0x3e	; 62
    2628:	61 97       	sbiw	r28, 0x11	; 17
    262a:	cd bf       	out	0x3d, r28	; 61
    262c:	de bf       	out	0x3e, r29	; 62
	uint32_t D1 = data_read(0x48);
    262e:	88 e4       	ldi	r24, 0x48	; 72
    2630:	9e df       	rcall	.-196    	; 0x256e <data_read>
    2632:	6d 83       	std	Y+5, r22	; 0x05
    2634:	7e 83       	std	Y+6, r23	; 0x06
    2636:	8f 83       	std	Y+7, r24	; 0x07
	//printf("D1: %lu \n", D1);
	uint32_t D2 = data_read(0x58);
    2638:	98 87       	std	Y+8, r25	; 0x08
    263a:	88 e5       	ldi	r24, 0x58	; 88
	//printf("D2: %li \n", D2);
	int32_t dT = (int64_t)D2 - (int64_t)c5 * 256;
    263c:	98 df       	rcall	.-208    	; 0x256e <data_read>
    263e:	20 91 c7 20 	lds	r18, 0x20C7	; 0x8020c7 <c5>
    2642:	30 91 c8 20 	lds	r19, 0x20C8	; 0x8020c8 <c5+0x1>
    2646:	89 01       	movw	r16, r18
    2648:	20 e0       	ldi	r18, 0x00	; 0
    264a:	30 e0       	ldi	r19, 0x00	; 0
    264c:	32 2f       	mov	r19, r18
    264e:	21 2f       	mov	r18, r17
    2650:	10 2f       	mov	r17, r16
    2652:	00 27       	eor	r16, r16
    2654:	6b 01       	movw	r12, r22
    2656:	7c 01       	movw	r14, r24
    2658:	c0 1a       	sub	r12, r16
    265a:	d1 0a       	sbc	r13, r17
    265c:	e2 0a       	sbc	r14, r18
    265e:	f3 0a       	sbc	r15, r19
    2660:	c9 82       	std	Y+1, r12	; 0x01
    2662:	da 82       	std	Y+2, r13	; 0x02
    2664:	eb 82       	std	Y+3, r14	; 0x03
	TEMP = (int16_t)((int64_t)2000 + (int64_t)dT * (int64_t)c6 / (int64_t)(8388608));
    2666:	fc 82       	std	Y+4, r15	; 0x04
    2668:	20 90 c1 20 	lds	r2, 0x20C1	; 0x8020c1 <c6>
    266c:	30 90 c2 20 	lds	r3, 0x20C2	; 0x8020c2 <c6+0x1>
    2670:	d7 01       	movw	r26, r14
    2672:	c6 01       	movw	r24, r12
    2674:	bb 0f       	add	r27, r27
    2676:	88 0b       	sbc	r24, r24
    2678:	98 2f       	mov	r25, r24
    267a:	dc 01       	movw	r26, r24
    267c:	a9 80       	ldd	r10, Y+1	; 0x01
    267e:	ba 80       	ldd	r11, Y+2	; 0x02
    2680:	cb 80       	ldd	r12, Y+3	; 0x03
    2682:	dc 80       	ldd	r13, Y+4	; 0x04
    2684:	e8 2e       	mov	r14, r24
    2686:	f8 2e       	mov	r15, r24
    2688:	08 2f       	mov	r16, r24
    268a:	18 2f       	mov	r17, r24
    268c:	22 2d       	mov	r18, r2
    268e:	33 2d       	mov	r19, r3
    2690:	40 e0       	ldi	r20, 0x00	; 0
    2692:	50 e0       	ldi	r21, 0x00	; 0
    2694:	60 e0       	ldi	r22, 0x00	; 0
    2696:	70 e0       	ldi	r23, 0x00	; 0
    2698:	80 e0       	ldi	r24, 0x00	; 0
    269a:	90 e0       	ldi	r25, 0x00	; 0
    269c:	0e 94 97 1f 	call	0x3f2e	; 0x3f2e <__muldi3>
    26a0:	89 8b       	std	Y+17, r24	; 0x11
    26a2:	b2 2f       	mov	r27, r18
    26a4:	f3 2f       	mov	r31, r19
    26a6:	e4 2f       	mov	r30, r20
    26a8:	95 2e       	mov	r9, r21
    26aa:	86 2e       	mov	r8, r22
    26ac:	77 2e       	mov	r7, r23
    26ae:	a8 2e       	mov	r10, r24
    26b0:	b9 2e       	mov	r11, r25
    26b2:	a0 e0       	ldi	r26, 0x00	; 0
    26b4:	0e 94 31 20 	call	0x4062	; 0x4062 <__cmpdi2_s8>
    26b8:	84 f4       	brge	.+32     	; 0x26da <get_pressure+0xda>
    26ba:	21 50       	subi	r18, 0x01	; 1
    26bc:	31 09       	sbc	r19, r1
    26be:	40 48       	sbci	r20, 0x80	; 128
    26c0:	5f 4f       	sbci	r21, 0xFF	; 255
    26c2:	6f 4f       	sbci	r22, 0xFF	; 255
    26c4:	7f 4f       	sbci	r23, 0xFF	; 255
    26c6:	8f 4f       	sbci	r24, 0xFF	; 255
    26c8:	9f 4f       	sbci	r25, 0xFF	; 255
    26ca:	b2 2f       	mov	r27, r18
    26cc:	f3 2f       	mov	r31, r19
    26ce:	e4 2f       	mov	r30, r20
    26d0:	95 2e       	mov	r9, r21
    26d2:	86 2e       	mov	r8, r22
    26d4:	77 2e       	mov	r7, r23
    26d6:	a8 2e       	mov	r10, r24
    26d8:	b9 2e       	mov	r11, r25
    26da:	2b 2f       	mov	r18, r27
    26dc:	3f 2f       	mov	r19, r31
    26de:	4e 2f       	mov	r20, r30
    26e0:	59 2d       	mov	r21, r9
    26e2:	68 2d       	mov	r22, r8
    26e4:	77 2d       	mov	r23, r7
    26e6:	8a 2d       	mov	r24, r10
    26e8:	9b 2d       	mov	r25, r11
    26ea:	07 e1       	ldi	r16, 0x17	; 23
    26ec:	0e 94 01 20 	call	0x4002	; 0x4002 <__ashrdi3>
    26f0:	82 2e       	mov	r8, r18
    26f2:	93 2e       	mov	r9, r19
    26f4:	00 e3       	ldi	r16, 0x30	; 48
    26f6:	80 1a       	sub	r8, r16
    26f8:	08 ef       	ldi	r16, 0xF8	; 248
    26fa:	90 0a       	sbc	r9, r16
    26fc:	09 2c       	mov	r0, r9
    26fe:	00 0c       	add	r0, r0
    2700:	aa 08       	sbc	r10, r10
    2702:	bb 08       	sbc	r11, r11
    2704:	80 92 bd 20 	sts	0x20BD, r8	; 0x8020bd <TEMP>
    2708:	90 92 be 20 	sts	0x20BE, r9	; 0x8020be <TEMP+0x1>
    270c:	a0 92 bf 20 	sts	0x20BF, r10	; 0x8020bf <TEMP+0x2>
    2710:	b0 92 c0 20 	sts	0x20C0, r11	; 0x8020c0 <TEMP+0x3>
	int64_t OFF = (int64_t)c2 * 131072 + (int64_t)(c4 * dT) / 64;
	int64_t SENS = (int64_t)c1 * 65536 + (int64_t)(c3 * dT) / 128;
	int32_t P = (int32_t)(((int64_t)((int64_t)(D1) * SENS) / 2097152 - (int64_t)OFF) / 32768);
	//printf("pressure: %lu \n", P);
	return (uint32_t)P;
    2714:	a0 91 cb 20 	lds	r26, 0x20CB	; 0x8020cb <c3>
    2718:	b0 91 cc 20 	lds	r27, 0x20CC	; 0x8020cc <c3+0x1>
    271c:	29 81       	ldd	r18, Y+1	; 0x01
    271e:	3a 81       	ldd	r19, Y+2	; 0x02
    2720:	4b 81       	ldd	r20, Y+3	; 0x03
    2722:	5c 81       	ldd	r21, Y+4	; 0x04
    2724:	0e 94 8d 1f 	call	0x3f1a	; 0x3f1a <__muluhisi3>
    2728:	4b 01       	movw	r8, r22
    272a:	5c 01       	movw	r10, r24
    272c:	99 23       	and	r25, r25
    272e:	2c f4       	brge	.+10     	; 0x273a <get_pressure+0x13a>
    2730:	1f e7       	ldi	r17, 0x7F	; 127
    2732:	81 0e       	add	r8, r17
    2734:	91 1c       	adc	r9, r1
    2736:	a1 1c       	adc	r10, r1
    2738:	b1 1c       	adc	r11, r1
    273a:	24 01       	movw	r4, r8
    273c:	35 01       	movw	r6, r10
    273e:	68 94       	set
    2740:	16 f8       	bld	r1, 6
    2742:	75 94       	asr	r7
    2744:	67 94       	ror	r6
    2746:	57 94       	ror	r5
    2748:	47 94       	ror	r4
    274a:	16 94       	lsr	r1
    274c:	d1 f7       	brne	.-12     	; 0x2742 <get_pressure+0x142>
    274e:	bb 0c       	add	r11, r11
    2750:	88 08       	sbc	r8, r8
    2752:	98 2c       	mov	r9, r8
    2754:	54 01       	movw	r10, r8
    2756:	80 91 c9 20 	lds	r24, 0x20C9	; 0x8020c9 <c1>
    275a:	90 91 ca 20 	lds	r25, 0x20CA	; 0x8020ca <c1+0x1>
    275e:	6c 01       	movw	r12, r24
    2760:	e1 2c       	mov	r14, r1
    2762:	f1 2c       	mov	r15, r1
    2764:	00 e0       	ldi	r16, 0x00	; 0
    2766:	10 e0       	ldi	r17, 0x00	; 0
    2768:	98 01       	movw	r18, r16
    276a:	89 87       	std	Y+9, r24	; 0x09
    276c:	da 86       	std	Y+10, r13	; 0x0a
    276e:	eb 86       	std	Y+11, r14	; 0x0b
    2770:	fc 86       	std	Y+12, r15	; 0x0c
    2772:	0d 87       	std	Y+13, r16	; 0x0d
    2774:	1e 87       	std	Y+14, r17	; 0x0e
    2776:	2f 87       	std	Y+15, r18	; 0x0f
    2778:	38 8b       	std	Y+16, r19	; 0x10
    277a:	28 2f       	mov	r18, r24
    277c:	3d 2d       	mov	r19, r13
    277e:	40 e0       	ldi	r20, 0x00	; 0
    2780:	50 e0       	ldi	r21, 0x00	; 0
    2782:	60 e0       	ldi	r22, 0x00	; 0
    2784:	70 e0       	ldi	r23, 0x00	; 0
    2786:	80 e0       	ldi	r24, 0x00	; 0
    2788:	90 e0       	ldi	r25, 0x00	; 0
    278a:	00 e1       	ldi	r16, 0x10	; 16
    278c:	0e 94 e8 1f 	call	0x3fd0	; 0x3fd0 <__ashldi3>
    2790:	f2 2f       	mov	r31, r18
    2792:	e3 2f       	mov	r30, r19
    2794:	c4 2e       	mov	r12, r20
    2796:	d5 2e       	mov	r13, r21
    2798:	e6 2e       	mov	r14, r22
    279a:	f7 2e       	mov	r15, r23
    279c:	08 2f       	mov	r16, r24
    279e:	19 2f       	mov	r17, r25
    27a0:	24 2d       	mov	r18, r4
    27a2:	35 2d       	mov	r19, r5
    27a4:	46 2d       	mov	r20, r6
    27a6:	57 2d       	mov	r21, r7
    27a8:	68 2d       	mov	r22, r8
    27aa:	78 2d       	mov	r23, r8
    27ac:	88 2d       	mov	r24, r8
    27ae:	98 2d       	mov	r25, r8
    27b0:	af 2e       	mov	r10, r31
    27b2:	be 2e       	mov	r11, r30
    27b4:	0e 94 1f 20 	call	0x403e	; 0x403e <__adddi3>
    27b8:	ed 80       	ldd	r14, Y+5	; 0x05
    27ba:	fe 80       	ldd	r15, Y+6	; 0x06
    27bc:	0f 81       	ldd	r16, Y+7	; 0x07
    27be:	18 85       	ldd	r17, Y+8	; 0x08
    27c0:	17 01       	movw	r2, r14
    27c2:	28 01       	movw	r4, r16
    27c4:	ae 2c       	mov	r10, r14
    27c6:	b3 2c       	mov	r11, r3
    27c8:	c4 2c       	mov	r12, r4
    27ca:	d5 2c       	mov	r13, r5
    27cc:	e1 2c       	mov	r14, r1
    27ce:	f1 2c       	mov	r15, r1
    27d0:	00 e0       	ldi	r16, 0x00	; 0
    27d2:	10 e0       	ldi	r17, 0x00	; 0
    27d4:	0e 94 97 1f 	call	0x3f2e	; 0x3f2e <__muldi3>
    27d8:	12 2f       	mov	r17, r18
    27da:	39 87       	std	Y+9, r19	; 0x09
    27dc:	4d 83       	std	Y+5, r20	; 0x05
    27de:	b5 2f       	mov	r27, r21
    27e0:	f6 2f       	mov	r31, r22
    27e2:	e7 2f       	mov	r30, r23
    27e4:	78 2e       	mov	r7, r24
    27e6:	89 2e       	mov	r8, r25
    27e8:	a0 e0       	ldi	r26, 0x00	; 0
    27ea:	0e 94 31 20 	call	0x4062	; 0x4062 <__cmpdi2_s8>
    27ee:	84 f4       	brge	.+32     	; 0x2810 <get_pressure+0x210>
    27f0:	21 50       	subi	r18, 0x01	; 1
    27f2:	31 09       	sbc	r19, r1
    27f4:	40 4e       	sbci	r20, 0xE0	; 224
    27f6:	5f 4f       	sbci	r21, 0xFF	; 255
    27f8:	6f 4f       	sbci	r22, 0xFF	; 255
    27fa:	7f 4f       	sbci	r23, 0xFF	; 255
    27fc:	8f 4f       	sbci	r24, 0xFF	; 255
    27fe:	9f 4f       	sbci	r25, 0xFF	; 255
    2800:	12 2f       	mov	r17, r18
    2802:	39 87       	std	Y+9, r19	; 0x09
    2804:	4d 83       	std	Y+5, r20	; 0x05
    2806:	b5 2f       	mov	r27, r21
    2808:	f6 2f       	mov	r31, r22
    280a:	e7 2f       	mov	r30, r23
    280c:	78 2e       	mov	r7, r24
    280e:	89 2e       	mov	r8, r25
    2810:	21 2f       	mov	r18, r17
    2812:	39 85       	ldd	r19, Y+9	; 0x09
    2814:	4d 81       	ldd	r20, Y+5	; 0x05
    2816:	5b 2f       	mov	r21, r27
    2818:	6f 2f       	mov	r22, r31
    281a:	7e 2f       	mov	r23, r30
    281c:	87 2d       	mov	r24, r7
    281e:	98 2d       	mov	r25, r8
    2820:	05 e1       	ldi	r16, 0x15	; 21
    2822:	0e 94 01 20 	call	0x4002	; 0x4002 <__ashrdi3>
    2826:	52 2e       	mov	r5, r18
    2828:	63 2e       	mov	r6, r19
    282a:	74 2e       	mov	r7, r20
    282c:	59 8b       	std	Y+17, r21	; 0x11
    282e:	69 87       	std	Y+9, r22	; 0x09
    2830:	f7 2f       	mov	r31, r23
    2832:	e8 2f       	mov	r30, r24
    2834:	49 2e       	mov	r4, r25
    2836:	a0 91 c3 20 	lds	r26, 0x20C3	; 0x8020c3 <c4>
    283a:	b0 91 c4 20 	lds	r27, 0x20C4	; 0x8020c4 <c4+0x1>
    283e:	29 81       	ldd	r18, Y+1	; 0x01
    2840:	3a 81       	ldd	r19, Y+2	; 0x02
    2842:	4b 81       	ldd	r20, Y+3	; 0x03
    2844:	5c 81       	ldd	r21, Y+4	; 0x04
    2846:	0e 94 8d 1f 	call	0x3f1a	; 0x3f1a <__muluhisi3>
    284a:	4b 01       	movw	r8, r22
    284c:	5c 01       	movw	r10, r24
    284e:	99 23       	and	r25, r25
    2850:	2c f4       	brge	.+10     	; 0x285c <get_pressure+0x25c>
    2852:	0f e3       	ldi	r16, 0x3F	; 63
    2854:	80 0e       	add	r8, r16
    2856:	91 1c       	adc	r9, r1
    2858:	a1 1c       	adc	r10, r1
    285a:	b1 1c       	adc	r11, r1
    285c:	75 01       	movw	r14, r10
    285e:	64 01       	movw	r12, r8
    2860:	68 94       	set
    2862:	15 f8       	bld	r1, 5
    2864:	f5 94       	asr	r15
    2866:	e7 94       	ror	r14
    2868:	d7 94       	ror	r13
    286a:	c7 94       	ror	r12
    286c:	16 94       	lsr	r1
    286e:	d1 f7       	brne	.-12     	; 0x2864 <get_pressure+0x264>
    2870:	bb 0c       	add	r11, r11
    2872:	88 08       	sbc	r8, r8
    2874:	98 2c       	mov	r9, r8
    2876:	54 01       	movw	r10, r8
    2878:	20 91 c5 20 	lds	r18, 0x20C5	; 0x8020c5 <c2>
    287c:	30 91 c6 20 	lds	r19, 0x20C6	; 0x8020c6 <c2+0x1>
    2880:	a9 01       	movw	r20, r18
    2882:	35 2f       	mov	r19, r21
    2884:	40 e0       	ldi	r20, 0x00	; 0
    2886:	50 e0       	ldi	r21, 0x00	; 0
    2888:	60 e0       	ldi	r22, 0x00	; 0
    288a:	70 e0       	ldi	r23, 0x00	; 0
    288c:	80 e0       	ldi	r24, 0x00	; 0
    288e:	90 e0       	ldi	r25, 0x00	; 0
    2890:	01 e1       	ldi	r16, 0x11	; 17
    2892:	0e 94 e8 1f 	call	0x3fd0	; 0x3fd0 <__ashldi3>
    2896:	22 2e       	mov	r2, r18
    2898:	33 2e       	mov	r3, r19
    289a:	49 83       	std	Y+1, r20	; 0x01
    289c:	5d 83       	std	Y+5, r21	; 0x05
    289e:	b6 2f       	mov	r27, r22
    28a0:	a7 2f       	mov	r26, r23
    28a2:	08 2f       	mov	r16, r24
    28a4:	19 2f       	mov	r17, r25
    28a6:	2c 2d       	mov	r18, r12
    28a8:	3d 2d       	mov	r19, r13
    28aa:	4e 2d       	mov	r20, r14
    28ac:	5f 2d       	mov	r21, r15
    28ae:	68 2d       	mov	r22, r8
    28b0:	78 2d       	mov	r23, r8
    28b2:	88 2d       	mov	r24, r8
    28b4:	98 2d       	mov	r25, r8
    28b6:	a2 2c       	mov	r10, r2
    28b8:	b3 2c       	mov	r11, r3
    28ba:	c9 80       	ldd	r12, Y+1	; 0x01
    28bc:	dd 80       	ldd	r13, Y+5	; 0x05
    28be:	eb 2e       	mov	r14, r27
    28c0:	fa 2e       	mov	r15, r26
    28c2:	0e 94 1f 20 	call	0x403e	; 0x403e <__adddi3>
    28c6:	a2 2e       	mov	r10, r18
    28c8:	b3 2e       	mov	r11, r19
    28ca:	c4 2e       	mov	r12, r20
    28cc:	d5 2e       	mov	r13, r21
    28ce:	e6 2e       	mov	r14, r22
    28d0:	f7 2e       	mov	r15, r23
    28d2:	08 2f       	mov	r16, r24
    28d4:	19 2f       	mov	r17, r25
    28d6:	25 2d       	mov	r18, r5
    28d8:	36 2d       	mov	r19, r6
    28da:	47 2d       	mov	r20, r7
    28dc:	59 89       	ldd	r21, Y+17	; 0x11
    28de:	69 85       	ldd	r22, Y+9	; 0x09
    28e0:	7f 2f       	mov	r23, r31
    28e2:	8e 2f       	mov	r24, r30
    28e4:	94 2d       	mov	r25, r4
    28e6:	0e 94 28 20 	call	0x4050	; 0x4050 <__subdi3>
    28ea:	12 2f       	mov	r17, r18
    28ec:	3d 83       	std	Y+5, r19	; 0x05
    28ee:	49 83       	std	Y+1, r20	; 0x01
    28f0:	b5 2f       	mov	r27, r21
    28f2:	f6 2f       	mov	r31, r22
    28f4:	e7 2f       	mov	r30, r23
    28f6:	78 2e       	mov	r7, r24
    28f8:	89 2e       	mov	r8, r25
    28fa:	a0 e0       	ldi	r26, 0x00	; 0
    28fc:	0e 94 31 20 	call	0x4062	; 0x4062 <__cmpdi2_s8>
    2900:	84 f4       	brge	.+32     	; 0x2922 <get_pressure+0x322>
    2902:	21 50       	subi	r18, 0x01	; 1
    2904:	30 48       	sbci	r19, 0x80	; 128
    2906:	4f 4f       	sbci	r20, 0xFF	; 255
    2908:	5f 4f       	sbci	r21, 0xFF	; 255
    290a:	6f 4f       	sbci	r22, 0xFF	; 255
    290c:	7f 4f       	sbci	r23, 0xFF	; 255
    290e:	8f 4f       	sbci	r24, 0xFF	; 255
    2910:	9f 4f       	sbci	r25, 0xFF	; 255
    2912:	12 2f       	mov	r17, r18
    2914:	3d 83       	std	Y+5, r19	; 0x05
    2916:	49 83       	std	Y+1, r20	; 0x01
    2918:	b5 2f       	mov	r27, r21
    291a:	f6 2f       	mov	r31, r22
    291c:	e7 2f       	mov	r30, r23
    291e:	78 2e       	mov	r7, r24
    2920:	89 2e       	mov	r8, r25
    2922:	21 2f       	mov	r18, r17
    2924:	3d 81       	ldd	r19, Y+5	; 0x05
    2926:	49 81       	ldd	r20, Y+1	; 0x01
    2928:	5b 2f       	mov	r21, r27
    292a:	6f 2f       	mov	r22, r31
    292c:	7e 2f       	mov	r23, r30
    292e:	87 2d       	mov	r24, r7
    2930:	98 2d       	mov	r25, r8
    2932:	0f e0       	ldi	r16, 0x0F	; 15
    2934:	0e 94 01 20 	call	0x4002	; 0x4002 <__ashrdi3>
    2938:	62 2f       	mov	r22, r18
    293a:	73 2f       	mov	r23, r19
    293c:	84 2f       	mov	r24, r20
}
    293e:	95 2f       	mov	r25, r21
    2940:	61 96       	adiw	r28, 0x11	; 17
    2942:	cd bf       	out	0x3d, r28	; 61
    2944:	de bf       	out	0x3e, r29	; 62
    2946:	df 91       	pop	r29
    2948:	cf 91       	pop	r28
    294a:	1f 91       	pop	r17
    294c:	0f 91       	pop	r16
    294e:	ff 90       	pop	r15
    2950:	ef 90       	pop	r14
    2952:	df 90       	pop	r13
    2954:	cf 90       	pop	r12
    2956:	bf 90       	pop	r11
    2958:	af 90       	pop	r10
    295a:	9f 90       	pop	r9
    295c:	8f 90       	pop	r8
    295e:	7f 90       	pop	r7
    2960:	6f 90       	pop	r6
    2962:	5f 90       	pop	r5
    2964:	4f 90       	pop	r4
    2966:	3f 90       	pop	r3
    2968:	2f 90       	pop	r2
    296a:	08 95       	ret

0000296c <adc_init>:
#include <asf.h>
#include <math.h>
#include "thermistor.h"


void adc_init(void){	//This is for PA6... mostly
    296c:	ff 92       	push	r15
    296e:	0f 93       	push	r16
    2970:	1f 93       	push	r17
    2972:	cf 93       	push	r28
    2974:	df 93       	push	r29
	PORTA.DIRCLR = 0b01000000;
    2976:	e0 e0       	ldi	r30, 0x00	; 0
    2978:	f6 e0       	ldi	r31, 0x06	; 6
    297a:	80 e4       	ldi	r24, 0x40	; 64
    297c:	82 83       	std	Z+2, r24	; 0x02
	PORTA.DIR = 0b10111111;
    297e:	8f eb       	ldi	r24, 0xBF	; 191
    2980:	80 83       	st	Z, r24
	ADCA.CTRLA = 0b00000001;
    2982:	c0 e0       	ldi	r28, 0x00	; 0
    2984:	d2 e0       	ldi	r29, 0x02	; 2
    2986:	ff 24       	eor	r15, r15
    2988:	f3 94       	inc	r15
    298a:	f8 82       	st	Y, r15
	ADCA.CTRLB = 0b00000000;
    298c:	19 82       	std	Y+1, r1	; 0x01
	ADCA.REFCTRL = 0b00010000;
    298e:	80 e1       	ldi	r24, 0x10	; 16
    2990:	8a 83       	std	Y+2, r24	; 0x02
	ADCA.PRESCALER = 0b00000101;
    2992:	85 e0       	ldi	r24, 0x05	; 5
    2994:	8c 83       	std	Y+4, r24	; 0x04
 *
 * \param address Byte offset into the signature row
 */
static inline uint8_t nvm_read_production_signature_row(uint8_t address)
{
	return nvm_read_byte(NVM_CMD_READ_CALIB_ROW_gc, address);
    2996:	61 e2       	ldi	r22, 0x21	; 33
    2998:	70 e0       	ldi	r23, 0x00	; 0
    299a:	82 e0       	ldi	r24, 0x02	; 2
    299c:	0e 94 fd 05 	call	0xbfa	; 0xbfa <nvm_read_byte>
	uint16_t data;

	switch (cal) {
#ifdef ADCA
	case ADC_CAL_ADCA:
		data = nvm_read_production_signature_row(ADCACAL1);
    29a0:	08 2f       	mov	r16, r24
    29a2:	10 e0       	ldi	r17, 0x00	; 0
		data <<= 8;
    29a4:	10 2f       	mov	r17, r16
    29a6:	00 27       	eor	r16, r16
    29a8:	60 e2       	ldi	r22, 0x20	; 32
    29aa:	70 e0       	ldi	r23, 0x00	; 0
    29ac:	82 e0       	ldi	r24, 0x02	; 2
    29ae:	0e 94 fd 05 	call	0xbfa	; 0xbfa <nvm_read_byte>
		data |= nvm_read_production_signature_row(ADCACAL0);
    29b2:	08 2b       	or	r16, r24
	ADCA.CAL = adc_get_calibration_data(ADC_CAL_ADCA);
    29b4:	0c 87       	std	Y+12, r16	; 0x0c
    29b6:	1d 87       	std	Y+13, r17	; 0x0d
	
	ADCA.CH0.CTRL = 0b00000001;
    29b8:	f8 a2       	std	Y+32, r15	; 0x20
	ADCA.CH0.MUXCTRL = 0b00000110;
    29ba:	86 e0       	ldi	r24, 0x06	; 6
    29bc:	89 a3       	std	Y+33, r24	; 0x21
}
    29be:	df 91       	pop	r29
    29c0:	cf 91       	pop	r28
    29c2:	1f 91       	pop	r17
    29c4:	0f 91       	pop	r16
    29c6:	ff 90       	pop	r15
    29c8:	08 95       	ret

000029ca <getVoltage>:


float getVoltage(void){
	ADCA.CH0.CTRL  |= 0b10000000;
    29ca:	e0 e0       	ldi	r30, 0x00	; 0
    29cc:	f2 e0       	ldi	r31, 0x02	; 2
    29ce:	80 a1       	ldd	r24, Z+32	; 0x20
    29d0:	80 68       	ori	r24, 0x80	; 128
    29d2:	80 a3       	std	Z+32, r24	; 0x20
	//printf("one");
	while(ADCA.CH0.INTFLAGS == 0);
    29d4:	83 a1       	ldd	r24, Z+35	; 0x23
    29d6:	88 23       	and	r24, r24
    29d8:	e9 f3       	breq	.-6      	; 0x29d4 <getVoltage+0xa>
	//printf("two");
	ADCA.CH0.INTFLAGS = 0;
    29da:	e0 e0       	ldi	r30, 0x00	; 0
    29dc:	f2 e0       	ldi	r31, 0x02	; 2
    29de:	13 a2       	std	Z+35, r1	; 0x23
	//printf("three");
	uint16_t adcReading = ADCA.CH0.RES;
    29e0:	64 a1       	ldd	r22, Z+36	; 0x24
    29e2:	75 a1       	ldd	r23, Z+37	; 0x25
	//printf("ADC reading = %u\n", adcReading);
	float voltage = 0.0004899 * (float)(adcReading) - 0.0856326;	//We have to find these numbers by applying differing voltage, printing ADC readings, and solve equation
	//printf("voltage: %f \n", voltage);
	return voltage;
    29e4:	80 e0       	ldi	r24, 0x00	; 0
    29e6:	90 e0       	ldi	r25, 0x00	; 0
    29e8:	78 d4       	rcall	.+2288   	; 0x32da <__floatunsisf>
    29ea:	22 ea       	ldi	r18, 0xA2	; 162
    29ec:	3c e6       	ldi	r19, 0x6C	; 108
    29ee:	40 e0       	ldi	r20, 0x00	; 0
    29f0:	5a e3       	ldi	r21, 0x3A	; 58
    29f2:	46 d5       	rcall	.+2700   	; 0x3480 <__mulsf3>
    29f4:	25 e2       	ldi	r18, 0x25	; 37
    29f6:	30 e6       	ldi	r19, 0x60	; 96
    29f8:	4f ea       	ldi	r20, 0xAF	; 175
    29fa:	5d e3       	ldi	r21, 0x3D	; 61
	
}
    29fc:	70 c3       	rjmp	.+1760   	; 0x30de <__subsf3>

000029fe <getTemperature>:
	uint16_t voltage = getVoltage();
	uint16_t current = (voltage/10000);
	return current;
}
*/
float getTemperature(void){
    29fe:	8f 92       	push	r8
    2a00:	9f 92       	push	r9
    2a02:	af 92       	push	r10
    2a04:	bf 92       	push	r11
    2a06:	cf 92       	push	r12
    2a08:	df 92       	push	r13
    2a0a:	ef 92       	push	r14
    2a0c:	ff 92       	push	r15
    2a0e:	0f 93       	push	r16
    2a10:	1f 93       	push	r17
    2a12:	cf 93       	push	r28
	float voltage = getVoltage();
    2a14:	df 93       	push	r29
    2a16:	d9 df       	rcall	.-78     	; 0x29ca <getVoltage>
    2a18:	6b 01       	movw	r12, r22
	//uint16_t current = getCurrent();
	//uint16_t resistance = voltage/current;
	float resistance = (voltage*10000)/(voltage-3.3);
    2a1a:	7c 01       	movw	r14, r24
    2a1c:	20 e0       	ldi	r18, 0x00	; 0
    2a1e:	30 e4       	ldi	r19, 0x40	; 64
    2a20:	4c e1       	ldi	r20, 0x1C	; 28
    2a22:	56 e4       	ldi	r21, 0x46	; 70
    2a24:	2d d5       	rcall	.+2650   	; 0x3480 <__mulsf3>
    2a26:	4b 01       	movw	r8, r22
    2a28:	5c 01       	movw	r10, r24
    2a2a:	23 e3       	ldi	r18, 0x33	; 51
    2a2c:	33 e3       	ldi	r19, 0x33	; 51
    2a2e:	43 e5       	ldi	r20, 0x53	; 83
    2a30:	50 e4       	ldi	r21, 0x40	; 64
    2a32:	c7 01       	movw	r24, r14
    2a34:	b6 01       	movw	r22, r12
    2a36:	53 d3       	rcall	.+1702   	; 0x30de <__subsf3>
    2a38:	9b 01       	movw	r18, r22
    2a3a:	ac 01       	movw	r20, r24
    2a3c:	c5 01       	movw	r24, r10
    2a3e:	b4 01       	movw	r22, r8
    2a40:	b3 d3       	rcall	.+1894   	; 0x31a8 <__divsf3>
    2a42:	06 2f       	mov	r16, r22
    2a44:	17 2f       	mov	r17, r23
    2a46:	d8 2f       	mov	r29, r24
	printf("resistance = %f \n", resistance);
    2a48:	c9 2f       	mov	r28, r25
    2a4a:	9f 93       	push	r25
    2a4c:	8f 93       	push	r24
    2a4e:	7f 93       	push	r23
    2a50:	6f 93       	push	r22
    2a52:	84 e1       	ldi	r24, 0x14	; 20
    2a54:	90 e2       	ldi	r25, 0x20	; 32
    2a56:	9f 93       	push	r25
    2a58:	8f 93       	push	r24
    2a5a:	0e 94 c0 21 	call	0x4380	; 0x4380 <printf>
	uint32_t temperature = 3977.0/(log(resistance/(10000.0*pow(2.71828,(-3977.0/298.15)))));
    2a5e:	2b e5       	ldi	r18, 0x5B	; 91
    2a60:	30 ef       	ldi	r19, 0xF0	; 240
    2a62:	43 e8       	ldi	r20, 0x83	; 131
    2a64:	5c e3       	ldi	r21, 0x3C	; 60
    2a66:	60 2f       	mov	r22, r16
    2a68:	71 2f       	mov	r23, r17
    2a6a:	8d 2f       	mov	r24, r29
    2a6c:	9c 2f       	mov	r25, r28
	//float temperature = pow((.003351016+.0002569850*log(resistance/10000)+.000002620131*pow(log(resistance/10000),2)),-1);
	return temperature;
    2a6e:	9c d3       	rcall	.+1848   	; 0x31a8 <__divsf3>
    2a70:	c7 d4       	rcall	.+2446   	; 0x3400 <log>
    2a72:	9b 01       	movw	r18, r22
    2a74:	ac 01       	movw	r20, r24
    2a76:	60 e0       	ldi	r22, 0x00	; 0
    2a78:	70 e9       	ldi	r23, 0x90	; 144
    2a7a:	88 e7       	ldi	r24, 0x78	; 120
    2a7c:	95 e4       	ldi	r25, 0x45	; 69
    2a7e:	94 d3       	rcall	.+1832   	; 0x31a8 <__divsf3>
    2a80:	00 d4       	rcall	.+2048   	; 0x3282 <__fixunssfsi>
    2a82:	2b d4       	rcall	.+2134   	; 0x32da <__floatunsisf>
    2a84:	0f 90       	pop	r0
    2a86:	0f 90       	pop	r0
    2a88:	0f 90       	pop	r0
    2a8a:	0f 90       	pop	r0
	
	
	
    2a8c:	0f 90       	pop	r0
    2a8e:	0f 90       	pop	r0
    2a90:	df 91       	pop	r29
    2a92:	cf 91       	pop	r28
    2a94:	1f 91       	pop	r17
    2a96:	0f 91       	pop	r16
    2a98:	ff 90       	pop	r15
    2a9a:	ef 90       	pop	r14
    2a9c:	df 90       	pop	r13
    2a9e:	cf 90       	pop	r12
    2aa0:	bf 90       	pop	r11
    2aa2:	af 90       	pop	r10
    2aa4:	9f 90       	pop	r9
    2aa6:	8f 90       	pop	r8
    2aa8:	08 95       	ret

00002aaa <usart_serial_getchar>:
		read_buffer[loc] = usart_getchar(usart_channel);
		loc++;
		
	}
	return read_buffer;
}
    2aaa:	cf 93       	push	r28
    2aac:	df 93       	push	r29
    2aae:	eb 01       	movw	r28, r22
    2ab0:	76 d9       	rcall	.-3348   	; 0x1d9e <usart_getchar>
    2ab2:	88 83       	st	Y, r24
    2ab4:	df 91       	pop	r29
    2ab6:	cf 91       	pop	r28
    2ab8:	08 95       	ret

00002aba <usart_serial_putchar>:
    2aba:	69 c9       	rjmp	.-3374   	; 0x1d8e <usart_putchar>
    2abc:	08 95       	ret

00002abe <usart_init>:
    2abe:	cf 93       	push	r28
    2ac0:	df 93       	push	r29
    2ac2:	cd b7       	in	r28, 0x3d	; 61
    2ac4:	de b7       	in	r29, 0x3e	; 62
    2ac6:	27 97       	sbiw	r28, 0x07	; 7
    2ac8:	cd bf       	out	0x3d, r28	; 61
    2aca:	de bf       	out	0x3e, r29	; 62
    2acc:	e0 e6       	ldi	r30, 0x60	; 96
    2ace:	f6 e0       	ldi	r31, 0x06	; 6
    2ad0:	88 e0       	ldi	r24, 0x08	; 8
    2ad2:	81 83       	std	Z+1, r24	; 0x01
    2ad4:	85 83       	std	Z+5, r24	; 0x05
    2ad6:	e0 e4       	ldi	r30, 0x40	; 64
    2ad8:	f6 e0       	ldi	r31, 0x06	; 6
    2ada:	81 83       	std	Z+1, r24	; 0x01
    2adc:	85 83       	std	Z+5, r24	; 0x05
    2ade:	80 ea       	ldi	r24, 0xA0	; 160
    2ae0:	99 e0       	ldi	r25, 0x09	; 9
    2ae2:	80 93 b7 20 	sts	0x20B7, r24	; 0x8020b7 <stdio_base>
    2ae6:	90 93 b8 20 	sts	0x20B8, r25	; 0x8020b8 <stdio_base+0x1>
    2aea:	8d e5       	ldi	r24, 0x5D	; 93
    2aec:	95 e1       	ldi	r25, 0x15	; 21
    2aee:	80 93 b5 20 	sts	0x20B5, r24	; 0x8020b5 <ptr_put>
    2af2:	90 93 b6 20 	sts	0x20B6, r25	; 0x8020b6 <ptr_put+0x1>
    2af6:	85 e5       	ldi	r24, 0x55	; 85
    2af8:	95 e1       	ldi	r25, 0x15	; 21
    2afa:	80 93 b3 20 	sts	0x20B3, r24	; 0x8020b3 <ptr_get>
    2afe:	90 93 b4 20 	sts	0x20B4, r25	; 0x8020b4 <ptr_get+0x1>
    2b02:	ed e0       	ldi	r30, 0x0D	; 13
    2b04:	f0 e2       	ldi	r31, 0x20	; 32
    2b06:	84 81       	ldd	r24, Z+4	; 0x04
    2b08:	8d 83       	std	Y+5, r24	; 0x05
    2b0a:	85 81       	ldd	r24, Z+5	; 0x05
    2b0c:	8e 83       	std	Y+6, r24	; 0x06
    2b0e:	86 81       	ldd	r24, Z+6	; 0x06
    2b10:	8f 83       	std	Y+7, r24	; 0x07
    2b12:	80 81       	ld	r24, Z
    2b14:	91 81       	ldd	r25, Z+1	; 0x01
    2b16:	a2 81       	ldd	r26, Z+2	; 0x02
    2b18:	b3 81       	ldd	r27, Z+3	; 0x03
    2b1a:	89 83       	std	Y+1, r24	; 0x01
    2b1c:	9a 83       	std	Y+2, r25	; 0x02
    2b1e:	ab 83       	std	Y+3, r26	; 0x03
    2b20:	bc 83       	std	Y+4, r27	; 0x04
    2b22:	60 e1       	ldi	r22, 0x10	; 16
    2b24:	84 e0       	ldi	r24, 0x04	; 4
    2b26:	0e 94 ce 03 	call	0x79c	; 0x79c <sysclk_enable_module>
    2b2a:	be 01       	movw	r22, r28
    2b2c:	6f 5f       	subi	r22, 0xFF	; 255
    2b2e:	7f 4f       	sbci	r23, 0xFF	; 255
    2b30:	80 ea       	ldi	r24, 0xA0	; 160
    2b32:	99 e0       	ldi	r25, 0x09	; 9
    2b34:	4d da       	rcall	.-2918   	; 0x1fd0 <usart_init_rs232>
    2b36:	64 ee       	ldi	r22, 0xE4	; 228
    2b38:	73 e0       	ldi	r23, 0x03	; 3
    2b3a:	8d ef       	ldi	r24, 0xFD	; 253
    2b3c:	93 e0       	ldi	r25, 0x03	; 3
    2b3e:	0e 94 3a 21 	call	0x4274	; 0x4274 <fdevopen>
    2b42:	e6 e0       	ldi	r30, 0x06	; 6
    2b44:	f0 e2       	ldi	r31, 0x20	; 32
    2b46:	84 81       	ldd	r24, Z+4	; 0x04
    2b48:	8d 83       	std	Y+5, r24	; 0x05
    2b4a:	85 81       	ldd	r24, Z+5	; 0x05
    2b4c:	8e 83       	std	Y+6, r24	; 0x06
    2b4e:	86 81       	ldd	r24, Z+6	; 0x06
    2b50:	8f 83       	std	Y+7, r24	; 0x07
    2b52:	80 81       	ld	r24, Z
    2b54:	91 81       	ldd	r25, Z+1	; 0x01
    2b56:	a2 81       	ldd	r26, Z+2	; 0x02
    2b58:	b3 81       	ldd	r27, Z+3	; 0x03
    2b5a:	89 83       	std	Y+1, r24	; 0x01
    2b5c:	9a 83       	std	Y+2, r25	; 0x02
    2b5e:	ab 83       	std	Y+3, r26	; 0x03
    2b60:	bc 83       	std	Y+4, r27	; 0x04
    2b62:	60 e1       	ldi	r22, 0x10	; 16
    2b64:	83 e0       	ldi	r24, 0x03	; 3
    2b66:	0e 94 ce 03 	call	0x79c	; 0x79c <sysclk_enable_module>
    2b6a:	be 01       	movw	r22, r28
    2b6c:	6f 5f       	subi	r22, 0xFF	; 255
    2b6e:	7f 4f       	sbci	r23, 0xFF	; 255
    2b70:	80 ea       	ldi	r24, 0xA0	; 160
    2b72:	98 e0       	ldi	r25, 0x08	; 8
    2b74:	2d da       	rcall	.-2982   	; 0x1fd0 <usart_init_rs232>
    2b76:	27 96       	adiw	r28, 0x07	; 7
    2b78:	cd bf       	out	0x3d, r28	; 61
    2b7a:	de bf       	out	0x3e, r29	; 62
    2b7c:	df 91       	pop	r29
    2b7e:	cf 91       	pop	r28
    2b80:	08 95       	ret

00002b82 <__vector_88>:
	
ISR(USARTD0_RXC_vect){
    2b82:	1f 92       	push	r1
    2b84:	0f 92       	push	r0
    2b86:	0f b6       	in	r0, 0x3f	; 63
    2b88:	0f 92       	push	r0
    2b8a:	11 24       	eor	r1, r1
    2b8c:	08 b6       	in	r0, 0x38	; 56
    2b8e:	0f 92       	push	r0
    2b90:	18 be       	out	0x38, r1	; 56
    2b92:	09 b6       	in	r0, 0x39	; 57
    2b94:	0f 92       	push	r0
    2b96:	19 be       	out	0x39, r1	; 57
    2b98:	0b b6       	in	r0, 0x3b	; 59
    2b9a:	0f 92       	push	r0
    2b9c:	1b be       	out	0x3b, r1	; 59
    2b9e:	2f 93       	push	r18
    2ba0:	3f 93       	push	r19
    2ba2:	4f 93       	push	r20
    2ba4:	5f 93       	push	r21
    2ba6:	6f 93       	push	r22
    2ba8:	7f 93       	push	r23
    2baa:	8f 93       	push	r24
    2bac:	9f 93       	push	r25
    2bae:	af 93       	push	r26
    2bb0:	bf 93       	push	r27
    2bb2:	ef 93       	push	r30
    2bb4:	ff 93       	push	r31
	//If we send reset things to the board
	xbee_rx_temporary = usart_getchar(&USARTD0);
    2bb6:	80 ea       	ldi	r24, 0xA0	; 160
    2bb8:	99 e0       	ldi	r25, 0x09	; 9
    2bba:	f1 d8       	rcall	.-3614   	; 0x1d9e <usart_getchar>
    2bbc:	80 93 cd 20 	sts	0x20CD, r24	; 0x8020cd <xbee_rx_temporary>
	
	switch(xbee_rx_temporary){
    2bc0:	e0 91 cd 20 	lds	r30, 0x20CD	; 0x8020cd <xbee_rx_temporary>
    2bc4:	8e 2f       	mov	r24, r30
    2bc6:	ee 0f       	add	r30, r30
    2bc8:	99 0b       	sbc	r25, r25
    2bca:	aa 0b       	sbc	r26, r26
    2bcc:	bb 0b       	sbc	r27, r27
    2bce:	fc 01       	movw	r30, r24
    2bd0:	b1 97       	sbiw	r30, 0x21	; 33
    2bd2:	ef 33       	cpi	r30, 0x3F	; 63
    2bd4:	f1 05       	cpc	r31, r1
    2bd6:	a0 f4       	brcc	.+40     	; 0x2c00 <__vector_88+0x7e>
    2bd8:	88 27       	eor	r24, r24
    2bda:	e2 50       	subi	r30, 0x02	; 2
    2bdc:	ff 4f       	sbci	r31, 0xFF	; 255
    2bde:	8f 4f       	sbci	r24, 0xFF	; 255
    2be0:	0c 94 84 1f 	jmp	0x3f08	; 0x3f08 <__tablejump2__>
		case '!':						//reset MCU 
			wdt_reset_mcu();
    2be4:	0e 94 85 03 	call	0x70a	; 0x70a <wdt_reset_mcu>
			break;
		case '&':						//deploy parachute
			parachute_hotwire();
			break;
		case '*':						//detatching heatshield
			heatshield_detatch_hotwire();
    2be8:	0b c0       	rjmp	.+22     	; 0x2c00 <__vector_88+0x7e>
			break;
		case '(':						//buzzer on
			buzzer_on();
    2bea:	ea db       	rcall	.-2092   	; 0x23c0 <heatshield_hotwire>
			break;
    2bec:	09 c0       	rjmp	.+18     	; 0x2c00 <__vector_88+0x7e>
		case ')':						//buzzer off
			buzzer_off();
    2bee:	fd db       	rcall	.-2054   	; 0x23ea <parachute_hotwire>
    2bf0:	07 c0       	rjmp	.+14     	; 0x2c00 <__vector_88+0x7e>
			break;
    2bf2:	10 dc       	rcall	.-2016   	; 0x2414 <heatshield_detatch_hotwire>
		case '_':						//camera on
			camera_on();
    2bf4:	05 c0       	rjmp	.+10     	; 0x2c00 <__vector_88+0x7e>
    2bf6:	23 dc       	rcall	.-1978   	; 0x243e <buzzer_on>
			break;
	}
	
}
    2bf8:	03 c0       	rjmp	.+6      	; 0x2c00 <__vector_88+0x7e>
    2bfa:	2a dc       	rcall	.-1964   	; 0x2450 <buzzer_off>
    2bfc:	01 c0       	rjmp	.+2      	; 0x2c00 <__vector_88+0x7e>
    2bfe:	31 dc       	rcall	.-1950   	; 0x2462 <camera_on>
    2c00:	ff 91       	pop	r31
    2c02:	ef 91       	pop	r30
    2c04:	bf 91       	pop	r27
    2c06:	af 91       	pop	r26
    2c08:	9f 91       	pop	r25
    2c0a:	8f 91       	pop	r24
    2c0c:	7f 91       	pop	r23
    2c0e:	6f 91       	pop	r22
    2c10:	5f 91       	pop	r21
    2c12:	4f 91       	pop	r20
    2c14:	3f 91       	pop	r19
    2c16:	2f 91       	pop	r18
    2c18:	0f 90       	pop	r0
    2c1a:	0b be       	out	0x3b, r0	; 59
    2c1c:	0f 90       	pop	r0
    2c1e:	09 be       	out	0x39, r0	; 57
    2c20:	0f 90       	pop	r0
    2c22:	08 be       	out	0x38, r0	; 56
    2c24:	0f 90       	pop	r0
 * \param c       Character to write.
 *
 * \return Status code
 */
static inline enum status_code usart_serial_putchar(usart_if usart, uint8_t c)
{
    2c26:	0f be       	out	0x3f, r0	; 63
    2c28:	0f 90       	pop	r0
    2c2a:	1f 90       	pop	r1
    2c2c:	18 95       	reti

00002c2e <__portable_avr_delay_cycles>:
 *
 * @{
 */
__always_optimize
static inline void __portable_avr_delay_cycles(unsigned long n)
{
    2c2e:	04 c0       	rjmp	.+8      	; 0x2c38 <__portable_avr_delay_cycles+0xa>
	while (n) {
		barrier();
		n--;
    2c30:	61 50       	subi	r22, 0x01	; 1
    2c32:	71 09       	sbc	r23, r1
    2c34:	81 09       	sbc	r24, r1
    2c36:	91 09       	sbc	r25, r1
 * @{
 */
__always_optimize
static inline void __portable_avr_delay_cycles(unsigned long n)
{
	while (n) {
    2c38:	61 15       	cp	r22, r1
    2c3a:	71 05       	cpc	r23, r1
    2c3c:	81 05       	cpc	r24, r1
    2c3e:	91 05       	cpc	r25, r1
    2c40:	b9 f7       	brne	.-18     	; 0x2c30 <__portable_avr_delay_cycles+0x2>
    2c42:	08 95       	ret

00002c44 <sysclk_enable_peripheral_clock>:
 *
 * \param module Pointer to the module's base address.
 */
static inline void sysclk_enable_peripheral_clock(const volatile void *module)
{
	if (module == NULL) {
    2c44:	00 97       	sbiw	r24, 0x00	; 0
    2c46:	09 f4       	brne	.+2      	; 0x2c4a <sysclk_enable_peripheral_clock+0x6>
    2c48:	5c c1       	rjmp	.+696    	; 0x2f02 <sysclk_enable_peripheral_clock+0x2be>
		Assert(false);
	}
#ifdef AES
	else if (module == &AES) {
    2c4a:	80 3c       	cpi	r24, 0xC0	; 192
    2c4c:	91 05       	cpc	r25, r1
    2c4e:	29 f4       	brne	.+10     	; 0x2c5a <sysclk_enable_peripheral_clock+0x16>
		sysclk_enable_module(SYSCLK_PORT_GEN, SYSCLK_AES);
    2c50:	60 e1       	ldi	r22, 0x10	; 16
    2c52:	80 e0       	ldi	r24, 0x00	; 0
    2c54:	0c 94 ce 03 	jmp	0x79c	; 0x79c <sysclk_enable_module>
    2c58:	08 95       	ret
	}
#endif
#ifdef EBI
	else if (module == &EBI) {
    2c5a:	80 34       	cpi	r24, 0x40	; 64
    2c5c:	24 e0       	ldi	r18, 0x04	; 4
    2c5e:	92 07       	cpc	r25, r18
    2c60:	29 f4       	brne	.+10     	; 0x2c6c <sysclk_enable_peripheral_clock+0x28>
		sysclk_enable_module(SYSCLK_PORT_GEN, SYSCLK_EBI);
    2c62:	68 e0       	ldi	r22, 0x08	; 8
    2c64:	80 e0       	ldi	r24, 0x00	; 0
    2c66:	0c 94 ce 03 	jmp	0x79c	; 0x79c <sysclk_enable_module>
    2c6a:	08 95       	ret
	}
#endif
#ifdef RTC
	else if (module == &RTC) {
    2c6c:	81 15       	cp	r24, r1
    2c6e:	24 e0       	ldi	r18, 0x04	; 4
    2c70:	92 07       	cpc	r25, r18
    2c72:	29 f4       	brne	.+10     	; 0x2c7e <sysclk_enable_peripheral_clock+0x3a>
		sysclk_enable_module(SYSCLK_PORT_GEN, SYSCLK_RTC);
    2c74:	64 e0       	ldi	r22, 0x04	; 4
    2c76:	80 e0       	ldi	r24, 0x00	; 0
    2c78:	0c 94 ce 03 	jmp	0x79c	; 0x79c <sysclk_enable_module>
    2c7c:	08 95       	ret
	}
#endif
#ifdef EVSYS
	else if (module == &EVSYS) {
    2c7e:	80 38       	cpi	r24, 0x80	; 128
    2c80:	21 e0       	ldi	r18, 0x01	; 1
    2c82:	92 07       	cpc	r25, r18
    2c84:	29 f4       	brne	.+10     	; 0x2c90 <sysclk_enable_peripheral_clock+0x4c>
		sysclk_enable_module(SYSCLK_PORT_GEN, SYSCLK_EVSYS);
    2c86:	62 e0       	ldi	r22, 0x02	; 2
    2c88:	80 e0       	ldi	r24, 0x00	; 0
    2c8a:	0c 94 ce 03 	jmp	0x79c	; 0x79c <sysclk_enable_module>
    2c8e:	08 95       	ret
	}
#endif
#ifdef DMA
	else if (module == &DMA) {
    2c90:	81 15       	cp	r24, r1
    2c92:	21 e0       	ldi	r18, 0x01	; 1
    2c94:	92 07       	cpc	r25, r18
    2c96:	29 f4       	brne	.+10     	; 0x2ca2 <sysclk_enable_peripheral_clock+0x5e>
		sysclk_enable_module(SYSCLK_PORT_GEN, SYSCLK_DMA);
    2c98:	61 e0       	ldi	r22, 0x01	; 1
    2c9a:	80 e0       	ldi	r24, 0x00	; 0
    2c9c:	0c 94 ce 03 	jmp	0x79c	; 0x79c <sysclk_enable_module>
    2ca0:	08 95       	ret
	else if (module == &EDMA) {
		sysclk_enable_module(SYSCLK_PORT_GEN, SYSCLK_EDMA);
	}
#endif
#ifdef ACA
	else if (module == &ACA) {
    2ca2:	80 38       	cpi	r24, 0x80	; 128
    2ca4:	23 e0       	ldi	r18, 0x03	; 3
    2ca6:	92 07       	cpc	r25, r18
    2ca8:	29 f4       	brne	.+10     	; 0x2cb4 <sysclk_enable_peripheral_clock+0x70>
		sysclk_enable_module(SYSCLK_PORT_A, SYSCLK_AC);
    2caa:	61 e0       	ldi	r22, 0x01	; 1
    2cac:	81 e0       	ldi	r24, 0x01	; 1
    2cae:	0c 94 ce 03 	jmp	0x79c	; 0x79c <sysclk_enable_module>
    2cb2:	08 95       	ret
	}
#endif
#ifdef ACB
	else if (module == &ACB) {
    2cb4:	80 39       	cpi	r24, 0x90	; 144
    2cb6:	23 e0       	ldi	r18, 0x03	; 3
    2cb8:	92 07       	cpc	r25, r18
    2cba:	29 f4       	brne	.+10     	; 0x2cc6 <sysclk_enable_peripheral_clock+0x82>
		sysclk_enable_module(SYSCLK_PORT_B, SYSCLK_AC);
    2cbc:	61 e0       	ldi	r22, 0x01	; 1
    2cbe:	82 e0       	ldi	r24, 0x02	; 2
    2cc0:	0c 94 ce 03 	jmp	0x79c	; 0x79c <sysclk_enable_module>
    2cc4:	08 95       	ret
	}
#endif
#ifdef ADCA
	else if (module == &ADCA) {
    2cc6:	81 15       	cp	r24, r1
    2cc8:	22 e0       	ldi	r18, 0x02	; 2
    2cca:	92 07       	cpc	r25, r18
    2ccc:	29 f4       	brne	.+10     	; 0x2cd8 <sysclk_enable_peripheral_clock+0x94>
		sysclk_enable_module(SYSCLK_PORT_A, SYSCLK_ADC);
    2cce:	62 e0       	ldi	r22, 0x02	; 2
    2cd0:	81 e0       	ldi	r24, 0x01	; 1
    2cd2:	0c 94 ce 03 	jmp	0x79c	; 0x79c <sysclk_enable_module>
    2cd6:	08 95       	ret
	}
#endif
#ifdef ADCB
	else if (module == &ADCB) {
    2cd8:	80 34       	cpi	r24, 0x40	; 64
    2cda:	22 e0       	ldi	r18, 0x02	; 2
    2cdc:	92 07       	cpc	r25, r18
    2cde:	29 f4       	brne	.+10     	; 0x2cea <sysclk_enable_peripheral_clock+0xa6>
		sysclk_enable_module(SYSCLK_PORT_B, SYSCLK_ADC);
    2ce0:	62 e0       	ldi	r22, 0x02	; 2
    2ce2:	82 e0       	ldi	r24, 0x02	; 2
    2ce4:	0c 94 ce 03 	jmp	0x79c	; 0x79c <sysclk_enable_module>
    2ce8:	08 95       	ret
	}
#endif
#ifdef DACA
	else if (module == &DACA) {
    2cea:	81 15       	cp	r24, r1
    2cec:	23 e0       	ldi	r18, 0x03	; 3
    2cee:	92 07       	cpc	r25, r18
    2cf0:	29 f4       	brne	.+10     	; 0x2cfc <sysclk_enable_peripheral_clock+0xb8>
		sysclk_enable_module(SYSCLK_PORT_A, SYSCLK_DAC);
    2cf2:	64 e0       	ldi	r22, 0x04	; 4
    2cf4:	81 e0       	ldi	r24, 0x01	; 1
    2cf6:	0c 94 ce 03 	jmp	0x79c	; 0x79c <sysclk_enable_module>
    2cfa:	08 95       	ret
	}
#endif
// Workaround for bad XMEGA D header file
#if !XMEGA_D
#ifdef DACB
	else if (module == &DACB) {
    2cfc:	80 32       	cpi	r24, 0x20	; 32
    2cfe:	23 e0       	ldi	r18, 0x03	; 3
    2d00:	92 07       	cpc	r25, r18
    2d02:	29 f4       	brne	.+10     	; 0x2d0e <sysclk_enable_peripheral_clock+0xca>
		sysclk_enable_module(SYSCLK_PORT_B, SYSCLK_DAC);
    2d04:	64 e0       	ldi	r22, 0x04	; 4
    2d06:	82 e0       	ldi	r24, 0x02	; 2
    2d08:	0c 94 ce 03 	jmp	0x79c	; 0x79c <sysclk_enable_module>
    2d0c:	08 95       	ret
	}
#endif
#endif // Workaround end
#ifdef TCC0
	else if (module == &TCC0) {
    2d0e:	81 15       	cp	r24, r1
    2d10:	28 e0       	ldi	r18, 0x08	; 8
    2d12:	92 07       	cpc	r25, r18
    2d14:	29 f4       	brne	.+10     	; 0x2d20 <sysclk_enable_peripheral_clock+0xdc>
		sysclk_enable_module(SYSCLK_PORT_C, SYSCLK_TC0);
    2d16:	61 e0       	ldi	r22, 0x01	; 1
    2d18:	83 e0       	ldi	r24, 0x03	; 3
    2d1a:	0c 94 ce 03 	jmp	0x79c	; 0x79c <sysclk_enable_module>
    2d1e:	08 95       	ret
	}
#endif
#ifdef TCD0
	else if (module == &TCD0) {
    2d20:	81 15       	cp	r24, r1
    2d22:	29 e0       	ldi	r18, 0x09	; 9
    2d24:	92 07       	cpc	r25, r18
    2d26:	29 f4       	brne	.+10     	; 0x2d32 <sysclk_enable_peripheral_clock+0xee>
		sysclk_enable_module(SYSCLK_PORT_D, SYSCLK_TC0);
    2d28:	61 e0       	ldi	r22, 0x01	; 1
    2d2a:	84 e0       	ldi	r24, 0x04	; 4
    2d2c:	0c 94 ce 03 	jmp	0x79c	; 0x79c <sysclk_enable_module>
    2d30:	08 95       	ret
	}
#endif
#ifdef TCE0
	else if (module == &TCE0) {
    2d32:	81 15       	cp	r24, r1
    2d34:	2a e0       	ldi	r18, 0x0A	; 10
    2d36:	92 07       	cpc	r25, r18
    2d38:	29 f4       	brne	.+10     	; 0x2d44 <sysclk_enable_peripheral_clock+0x100>
		sysclk_enable_module(SYSCLK_PORT_E, SYSCLK_TC0);
    2d3a:	61 e0       	ldi	r22, 0x01	; 1
    2d3c:	85 e0       	ldi	r24, 0x05	; 5
    2d3e:	0c 94 ce 03 	jmp	0x79c	; 0x79c <sysclk_enable_module>
    2d42:	08 95       	ret
	}
#endif
#ifdef TCF0
	else if (module == &TCF0) {
    2d44:	81 15       	cp	r24, r1
    2d46:	2b e0       	ldi	r18, 0x0B	; 11
    2d48:	92 07       	cpc	r25, r18
    2d4a:	29 f4       	brne	.+10     	; 0x2d56 <sysclk_enable_peripheral_clock+0x112>
		sysclk_enable_module(SYSCLK_PORT_F, SYSCLK_TC0);
    2d4c:	61 e0       	ldi	r22, 0x01	; 1
    2d4e:	86 e0       	ldi	r24, 0x06	; 6
    2d50:	0c 94 ce 03 	jmp	0x79c	; 0x79c <sysclk_enable_module>
    2d54:	08 95       	ret
	}
#endif
#ifdef TCC1
	else if (module == &TCC1) {
    2d56:	80 34       	cpi	r24, 0x40	; 64
    2d58:	28 e0       	ldi	r18, 0x08	; 8
    2d5a:	92 07       	cpc	r25, r18
    2d5c:	29 f4       	brne	.+10     	; 0x2d68 <sysclk_enable_peripheral_clock+0x124>
		sysclk_enable_module(SYSCLK_PORT_C, SYSCLK_TC1);
    2d5e:	62 e0       	ldi	r22, 0x02	; 2
    2d60:	83 e0       	ldi	r24, 0x03	; 3
    2d62:	0c 94 ce 03 	jmp	0x79c	; 0x79c <sysclk_enable_module>
    2d66:	08 95       	ret
	}
#endif
#ifdef TCD1
	else if (module == &TCD1) {
    2d68:	80 34       	cpi	r24, 0x40	; 64
    2d6a:	29 e0       	ldi	r18, 0x09	; 9
    2d6c:	92 07       	cpc	r25, r18
    2d6e:	29 f4       	brne	.+10     	; 0x2d7a <sysclk_enable_peripheral_clock+0x136>
		sysclk_enable_module(SYSCLK_PORT_D, SYSCLK_TC1);
    2d70:	62 e0       	ldi	r22, 0x02	; 2
    2d72:	84 e0       	ldi	r24, 0x04	; 4
    2d74:	0c 94 ce 03 	jmp	0x79c	; 0x79c <sysclk_enable_module>
    2d78:	08 95       	ret
	}
#endif
#ifdef TCE1
	else if (module == &TCE1) {
    2d7a:	80 34       	cpi	r24, 0x40	; 64
    2d7c:	2a e0       	ldi	r18, 0x0A	; 10
    2d7e:	92 07       	cpc	r25, r18
    2d80:	29 f4       	brne	.+10     	; 0x2d8c <sysclk_enable_peripheral_clock+0x148>
		sysclk_enable_module(SYSCLK_PORT_E, SYSCLK_TC1);
    2d82:	62 e0       	ldi	r22, 0x02	; 2
    2d84:	85 e0       	ldi	r24, 0x05	; 5
    2d86:	0c 94 ce 03 	jmp	0x79c	; 0x79c <sysclk_enable_module>
    2d8a:	08 95       	ret
	}
#endif
#ifdef TCF1
	else if (module == &TCF1) {
    2d8c:	80 34       	cpi	r24, 0x40	; 64
    2d8e:	2b e0       	ldi	r18, 0x0B	; 11
    2d90:	92 07       	cpc	r25, r18
    2d92:	29 f4       	brne	.+10     	; 0x2d9e <sysclk_enable_peripheral_clock+0x15a>
		sysclk_enable_module(SYSCLK_PORT_F, SYSCLK_TC1);
    2d94:	62 e0       	ldi	r22, 0x02	; 2
    2d96:	86 e0       	ldi	r24, 0x06	; 6
    2d98:	0c 94 ce 03 	jmp	0x79c	; 0x79c <sysclk_enable_module>
    2d9c:	08 95       	ret
	else if (module == &TCD5) {
		sysclk_enable_module(SYSCLK_PORT_D, SYSCLK_TC5);
	}
#endif
#ifdef HIRESC
	else if (module == &HIRESC) {
    2d9e:	80 39       	cpi	r24, 0x90	; 144
    2da0:	28 e0       	ldi	r18, 0x08	; 8
    2da2:	92 07       	cpc	r25, r18
    2da4:	29 f4       	brne	.+10     	; 0x2db0 <sysclk_enable_peripheral_clock+0x16c>
			sysclk_enable_module(SYSCLK_PORT_C, SYSCLK_HIRES);
    2da6:	64 e0       	ldi	r22, 0x04	; 4
    2da8:	83 e0       	ldi	r24, 0x03	; 3
    2daa:	0c 94 ce 03 	jmp	0x79c	; 0x79c <sysclk_enable_module>
    2dae:	08 95       	ret
	}
#endif
#ifdef HIRESD
	else if (module == &HIRESD) {
    2db0:	80 39       	cpi	r24, 0x90	; 144
    2db2:	29 e0       	ldi	r18, 0x09	; 9
    2db4:	92 07       	cpc	r25, r18
    2db6:	29 f4       	brne	.+10     	; 0x2dc2 <sysclk_enable_peripheral_clock+0x17e>
		sysclk_enable_module(SYSCLK_PORT_D, SYSCLK_HIRES);
    2db8:	64 e0       	ldi	r22, 0x04	; 4
    2dba:	84 e0       	ldi	r24, 0x04	; 4
    2dbc:	0c 94 ce 03 	jmp	0x79c	; 0x79c <sysclk_enable_module>
    2dc0:	08 95       	ret
	}
#endif
#ifdef HIRESE
	else if (module == &HIRESE) {
    2dc2:	80 39       	cpi	r24, 0x90	; 144
    2dc4:	2a e0       	ldi	r18, 0x0A	; 10
    2dc6:	92 07       	cpc	r25, r18
    2dc8:	29 f4       	brne	.+10     	; 0x2dd4 <sysclk_enable_peripheral_clock+0x190>
		sysclk_enable_module(SYSCLK_PORT_E, SYSCLK_HIRES);
    2dca:	64 e0       	ldi	r22, 0x04	; 4
    2dcc:	85 e0       	ldi	r24, 0x05	; 5
    2dce:	0c 94 ce 03 	jmp	0x79c	; 0x79c <sysclk_enable_module>
    2dd2:	08 95       	ret
	}
#endif
#ifdef HIRESF
	else if (module == &HIRESF) {
    2dd4:	80 39       	cpi	r24, 0x90	; 144
    2dd6:	2b e0       	ldi	r18, 0x0B	; 11
    2dd8:	92 07       	cpc	r25, r18
    2dda:	29 f4       	brne	.+10     	; 0x2de6 <sysclk_enable_peripheral_clock+0x1a2>
		sysclk_enable_module(SYSCLK_PORT_F, SYSCLK_HIRES);
    2ddc:	64 e0       	ldi	r22, 0x04	; 4
    2dde:	86 e0       	ldi	r24, 0x06	; 6
    2de0:	0c 94 ce 03 	jmp	0x79c	; 0x79c <sysclk_enable_module>
    2de4:	08 95       	ret
	}
#endif
#ifdef SPIC
	else if (module == &SPIC) {
    2de6:	80 3c       	cpi	r24, 0xC0	; 192
    2de8:	28 e0       	ldi	r18, 0x08	; 8
    2dea:	92 07       	cpc	r25, r18
    2dec:	29 f4       	brne	.+10     	; 0x2df8 <sysclk_enable_peripheral_clock+0x1b4>
		sysclk_enable_module(SYSCLK_PORT_C, SYSCLK_SPI);
    2dee:	68 e0       	ldi	r22, 0x08	; 8
    2df0:	83 e0       	ldi	r24, 0x03	; 3
    2df2:	0c 94 ce 03 	jmp	0x79c	; 0x79c <sysclk_enable_module>
    2df6:	08 95       	ret
	}
#endif
#ifdef SPID
	else if (module == &SPID) {
    2df8:	80 3c       	cpi	r24, 0xC0	; 192
    2dfa:	29 e0       	ldi	r18, 0x09	; 9
    2dfc:	92 07       	cpc	r25, r18
    2dfe:	29 f4       	brne	.+10     	; 0x2e0a <sysclk_enable_peripheral_clock+0x1c6>
		sysclk_enable_module(SYSCLK_PORT_D, SYSCLK_SPI);
    2e00:	68 e0       	ldi	r22, 0x08	; 8
    2e02:	84 e0       	ldi	r24, 0x04	; 4
    2e04:	0c 94 ce 03 	jmp	0x79c	; 0x79c <sysclk_enable_module>
    2e08:	08 95       	ret
	}
#endif
#ifdef SPIE
	else if (module == &SPIE) {
    2e0a:	80 3c       	cpi	r24, 0xC0	; 192
    2e0c:	2a e0       	ldi	r18, 0x0A	; 10
    2e0e:	92 07       	cpc	r25, r18
    2e10:	29 f4       	brne	.+10     	; 0x2e1c <sysclk_enable_peripheral_clock+0x1d8>
		sysclk_enable_module(SYSCLK_PORT_E, SYSCLK_SPI);
    2e12:	68 e0       	ldi	r22, 0x08	; 8
    2e14:	85 e0       	ldi	r24, 0x05	; 5
    2e16:	0c 94 ce 03 	jmp	0x79c	; 0x79c <sysclk_enable_module>
    2e1a:	08 95       	ret
	}
#endif
#ifdef SPIF
	else if (module == &SPIF) {
    2e1c:	80 3c       	cpi	r24, 0xC0	; 192
    2e1e:	2b e0       	ldi	r18, 0x0B	; 11
    2e20:	92 07       	cpc	r25, r18
    2e22:	29 f4       	brne	.+10     	; 0x2e2e <sysclk_enable_peripheral_clock+0x1ea>
		sysclk_enable_module(SYSCLK_PORT_F, SYSCLK_SPI);
    2e24:	68 e0       	ldi	r22, 0x08	; 8
    2e26:	86 e0       	ldi	r24, 0x06	; 6
    2e28:	0c 94 ce 03 	jmp	0x79c	; 0x79c <sysclk_enable_module>
    2e2c:	08 95       	ret
	}
#endif
#ifdef USARTC0
	else if (module == &USARTC0) {
    2e2e:	80 3a       	cpi	r24, 0xA0	; 160
    2e30:	28 e0       	ldi	r18, 0x08	; 8
    2e32:	92 07       	cpc	r25, r18
    2e34:	29 f4       	brne	.+10     	; 0x2e40 <sysclk_enable_peripheral_clock+0x1fc>
		sysclk_enable_module(SYSCLK_PORT_C, SYSCLK_USART0);
    2e36:	60 e1       	ldi	r22, 0x10	; 16
    2e38:	83 e0       	ldi	r24, 0x03	; 3
    2e3a:	0c 94 ce 03 	jmp	0x79c	; 0x79c <sysclk_enable_module>
    2e3e:	08 95       	ret
	}
#endif
#ifdef USARTD0
	else if (module == &USARTD0) {
    2e40:	80 3a       	cpi	r24, 0xA0	; 160
    2e42:	29 e0       	ldi	r18, 0x09	; 9
    2e44:	92 07       	cpc	r25, r18
    2e46:	29 f4       	brne	.+10     	; 0x2e52 <sysclk_enable_peripheral_clock+0x20e>
		sysclk_enable_module(SYSCLK_PORT_D, SYSCLK_USART0);
    2e48:	60 e1       	ldi	r22, 0x10	; 16
    2e4a:	84 e0       	ldi	r24, 0x04	; 4
    2e4c:	0c 94 ce 03 	jmp	0x79c	; 0x79c <sysclk_enable_module>
    2e50:	08 95       	ret
	}
#endif
#ifdef USARTE0
	else if (module == &USARTE0) {
    2e52:	80 3a       	cpi	r24, 0xA0	; 160
    2e54:	2a e0       	ldi	r18, 0x0A	; 10
    2e56:	92 07       	cpc	r25, r18
    2e58:	29 f4       	brne	.+10     	; 0x2e64 <sysclk_enable_peripheral_clock+0x220>
		sysclk_enable_module(SYSCLK_PORT_E, SYSCLK_USART0);
    2e5a:	60 e1       	ldi	r22, 0x10	; 16
    2e5c:	85 e0       	ldi	r24, 0x05	; 5
    2e5e:	0c 94 ce 03 	jmp	0x79c	; 0x79c <sysclk_enable_module>
    2e62:	08 95       	ret
	}
#endif
#ifdef USARTF0
	else if (module == &USARTF0) {
    2e64:	80 3a       	cpi	r24, 0xA0	; 160
    2e66:	2b e0       	ldi	r18, 0x0B	; 11
    2e68:	92 07       	cpc	r25, r18
    2e6a:	29 f4       	brne	.+10     	; 0x2e76 <sysclk_enable_peripheral_clock+0x232>
		sysclk_enable_module(SYSCLK_PORT_F, SYSCLK_USART0);
    2e6c:	60 e1       	ldi	r22, 0x10	; 16
    2e6e:	86 e0       	ldi	r24, 0x06	; 6
    2e70:	0c 94 ce 03 	jmp	0x79c	; 0x79c <sysclk_enable_module>
    2e74:	08 95       	ret
	}
#endif
#ifdef USARTC1
	else if (module == &USARTC1) {
    2e76:	80 3b       	cpi	r24, 0xB0	; 176
    2e78:	28 e0       	ldi	r18, 0x08	; 8
    2e7a:	92 07       	cpc	r25, r18
    2e7c:	29 f4       	brne	.+10     	; 0x2e88 <sysclk_enable_peripheral_clock+0x244>
		sysclk_enable_module(SYSCLK_PORT_C, SYSCLK_USART1);
    2e7e:	60 e2       	ldi	r22, 0x20	; 32
    2e80:	83 e0       	ldi	r24, 0x03	; 3
    2e82:	0c 94 ce 03 	jmp	0x79c	; 0x79c <sysclk_enable_module>
    2e86:	08 95       	ret
	}
#endif
#ifdef USARTD1
	else if (module == &USARTD1) {
    2e88:	80 3b       	cpi	r24, 0xB0	; 176
    2e8a:	29 e0       	ldi	r18, 0x09	; 9
    2e8c:	92 07       	cpc	r25, r18
    2e8e:	29 f4       	brne	.+10     	; 0x2e9a <sysclk_enable_peripheral_clock+0x256>
		sysclk_enable_module(SYSCLK_PORT_D, SYSCLK_USART1);
    2e90:	60 e2       	ldi	r22, 0x20	; 32
    2e92:	84 e0       	ldi	r24, 0x04	; 4
    2e94:	0c 94 ce 03 	jmp	0x79c	; 0x79c <sysclk_enable_module>
    2e98:	08 95       	ret
	}
#endif
#ifdef USARTE1
	else if (module == &USARTE1) {
    2e9a:	80 3b       	cpi	r24, 0xB0	; 176
    2e9c:	2a e0       	ldi	r18, 0x0A	; 10
    2e9e:	92 07       	cpc	r25, r18
    2ea0:	29 f4       	brne	.+10     	; 0x2eac <sysclk_enable_peripheral_clock+0x268>
		sysclk_enable_module(SYSCLK_PORT_E, SYSCLK_USART1);
    2ea2:	60 e2       	ldi	r22, 0x20	; 32
    2ea4:	85 e0       	ldi	r24, 0x05	; 5
    2ea6:	0c 94 ce 03 	jmp	0x79c	; 0x79c <sysclk_enable_module>
    2eaa:	08 95       	ret
	}
#endif
#ifdef USARTF1
	else if (module == &USARTF1) {
    2eac:	80 3b       	cpi	r24, 0xB0	; 176
    2eae:	2b e0       	ldi	r18, 0x0B	; 11
    2eb0:	92 07       	cpc	r25, r18
    2eb2:	29 f4       	brne	.+10     	; 0x2ebe <sysclk_enable_peripheral_clock+0x27a>
		sysclk_enable_module(SYSCLK_PORT_F, SYSCLK_USART1);
    2eb4:	60 e2       	ldi	r22, 0x20	; 32
    2eb6:	86 e0       	ldi	r24, 0x06	; 6
    2eb8:	0c 94 ce 03 	jmp	0x79c	; 0x79c <sysclk_enable_module>
    2ebc:	08 95       	ret
	}
#endif
#ifdef TWIC
	else if (module == &TWIC) {
    2ebe:	80 38       	cpi	r24, 0x80	; 128
    2ec0:	24 e0       	ldi	r18, 0x04	; 4
    2ec2:	92 07       	cpc	r25, r18
    2ec4:	29 f4       	brne	.+10     	; 0x2ed0 <sysclk_enable_peripheral_clock+0x28c>
		sysclk_enable_module(SYSCLK_PORT_C, SYSCLK_TWI);
    2ec6:	60 e4       	ldi	r22, 0x40	; 64
    2ec8:	83 e0       	ldi	r24, 0x03	; 3
    2eca:	0c 94 ce 03 	jmp	0x79c	; 0x79c <sysclk_enable_module>
    2ece:	08 95       	ret
	}
#endif
#ifdef TWID
	else if (module == &TWID) {
    2ed0:	80 39       	cpi	r24, 0x90	; 144
    2ed2:	24 e0       	ldi	r18, 0x04	; 4
    2ed4:	92 07       	cpc	r25, r18
    2ed6:	29 f4       	brne	.+10     	; 0x2ee2 <sysclk_enable_peripheral_clock+0x29e>
		sysclk_enable_module(SYSCLK_PORT_D, SYSCLK_TWI);
    2ed8:	60 e4       	ldi	r22, 0x40	; 64
    2eda:	84 e0       	ldi	r24, 0x04	; 4
    2edc:	0c 94 ce 03 	jmp	0x79c	; 0x79c <sysclk_enable_module>
    2ee0:	08 95       	ret
	}
#endif
#ifdef TWIE
	else if (module == &TWIE) {
    2ee2:	80 3a       	cpi	r24, 0xA0	; 160
    2ee4:	24 e0       	ldi	r18, 0x04	; 4
    2ee6:	92 07       	cpc	r25, r18
    2ee8:	29 f4       	brne	.+10     	; 0x2ef4 <sysclk_enable_peripheral_clock+0x2b0>
		sysclk_enable_module(SYSCLK_PORT_E, SYSCLK_TWI);
    2eea:	60 e4       	ldi	r22, 0x40	; 64
    2eec:	85 e0       	ldi	r24, 0x05	; 5
    2eee:	0c 94 ce 03 	jmp	0x79c	; 0x79c <sysclk_enable_module>
    2ef2:	08 95       	ret
	}
#endif
#ifdef TWIF
	else if (module == &TWIF) {
    2ef4:	80 3b       	cpi	r24, 0xB0	; 176
    2ef6:	94 40       	sbci	r25, 0x04	; 4
    2ef8:	21 f4       	brne	.+8      	; 0x2f02 <sysclk_enable_peripheral_clock+0x2be>
		sysclk_enable_module(SYSCLK_PORT_F, SYSCLK_TWI);
    2efa:	60 e4       	ldi	r22, 0x40	; 64
    2efc:	86 e0       	ldi	r24, 0x06	; 6
    2efe:	0c 94 ce 03 	jmp	0x79c	; 0x79c <sysclk_enable_module>
    2f02:	08 95       	ret

00002f04 <main>:
    2f04:	cf 93       	push	r28
    2f06:	df 93       	push	r29
    2f08:	cd b7       	in	r28, 0x3d	; 61
    2f0a:	de b7       	in	r29, 0x3e	; 62
    2f0c:	2a 97       	sbiw	r28, 0x0a	; 10
    2f0e:	cd bf       	out	0x3d, r28	; 61
    2f10:	de bf       	out	0x3e, r29	; 62
    2f12:	0e 94 99 03 	call	0x732	; 0x732 <sysclk_init>
    2f16:	80 e0       	ldi	r24, 0x00	; 0
    2f18:	9b e0       	ldi	r25, 0x0B	; 11
    2f1a:	94 de       	rcall	.-728    	; 0x2c44 <sysclk_enable_peripheral_clock>
    2f1c:	80 e0       	ldi	r24, 0x00	; 0
    2f1e:	99 e0       	ldi	r25, 0x09	; 9
    2f20:	91 de       	rcall	.-734    	; 0x2c44 <sysclk_enable_peripheral_clock>
    2f22:	64 e0       	ldi	r22, 0x04	; 4
    2f24:	86 e0       	ldi	r24, 0x06	; 6
    2f26:	0e 94 ce 03 	call	0x79c	; 0x79c <sysclk_enable_module>
    2f2a:	64 e0       	ldi	r22, 0x04	; 4
    2f2c:	84 e0       	ldi	r24, 0x04	; 4
    2f2e:	0e 94 ce 03 	call	0x79c	; 0x79c <sysclk_enable_module>
    2f32:	68 e0       	ldi	r22, 0x08	; 8
    2f34:	83 e0       	ldi	r24, 0x03	; 3
    2f36:	0e 94 ce 03 	call	0x79c	; 0x79c <sysclk_enable_module>
    2f3a:	80 ea       	ldi	r24, 0xA0	; 160
    2f3c:	98 e0       	ldi	r25, 0x08	; 8
    2f3e:	82 de       	rcall	.-764    	; 0x2c44 <sysclk_enable_peripheral_clock>
    2f40:	be dd       	rcall	.-1156   	; 0x2abe <usart_init>
    2f42:	80 ec       	ldi	r24, 0xC0	; 192
    2f44:	98 e0       	ldi	r25, 0x08	; 8
    2f46:	7e de       	rcall	.-772    	; 0x2c44 <sysclk_enable_peripheral_clock>
    2f48:	a0 da       	rcall	.-2752   	; 0x248a <SPI_init>
    2f4a:	da da       	rcall	.-2636   	; 0x2500 <ms5607_init>
    2f4c:	80 e0       	ldi	r24, 0x00	; 0
    2f4e:	92 e0       	ldi	r25, 0x02	; 2
    2f50:	79 de       	rcall	.-782    	; 0x2c44 <sysclk_enable_peripheral_clock>
    2f52:	0c dd       	rcall	.-1512   	; 0x296c <adc_init>
    2f54:	55 db       	rcall	.-2390   	; 0x2600 <get_pressure>
    2f56:	6d 83       	std	Y+5, r22	; 0x05
    2f58:	7e 83       	std	Y+6, r23	; 0x06
    2f5a:	8f 83       	std	Y+7, r24	; 0x07
    2f5c:	98 87       	std	Y+8, r25	; 0x08
    2f5e:	31 2c       	mov	r3, r1
    2f60:	c1 2c       	mov	r12, r1
    2f62:	d1 2c       	mov	r13, r1
    2f64:	76 01       	movw	r14, r12
    2f66:	0f 2e       	mov	r0, r31
    2f68:	f6 e2       	ldi	r31, 0x26	; 38
    2f6a:	4f 2e       	mov	r4, r31
    2f6c:	f0 e2       	ldi	r31, 0x20	; 32
    2f6e:	5f 2e       	mov	r5, r31
    2f70:	f0 2d       	mov	r31, r0
    2f72:	0f 2e       	mov	r0, r31
    2f74:	f0 e8       	ldi	r31, 0x80	; 128
    2f76:	6f 2e       	mov	r6, r31
    2f78:	f6 e0       	ldi	r31, 0x06	; 6
    2f7a:	7f 2e       	mov	r7, r31
    2f7c:	f0 2d       	mov	r31, r0
    2f7e:	0f 2e       	mov	r0, r31
    2f80:	f5 e5       	ldi	r31, 0x55	; 85
    2f82:	2f 2e       	mov	r2, r31
    2f84:	f0 2d       	mov	r31, r0
    2f86:	0a c0       	rjmp	.+20     	; 0x2f9c <main+0x98>
    2f88:	33 24       	eor	r3, r3
    2f8a:	33 94       	inc	r3
    2f8c:	07 c0       	rjmp	.+14     	; 0x2f9c <main+0x98>
    2f8e:	68 94       	set
    2f90:	33 24       	eor	r3, r3
    2f92:	31 f8       	bld	r3, 1
    2f94:	03 c0       	rjmp	.+6      	; 0x2f9c <main+0x98>
    2f96:	68 94       	set
    2f98:	33 24       	eor	r3, r3
    2f9a:	31 f8       	bld	r3, 1
    2f9c:	31 db       	rcall	.-2462   	; 0x2600 <get_pressure>
    2f9e:	06 2f       	mov	r16, r22
    2fa0:	79 87       	std	Y+9, r23	; 0x09
    2fa2:	8a 87       	std	Y+10, r24	; 0x0a
    2fa4:	19 2f       	mov	r17, r25
    2fa6:	2b dd       	rcall	.-1450   	; 0x29fe <getTemperature>
    2fa8:	20 2f       	mov	r18, r16
    2faa:	39 85       	ldd	r19, Y+9	; 0x09
    2fac:	4a 85       	ldd	r20, Y+10	; 0x0a
    2fae:	51 2f       	mov	r21, r17
    2fb0:	6d 81       	ldd	r22, Y+5	; 0x05
    2fb2:	7e 81       	ldd	r23, Y+6	; 0x06
    2fb4:	8f 81       	ldd	r24, Y+7	; 0x07
    2fb6:	98 85       	ldd	r25, Y+8	; 0x08
    2fb8:	93 d9       	rcall	.-3290   	; 0x22e0 <Get_altitude>
    2fba:	5e d1       	rcall	.+700    	; 0x3278 <__fixsfsi>
    2fbc:	4b 01       	movw	r8, r22
    2fbe:	5c 01       	movw	r10, r24
    2fc0:	8e d1       	rcall	.+796    	; 0x32de <__floatsisf>
    2fc2:	26 e6       	ldi	r18, 0x66	; 102
    2fc4:	36 e6       	ldi	r19, 0x66	; 102
    2fc6:	46 e6       	ldi	r20, 0x66	; 102
    2fc8:	5f e3       	ldi	r21, 0x3F	; 63
    2fca:	5a d2       	rcall	.+1204   	; 0x3480 <__mulsf3>
    2fcc:	69 83       	std	Y+1, r22	; 0x01
    2fce:	7a 83       	std	Y+2, r23	; 0x02
    2fd0:	8b 83       	std	Y+3, r24	; 0x03
    2fd2:	9c 83       	std	Y+4, r25	; 0x04
    2fd4:	c7 01       	movw	r24, r14
    2fd6:	b6 01       	movw	r22, r12
    2fd8:	82 d1       	rcall	.+772    	; 0x32de <__floatsisf>
    2fda:	20 ed       	ldi	r18, 0xD0	; 208
    2fdc:	3c ec       	ldi	r19, 0xCC	; 204
    2fde:	4c ec       	ldi	r20, 0xCC	; 204
    2fe0:	5d e3       	ldi	r21, 0x3D	; 61
    2fe2:	4e d2       	rcall	.+1180   	; 0x3480 <__mulsf3>
    2fe4:	9b 01       	movw	r18, r22
    2fe6:	ac 01       	movw	r20, r24
    2fe8:	69 81       	ldd	r22, Y+1	; 0x01
    2fea:	7a 81       	ldd	r23, Y+2	; 0x02
    2fec:	8b 81       	ldd	r24, Y+3	; 0x03
    2fee:	9c 81       	ldd	r25, Y+4	; 0x04
    2ff0:	77 d0       	rcall	.+238    	; 0x30e0 <__addsf3>
    2ff2:	42 d1       	rcall	.+644    	; 0x3278 <__fixsfsi>
    2ff4:	6b 01       	movw	r12, r22
    2ff6:	7c 01       	movw	r14, r24
    2ff8:	1f 93       	push	r17
    2ffa:	8a 85       	ldd	r24, Y+10	; 0x0a
    2ffc:	8f 93       	push	r24
    2ffe:	e9 85       	ldd	r30, Y+9	; 0x09
    3000:	ef 93       	push	r30
    3002:	0f 93       	push	r16
    3004:	5f 92       	push	r5
    3006:	4f 92       	push	r4
    3008:	0e 94 c0 21 	call	0x4380	; 0x4380 <printf>
    300c:	66 e5       	ldi	r22, 0x56	; 86
    300e:	71 e6       	ldi	r23, 0x61	; 97
    3010:	81 e5       	ldi	r24, 0x51	; 81
    3012:	90 e0       	ldi	r25, 0x00	; 0
    3014:	0c de       	rcall	.-1000   	; 0x2c2e <__portable_avr_delay_cycles>
    3016:	0f 90       	pop	r0
    3018:	0f 90       	pop	r0
    301a:	0f 90       	pop	r0
    301c:	0f 90       	pop	r0
    301e:	0f 90       	pop	r0
    3020:	0f 90       	pop	r0
    3022:	31 10       	cpse	r3, r1
    3024:	1f c0       	rjmp	.+62     	; 0x3064 <main+0x160>
    3026:	f3 01       	movw	r30, r6
    3028:	21 82       	std	Z+1, r2	; 0x01
    302a:	25 82       	std	Z+5, r2	; 0x05
    302c:	f8 e0       	ldi	r31, 0x08	; 8
    302e:	f0 93 04 06 	sts	0x0604, r31	; 0x800604 <__TEXT_REGION_LENGTH__+0x700604>
    3032:	d7 01       	movw	r26, r14
    3034:	c6 01       	movw	r24, r12
    3036:	88 19       	sub	r24, r8
    3038:	99 09       	sbc	r25, r9
    303a:	aa 09       	sbc	r26, r10
    303c:	bb 09       	sbc	r27, r11
    303e:	0a f0       	brmi	.+2      	; 0x3042 <main+0x13e>
    3040:	ad cf       	rjmp	.-166    	; 0x2f9c <main+0x98>
    3042:	d7 01       	movw	r26, r14
    3044:	c6 01       	movw	r24, r12
    3046:	89 55       	subi	r24, 0x59	; 89
    3048:	92 40       	sbci	r25, 0x02	; 2
    304a:	a1 09       	sbc	r26, r1
    304c:	b1 09       	sbc	r27, r1
    304e:	87 3c       	cpi	r24, 0xC7	; 199
    3050:	91 05       	cpc	r25, r1
    3052:	a1 05       	cpc	r26, r1
    3054:	b1 05       	cpc	r27, r1
    3056:	08 f0       	brcs	.+2      	; 0x305a <main+0x156>
    3058:	a1 cf       	rjmp	.-190    	; 0x2f9c <main+0x98>
    305a:	81 e0       	ldi	r24, 0x01	; 1
    305c:	f3 01       	movw	r30, r6
    305e:	81 83       	std	Z+1, r24	; 0x01
    3060:	85 83       	std	Z+5, r24	; 0x05
    3062:	03 c0       	rjmp	.+6      	; 0x306a <main+0x166>
    3064:	f1 e0       	ldi	r31, 0x01	; 1
    3066:	3f 12       	cpse	r3, r31
    3068:	16 c0       	rjmp	.+44     	; 0x3096 <main+0x192>
    306a:	88 e3       	ldi	r24, 0x38	; 56
    306c:	90 e2       	ldi	r25, 0x20	; 32
    306e:	0e 94 d3 21 	call	0x43a6	; 0x43a6 <puts>
    3072:	8c e2       	ldi	r24, 0x2C	; 44
    3074:	c8 16       	cp	r12, r24
    3076:	81 e0       	ldi	r24, 0x01	; 1
    3078:	d8 06       	cpc	r13, r24
    307a:	e1 04       	cpc	r14, r1
    307c:	f1 04       	cpc	r15, r1
    307e:	0c f0       	brlt	.+2      	; 0x3082 <main+0x17e>
    3080:	83 cf       	rjmp	.-250    	; 0x2f88 <main+0x84>
    3082:	82 e0       	ldi	r24, 0x02	; 2
    3084:	f3 01       	movw	r30, r6
    3086:	81 83       	std	Z+1, r24	; 0x01
    3088:	85 83       	std	Z+5, r24	; 0x05
    308a:	f0 e8       	ldi	r31, 0x80	; 128
    308c:	f0 93 01 06 	sts	0x0601, r31	; 0x800601 <__TEXT_REGION_LENGTH__+0x700601>
    3090:	f0 93 05 06 	sts	0x0605, r31	; 0x800605 <__TEXT_REGION_LENGTH__+0x700605>
    3094:	03 c0       	rjmp	.+6      	; 0x309c <main+0x198>
    3096:	82 e0       	ldi	r24, 0x02	; 2
    3098:	38 12       	cpse	r3, r24
    309a:	80 cf       	rjmp	.-256    	; 0x2f9c <main+0x98>
    309c:	88 e4       	ldi	r24, 0x48	; 72
    309e:	90 e2       	ldi	r25, 0x20	; 32
    30a0:	0e 94 d3 21 	call	0x43a6	; 0x43a6 <puts>
    30a4:	d7 01       	movw	r26, r14
    30a6:	c6 01       	movw	r24, r12
    30a8:	88 19       	sub	r24, r8
    30aa:	99 09       	sbc	r25, r9
    30ac:	aa 09       	sbc	r26, r10
    30ae:	bb 09       	sbc	r27, r11
    30b0:	18 16       	cp	r1, r24
    30b2:	19 06       	cpc	r1, r25
    30b4:	1a 06       	cpc	r1, r26
    30b6:	1b 06       	cpc	r1, r27
    30b8:	0c f4       	brge	.+2      	; 0x30bc <main+0x1b8>
    30ba:	69 cf       	rjmp	.-302    	; 0x2f8e <main+0x8a>
    30bc:	e4 e6       	ldi	r30, 0x64	; 100
    30be:	8e 16       	cp	r8, r30
    30c0:	91 04       	cpc	r9, r1
    30c2:	a1 04       	cpc	r10, r1
    30c4:	b1 04       	cpc	r11, r1
    30c6:	0c f0       	brlt	.+2      	; 0x30ca <main+0x1c6>
    30c8:	66 cf       	rjmp	.-308    	; 0x2f96 <main+0x92>
    30ca:	f8 e0       	ldi	r31, 0x08	; 8
    30cc:	f0 93 01 06 	sts	0x0601, r31	; 0x800601 <__TEXT_REGION_LENGTH__+0x700601>
    30d0:	f0 93 05 06 	sts	0x0605, r31	; 0x800605 <__TEXT_REGION_LENGTH__+0x700605>
    30d4:	0f 2e       	mov	r0, r31
    30d6:	f3 e0       	ldi	r31, 0x03	; 3
    30d8:	3f 2e       	mov	r3, r31
    30da:	f0 2d       	mov	r31, r0
    30dc:	5f cf       	rjmp	.-322    	; 0x2f9c <main+0x98>

000030de <__subsf3>:
    30de:	50 58       	subi	r21, 0x80	; 128

000030e0 <__addsf3>:
    30e0:	bb 27       	eor	r27, r27
    30e2:	aa 27       	eor	r26, r26
    30e4:	0e d0       	rcall	.+28     	; 0x3102 <__addsf3x>
    30e6:	4d c1       	rjmp	.+666    	; 0x3382 <__fp_round>
    30e8:	3e d1       	rcall	.+636    	; 0x3366 <__fp_pscA>
    30ea:	30 f0       	brcs	.+12     	; 0x30f8 <__addsf3+0x18>
    30ec:	43 d1       	rcall	.+646    	; 0x3374 <__fp_pscB>
    30ee:	20 f0       	brcs	.+8      	; 0x30f8 <__addsf3+0x18>
    30f0:	31 f4       	brne	.+12     	; 0x30fe <__addsf3+0x1e>
    30f2:	9f 3f       	cpi	r25, 0xFF	; 255
    30f4:	11 f4       	brne	.+4      	; 0x30fa <__addsf3+0x1a>
    30f6:	1e f4       	brtc	.+6      	; 0x30fe <__addsf3+0x1e>
    30f8:	33 c1       	rjmp	.+614    	; 0x3360 <__fp_nan>
    30fa:	0e f4       	brtc	.+2      	; 0x30fe <__addsf3+0x1e>
    30fc:	e0 95       	com	r30
    30fe:	e7 fb       	bst	r30, 7
    3100:	29 c1       	rjmp	.+594    	; 0x3354 <__fp_inf>

00003102 <__addsf3x>:
    3102:	e9 2f       	mov	r30, r25
    3104:	4f d1       	rcall	.+670    	; 0x33a4 <__fp_split3>
    3106:	80 f3       	brcs	.-32     	; 0x30e8 <__addsf3+0x8>
    3108:	ba 17       	cp	r27, r26
    310a:	62 07       	cpc	r22, r18
    310c:	73 07       	cpc	r23, r19
    310e:	84 07       	cpc	r24, r20
    3110:	95 07       	cpc	r25, r21
    3112:	18 f0       	brcs	.+6      	; 0x311a <__addsf3x+0x18>
    3114:	71 f4       	brne	.+28     	; 0x3132 <__addsf3x+0x30>
    3116:	9e f5       	brtc	.+102    	; 0x317e <__addsf3x+0x7c>
    3118:	67 c1       	rjmp	.+718    	; 0x33e8 <__fp_zero>
    311a:	0e f4       	brtc	.+2      	; 0x311e <__addsf3x+0x1c>
    311c:	e0 95       	com	r30
    311e:	0b 2e       	mov	r0, r27
    3120:	ba 2f       	mov	r27, r26
    3122:	a0 2d       	mov	r26, r0
    3124:	0b 01       	movw	r0, r22
    3126:	b9 01       	movw	r22, r18
    3128:	90 01       	movw	r18, r0
    312a:	0c 01       	movw	r0, r24
    312c:	ca 01       	movw	r24, r20
    312e:	a0 01       	movw	r20, r0
    3130:	11 24       	eor	r1, r1
    3132:	ff 27       	eor	r31, r31
    3134:	59 1b       	sub	r21, r25
    3136:	99 f0       	breq	.+38     	; 0x315e <__addsf3x+0x5c>
    3138:	59 3f       	cpi	r21, 0xF9	; 249
    313a:	50 f4       	brcc	.+20     	; 0x3150 <__addsf3x+0x4e>
    313c:	50 3e       	cpi	r21, 0xE0	; 224
    313e:	68 f1       	brcs	.+90     	; 0x319a <__addsf3x+0x98>
    3140:	1a 16       	cp	r1, r26
    3142:	f0 40       	sbci	r31, 0x00	; 0
    3144:	a2 2f       	mov	r26, r18
    3146:	23 2f       	mov	r18, r19
    3148:	34 2f       	mov	r19, r20
    314a:	44 27       	eor	r20, r20
    314c:	58 5f       	subi	r21, 0xF8	; 248
    314e:	f3 cf       	rjmp	.-26     	; 0x3136 <__addsf3x+0x34>
    3150:	46 95       	lsr	r20
    3152:	37 95       	ror	r19
    3154:	27 95       	ror	r18
    3156:	a7 95       	ror	r26
    3158:	f0 40       	sbci	r31, 0x00	; 0
    315a:	53 95       	inc	r21
    315c:	c9 f7       	brne	.-14     	; 0x3150 <__addsf3x+0x4e>
    315e:	7e f4       	brtc	.+30     	; 0x317e <__addsf3x+0x7c>
    3160:	1f 16       	cp	r1, r31
    3162:	ba 0b       	sbc	r27, r26
    3164:	62 0b       	sbc	r22, r18
    3166:	73 0b       	sbc	r23, r19
    3168:	84 0b       	sbc	r24, r20
    316a:	ba f0       	brmi	.+46     	; 0x319a <__addsf3x+0x98>
    316c:	91 50       	subi	r25, 0x01	; 1
    316e:	a1 f0       	breq	.+40     	; 0x3198 <__addsf3x+0x96>
    3170:	ff 0f       	add	r31, r31
    3172:	bb 1f       	adc	r27, r27
    3174:	66 1f       	adc	r22, r22
    3176:	77 1f       	adc	r23, r23
    3178:	88 1f       	adc	r24, r24
    317a:	c2 f7       	brpl	.-16     	; 0x316c <__addsf3x+0x6a>
    317c:	0e c0       	rjmp	.+28     	; 0x319a <__addsf3x+0x98>
    317e:	ba 0f       	add	r27, r26
    3180:	62 1f       	adc	r22, r18
    3182:	73 1f       	adc	r23, r19
    3184:	84 1f       	adc	r24, r20
    3186:	48 f4       	brcc	.+18     	; 0x319a <__addsf3x+0x98>
    3188:	87 95       	ror	r24
    318a:	77 95       	ror	r23
    318c:	67 95       	ror	r22
    318e:	b7 95       	ror	r27
    3190:	f7 95       	ror	r31
    3192:	9e 3f       	cpi	r25, 0xFE	; 254
    3194:	08 f0       	brcs	.+2      	; 0x3198 <__addsf3x+0x96>
    3196:	b3 cf       	rjmp	.-154    	; 0x30fe <__addsf3+0x1e>
    3198:	93 95       	inc	r25
    319a:	88 0f       	add	r24, r24
    319c:	08 f0       	brcs	.+2      	; 0x31a0 <__addsf3x+0x9e>
    319e:	99 27       	eor	r25, r25
    31a0:	ee 0f       	add	r30, r30
    31a2:	97 95       	ror	r25
    31a4:	87 95       	ror	r24
    31a6:	08 95       	ret

000031a8 <__divsf3>:
    31a8:	0c d0       	rcall	.+24     	; 0x31c2 <__divsf3x>
    31aa:	eb c0       	rjmp	.+470    	; 0x3382 <__fp_round>
    31ac:	e3 d0       	rcall	.+454    	; 0x3374 <__fp_pscB>
    31ae:	40 f0       	brcs	.+16     	; 0x31c0 <__divsf3+0x18>
    31b0:	da d0       	rcall	.+436    	; 0x3366 <__fp_pscA>
    31b2:	30 f0       	brcs	.+12     	; 0x31c0 <__divsf3+0x18>
    31b4:	21 f4       	brne	.+8      	; 0x31be <__divsf3+0x16>
    31b6:	5f 3f       	cpi	r21, 0xFF	; 255
    31b8:	19 f0       	breq	.+6      	; 0x31c0 <__divsf3+0x18>
    31ba:	cc c0       	rjmp	.+408    	; 0x3354 <__fp_inf>
    31bc:	51 11       	cpse	r21, r1
    31be:	15 c1       	rjmp	.+554    	; 0x33ea <__fp_szero>
    31c0:	cf c0       	rjmp	.+414    	; 0x3360 <__fp_nan>

000031c2 <__divsf3x>:
    31c2:	f0 d0       	rcall	.+480    	; 0x33a4 <__fp_split3>
    31c4:	98 f3       	brcs	.-26     	; 0x31ac <__divsf3+0x4>

000031c6 <__divsf3_pse>:
    31c6:	99 23       	and	r25, r25
    31c8:	c9 f3       	breq	.-14     	; 0x31bc <__divsf3+0x14>
    31ca:	55 23       	and	r21, r21
    31cc:	b1 f3       	breq	.-20     	; 0x31ba <__divsf3+0x12>
    31ce:	95 1b       	sub	r25, r21
    31d0:	55 0b       	sbc	r21, r21
    31d2:	bb 27       	eor	r27, r27
    31d4:	aa 27       	eor	r26, r26
    31d6:	62 17       	cp	r22, r18
    31d8:	73 07       	cpc	r23, r19
    31da:	84 07       	cpc	r24, r20
    31dc:	38 f0       	brcs	.+14     	; 0x31ec <__divsf3_pse+0x26>
    31de:	9f 5f       	subi	r25, 0xFF	; 255
    31e0:	5f 4f       	sbci	r21, 0xFF	; 255
    31e2:	22 0f       	add	r18, r18
    31e4:	33 1f       	adc	r19, r19
    31e6:	44 1f       	adc	r20, r20
    31e8:	aa 1f       	adc	r26, r26
    31ea:	a9 f3       	breq	.-22     	; 0x31d6 <__divsf3_pse+0x10>
    31ec:	33 d0       	rcall	.+102    	; 0x3254 <__divsf3_pse+0x8e>
    31ee:	0e 2e       	mov	r0, r30
    31f0:	3a f0       	brmi	.+14     	; 0x3200 <__divsf3_pse+0x3a>
    31f2:	e0 e8       	ldi	r30, 0x80	; 128
    31f4:	30 d0       	rcall	.+96     	; 0x3256 <__divsf3_pse+0x90>
    31f6:	91 50       	subi	r25, 0x01	; 1
    31f8:	50 40       	sbci	r21, 0x00	; 0
    31fa:	e6 95       	lsr	r30
    31fc:	00 1c       	adc	r0, r0
    31fe:	ca f7       	brpl	.-14     	; 0x31f2 <__divsf3_pse+0x2c>
    3200:	29 d0       	rcall	.+82     	; 0x3254 <__divsf3_pse+0x8e>
    3202:	fe 2f       	mov	r31, r30
    3204:	27 d0       	rcall	.+78     	; 0x3254 <__divsf3_pse+0x8e>
    3206:	66 0f       	add	r22, r22
    3208:	77 1f       	adc	r23, r23
    320a:	88 1f       	adc	r24, r24
    320c:	bb 1f       	adc	r27, r27
    320e:	26 17       	cp	r18, r22
    3210:	37 07       	cpc	r19, r23
    3212:	48 07       	cpc	r20, r24
    3214:	ab 07       	cpc	r26, r27
    3216:	b0 e8       	ldi	r27, 0x80	; 128
    3218:	09 f0       	breq	.+2      	; 0x321c <__divsf3_pse+0x56>
    321a:	bb 0b       	sbc	r27, r27
    321c:	80 2d       	mov	r24, r0
    321e:	bf 01       	movw	r22, r30
    3220:	ff 27       	eor	r31, r31
    3222:	93 58       	subi	r25, 0x83	; 131
    3224:	5f 4f       	sbci	r21, 0xFF	; 255
    3226:	2a f0       	brmi	.+10     	; 0x3232 <__divsf3_pse+0x6c>
    3228:	9e 3f       	cpi	r25, 0xFE	; 254
    322a:	51 05       	cpc	r21, r1
    322c:	68 f0       	brcs	.+26     	; 0x3248 <__divsf3_pse+0x82>
    322e:	92 c0       	rjmp	.+292    	; 0x3354 <__fp_inf>
    3230:	dc c0       	rjmp	.+440    	; 0x33ea <__fp_szero>
    3232:	5f 3f       	cpi	r21, 0xFF	; 255
    3234:	ec f3       	brlt	.-6      	; 0x3230 <__divsf3_pse+0x6a>
    3236:	98 3e       	cpi	r25, 0xE8	; 232
    3238:	dc f3       	brlt	.-10     	; 0x3230 <__divsf3_pse+0x6a>
    323a:	86 95       	lsr	r24
    323c:	77 95       	ror	r23
    323e:	67 95       	ror	r22
    3240:	b7 95       	ror	r27
    3242:	f7 95       	ror	r31
    3244:	9f 5f       	subi	r25, 0xFF	; 255
    3246:	c9 f7       	brne	.-14     	; 0x323a <__divsf3_pse+0x74>
    3248:	88 0f       	add	r24, r24
    324a:	91 1d       	adc	r25, r1
    324c:	96 95       	lsr	r25
    324e:	87 95       	ror	r24
    3250:	97 f9       	bld	r25, 7
    3252:	08 95       	ret
    3254:	e1 e0       	ldi	r30, 0x01	; 1
    3256:	66 0f       	add	r22, r22
    3258:	77 1f       	adc	r23, r23
    325a:	88 1f       	adc	r24, r24
    325c:	bb 1f       	adc	r27, r27
    325e:	62 17       	cp	r22, r18
    3260:	73 07       	cpc	r23, r19
    3262:	84 07       	cpc	r24, r20
    3264:	ba 07       	cpc	r27, r26
    3266:	20 f0       	brcs	.+8      	; 0x3270 <__divsf3_pse+0xaa>
    3268:	62 1b       	sub	r22, r18
    326a:	73 0b       	sbc	r23, r19
    326c:	84 0b       	sbc	r24, r20
    326e:	ba 0b       	sbc	r27, r26
    3270:	ee 1f       	adc	r30, r30
    3272:	88 f7       	brcc	.-30     	; 0x3256 <__divsf3_pse+0x90>
    3274:	e0 95       	com	r30
    3276:	08 95       	ret

00003278 <__fixsfsi>:
    3278:	04 d0       	rcall	.+8      	; 0x3282 <__fixunssfsi>
    327a:	68 94       	set
    327c:	b1 11       	cpse	r27, r1
    327e:	b5 c0       	rjmp	.+362    	; 0x33ea <__fp_szero>
    3280:	08 95       	ret

00003282 <__fixunssfsi>:
    3282:	98 d0       	rcall	.+304    	; 0x33b4 <__fp_splitA>
    3284:	88 f0       	brcs	.+34     	; 0x32a8 <__fixunssfsi+0x26>
    3286:	9f 57       	subi	r25, 0x7F	; 127
    3288:	90 f0       	brcs	.+36     	; 0x32ae <__fixunssfsi+0x2c>
    328a:	b9 2f       	mov	r27, r25
    328c:	99 27       	eor	r25, r25
    328e:	b7 51       	subi	r27, 0x17	; 23
    3290:	a0 f0       	brcs	.+40     	; 0x32ba <__fixunssfsi+0x38>
    3292:	d1 f0       	breq	.+52     	; 0x32c8 <__fixunssfsi+0x46>
    3294:	66 0f       	add	r22, r22
    3296:	77 1f       	adc	r23, r23
    3298:	88 1f       	adc	r24, r24
    329a:	99 1f       	adc	r25, r25
    329c:	1a f0       	brmi	.+6      	; 0x32a4 <__fixunssfsi+0x22>
    329e:	ba 95       	dec	r27
    32a0:	c9 f7       	brne	.-14     	; 0x3294 <__fixunssfsi+0x12>
    32a2:	12 c0       	rjmp	.+36     	; 0x32c8 <__fixunssfsi+0x46>
    32a4:	b1 30       	cpi	r27, 0x01	; 1
    32a6:	81 f0       	breq	.+32     	; 0x32c8 <__fixunssfsi+0x46>
    32a8:	9f d0       	rcall	.+318    	; 0x33e8 <__fp_zero>
    32aa:	b1 e0       	ldi	r27, 0x01	; 1
    32ac:	08 95       	ret
    32ae:	9c c0       	rjmp	.+312    	; 0x33e8 <__fp_zero>
    32b0:	67 2f       	mov	r22, r23
    32b2:	78 2f       	mov	r23, r24
    32b4:	88 27       	eor	r24, r24
    32b6:	b8 5f       	subi	r27, 0xF8	; 248
    32b8:	39 f0       	breq	.+14     	; 0x32c8 <__fixunssfsi+0x46>
    32ba:	b9 3f       	cpi	r27, 0xF9	; 249
    32bc:	cc f3       	brlt	.-14     	; 0x32b0 <__fixunssfsi+0x2e>
    32be:	86 95       	lsr	r24
    32c0:	77 95       	ror	r23
    32c2:	67 95       	ror	r22
    32c4:	b3 95       	inc	r27
    32c6:	d9 f7       	brne	.-10     	; 0x32be <__fixunssfsi+0x3c>
    32c8:	3e f4       	brtc	.+14     	; 0x32d8 <__fixunssfsi+0x56>
    32ca:	90 95       	com	r25
    32cc:	80 95       	com	r24
    32ce:	70 95       	com	r23
    32d0:	61 95       	neg	r22
    32d2:	7f 4f       	sbci	r23, 0xFF	; 255
    32d4:	8f 4f       	sbci	r24, 0xFF	; 255
    32d6:	9f 4f       	sbci	r25, 0xFF	; 255
    32d8:	08 95       	ret

000032da <__floatunsisf>:
    32da:	e8 94       	clt
    32dc:	09 c0       	rjmp	.+18     	; 0x32f0 <__floatsisf+0x12>

000032de <__floatsisf>:
    32de:	97 fb       	bst	r25, 7
    32e0:	3e f4       	brtc	.+14     	; 0x32f0 <__floatsisf+0x12>
    32e2:	90 95       	com	r25
    32e4:	80 95       	com	r24
    32e6:	70 95       	com	r23
    32e8:	61 95       	neg	r22
    32ea:	7f 4f       	sbci	r23, 0xFF	; 255
    32ec:	8f 4f       	sbci	r24, 0xFF	; 255
    32ee:	9f 4f       	sbci	r25, 0xFF	; 255
    32f0:	99 23       	and	r25, r25
    32f2:	a9 f0       	breq	.+42     	; 0x331e <__floatsisf+0x40>
    32f4:	f9 2f       	mov	r31, r25
    32f6:	96 e9       	ldi	r25, 0x96	; 150
    32f8:	bb 27       	eor	r27, r27
    32fa:	93 95       	inc	r25
    32fc:	f6 95       	lsr	r31
    32fe:	87 95       	ror	r24
    3300:	77 95       	ror	r23
    3302:	67 95       	ror	r22
    3304:	b7 95       	ror	r27
    3306:	f1 11       	cpse	r31, r1
    3308:	f8 cf       	rjmp	.-16     	; 0x32fa <__floatsisf+0x1c>
    330a:	fa f4       	brpl	.+62     	; 0x334a <__floatsisf+0x6c>
    330c:	bb 0f       	add	r27, r27
    330e:	11 f4       	brne	.+4      	; 0x3314 <__floatsisf+0x36>
    3310:	60 ff       	sbrs	r22, 0
    3312:	1b c0       	rjmp	.+54     	; 0x334a <__floatsisf+0x6c>
    3314:	6f 5f       	subi	r22, 0xFF	; 255
    3316:	7f 4f       	sbci	r23, 0xFF	; 255
    3318:	8f 4f       	sbci	r24, 0xFF	; 255
    331a:	9f 4f       	sbci	r25, 0xFF	; 255
    331c:	16 c0       	rjmp	.+44     	; 0x334a <__floatsisf+0x6c>
    331e:	88 23       	and	r24, r24
    3320:	11 f0       	breq	.+4      	; 0x3326 <__floatsisf+0x48>
    3322:	96 e9       	ldi	r25, 0x96	; 150
    3324:	11 c0       	rjmp	.+34     	; 0x3348 <__floatsisf+0x6a>
    3326:	77 23       	and	r23, r23
    3328:	21 f0       	breq	.+8      	; 0x3332 <__floatsisf+0x54>
    332a:	9e e8       	ldi	r25, 0x8E	; 142
    332c:	87 2f       	mov	r24, r23
    332e:	76 2f       	mov	r23, r22
    3330:	05 c0       	rjmp	.+10     	; 0x333c <__floatsisf+0x5e>
    3332:	66 23       	and	r22, r22
    3334:	71 f0       	breq	.+28     	; 0x3352 <__floatsisf+0x74>
    3336:	96 e8       	ldi	r25, 0x86	; 134
    3338:	86 2f       	mov	r24, r22
    333a:	70 e0       	ldi	r23, 0x00	; 0
    333c:	60 e0       	ldi	r22, 0x00	; 0
    333e:	2a f0       	brmi	.+10     	; 0x334a <__floatsisf+0x6c>
    3340:	9a 95       	dec	r25
    3342:	66 0f       	add	r22, r22
    3344:	77 1f       	adc	r23, r23
    3346:	88 1f       	adc	r24, r24
    3348:	da f7       	brpl	.-10     	; 0x3340 <__floatsisf+0x62>
    334a:	88 0f       	add	r24, r24
    334c:	96 95       	lsr	r25
    334e:	87 95       	ror	r24
    3350:	97 f9       	bld	r25, 7
    3352:	08 95       	ret

00003354 <__fp_inf>:
    3354:	97 f9       	bld	r25, 7
    3356:	9f 67       	ori	r25, 0x7F	; 127
    3358:	80 e8       	ldi	r24, 0x80	; 128
    335a:	70 e0       	ldi	r23, 0x00	; 0
    335c:	60 e0       	ldi	r22, 0x00	; 0
    335e:	08 95       	ret

00003360 <__fp_nan>:
    3360:	9f ef       	ldi	r25, 0xFF	; 255
    3362:	80 ec       	ldi	r24, 0xC0	; 192
    3364:	08 95       	ret

00003366 <__fp_pscA>:
    3366:	00 24       	eor	r0, r0
    3368:	0a 94       	dec	r0
    336a:	16 16       	cp	r1, r22
    336c:	17 06       	cpc	r1, r23
    336e:	18 06       	cpc	r1, r24
    3370:	09 06       	cpc	r0, r25
    3372:	08 95       	ret

00003374 <__fp_pscB>:
    3374:	00 24       	eor	r0, r0
    3376:	0a 94       	dec	r0
    3378:	12 16       	cp	r1, r18
    337a:	13 06       	cpc	r1, r19
    337c:	14 06       	cpc	r1, r20
    337e:	05 06       	cpc	r0, r21
    3380:	08 95       	ret

00003382 <__fp_round>:
    3382:	09 2e       	mov	r0, r25
    3384:	03 94       	inc	r0
    3386:	00 0c       	add	r0, r0
    3388:	11 f4       	brne	.+4      	; 0x338e <__fp_round+0xc>
    338a:	88 23       	and	r24, r24
    338c:	52 f0       	brmi	.+20     	; 0x33a2 <__fp_round+0x20>
    338e:	bb 0f       	add	r27, r27
    3390:	40 f4       	brcc	.+16     	; 0x33a2 <__fp_round+0x20>
    3392:	bf 2b       	or	r27, r31
    3394:	11 f4       	brne	.+4      	; 0x339a <__fp_round+0x18>
    3396:	60 ff       	sbrs	r22, 0
    3398:	04 c0       	rjmp	.+8      	; 0x33a2 <__fp_round+0x20>
    339a:	6f 5f       	subi	r22, 0xFF	; 255
    339c:	7f 4f       	sbci	r23, 0xFF	; 255
    339e:	8f 4f       	sbci	r24, 0xFF	; 255
    33a0:	9f 4f       	sbci	r25, 0xFF	; 255
    33a2:	08 95       	ret

000033a4 <__fp_split3>:
    33a4:	57 fd       	sbrc	r21, 7
    33a6:	90 58       	subi	r25, 0x80	; 128
    33a8:	44 0f       	add	r20, r20
    33aa:	55 1f       	adc	r21, r21
    33ac:	59 f0       	breq	.+22     	; 0x33c4 <__fp_splitA+0x10>
    33ae:	5f 3f       	cpi	r21, 0xFF	; 255
    33b0:	71 f0       	breq	.+28     	; 0x33ce <__fp_splitA+0x1a>
    33b2:	47 95       	ror	r20

000033b4 <__fp_splitA>:
    33b4:	88 0f       	add	r24, r24
    33b6:	97 fb       	bst	r25, 7
    33b8:	99 1f       	adc	r25, r25
    33ba:	61 f0       	breq	.+24     	; 0x33d4 <__fp_splitA+0x20>
    33bc:	9f 3f       	cpi	r25, 0xFF	; 255
    33be:	79 f0       	breq	.+30     	; 0x33de <__fp_splitA+0x2a>
    33c0:	87 95       	ror	r24
    33c2:	08 95       	ret
    33c4:	12 16       	cp	r1, r18
    33c6:	13 06       	cpc	r1, r19
    33c8:	14 06       	cpc	r1, r20
    33ca:	55 1f       	adc	r21, r21
    33cc:	f2 cf       	rjmp	.-28     	; 0x33b2 <__fp_split3+0xe>
    33ce:	46 95       	lsr	r20
    33d0:	f1 df       	rcall	.-30     	; 0x33b4 <__fp_splitA>
    33d2:	08 c0       	rjmp	.+16     	; 0x33e4 <__fp_splitA+0x30>
    33d4:	16 16       	cp	r1, r22
    33d6:	17 06       	cpc	r1, r23
    33d8:	18 06       	cpc	r1, r24
    33da:	99 1f       	adc	r25, r25
    33dc:	f1 cf       	rjmp	.-30     	; 0x33c0 <__fp_splitA+0xc>
    33de:	86 95       	lsr	r24
    33e0:	71 05       	cpc	r23, r1
    33e2:	61 05       	cpc	r22, r1
    33e4:	08 94       	sec
    33e6:	08 95       	ret

000033e8 <__fp_zero>:
    33e8:	e8 94       	clt

000033ea <__fp_szero>:
    33ea:	bb 27       	eor	r27, r27
    33ec:	66 27       	eor	r22, r22
    33ee:	77 27       	eor	r23, r23
    33f0:	cb 01       	movw	r24, r22
    33f2:	97 f9       	bld	r25, 7
    33f4:	08 95       	ret
    33f6:	0e f0       	brts	.+2      	; 0x33fa <__fp_szero+0x10>
    33f8:	23 c1       	rjmp	.+582    	; 0x3640 <__fp_mpack>
    33fa:	b2 cf       	rjmp	.-156    	; 0x3360 <__fp_nan>
    33fc:	68 94       	set
    33fe:	aa cf       	rjmp	.-172    	; 0x3354 <__fp_inf>

00003400 <log>:
    3400:	d9 df       	rcall	.-78     	; 0x33b4 <__fp_splitA>
    3402:	c8 f3       	brcs	.-14     	; 0x33f6 <__fp_szero+0xc>
    3404:	99 23       	and	r25, r25
    3406:	d1 f3       	breq	.-12     	; 0x33fc <__fp_szero+0x12>
    3408:	c6 f3       	brts	.-16     	; 0x33fa <__fp_szero+0x10>
    340a:	df 93       	push	r29
    340c:	cf 93       	push	r28
    340e:	1f 93       	push	r17
    3410:	0f 93       	push	r16
    3412:	ff 92       	push	r15
    3414:	c9 2f       	mov	r28, r25
    3416:	dd 27       	eor	r29, r29
    3418:	88 23       	and	r24, r24
    341a:	2a f0       	brmi	.+10     	; 0x3426 <log+0x26>
    341c:	21 97       	sbiw	r28, 0x01	; 1
    341e:	66 0f       	add	r22, r22
    3420:	77 1f       	adc	r23, r23
    3422:	88 1f       	adc	r24, r24
    3424:	da f7       	brpl	.-10     	; 0x341c <log+0x1c>
    3426:	20 e0       	ldi	r18, 0x00	; 0
    3428:	30 e0       	ldi	r19, 0x00	; 0
    342a:	40 e8       	ldi	r20, 0x80	; 128
    342c:	5f eb       	ldi	r21, 0xBF	; 191
    342e:	9f e3       	ldi	r25, 0x3F	; 63
    3430:	88 39       	cpi	r24, 0x98	; 152
    3432:	20 f0       	brcs	.+8      	; 0x343c <log+0x3c>
    3434:	80 3e       	cpi	r24, 0xE0	; 224
    3436:	30 f0       	brcs	.+12     	; 0x3444 <log+0x44>
    3438:	21 96       	adiw	r28, 0x01	; 1
    343a:	8f 77       	andi	r24, 0x7F	; 127
    343c:	51 de       	rcall	.-862    	; 0x30e0 <__addsf3>
    343e:	ea e7       	ldi	r30, 0x7A	; 122
    3440:	f2 e0       	ldi	r31, 0x02	; 2
    3442:	03 c0       	rjmp	.+6      	; 0x344a <log+0x4a>
    3444:	4d de       	rcall	.-870    	; 0x30e0 <__addsf3>
    3446:	e7 ea       	ldi	r30, 0xA7	; 167
    3448:	f2 e0       	ldi	r31, 0x02	; 2
    344a:	08 d1       	rcall	.+528    	; 0x365c <__fp_powser>
    344c:	8b 01       	movw	r16, r22
    344e:	be 01       	movw	r22, r28
    3450:	ec 01       	movw	r28, r24
    3452:	fb 2e       	mov	r15, r27
    3454:	6f 57       	subi	r22, 0x7F	; 127
    3456:	71 09       	sbc	r23, r1
    3458:	75 95       	asr	r23
    345a:	77 1f       	adc	r23, r23
    345c:	88 0b       	sbc	r24, r24
    345e:	99 0b       	sbc	r25, r25
    3460:	3e df       	rcall	.-388    	; 0x32de <__floatsisf>
    3462:	28 e1       	ldi	r18, 0x18	; 24
    3464:	32 e7       	ldi	r19, 0x72	; 114
    3466:	41 e3       	ldi	r20, 0x31	; 49
    3468:	5f e3       	ldi	r21, 0x3F	; 63
    346a:	16 d0       	rcall	.+44     	; 0x3498 <__mulsf3x>
    346c:	af 2d       	mov	r26, r15
    346e:	98 01       	movw	r18, r16
    3470:	ae 01       	movw	r20, r28
    3472:	ff 90       	pop	r15
    3474:	0f 91       	pop	r16
    3476:	1f 91       	pop	r17
    3478:	cf 91       	pop	r28
    347a:	df 91       	pop	r29
    347c:	42 de       	rcall	.-892    	; 0x3102 <__addsf3x>
    347e:	81 cf       	rjmp	.-254    	; 0x3382 <__fp_round>

00003480 <__mulsf3>:
    3480:	0b d0       	rcall	.+22     	; 0x3498 <__mulsf3x>
    3482:	7f cf       	rjmp	.-258    	; 0x3382 <__fp_round>
    3484:	70 df       	rcall	.-288    	; 0x3366 <__fp_pscA>
    3486:	28 f0       	brcs	.+10     	; 0x3492 <__mulsf3+0x12>
    3488:	75 df       	rcall	.-278    	; 0x3374 <__fp_pscB>
    348a:	18 f0       	brcs	.+6      	; 0x3492 <__mulsf3+0x12>
    348c:	95 23       	and	r25, r21
    348e:	09 f0       	breq	.+2      	; 0x3492 <__mulsf3+0x12>
    3490:	61 cf       	rjmp	.-318    	; 0x3354 <__fp_inf>
    3492:	66 cf       	rjmp	.-308    	; 0x3360 <__fp_nan>
    3494:	11 24       	eor	r1, r1
    3496:	a9 cf       	rjmp	.-174    	; 0x33ea <__fp_szero>

00003498 <__mulsf3x>:
    3498:	85 df       	rcall	.-246    	; 0x33a4 <__fp_split3>
    349a:	a0 f3       	brcs	.-24     	; 0x3484 <__mulsf3+0x4>

0000349c <__mulsf3_pse>:
    349c:	95 9f       	mul	r25, r21
    349e:	d1 f3       	breq	.-12     	; 0x3494 <__mulsf3+0x14>
    34a0:	95 0f       	add	r25, r21
    34a2:	50 e0       	ldi	r21, 0x00	; 0
    34a4:	55 1f       	adc	r21, r21
    34a6:	62 9f       	mul	r22, r18
    34a8:	f0 01       	movw	r30, r0
    34aa:	72 9f       	mul	r23, r18
    34ac:	bb 27       	eor	r27, r27
    34ae:	f0 0d       	add	r31, r0
    34b0:	b1 1d       	adc	r27, r1
    34b2:	63 9f       	mul	r22, r19
    34b4:	aa 27       	eor	r26, r26
    34b6:	f0 0d       	add	r31, r0
    34b8:	b1 1d       	adc	r27, r1
    34ba:	aa 1f       	adc	r26, r26
    34bc:	64 9f       	mul	r22, r20
    34be:	66 27       	eor	r22, r22
    34c0:	b0 0d       	add	r27, r0
    34c2:	a1 1d       	adc	r26, r1
    34c4:	66 1f       	adc	r22, r22
    34c6:	82 9f       	mul	r24, r18
    34c8:	22 27       	eor	r18, r18
    34ca:	b0 0d       	add	r27, r0
    34cc:	a1 1d       	adc	r26, r1
    34ce:	62 1f       	adc	r22, r18
    34d0:	73 9f       	mul	r23, r19
    34d2:	b0 0d       	add	r27, r0
    34d4:	a1 1d       	adc	r26, r1
    34d6:	62 1f       	adc	r22, r18
    34d8:	83 9f       	mul	r24, r19
    34da:	a0 0d       	add	r26, r0
    34dc:	61 1d       	adc	r22, r1
    34de:	22 1f       	adc	r18, r18
    34e0:	74 9f       	mul	r23, r20
    34e2:	33 27       	eor	r19, r19
    34e4:	a0 0d       	add	r26, r0
    34e6:	61 1d       	adc	r22, r1
    34e8:	23 1f       	adc	r18, r19
    34ea:	84 9f       	mul	r24, r20
    34ec:	60 0d       	add	r22, r0
    34ee:	21 1d       	adc	r18, r1
    34f0:	82 2f       	mov	r24, r18
    34f2:	76 2f       	mov	r23, r22
    34f4:	6a 2f       	mov	r22, r26
    34f6:	11 24       	eor	r1, r1
    34f8:	9f 57       	subi	r25, 0x7F	; 127
    34fa:	50 40       	sbci	r21, 0x00	; 0
    34fc:	8a f0       	brmi	.+34     	; 0x3520 <__mulsf3_pse+0x84>
    34fe:	e1 f0       	breq	.+56     	; 0x3538 <__mulsf3_pse+0x9c>
    3500:	88 23       	and	r24, r24
    3502:	4a f0       	brmi	.+18     	; 0x3516 <__mulsf3_pse+0x7a>
    3504:	ee 0f       	add	r30, r30
    3506:	ff 1f       	adc	r31, r31
    3508:	bb 1f       	adc	r27, r27
    350a:	66 1f       	adc	r22, r22
    350c:	77 1f       	adc	r23, r23
    350e:	88 1f       	adc	r24, r24
    3510:	91 50       	subi	r25, 0x01	; 1
    3512:	50 40       	sbci	r21, 0x00	; 0
    3514:	a9 f7       	brne	.-22     	; 0x3500 <__mulsf3_pse+0x64>
    3516:	9e 3f       	cpi	r25, 0xFE	; 254
    3518:	51 05       	cpc	r21, r1
    351a:	70 f0       	brcs	.+28     	; 0x3538 <__mulsf3_pse+0x9c>
    351c:	1b cf       	rjmp	.-458    	; 0x3354 <__fp_inf>
    351e:	65 cf       	rjmp	.-310    	; 0x33ea <__fp_szero>
    3520:	5f 3f       	cpi	r21, 0xFF	; 255
    3522:	ec f3       	brlt	.-6      	; 0x351e <__mulsf3_pse+0x82>
    3524:	98 3e       	cpi	r25, 0xE8	; 232
    3526:	dc f3       	brlt	.-10     	; 0x351e <__mulsf3_pse+0x82>
    3528:	86 95       	lsr	r24
    352a:	77 95       	ror	r23
    352c:	67 95       	ror	r22
    352e:	b7 95       	ror	r27
    3530:	f7 95       	ror	r31
    3532:	e7 95       	ror	r30
    3534:	9f 5f       	subi	r25, 0xFF	; 255
    3536:	c1 f7       	brne	.-16     	; 0x3528 <__mulsf3_pse+0x8c>
    3538:	fe 2b       	or	r31, r30
    353a:	88 0f       	add	r24, r24
    353c:	91 1d       	adc	r25, r1
    353e:	96 95       	lsr	r25
    3540:	87 95       	ror	r24
    3542:	97 f9       	bld	r25, 7
    3544:	08 95       	ret

00003546 <pow>:
    3546:	fa 01       	movw	r30, r20
    3548:	ee 0f       	add	r30, r30
    354a:	ff 1f       	adc	r31, r31
    354c:	30 96       	adiw	r30, 0x00	; 0
    354e:	21 05       	cpc	r18, r1
    3550:	31 05       	cpc	r19, r1
    3552:	99 f1       	breq	.+102    	; 0x35ba <pow+0x74>
    3554:	61 15       	cp	r22, r1
    3556:	71 05       	cpc	r23, r1
    3558:	61 f4       	brne	.+24     	; 0x3572 <pow+0x2c>
    355a:	80 38       	cpi	r24, 0x80	; 128
    355c:	bf e3       	ldi	r27, 0x3F	; 63
    355e:	9b 07       	cpc	r25, r27
    3560:	49 f1       	breq	.+82     	; 0x35b4 <pow+0x6e>
    3562:	68 94       	set
    3564:	90 38       	cpi	r25, 0x80	; 128
    3566:	81 05       	cpc	r24, r1
    3568:	61 f0       	breq	.+24     	; 0x3582 <pow+0x3c>
    356a:	80 38       	cpi	r24, 0x80	; 128
    356c:	bf ef       	ldi	r27, 0xFF	; 255
    356e:	9b 07       	cpc	r25, r27
    3570:	41 f0       	breq	.+16     	; 0x3582 <pow+0x3c>
    3572:	99 23       	and	r25, r25
    3574:	42 f5       	brpl	.+80     	; 0x35c6 <pow+0x80>
    3576:	ff 3f       	cpi	r31, 0xFF	; 255
    3578:	e1 05       	cpc	r30, r1
    357a:	31 05       	cpc	r19, r1
    357c:	21 05       	cpc	r18, r1
    357e:	11 f1       	breq	.+68     	; 0x35c4 <pow+0x7e>
    3580:	e8 94       	clt
    3582:	08 94       	sec
    3584:	e7 95       	ror	r30
    3586:	d9 01       	movw	r26, r18
    3588:	aa 23       	and	r26, r26
    358a:	29 f4       	brne	.+10     	; 0x3596 <pow+0x50>
    358c:	ab 2f       	mov	r26, r27
    358e:	be 2f       	mov	r27, r30
    3590:	f8 5f       	subi	r31, 0xF8	; 248
    3592:	d0 f3       	brcs	.-12     	; 0x3588 <pow+0x42>
    3594:	10 c0       	rjmp	.+32     	; 0x35b6 <pow+0x70>
    3596:	ff 5f       	subi	r31, 0xFF	; 255
    3598:	70 f4       	brcc	.+28     	; 0x35b6 <pow+0x70>
    359a:	a6 95       	lsr	r26
    359c:	e0 f7       	brcc	.-8      	; 0x3596 <pow+0x50>
    359e:	f7 39       	cpi	r31, 0x97	; 151
    35a0:	50 f0       	brcs	.+20     	; 0x35b6 <pow+0x70>
    35a2:	19 f0       	breq	.+6      	; 0x35aa <pow+0x64>
    35a4:	ff 3a       	cpi	r31, 0xAF	; 175
    35a6:	38 f4       	brcc	.+14     	; 0x35b6 <pow+0x70>
    35a8:	9f 77       	andi	r25, 0x7F	; 127
    35aa:	9f 93       	push	r25
    35ac:	0c d0       	rcall	.+24     	; 0x35c6 <pow+0x80>
    35ae:	0f 90       	pop	r0
    35b0:	07 fc       	sbrc	r0, 7
    35b2:	90 58       	subi	r25, 0x80	; 128
    35b4:	08 95       	ret
    35b6:	3e f0       	brts	.+14     	; 0x35c6 <pow+0x80>
    35b8:	d3 ce       	rjmp	.-602    	; 0x3360 <__fp_nan>
    35ba:	60 e0       	ldi	r22, 0x00	; 0
    35bc:	70 e0       	ldi	r23, 0x00	; 0
    35be:	80 e8       	ldi	r24, 0x80	; 128
    35c0:	9f e3       	ldi	r25, 0x3F	; 63
    35c2:	08 95       	ret
    35c4:	4f e7       	ldi	r20, 0x7F	; 127
    35c6:	9f 77       	andi	r25, 0x7F	; 127
    35c8:	5f 93       	push	r21
    35ca:	4f 93       	push	r20
    35cc:	3f 93       	push	r19
    35ce:	2f 93       	push	r18
    35d0:	17 df       	rcall	.-466    	; 0x3400 <log>
    35d2:	2f 91       	pop	r18
    35d4:	3f 91       	pop	r19
    35d6:	4f 91       	pop	r20
    35d8:	5f 91       	pop	r21
    35da:	52 df       	rcall	.-348    	; 0x3480 <__mulsf3>
    35dc:	05 c0       	rjmp	.+10     	; 0x35e8 <exp>
    35de:	19 f4       	brne	.+6      	; 0x35e6 <pow+0xa0>
    35e0:	0e f0       	brts	.+2      	; 0x35e4 <pow+0x9e>
    35e2:	b8 ce       	rjmp	.-656    	; 0x3354 <__fp_inf>
    35e4:	01 cf       	rjmp	.-510    	; 0x33e8 <__fp_zero>
    35e6:	bc ce       	rjmp	.-648    	; 0x3360 <__fp_nan>

000035e8 <exp>:
    35e8:	e5 de       	rcall	.-566    	; 0x33b4 <__fp_splitA>
    35ea:	c8 f3       	brcs	.-14     	; 0x35de <pow+0x98>
    35ec:	96 38       	cpi	r25, 0x86	; 134
    35ee:	c0 f7       	brcc	.-16     	; 0x35e0 <pow+0x9a>
    35f0:	07 f8       	bld	r0, 7
    35f2:	0f 92       	push	r0
    35f4:	e8 94       	clt
    35f6:	2b e3       	ldi	r18, 0x3B	; 59
    35f8:	3a ea       	ldi	r19, 0xAA	; 170
    35fa:	48 eb       	ldi	r20, 0xB8	; 184
    35fc:	5f e7       	ldi	r21, 0x7F	; 127
    35fe:	4e df       	rcall	.-356    	; 0x349c <__mulsf3_pse>
    3600:	0f 92       	push	r0
    3602:	0f 92       	push	r0
    3604:	0f 92       	push	r0
    3606:	4d b7       	in	r20, 0x3d	; 61
    3608:	5e b7       	in	r21, 0x3e	; 62
    360a:	0f 92       	push	r0
    360c:	89 d0       	rcall	.+274    	; 0x3720 <modf>
    360e:	e4 ed       	ldi	r30, 0xD4	; 212
    3610:	f2 e0       	ldi	r31, 0x02	; 2
    3612:	24 d0       	rcall	.+72     	; 0x365c <__fp_powser>
    3614:	4f 91       	pop	r20
    3616:	5f 91       	pop	r21
    3618:	ef 91       	pop	r30
    361a:	ff 91       	pop	r31
    361c:	e5 95       	asr	r30
    361e:	ee 1f       	adc	r30, r30
    3620:	ff 1f       	adc	r31, r31
    3622:	49 f0       	breq	.+18     	; 0x3636 <exp+0x4e>
    3624:	fe 57       	subi	r31, 0x7E	; 126
    3626:	e0 68       	ori	r30, 0x80	; 128
    3628:	44 27       	eor	r20, r20
    362a:	ee 0f       	add	r30, r30
    362c:	44 1f       	adc	r20, r20
    362e:	fa 95       	dec	r31
    3630:	e1 f7       	brne	.-8      	; 0x362a <exp+0x42>
    3632:	41 95       	neg	r20
    3634:	55 0b       	sbc	r21, r21
    3636:	40 d0       	rcall	.+128    	; 0x36b8 <ldexp>
    3638:	0f 90       	pop	r0
    363a:	07 fe       	sbrs	r0, 7
    363c:	34 c0       	rjmp	.+104    	; 0x36a6 <inverse>
    363e:	08 95       	ret

00003640 <__fp_mpack>:
    3640:	9f 3f       	cpi	r25, 0xFF	; 255
    3642:	31 f0       	breq	.+12     	; 0x3650 <__fp_mpack_finite+0xc>

00003644 <__fp_mpack_finite>:
    3644:	91 50       	subi	r25, 0x01	; 1
    3646:	20 f4       	brcc	.+8      	; 0x3650 <__fp_mpack_finite+0xc>
    3648:	87 95       	ror	r24
    364a:	77 95       	ror	r23
    364c:	67 95       	ror	r22
    364e:	b7 95       	ror	r27
    3650:	88 0f       	add	r24, r24
    3652:	91 1d       	adc	r25, r1
    3654:	96 95       	lsr	r25
    3656:	87 95       	ror	r24
    3658:	97 f9       	bld	r25, 7
    365a:	08 95       	ret

0000365c <__fp_powser>:
    365c:	df 93       	push	r29
    365e:	cf 93       	push	r28
    3660:	1f 93       	push	r17
    3662:	0f 93       	push	r16
    3664:	ff 92       	push	r15
    3666:	ef 92       	push	r14
    3668:	df 92       	push	r13
    366a:	7b 01       	movw	r14, r22
    366c:	8c 01       	movw	r16, r24
    366e:	68 94       	set
    3670:	05 c0       	rjmp	.+10     	; 0x367c <__fp_powser+0x20>
    3672:	da 2e       	mov	r13, r26
    3674:	ef 01       	movw	r28, r30
    3676:	10 df       	rcall	.-480    	; 0x3498 <__mulsf3x>
    3678:	fe 01       	movw	r30, r28
    367a:	e8 94       	clt
    367c:	a5 91       	lpm	r26, Z+
    367e:	25 91       	lpm	r18, Z+
    3680:	35 91       	lpm	r19, Z+
    3682:	45 91       	lpm	r20, Z+
    3684:	55 91       	lpm	r21, Z+
    3686:	ae f3       	brts	.-22     	; 0x3672 <__fp_powser+0x16>
    3688:	ef 01       	movw	r28, r30
    368a:	3b dd       	rcall	.-1418   	; 0x3102 <__addsf3x>
    368c:	fe 01       	movw	r30, r28
    368e:	97 01       	movw	r18, r14
    3690:	a8 01       	movw	r20, r16
    3692:	da 94       	dec	r13
    3694:	79 f7       	brne	.-34     	; 0x3674 <__fp_powser+0x18>
    3696:	df 90       	pop	r13
    3698:	ef 90       	pop	r14
    369a:	ff 90       	pop	r15
    369c:	0f 91       	pop	r16
    369e:	1f 91       	pop	r17
    36a0:	cf 91       	pop	r28
    36a2:	df 91       	pop	r29
    36a4:	08 95       	ret

000036a6 <inverse>:
    36a6:	9b 01       	movw	r18, r22
    36a8:	ac 01       	movw	r20, r24
    36aa:	60 e0       	ldi	r22, 0x00	; 0
    36ac:	70 e0       	ldi	r23, 0x00	; 0
    36ae:	80 e8       	ldi	r24, 0x80	; 128
    36b0:	9f e3       	ldi	r25, 0x3F	; 63
    36b2:	7a cd       	rjmp	.-1292   	; 0x31a8 <__divsf3>
    36b4:	4f ce       	rjmp	.-866    	; 0x3354 <__fp_inf>
    36b6:	c4 cf       	rjmp	.-120    	; 0x3640 <__fp_mpack>

000036b8 <ldexp>:
    36b8:	7d de       	rcall	.-774    	; 0x33b4 <__fp_splitA>
    36ba:	e8 f3       	brcs	.-6      	; 0x36b6 <inverse+0x10>
    36bc:	99 23       	and	r25, r25
    36be:	d9 f3       	breq	.-10     	; 0x36b6 <inverse+0x10>
    36c0:	94 0f       	add	r25, r20
    36c2:	51 1d       	adc	r21, r1
    36c4:	bb f3       	brvs	.-18     	; 0x36b4 <inverse+0xe>
    36c6:	91 50       	subi	r25, 0x01	; 1
    36c8:	50 40       	sbci	r21, 0x00	; 0
    36ca:	94 f0       	brlt	.+36     	; 0x36f0 <ldexp+0x38>
    36cc:	59 f0       	breq	.+22     	; 0x36e4 <ldexp+0x2c>
    36ce:	88 23       	and	r24, r24
    36d0:	32 f0       	brmi	.+12     	; 0x36de <ldexp+0x26>
    36d2:	66 0f       	add	r22, r22
    36d4:	77 1f       	adc	r23, r23
    36d6:	88 1f       	adc	r24, r24
    36d8:	91 50       	subi	r25, 0x01	; 1
    36da:	50 40       	sbci	r21, 0x00	; 0
    36dc:	c1 f7       	brne	.-16     	; 0x36ce <ldexp+0x16>
    36de:	9e 3f       	cpi	r25, 0xFE	; 254
    36e0:	51 05       	cpc	r21, r1
    36e2:	44 f7       	brge	.-48     	; 0x36b4 <inverse+0xe>
    36e4:	88 0f       	add	r24, r24
    36e6:	91 1d       	adc	r25, r1
    36e8:	96 95       	lsr	r25
    36ea:	87 95       	ror	r24
    36ec:	97 f9       	bld	r25, 7
    36ee:	08 95       	ret
    36f0:	5f 3f       	cpi	r21, 0xFF	; 255
    36f2:	ac f0       	brlt	.+42     	; 0x371e <ldexp+0x66>
    36f4:	98 3e       	cpi	r25, 0xE8	; 232
    36f6:	9c f0       	brlt	.+38     	; 0x371e <ldexp+0x66>
    36f8:	bb 27       	eor	r27, r27
    36fa:	86 95       	lsr	r24
    36fc:	77 95       	ror	r23
    36fe:	67 95       	ror	r22
    3700:	b7 95       	ror	r27
    3702:	08 f4       	brcc	.+2      	; 0x3706 <ldexp+0x4e>
    3704:	b1 60       	ori	r27, 0x01	; 1
    3706:	93 95       	inc	r25
    3708:	c1 f7       	brne	.-16     	; 0x36fa <ldexp+0x42>
    370a:	bb 0f       	add	r27, r27
    370c:	58 f7       	brcc	.-42     	; 0x36e4 <ldexp+0x2c>
    370e:	11 f4       	brne	.+4      	; 0x3714 <ldexp+0x5c>
    3710:	60 ff       	sbrs	r22, 0
    3712:	e8 cf       	rjmp	.-48     	; 0x36e4 <ldexp+0x2c>
    3714:	6f 5f       	subi	r22, 0xFF	; 255
    3716:	7f 4f       	sbci	r23, 0xFF	; 255
    3718:	8f 4f       	sbci	r24, 0xFF	; 255
    371a:	9f 4f       	sbci	r25, 0xFF	; 255
    371c:	e3 cf       	rjmp	.-58     	; 0x36e4 <ldexp+0x2c>
    371e:	65 ce       	rjmp	.-822    	; 0x33ea <__fp_szero>

00003720 <modf>:
    3720:	fa 01       	movw	r30, r20
    3722:	dc 01       	movw	r26, r24
    3724:	aa 0f       	add	r26, r26
    3726:	bb 1f       	adc	r27, r27
    3728:	9b 01       	movw	r18, r22
    372a:	ac 01       	movw	r20, r24
    372c:	bf 57       	subi	r27, 0x7F	; 127
    372e:	28 f4       	brcc	.+10     	; 0x373a <modf+0x1a>
    3730:	22 27       	eor	r18, r18
    3732:	33 27       	eor	r19, r19
    3734:	44 27       	eor	r20, r20
    3736:	50 78       	andi	r21, 0x80	; 128
    3738:	1f c0       	rjmp	.+62     	; 0x3778 <modf+0x58>
    373a:	b7 51       	subi	r27, 0x17	; 23
    373c:	88 f4       	brcc	.+34     	; 0x3760 <modf+0x40>
    373e:	ab 2f       	mov	r26, r27
    3740:	00 24       	eor	r0, r0
    3742:	46 95       	lsr	r20
    3744:	37 95       	ror	r19
    3746:	27 95       	ror	r18
    3748:	01 1c       	adc	r0, r1
    374a:	a3 95       	inc	r26
    374c:	d2 f3       	brmi	.-12     	; 0x3742 <modf+0x22>
    374e:	00 20       	and	r0, r0
    3750:	69 f0       	breq	.+26     	; 0x376c <modf+0x4c>
    3752:	22 0f       	add	r18, r18
    3754:	33 1f       	adc	r19, r19
    3756:	44 1f       	adc	r20, r20
    3758:	b3 95       	inc	r27
    375a:	da f3       	brmi	.-10     	; 0x3752 <modf+0x32>
    375c:	0d d0       	rcall	.+26     	; 0x3778 <modf+0x58>
    375e:	bf cc       	rjmp	.-1666   	; 0x30de <__subsf3>
    3760:	61 30       	cpi	r22, 0x01	; 1
    3762:	71 05       	cpc	r23, r1
    3764:	a0 e8       	ldi	r26, 0x80	; 128
    3766:	8a 07       	cpc	r24, r26
    3768:	b9 46       	sbci	r27, 0x69	; 105
    376a:	30 f4       	brcc	.+12     	; 0x3778 <modf+0x58>
    376c:	9b 01       	movw	r18, r22
    376e:	ac 01       	movw	r20, r24
    3770:	66 27       	eor	r22, r22
    3772:	77 27       	eor	r23, r23
    3774:	88 27       	eor	r24, r24
    3776:	90 78       	andi	r25, 0x80	; 128
    3778:	30 96       	adiw	r30, 0x00	; 0
    377a:	21 f0       	breq	.+8      	; 0x3784 <modf+0x64>
    377c:	20 83       	st	Z, r18
    377e:	31 83       	std	Z+1, r19	; 0x01
    3780:	42 83       	std	Z+2, r20	; 0x02
    3782:	53 83       	std	Z+3, r21	; 0x03
    3784:	08 95       	ret

00003786 <vfprintf>:
    3786:	2f 92       	push	r2
    3788:	3f 92       	push	r3
    378a:	4f 92       	push	r4
    378c:	5f 92       	push	r5
    378e:	6f 92       	push	r6
    3790:	7f 92       	push	r7
    3792:	8f 92       	push	r8
    3794:	9f 92       	push	r9
    3796:	af 92       	push	r10
    3798:	bf 92       	push	r11
    379a:	cf 92       	push	r12
    379c:	df 92       	push	r13
    379e:	ef 92       	push	r14
    37a0:	ff 92       	push	r15
    37a2:	0f 93       	push	r16
    37a4:	1f 93       	push	r17
    37a6:	cf 93       	push	r28
    37a8:	df 93       	push	r29
    37aa:	cd b7       	in	r28, 0x3d	; 61
    37ac:	de b7       	in	r29, 0x3e	; 62
    37ae:	60 97       	sbiw	r28, 0x10	; 16
    37b0:	cd bf       	out	0x3d, r28	; 61
    37b2:	de bf       	out	0x3e, r29	; 62
    37b4:	7c 01       	movw	r14, r24
    37b6:	1b 01       	movw	r2, r22
    37b8:	6a 01       	movw	r12, r20
    37ba:	fc 01       	movw	r30, r24
    37bc:	16 82       	std	Z+6, r1	; 0x06
    37be:	17 82       	std	Z+7, r1	; 0x07
    37c0:	83 81       	ldd	r24, Z+3	; 0x03
    37c2:	81 ff       	sbrs	r24, 1
    37c4:	2a c3       	rjmp	.+1620   	; 0x3e1a <vfprintf+0x694>
    37c6:	9e 01       	movw	r18, r28
    37c8:	2f 5f       	subi	r18, 0xFF	; 255
    37ca:	3f 4f       	sbci	r19, 0xFF	; 255
    37cc:	39 01       	movw	r6, r18
    37ce:	f7 01       	movw	r30, r14
    37d0:	93 81       	ldd	r25, Z+3	; 0x03
    37d2:	f1 01       	movw	r30, r2
    37d4:	93 fd       	sbrc	r25, 3
    37d6:	85 91       	lpm	r24, Z+
    37d8:	93 ff       	sbrs	r25, 3
    37da:	81 91       	ld	r24, Z+
    37dc:	1f 01       	movw	r2, r30
    37de:	88 23       	and	r24, r24
    37e0:	09 f4       	brne	.+2      	; 0x37e4 <vfprintf+0x5e>
    37e2:	17 c3       	rjmp	.+1582   	; 0x3e12 <vfprintf+0x68c>
    37e4:	85 32       	cpi	r24, 0x25	; 37
    37e6:	39 f4       	brne	.+14     	; 0x37f6 <vfprintf+0x70>
    37e8:	93 fd       	sbrc	r25, 3
    37ea:	85 91       	lpm	r24, Z+
    37ec:	93 ff       	sbrs	r25, 3
    37ee:	81 91       	ld	r24, Z+
    37f0:	1f 01       	movw	r2, r30
    37f2:	85 32       	cpi	r24, 0x25	; 37
    37f4:	31 f4       	brne	.+12     	; 0x3802 <vfprintf+0x7c>
    37f6:	b7 01       	movw	r22, r14
    37f8:	90 e0       	ldi	r25, 0x00	; 0
    37fa:	86 d5       	rcall	.+2828   	; 0x4308 <fputc>
    37fc:	56 01       	movw	r10, r12
    37fe:	65 01       	movw	r12, r10
    3800:	e6 cf       	rjmp	.-52     	; 0x37ce <vfprintf+0x48>
    3802:	10 e0       	ldi	r17, 0x00	; 0
    3804:	51 2c       	mov	r5, r1
    3806:	91 2c       	mov	r9, r1
    3808:	ff e1       	ldi	r31, 0x1F	; 31
    380a:	f9 15       	cp	r31, r9
    380c:	d8 f0       	brcs	.+54     	; 0x3844 <vfprintf+0xbe>
    380e:	8b 32       	cpi	r24, 0x2B	; 43
    3810:	79 f0       	breq	.+30     	; 0x3830 <vfprintf+0xaa>
    3812:	38 f4       	brcc	.+14     	; 0x3822 <vfprintf+0x9c>
    3814:	80 32       	cpi	r24, 0x20	; 32
    3816:	79 f0       	breq	.+30     	; 0x3836 <vfprintf+0xb0>
    3818:	83 32       	cpi	r24, 0x23	; 35
    381a:	a1 f4       	brne	.+40     	; 0x3844 <vfprintf+0xbe>
    381c:	f9 2d       	mov	r31, r9
    381e:	f0 61       	ori	r31, 0x10	; 16
    3820:	2e c0       	rjmp	.+92     	; 0x387e <vfprintf+0xf8>
    3822:	8d 32       	cpi	r24, 0x2D	; 45
    3824:	61 f0       	breq	.+24     	; 0x383e <vfprintf+0xb8>
    3826:	80 33       	cpi	r24, 0x30	; 48
    3828:	69 f4       	brne	.+26     	; 0x3844 <vfprintf+0xbe>
    382a:	29 2d       	mov	r18, r9
    382c:	21 60       	ori	r18, 0x01	; 1
    382e:	2d c0       	rjmp	.+90     	; 0x388a <vfprintf+0x104>
    3830:	39 2d       	mov	r19, r9
    3832:	32 60       	ori	r19, 0x02	; 2
    3834:	93 2e       	mov	r9, r19
    3836:	89 2d       	mov	r24, r9
    3838:	84 60       	ori	r24, 0x04	; 4
    383a:	98 2e       	mov	r9, r24
    383c:	2a c0       	rjmp	.+84     	; 0x3892 <vfprintf+0x10c>
    383e:	e9 2d       	mov	r30, r9
    3840:	e8 60       	ori	r30, 0x08	; 8
    3842:	15 c0       	rjmp	.+42     	; 0x386e <vfprintf+0xe8>
    3844:	97 fc       	sbrc	r9, 7
    3846:	2d c0       	rjmp	.+90     	; 0x38a2 <vfprintf+0x11c>
    3848:	20 ed       	ldi	r18, 0xD0	; 208
    384a:	28 0f       	add	r18, r24
    384c:	2a 30       	cpi	r18, 0x0A	; 10
    384e:	88 f4       	brcc	.+34     	; 0x3872 <vfprintf+0xec>
    3850:	96 fe       	sbrs	r9, 6
    3852:	06 c0       	rjmp	.+12     	; 0x3860 <vfprintf+0xda>
    3854:	3a e0       	ldi	r19, 0x0A	; 10
    3856:	13 9f       	mul	r17, r19
    3858:	20 0d       	add	r18, r0
    385a:	11 24       	eor	r1, r1
    385c:	12 2f       	mov	r17, r18
    385e:	19 c0       	rjmp	.+50     	; 0x3892 <vfprintf+0x10c>
    3860:	8a e0       	ldi	r24, 0x0A	; 10
    3862:	58 9e       	mul	r5, r24
    3864:	20 0d       	add	r18, r0
    3866:	11 24       	eor	r1, r1
    3868:	52 2e       	mov	r5, r18
    386a:	e9 2d       	mov	r30, r9
    386c:	e0 62       	ori	r30, 0x20	; 32
    386e:	9e 2e       	mov	r9, r30
    3870:	10 c0       	rjmp	.+32     	; 0x3892 <vfprintf+0x10c>
    3872:	8e 32       	cpi	r24, 0x2E	; 46
    3874:	31 f4       	brne	.+12     	; 0x3882 <vfprintf+0xfc>
    3876:	96 fc       	sbrc	r9, 6
    3878:	cc c2       	rjmp	.+1432   	; 0x3e12 <vfprintf+0x68c>
    387a:	f9 2d       	mov	r31, r9
    387c:	f0 64       	ori	r31, 0x40	; 64
    387e:	9f 2e       	mov	r9, r31
    3880:	08 c0       	rjmp	.+16     	; 0x3892 <vfprintf+0x10c>
    3882:	8c 36       	cpi	r24, 0x6C	; 108
    3884:	21 f4       	brne	.+8      	; 0x388e <vfprintf+0x108>
    3886:	29 2d       	mov	r18, r9
    3888:	20 68       	ori	r18, 0x80	; 128
    388a:	92 2e       	mov	r9, r18
    388c:	02 c0       	rjmp	.+4      	; 0x3892 <vfprintf+0x10c>
    388e:	88 36       	cpi	r24, 0x68	; 104
    3890:	41 f4       	brne	.+16     	; 0x38a2 <vfprintf+0x11c>
    3892:	f1 01       	movw	r30, r2
    3894:	93 fd       	sbrc	r25, 3
    3896:	85 91       	lpm	r24, Z+
    3898:	93 ff       	sbrs	r25, 3
    389a:	81 91       	ld	r24, Z+
    389c:	1f 01       	movw	r2, r30
    389e:	81 11       	cpse	r24, r1
    38a0:	b3 cf       	rjmp	.-154    	; 0x3808 <vfprintf+0x82>
    38a2:	9b eb       	ldi	r25, 0xBB	; 187
    38a4:	98 0f       	add	r25, r24
    38a6:	93 30       	cpi	r25, 0x03	; 3
    38a8:	20 f4       	brcc	.+8      	; 0x38b2 <vfprintf+0x12c>
    38aa:	99 2d       	mov	r25, r9
    38ac:	90 61       	ori	r25, 0x10	; 16
    38ae:	80 5e       	subi	r24, 0xE0	; 224
    38b0:	07 c0       	rjmp	.+14     	; 0x38c0 <vfprintf+0x13a>
    38b2:	9b e9       	ldi	r25, 0x9B	; 155
    38b4:	98 0f       	add	r25, r24
    38b6:	93 30       	cpi	r25, 0x03	; 3
    38b8:	08 f0       	brcs	.+2      	; 0x38bc <vfprintf+0x136>
    38ba:	59 c1       	rjmp	.+690    	; 0x3b6e <vfprintf+0x3e8>
    38bc:	99 2d       	mov	r25, r9
    38be:	9f 7e       	andi	r25, 0xEF	; 239
    38c0:	96 ff       	sbrs	r25, 6
    38c2:	16 e0       	ldi	r17, 0x06	; 6
    38c4:	9f 73       	andi	r25, 0x3F	; 63
    38c6:	99 2e       	mov	r9, r25
    38c8:	85 36       	cpi	r24, 0x65	; 101
    38ca:	19 f4       	brne	.+6      	; 0x38d2 <vfprintf+0x14c>
    38cc:	90 64       	ori	r25, 0x40	; 64
    38ce:	99 2e       	mov	r9, r25
    38d0:	08 c0       	rjmp	.+16     	; 0x38e2 <vfprintf+0x15c>
    38d2:	86 36       	cpi	r24, 0x66	; 102
    38d4:	21 f4       	brne	.+8      	; 0x38de <vfprintf+0x158>
    38d6:	39 2f       	mov	r19, r25
    38d8:	30 68       	ori	r19, 0x80	; 128
    38da:	93 2e       	mov	r9, r19
    38dc:	02 c0       	rjmp	.+4      	; 0x38e2 <vfprintf+0x15c>
    38de:	11 11       	cpse	r17, r1
    38e0:	11 50       	subi	r17, 0x01	; 1
    38e2:	97 fe       	sbrs	r9, 7
    38e4:	07 c0       	rjmp	.+14     	; 0x38f4 <vfprintf+0x16e>
    38e6:	1c 33       	cpi	r17, 0x3C	; 60
    38e8:	50 f4       	brcc	.+20     	; 0x38fe <vfprintf+0x178>
    38ea:	44 24       	eor	r4, r4
    38ec:	43 94       	inc	r4
    38ee:	41 0e       	add	r4, r17
    38f0:	27 e0       	ldi	r18, 0x07	; 7
    38f2:	0b c0       	rjmp	.+22     	; 0x390a <vfprintf+0x184>
    38f4:	18 30       	cpi	r17, 0x08	; 8
    38f6:	38 f0       	brcs	.+14     	; 0x3906 <vfprintf+0x180>
    38f8:	27 e0       	ldi	r18, 0x07	; 7
    38fa:	17 e0       	ldi	r17, 0x07	; 7
    38fc:	05 c0       	rjmp	.+10     	; 0x3908 <vfprintf+0x182>
    38fe:	27 e0       	ldi	r18, 0x07	; 7
    3900:	9c e3       	ldi	r25, 0x3C	; 60
    3902:	49 2e       	mov	r4, r25
    3904:	02 c0       	rjmp	.+4      	; 0x390a <vfprintf+0x184>
    3906:	21 2f       	mov	r18, r17
    3908:	41 2c       	mov	r4, r1
    390a:	56 01       	movw	r10, r12
    390c:	84 e0       	ldi	r24, 0x04	; 4
    390e:	a8 0e       	add	r10, r24
    3910:	b1 1c       	adc	r11, r1
    3912:	f6 01       	movw	r30, r12
    3914:	60 81       	ld	r22, Z
    3916:	71 81       	ldd	r23, Z+1	; 0x01
    3918:	82 81       	ldd	r24, Z+2	; 0x02
    391a:	93 81       	ldd	r25, Z+3	; 0x03
    391c:	04 2d       	mov	r16, r4
    391e:	a3 01       	movw	r20, r6
    3920:	bb d3       	rcall	.+1910   	; 0x4098 <__ftoa_engine>
    3922:	6c 01       	movw	r12, r24
    3924:	f9 81       	ldd	r31, Y+1	; 0x01
    3926:	fc 87       	std	Y+12, r31	; 0x0c
    3928:	f0 ff       	sbrs	r31, 0
    392a:	02 c0       	rjmp	.+4      	; 0x3930 <vfprintf+0x1aa>
    392c:	f3 ff       	sbrs	r31, 3
    392e:	06 c0       	rjmp	.+12     	; 0x393c <vfprintf+0x1b6>
    3930:	91 fc       	sbrc	r9, 1
    3932:	06 c0       	rjmp	.+12     	; 0x3940 <vfprintf+0x1ba>
    3934:	92 fe       	sbrs	r9, 2
    3936:	06 c0       	rjmp	.+12     	; 0x3944 <vfprintf+0x1be>
    3938:	00 e2       	ldi	r16, 0x20	; 32
    393a:	05 c0       	rjmp	.+10     	; 0x3946 <vfprintf+0x1c0>
    393c:	0d e2       	ldi	r16, 0x2D	; 45
    393e:	03 c0       	rjmp	.+6      	; 0x3946 <vfprintf+0x1c0>
    3940:	0b e2       	ldi	r16, 0x2B	; 43
    3942:	01 c0       	rjmp	.+2      	; 0x3946 <vfprintf+0x1c0>
    3944:	00 e0       	ldi	r16, 0x00	; 0
    3946:	8c 85       	ldd	r24, Y+12	; 0x0c
    3948:	8c 70       	andi	r24, 0x0C	; 12
    394a:	19 f0       	breq	.+6      	; 0x3952 <vfprintf+0x1cc>
    394c:	01 11       	cpse	r16, r1
    394e:	43 c2       	rjmp	.+1158   	; 0x3dd6 <vfprintf+0x650>
    3950:	80 c2       	rjmp	.+1280   	; 0x3e52 <vfprintf+0x6cc>
    3952:	97 fe       	sbrs	r9, 7
    3954:	10 c0       	rjmp	.+32     	; 0x3976 <vfprintf+0x1f0>
    3956:	4c 0c       	add	r4, r12
    3958:	fc 85       	ldd	r31, Y+12	; 0x0c
    395a:	f4 ff       	sbrs	r31, 4
    395c:	04 c0       	rjmp	.+8      	; 0x3966 <vfprintf+0x1e0>
    395e:	8a 81       	ldd	r24, Y+2	; 0x02
    3960:	81 33       	cpi	r24, 0x31	; 49
    3962:	09 f4       	brne	.+2      	; 0x3966 <vfprintf+0x1e0>
    3964:	4a 94       	dec	r4
    3966:	14 14       	cp	r1, r4
    3968:	74 f5       	brge	.+92     	; 0x39c6 <vfprintf+0x240>
    396a:	28 e0       	ldi	r18, 0x08	; 8
    396c:	24 15       	cp	r18, r4
    396e:	78 f5       	brcc	.+94     	; 0x39ce <vfprintf+0x248>
    3970:	88 e0       	ldi	r24, 0x08	; 8
    3972:	48 2e       	mov	r4, r24
    3974:	2c c0       	rjmp	.+88     	; 0x39ce <vfprintf+0x248>
    3976:	96 fc       	sbrc	r9, 6
    3978:	2a c0       	rjmp	.+84     	; 0x39ce <vfprintf+0x248>
    397a:	81 2f       	mov	r24, r17
    397c:	90 e0       	ldi	r25, 0x00	; 0
    397e:	8c 15       	cp	r24, r12
    3980:	9d 05       	cpc	r25, r13
    3982:	9c f0       	brlt	.+38     	; 0x39aa <vfprintf+0x224>
    3984:	3c ef       	ldi	r19, 0xFC	; 252
    3986:	c3 16       	cp	r12, r19
    3988:	3f ef       	ldi	r19, 0xFF	; 255
    398a:	d3 06       	cpc	r13, r19
    398c:	74 f0       	brlt	.+28     	; 0x39aa <vfprintf+0x224>
    398e:	89 2d       	mov	r24, r9
    3990:	80 68       	ori	r24, 0x80	; 128
    3992:	98 2e       	mov	r9, r24
    3994:	0a c0       	rjmp	.+20     	; 0x39aa <vfprintf+0x224>
    3996:	e2 e0       	ldi	r30, 0x02	; 2
    3998:	f0 e0       	ldi	r31, 0x00	; 0
    399a:	ec 0f       	add	r30, r28
    399c:	fd 1f       	adc	r31, r29
    399e:	e1 0f       	add	r30, r17
    39a0:	f1 1d       	adc	r31, r1
    39a2:	80 81       	ld	r24, Z
    39a4:	80 33       	cpi	r24, 0x30	; 48
    39a6:	19 f4       	brne	.+6      	; 0x39ae <vfprintf+0x228>
    39a8:	11 50       	subi	r17, 0x01	; 1
    39aa:	11 11       	cpse	r17, r1
    39ac:	f4 cf       	rjmp	.-24     	; 0x3996 <vfprintf+0x210>
    39ae:	97 fe       	sbrs	r9, 7
    39b0:	0e c0       	rjmp	.+28     	; 0x39ce <vfprintf+0x248>
    39b2:	44 24       	eor	r4, r4
    39b4:	43 94       	inc	r4
    39b6:	41 0e       	add	r4, r17
    39b8:	81 2f       	mov	r24, r17
    39ba:	90 e0       	ldi	r25, 0x00	; 0
    39bc:	c8 16       	cp	r12, r24
    39be:	d9 06       	cpc	r13, r25
    39c0:	2c f4       	brge	.+10     	; 0x39cc <vfprintf+0x246>
    39c2:	1c 19       	sub	r17, r12
    39c4:	04 c0       	rjmp	.+8      	; 0x39ce <vfprintf+0x248>
    39c6:	44 24       	eor	r4, r4
    39c8:	43 94       	inc	r4
    39ca:	01 c0       	rjmp	.+2      	; 0x39ce <vfprintf+0x248>
    39cc:	10 e0       	ldi	r17, 0x00	; 0
    39ce:	97 fe       	sbrs	r9, 7
    39d0:	06 c0       	rjmp	.+12     	; 0x39de <vfprintf+0x258>
    39d2:	1c 14       	cp	r1, r12
    39d4:	1d 04       	cpc	r1, r13
    39d6:	34 f4       	brge	.+12     	; 0x39e4 <vfprintf+0x25e>
    39d8:	c6 01       	movw	r24, r12
    39da:	01 96       	adiw	r24, 0x01	; 1
    39dc:	05 c0       	rjmp	.+10     	; 0x39e8 <vfprintf+0x262>
    39de:	85 e0       	ldi	r24, 0x05	; 5
    39e0:	90 e0       	ldi	r25, 0x00	; 0
    39e2:	02 c0       	rjmp	.+4      	; 0x39e8 <vfprintf+0x262>
    39e4:	81 e0       	ldi	r24, 0x01	; 1
    39e6:	90 e0       	ldi	r25, 0x00	; 0
    39e8:	01 11       	cpse	r16, r1
    39ea:	01 96       	adiw	r24, 0x01	; 1
    39ec:	11 23       	and	r17, r17
    39ee:	31 f0       	breq	.+12     	; 0x39fc <vfprintf+0x276>
    39f0:	21 2f       	mov	r18, r17
    39f2:	30 e0       	ldi	r19, 0x00	; 0
    39f4:	2f 5f       	subi	r18, 0xFF	; 255
    39f6:	3f 4f       	sbci	r19, 0xFF	; 255
    39f8:	82 0f       	add	r24, r18
    39fa:	93 1f       	adc	r25, r19
    39fc:	25 2d       	mov	r18, r5
    39fe:	30 e0       	ldi	r19, 0x00	; 0
    3a00:	82 17       	cp	r24, r18
    3a02:	93 07       	cpc	r25, r19
    3a04:	14 f4       	brge	.+4      	; 0x3a0a <vfprintf+0x284>
    3a06:	58 1a       	sub	r5, r24
    3a08:	01 c0       	rjmp	.+2      	; 0x3a0c <vfprintf+0x286>
    3a0a:	51 2c       	mov	r5, r1
    3a0c:	89 2d       	mov	r24, r9
    3a0e:	89 70       	andi	r24, 0x09	; 9
    3a10:	41 f4       	brne	.+16     	; 0x3a22 <vfprintf+0x29c>
    3a12:	55 20       	and	r5, r5
    3a14:	31 f0       	breq	.+12     	; 0x3a22 <vfprintf+0x29c>
    3a16:	b7 01       	movw	r22, r14
    3a18:	80 e2       	ldi	r24, 0x20	; 32
    3a1a:	90 e0       	ldi	r25, 0x00	; 0
    3a1c:	75 d4       	rcall	.+2282   	; 0x4308 <fputc>
    3a1e:	5a 94       	dec	r5
    3a20:	f8 cf       	rjmp	.-16     	; 0x3a12 <vfprintf+0x28c>
    3a22:	00 23       	and	r16, r16
    3a24:	21 f0       	breq	.+8      	; 0x3a2e <vfprintf+0x2a8>
    3a26:	b7 01       	movw	r22, r14
    3a28:	80 2f       	mov	r24, r16
    3a2a:	90 e0       	ldi	r25, 0x00	; 0
    3a2c:	6d d4       	rcall	.+2266   	; 0x4308 <fputc>
    3a2e:	93 fc       	sbrc	r9, 3
    3a30:	08 c0       	rjmp	.+16     	; 0x3a42 <vfprintf+0x2bc>
    3a32:	55 20       	and	r5, r5
    3a34:	31 f0       	breq	.+12     	; 0x3a42 <vfprintf+0x2bc>
    3a36:	b7 01       	movw	r22, r14
    3a38:	80 e3       	ldi	r24, 0x30	; 48
    3a3a:	90 e0       	ldi	r25, 0x00	; 0
    3a3c:	65 d4       	rcall	.+2250   	; 0x4308 <fputc>
    3a3e:	5a 94       	dec	r5
    3a40:	f8 cf       	rjmp	.-16     	; 0x3a32 <vfprintf+0x2ac>
    3a42:	97 fe       	sbrs	r9, 7
    3a44:	4a c0       	rjmp	.+148    	; 0x3ada <vfprintf+0x354>
    3a46:	46 01       	movw	r8, r12
    3a48:	d7 fe       	sbrs	r13, 7
    3a4a:	02 c0       	rjmp	.+4      	; 0x3a50 <vfprintf+0x2ca>
    3a4c:	81 2c       	mov	r8, r1
    3a4e:	91 2c       	mov	r9, r1
    3a50:	c6 01       	movw	r24, r12
    3a52:	88 19       	sub	r24, r8
    3a54:	99 09       	sbc	r25, r9
    3a56:	f3 01       	movw	r30, r6
    3a58:	e8 0f       	add	r30, r24
    3a5a:	f9 1f       	adc	r31, r25
    3a5c:	ed 87       	std	Y+13, r30	; 0x0d
    3a5e:	fe 87       	std	Y+14, r31	; 0x0e
    3a60:	96 01       	movw	r18, r12
    3a62:	24 19       	sub	r18, r4
    3a64:	31 09       	sbc	r19, r1
    3a66:	2f 87       	std	Y+15, r18	; 0x0f
    3a68:	38 8b       	std	Y+16, r19	; 0x10
    3a6a:	01 2f       	mov	r16, r17
    3a6c:	10 e0       	ldi	r17, 0x00	; 0
    3a6e:	11 95       	neg	r17
    3a70:	01 95       	neg	r16
    3a72:	11 09       	sbc	r17, r1
    3a74:	3f ef       	ldi	r19, 0xFF	; 255
    3a76:	83 16       	cp	r8, r19
    3a78:	93 06       	cpc	r9, r19
    3a7a:	21 f4       	brne	.+8      	; 0x3a84 <vfprintf+0x2fe>
    3a7c:	b7 01       	movw	r22, r14
    3a7e:	8e e2       	ldi	r24, 0x2E	; 46
    3a80:	90 e0       	ldi	r25, 0x00	; 0
    3a82:	42 d4       	rcall	.+2180   	; 0x4308 <fputc>
    3a84:	c8 14       	cp	r12, r8
    3a86:	d9 04       	cpc	r13, r9
    3a88:	4c f0       	brlt	.+18     	; 0x3a9c <vfprintf+0x316>
    3a8a:	8f 85       	ldd	r24, Y+15	; 0x0f
    3a8c:	98 89       	ldd	r25, Y+16	; 0x10
    3a8e:	88 15       	cp	r24, r8
    3a90:	99 05       	cpc	r25, r9
    3a92:	24 f4       	brge	.+8      	; 0x3a9c <vfprintf+0x316>
    3a94:	ed 85       	ldd	r30, Y+13	; 0x0d
    3a96:	fe 85       	ldd	r31, Y+14	; 0x0e
    3a98:	81 81       	ldd	r24, Z+1	; 0x01
    3a9a:	01 c0       	rjmp	.+2      	; 0x3a9e <vfprintf+0x318>
    3a9c:	80 e3       	ldi	r24, 0x30	; 48
    3a9e:	f1 e0       	ldi	r31, 0x01	; 1
    3aa0:	8f 1a       	sub	r8, r31
    3aa2:	91 08       	sbc	r9, r1
    3aa4:	2d 85       	ldd	r18, Y+13	; 0x0d
    3aa6:	3e 85       	ldd	r19, Y+14	; 0x0e
    3aa8:	2f 5f       	subi	r18, 0xFF	; 255
    3aaa:	3f 4f       	sbci	r19, 0xFF	; 255
    3aac:	2d 87       	std	Y+13, r18	; 0x0d
    3aae:	3e 87       	std	Y+14, r19	; 0x0e
    3ab0:	80 16       	cp	r8, r16
    3ab2:	91 06       	cpc	r9, r17
    3ab4:	24 f0       	brlt	.+8      	; 0x3abe <vfprintf+0x338>
    3ab6:	b7 01       	movw	r22, r14
    3ab8:	90 e0       	ldi	r25, 0x00	; 0
    3aba:	26 d4       	rcall	.+2124   	; 0x4308 <fputc>
    3abc:	db cf       	rjmp	.-74     	; 0x3a74 <vfprintf+0x2ee>
    3abe:	c8 14       	cp	r12, r8
    3ac0:	d9 04       	cpc	r13, r9
    3ac2:	41 f4       	brne	.+16     	; 0x3ad4 <vfprintf+0x34e>
    3ac4:	9a 81       	ldd	r25, Y+2	; 0x02
    3ac6:	96 33       	cpi	r25, 0x36	; 54
    3ac8:	20 f4       	brcc	.+8      	; 0x3ad2 <vfprintf+0x34c>
    3aca:	95 33       	cpi	r25, 0x35	; 53
    3acc:	19 f4       	brne	.+6      	; 0x3ad4 <vfprintf+0x34e>
    3ace:	3c 85       	ldd	r19, Y+12	; 0x0c
    3ad0:	34 ff       	sbrs	r19, 4
    3ad2:	81 e3       	ldi	r24, 0x31	; 49
    3ad4:	b7 01       	movw	r22, r14
    3ad6:	90 e0       	ldi	r25, 0x00	; 0
    3ad8:	48 c0       	rjmp	.+144    	; 0x3b6a <vfprintf+0x3e4>
    3ada:	8a 81       	ldd	r24, Y+2	; 0x02
    3adc:	81 33       	cpi	r24, 0x31	; 49
    3ade:	19 f0       	breq	.+6      	; 0x3ae6 <vfprintf+0x360>
    3ae0:	9c 85       	ldd	r25, Y+12	; 0x0c
    3ae2:	9f 7e       	andi	r25, 0xEF	; 239
    3ae4:	9c 87       	std	Y+12, r25	; 0x0c
    3ae6:	b7 01       	movw	r22, r14
    3ae8:	90 e0       	ldi	r25, 0x00	; 0
    3aea:	0e d4       	rcall	.+2076   	; 0x4308 <fputc>
    3aec:	11 11       	cpse	r17, r1
    3aee:	05 c0       	rjmp	.+10     	; 0x3afa <vfprintf+0x374>
    3af0:	94 fc       	sbrc	r9, 4
    3af2:	16 c0       	rjmp	.+44     	; 0x3b20 <vfprintf+0x39a>
    3af4:	85 e6       	ldi	r24, 0x65	; 101
    3af6:	90 e0       	ldi	r25, 0x00	; 0
    3af8:	15 c0       	rjmp	.+42     	; 0x3b24 <vfprintf+0x39e>
    3afa:	b7 01       	movw	r22, r14
    3afc:	8e e2       	ldi	r24, 0x2E	; 46
    3afe:	90 e0       	ldi	r25, 0x00	; 0
    3b00:	03 d4       	rcall	.+2054   	; 0x4308 <fputc>
    3b02:	1e 5f       	subi	r17, 0xFE	; 254
    3b04:	82 e0       	ldi	r24, 0x02	; 2
    3b06:	01 e0       	ldi	r16, 0x01	; 1
    3b08:	08 0f       	add	r16, r24
    3b0a:	f3 01       	movw	r30, r6
    3b0c:	e8 0f       	add	r30, r24
    3b0e:	f1 1d       	adc	r31, r1
    3b10:	80 81       	ld	r24, Z
    3b12:	b7 01       	movw	r22, r14
    3b14:	90 e0       	ldi	r25, 0x00	; 0
    3b16:	f8 d3       	rcall	.+2032   	; 0x4308 <fputc>
    3b18:	80 2f       	mov	r24, r16
    3b1a:	01 13       	cpse	r16, r17
    3b1c:	f4 cf       	rjmp	.-24     	; 0x3b06 <vfprintf+0x380>
    3b1e:	e8 cf       	rjmp	.-48     	; 0x3af0 <vfprintf+0x36a>
    3b20:	85 e4       	ldi	r24, 0x45	; 69
    3b22:	90 e0       	ldi	r25, 0x00	; 0
    3b24:	b7 01       	movw	r22, r14
    3b26:	f0 d3       	rcall	.+2016   	; 0x4308 <fputc>
    3b28:	d7 fc       	sbrc	r13, 7
    3b2a:	06 c0       	rjmp	.+12     	; 0x3b38 <vfprintf+0x3b2>
    3b2c:	c1 14       	cp	r12, r1
    3b2e:	d1 04       	cpc	r13, r1
    3b30:	41 f4       	brne	.+16     	; 0x3b42 <vfprintf+0x3bc>
    3b32:	ec 85       	ldd	r30, Y+12	; 0x0c
    3b34:	e4 ff       	sbrs	r30, 4
    3b36:	05 c0       	rjmp	.+10     	; 0x3b42 <vfprintf+0x3bc>
    3b38:	d1 94       	neg	r13
    3b3a:	c1 94       	neg	r12
    3b3c:	d1 08       	sbc	r13, r1
    3b3e:	8d e2       	ldi	r24, 0x2D	; 45
    3b40:	01 c0       	rjmp	.+2      	; 0x3b44 <vfprintf+0x3be>
    3b42:	8b e2       	ldi	r24, 0x2B	; 43
    3b44:	b7 01       	movw	r22, r14
    3b46:	90 e0       	ldi	r25, 0x00	; 0
    3b48:	df d3       	rcall	.+1982   	; 0x4308 <fputc>
    3b4a:	80 e3       	ldi	r24, 0x30	; 48
    3b4c:	2a e0       	ldi	r18, 0x0A	; 10
    3b4e:	c2 16       	cp	r12, r18
    3b50:	d1 04       	cpc	r13, r1
    3b52:	2c f0       	brlt	.+10     	; 0x3b5e <vfprintf+0x3d8>
    3b54:	8f 5f       	subi	r24, 0xFF	; 255
    3b56:	fa e0       	ldi	r31, 0x0A	; 10
    3b58:	cf 1a       	sub	r12, r31
    3b5a:	d1 08       	sbc	r13, r1
    3b5c:	f7 cf       	rjmp	.-18     	; 0x3b4c <vfprintf+0x3c6>
    3b5e:	b7 01       	movw	r22, r14
    3b60:	90 e0       	ldi	r25, 0x00	; 0
    3b62:	d2 d3       	rcall	.+1956   	; 0x4308 <fputc>
    3b64:	b7 01       	movw	r22, r14
    3b66:	c6 01       	movw	r24, r12
    3b68:	c0 96       	adiw	r24, 0x30	; 48
    3b6a:	ce d3       	rcall	.+1948   	; 0x4308 <fputc>
    3b6c:	49 c1       	rjmp	.+658    	; 0x3e00 <vfprintf+0x67a>
    3b6e:	83 36       	cpi	r24, 0x63	; 99
    3b70:	31 f0       	breq	.+12     	; 0x3b7e <vfprintf+0x3f8>
    3b72:	83 37       	cpi	r24, 0x73	; 115
    3b74:	79 f0       	breq	.+30     	; 0x3b94 <vfprintf+0x40e>
    3b76:	83 35       	cpi	r24, 0x53	; 83
    3b78:	09 f0       	breq	.+2      	; 0x3b7c <vfprintf+0x3f6>
    3b7a:	52 c0       	rjmp	.+164    	; 0x3c20 <vfprintf+0x49a>
    3b7c:	1f c0       	rjmp	.+62     	; 0x3bbc <vfprintf+0x436>
    3b7e:	56 01       	movw	r10, r12
    3b80:	32 e0       	ldi	r19, 0x02	; 2
    3b82:	a3 0e       	add	r10, r19
    3b84:	b1 1c       	adc	r11, r1
    3b86:	f6 01       	movw	r30, r12
    3b88:	80 81       	ld	r24, Z
    3b8a:	89 83       	std	Y+1, r24	; 0x01
    3b8c:	01 e0       	ldi	r16, 0x01	; 1
    3b8e:	10 e0       	ldi	r17, 0x00	; 0
    3b90:	63 01       	movw	r12, r6
    3b92:	11 c0       	rjmp	.+34     	; 0x3bb6 <vfprintf+0x430>
    3b94:	56 01       	movw	r10, r12
    3b96:	f2 e0       	ldi	r31, 0x02	; 2
    3b98:	af 0e       	add	r10, r31
    3b9a:	b1 1c       	adc	r11, r1
    3b9c:	f6 01       	movw	r30, r12
    3b9e:	c0 80       	ld	r12, Z
    3ba0:	d1 80       	ldd	r13, Z+1	; 0x01
    3ba2:	96 fe       	sbrs	r9, 6
    3ba4:	03 c0       	rjmp	.+6      	; 0x3bac <vfprintf+0x426>
    3ba6:	61 2f       	mov	r22, r17
    3ba8:	70 e0       	ldi	r23, 0x00	; 0
    3baa:	02 c0       	rjmp	.+4      	; 0x3bb0 <vfprintf+0x42a>
    3bac:	6f ef       	ldi	r22, 0xFF	; 255
    3bae:	7f ef       	ldi	r23, 0xFF	; 255
    3bb0:	c6 01       	movw	r24, r12
    3bb2:	55 d3       	rcall	.+1706   	; 0x425e <strnlen>
    3bb4:	8c 01       	movw	r16, r24
    3bb6:	f9 2d       	mov	r31, r9
    3bb8:	ff 77       	andi	r31, 0x7F	; 127
    3bba:	13 c0       	rjmp	.+38     	; 0x3be2 <vfprintf+0x45c>
    3bbc:	56 01       	movw	r10, r12
    3bbe:	22 e0       	ldi	r18, 0x02	; 2
    3bc0:	a2 0e       	add	r10, r18
    3bc2:	b1 1c       	adc	r11, r1
    3bc4:	f6 01       	movw	r30, r12
    3bc6:	c0 80       	ld	r12, Z
    3bc8:	d1 80       	ldd	r13, Z+1	; 0x01
    3bca:	96 fe       	sbrs	r9, 6
    3bcc:	03 c0       	rjmp	.+6      	; 0x3bd4 <vfprintf+0x44e>
    3bce:	61 2f       	mov	r22, r17
    3bd0:	70 e0       	ldi	r23, 0x00	; 0
    3bd2:	02 c0       	rjmp	.+4      	; 0x3bd8 <vfprintf+0x452>
    3bd4:	6f ef       	ldi	r22, 0xFF	; 255
    3bd6:	7f ef       	ldi	r23, 0xFF	; 255
    3bd8:	c6 01       	movw	r24, r12
    3bda:	36 d3       	rcall	.+1644   	; 0x4248 <strnlen_P>
    3bdc:	8c 01       	movw	r16, r24
    3bde:	f9 2d       	mov	r31, r9
    3be0:	f0 68       	ori	r31, 0x80	; 128
    3be2:	9f 2e       	mov	r9, r31
    3be4:	f3 fd       	sbrc	r31, 3
    3be6:	18 c0       	rjmp	.+48     	; 0x3c18 <vfprintf+0x492>
    3be8:	85 2d       	mov	r24, r5
    3bea:	90 e0       	ldi	r25, 0x00	; 0
    3bec:	08 17       	cp	r16, r24
    3bee:	19 07       	cpc	r17, r25
    3bf0:	98 f4       	brcc	.+38     	; 0x3c18 <vfprintf+0x492>
    3bf2:	b7 01       	movw	r22, r14
    3bf4:	80 e2       	ldi	r24, 0x20	; 32
    3bf6:	90 e0       	ldi	r25, 0x00	; 0
    3bf8:	87 d3       	rcall	.+1806   	; 0x4308 <fputc>
    3bfa:	5a 94       	dec	r5
    3bfc:	f5 cf       	rjmp	.-22     	; 0x3be8 <vfprintf+0x462>
    3bfe:	f6 01       	movw	r30, r12
    3c00:	97 fc       	sbrc	r9, 7
    3c02:	85 91       	lpm	r24, Z+
    3c04:	97 fe       	sbrs	r9, 7
    3c06:	81 91       	ld	r24, Z+
    3c08:	6f 01       	movw	r12, r30
    3c0a:	b7 01       	movw	r22, r14
    3c0c:	90 e0       	ldi	r25, 0x00	; 0
    3c0e:	7c d3       	rcall	.+1784   	; 0x4308 <fputc>
    3c10:	51 10       	cpse	r5, r1
    3c12:	5a 94       	dec	r5
    3c14:	01 50       	subi	r16, 0x01	; 1
    3c16:	11 09       	sbc	r17, r1
    3c18:	01 15       	cp	r16, r1
    3c1a:	11 05       	cpc	r17, r1
    3c1c:	81 f7       	brne	.-32     	; 0x3bfe <vfprintf+0x478>
    3c1e:	f0 c0       	rjmp	.+480    	; 0x3e00 <vfprintf+0x67a>
    3c20:	84 36       	cpi	r24, 0x64	; 100
    3c22:	11 f0       	breq	.+4      	; 0x3c28 <vfprintf+0x4a2>
    3c24:	89 36       	cpi	r24, 0x69	; 105
    3c26:	59 f5       	brne	.+86     	; 0x3c7e <vfprintf+0x4f8>
    3c28:	56 01       	movw	r10, r12
    3c2a:	97 fe       	sbrs	r9, 7
    3c2c:	09 c0       	rjmp	.+18     	; 0x3c40 <vfprintf+0x4ba>
    3c2e:	24 e0       	ldi	r18, 0x04	; 4
    3c30:	a2 0e       	add	r10, r18
    3c32:	b1 1c       	adc	r11, r1
    3c34:	f6 01       	movw	r30, r12
    3c36:	60 81       	ld	r22, Z
    3c38:	71 81       	ldd	r23, Z+1	; 0x01
    3c3a:	82 81       	ldd	r24, Z+2	; 0x02
    3c3c:	93 81       	ldd	r25, Z+3	; 0x03
    3c3e:	0a c0       	rjmp	.+20     	; 0x3c54 <vfprintf+0x4ce>
    3c40:	f2 e0       	ldi	r31, 0x02	; 2
    3c42:	af 0e       	add	r10, r31
    3c44:	b1 1c       	adc	r11, r1
    3c46:	f6 01       	movw	r30, r12
    3c48:	60 81       	ld	r22, Z
    3c4a:	71 81       	ldd	r23, Z+1	; 0x01
    3c4c:	07 2e       	mov	r0, r23
    3c4e:	00 0c       	add	r0, r0
    3c50:	88 0b       	sbc	r24, r24
    3c52:	99 0b       	sbc	r25, r25
    3c54:	f9 2d       	mov	r31, r9
    3c56:	ff 76       	andi	r31, 0x6F	; 111
    3c58:	9f 2e       	mov	r9, r31
    3c5a:	97 ff       	sbrs	r25, 7
    3c5c:	09 c0       	rjmp	.+18     	; 0x3c70 <vfprintf+0x4ea>
    3c5e:	90 95       	com	r25
    3c60:	80 95       	com	r24
    3c62:	70 95       	com	r23
    3c64:	61 95       	neg	r22
    3c66:	7f 4f       	sbci	r23, 0xFF	; 255
    3c68:	8f 4f       	sbci	r24, 0xFF	; 255
    3c6a:	9f 4f       	sbci	r25, 0xFF	; 255
    3c6c:	f0 68       	ori	r31, 0x80	; 128
    3c6e:	9f 2e       	mov	r9, r31
    3c70:	2a e0       	ldi	r18, 0x0A	; 10
    3c72:	30 e0       	ldi	r19, 0x00	; 0
    3c74:	a3 01       	movw	r20, r6
    3c76:	c7 d3       	rcall	.+1934   	; 0x4406 <__ultoa_invert>
    3c78:	c8 2e       	mov	r12, r24
    3c7a:	c6 18       	sub	r12, r6
    3c7c:	3e c0       	rjmp	.+124    	; 0x3cfa <vfprintf+0x574>
    3c7e:	09 2d       	mov	r16, r9
    3c80:	85 37       	cpi	r24, 0x75	; 117
    3c82:	21 f4       	brne	.+8      	; 0x3c8c <vfprintf+0x506>
    3c84:	0f 7e       	andi	r16, 0xEF	; 239
    3c86:	2a e0       	ldi	r18, 0x0A	; 10
    3c88:	30 e0       	ldi	r19, 0x00	; 0
    3c8a:	1d c0       	rjmp	.+58     	; 0x3cc6 <vfprintf+0x540>
    3c8c:	09 7f       	andi	r16, 0xF9	; 249
    3c8e:	8f 36       	cpi	r24, 0x6F	; 111
    3c90:	91 f0       	breq	.+36     	; 0x3cb6 <vfprintf+0x530>
    3c92:	18 f4       	brcc	.+6      	; 0x3c9a <vfprintf+0x514>
    3c94:	88 35       	cpi	r24, 0x58	; 88
    3c96:	59 f0       	breq	.+22     	; 0x3cae <vfprintf+0x528>
    3c98:	bc c0       	rjmp	.+376    	; 0x3e12 <vfprintf+0x68c>
    3c9a:	80 37       	cpi	r24, 0x70	; 112
    3c9c:	19 f0       	breq	.+6      	; 0x3ca4 <vfprintf+0x51e>
    3c9e:	88 37       	cpi	r24, 0x78	; 120
    3ca0:	11 f0       	breq	.+4      	; 0x3ca6 <vfprintf+0x520>
    3ca2:	b7 c0       	rjmp	.+366    	; 0x3e12 <vfprintf+0x68c>
    3ca4:	00 61       	ori	r16, 0x10	; 16
    3ca6:	04 ff       	sbrs	r16, 4
    3ca8:	09 c0       	rjmp	.+18     	; 0x3cbc <vfprintf+0x536>
    3caa:	04 60       	ori	r16, 0x04	; 4
    3cac:	07 c0       	rjmp	.+14     	; 0x3cbc <vfprintf+0x536>
    3cae:	94 fe       	sbrs	r9, 4
    3cb0:	08 c0       	rjmp	.+16     	; 0x3cc2 <vfprintf+0x53c>
    3cb2:	06 60       	ori	r16, 0x06	; 6
    3cb4:	06 c0       	rjmp	.+12     	; 0x3cc2 <vfprintf+0x53c>
    3cb6:	28 e0       	ldi	r18, 0x08	; 8
    3cb8:	30 e0       	ldi	r19, 0x00	; 0
    3cba:	05 c0       	rjmp	.+10     	; 0x3cc6 <vfprintf+0x540>
    3cbc:	20 e1       	ldi	r18, 0x10	; 16
    3cbe:	30 e0       	ldi	r19, 0x00	; 0
    3cc0:	02 c0       	rjmp	.+4      	; 0x3cc6 <vfprintf+0x540>
    3cc2:	20 e1       	ldi	r18, 0x10	; 16
    3cc4:	32 e0       	ldi	r19, 0x02	; 2
    3cc6:	56 01       	movw	r10, r12
    3cc8:	07 ff       	sbrs	r16, 7
    3cca:	09 c0       	rjmp	.+18     	; 0x3cde <vfprintf+0x558>
    3ccc:	84 e0       	ldi	r24, 0x04	; 4
    3cce:	a8 0e       	add	r10, r24
    3cd0:	b1 1c       	adc	r11, r1
    3cd2:	f6 01       	movw	r30, r12
    3cd4:	60 81       	ld	r22, Z
    3cd6:	71 81       	ldd	r23, Z+1	; 0x01
    3cd8:	82 81       	ldd	r24, Z+2	; 0x02
    3cda:	93 81       	ldd	r25, Z+3	; 0x03
    3cdc:	08 c0       	rjmp	.+16     	; 0x3cee <vfprintf+0x568>
    3cde:	f2 e0       	ldi	r31, 0x02	; 2
    3ce0:	af 0e       	add	r10, r31
    3ce2:	b1 1c       	adc	r11, r1
    3ce4:	f6 01       	movw	r30, r12
    3ce6:	60 81       	ld	r22, Z
    3ce8:	71 81       	ldd	r23, Z+1	; 0x01
    3cea:	80 e0       	ldi	r24, 0x00	; 0
    3cec:	90 e0       	ldi	r25, 0x00	; 0
    3cee:	a3 01       	movw	r20, r6
    3cf0:	8a d3       	rcall	.+1812   	; 0x4406 <__ultoa_invert>
    3cf2:	c8 2e       	mov	r12, r24
    3cf4:	c6 18       	sub	r12, r6
    3cf6:	0f 77       	andi	r16, 0x7F	; 127
    3cf8:	90 2e       	mov	r9, r16
    3cfa:	96 fe       	sbrs	r9, 6
    3cfc:	0b c0       	rjmp	.+22     	; 0x3d14 <vfprintf+0x58e>
    3cfe:	09 2d       	mov	r16, r9
    3d00:	0e 7f       	andi	r16, 0xFE	; 254
    3d02:	c1 16       	cp	r12, r17
    3d04:	50 f4       	brcc	.+20     	; 0x3d1a <vfprintf+0x594>
    3d06:	94 fe       	sbrs	r9, 4
    3d08:	0a c0       	rjmp	.+20     	; 0x3d1e <vfprintf+0x598>
    3d0a:	92 fc       	sbrc	r9, 2
    3d0c:	08 c0       	rjmp	.+16     	; 0x3d1e <vfprintf+0x598>
    3d0e:	09 2d       	mov	r16, r9
    3d10:	0e 7e       	andi	r16, 0xEE	; 238
    3d12:	05 c0       	rjmp	.+10     	; 0x3d1e <vfprintf+0x598>
    3d14:	dc 2c       	mov	r13, r12
    3d16:	09 2d       	mov	r16, r9
    3d18:	03 c0       	rjmp	.+6      	; 0x3d20 <vfprintf+0x59a>
    3d1a:	dc 2c       	mov	r13, r12
    3d1c:	01 c0       	rjmp	.+2      	; 0x3d20 <vfprintf+0x59a>
    3d1e:	d1 2e       	mov	r13, r17
    3d20:	04 ff       	sbrs	r16, 4
    3d22:	0d c0       	rjmp	.+26     	; 0x3d3e <vfprintf+0x5b8>
    3d24:	fe 01       	movw	r30, r28
    3d26:	ec 0d       	add	r30, r12
    3d28:	f1 1d       	adc	r31, r1
    3d2a:	80 81       	ld	r24, Z
    3d2c:	80 33       	cpi	r24, 0x30	; 48
    3d2e:	11 f4       	brne	.+4      	; 0x3d34 <vfprintf+0x5ae>
    3d30:	09 7e       	andi	r16, 0xE9	; 233
    3d32:	09 c0       	rjmp	.+18     	; 0x3d46 <vfprintf+0x5c0>
    3d34:	02 ff       	sbrs	r16, 2
    3d36:	06 c0       	rjmp	.+12     	; 0x3d44 <vfprintf+0x5be>
    3d38:	d3 94       	inc	r13
    3d3a:	d3 94       	inc	r13
    3d3c:	04 c0       	rjmp	.+8      	; 0x3d46 <vfprintf+0x5c0>
    3d3e:	80 2f       	mov	r24, r16
    3d40:	86 78       	andi	r24, 0x86	; 134
    3d42:	09 f0       	breq	.+2      	; 0x3d46 <vfprintf+0x5c0>
    3d44:	d3 94       	inc	r13
    3d46:	03 fd       	sbrc	r16, 3
    3d48:	10 c0       	rjmp	.+32     	; 0x3d6a <vfprintf+0x5e4>
    3d4a:	00 ff       	sbrs	r16, 0
    3d4c:	06 c0       	rjmp	.+12     	; 0x3d5a <vfprintf+0x5d4>
    3d4e:	1c 2d       	mov	r17, r12
    3d50:	d5 14       	cp	r13, r5
    3d52:	78 f4       	brcc	.+30     	; 0x3d72 <vfprintf+0x5ec>
    3d54:	15 0d       	add	r17, r5
    3d56:	1d 19       	sub	r17, r13
    3d58:	0c c0       	rjmp	.+24     	; 0x3d72 <vfprintf+0x5ec>
    3d5a:	d5 14       	cp	r13, r5
    3d5c:	50 f4       	brcc	.+20     	; 0x3d72 <vfprintf+0x5ec>
    3d5e:	b7 01       	movw	r22, r14
    3d60:	80 e2       	ldi	r24, 0x20	; 32
    3d62:	90 e0       	ldi	r25, 0x00	; 0
    3d64:	d1 d2       	rcall	.+1442   	; 0x4308 <fputc>
    3d66:	d3 94       	inc	r13
    3d68:	f8 cf       	rjmp	.-16     	; 0x3d5a <vfprintf+0x5d4>
    3d6a:	d5 14       	cp	r13, r5
    3d6c:	10 f4       	brcc	.+4      	; 0x3d72 <vfprintf+0x5ec>
    3d6e:	5d 18       	sub	r5, r13
    3d70:	01 c0       	rjmp	.+2      	; 0x3d74 <vfprintf+0x5ee>
    3d72:	51 2c       	mov	r5, r1
    3d74:	04 ff       	sbrs	r16, 4
    3d76:	0f c0       	rjmp	.+30     	; 0x3d96 <vfprintf+0x610>
    3d78:	b7 01       	movw	r22, r14
    3d7a:	80 e3       	ldi	r24, 0x30	; 48
    3d7c:	90 e0       	ldi	r25, 0x00	; 0
    3d7e:	c4 d2       	rcall	.+1416   	; 0x4308 <fputc>
    3d80:	02 ff       	sbrs	r16, 2
    3d82:	16 c0       	rjmp	.+44     	; 0x3db0 <vfprintf+0x62a>
    3d84:	01 fd       	sbrc	r16, 1
    3d86:	03 c0       	rjmp	.+6      	; 0x3d8e <vfprintf+0x608>
    3d88:	88 e7       	ldi	r24, 0x78	; 120
    3d8a:	90 e0       	ldi	r25, 0x00	; 0
    3d8c:	02 c0       	rjmp	.+4      	; 0x3d92 <vfprintf+0x60c>
    3d8e:	88 e5       	ldi	r24, 0x58	; 88
    3d90:	90 e0       	ldi	r25, 0x00	; 0
    3d92:	b7 01       	movw	r22, r14
    3d94:	0c c0       	rjmp	.+24     	; 0x3dae <vfprintf+0x628>
    3d96:	80 2f       	mov	r24, r16
    3d98:	86 78       	andi	r24, 0x86	; 134
    3d9a:	51 f0       	breq	.+20     	; 0x3db0 <vfprintf+0x62a>
    3d9c:	01 ff       	sbrs	r16, 1
    3d9e:	02 c0       	rjmp	.+4      	; 0x3da4 <vfprintf+0x61e>
    3da0:	8b e2       	ldi	r24, 0x2B	; 43
    3da2:	01 c0       	rjmp	.+2      	; 0x3da6 <vfprintf+0x620>
    3da4:	80 e2       	ldi	r24, 0x20	; 32
    3da6:	07 fd       	sbrc	r16, 7
    3da8:	8d e2       	ldi	r24, 0x2D	; 45
    3daa:	b7 01       	movw	r22, r14
    3dac:	90 e0       	ldi	r25, 0x00	; 0
    3dae:	ac d2       	rcall	.+1368   	; 0x4308 <fputc>
    3db0:	c1 16       	cp	r12, r17
    3db2:	30 f4       	brcc	.+12     	; 0x3dc0 <vfprintf+0x63a>
    3db4:	b7 01       	movw	r22, r14
    3db6:	80 e3       	ldi	r24, 0x30	; 48
    3db8:	90 e0       	ldi	r25, 0x00	; 0
    3dba:	a6 d2       	rcall	.+1356   	; 0x4308 <fputc>
    3dbc:	11 50       	subi	r17, 0x01	; 1
    3dbe:	f8 cf       	rjmp	.-16     	; 0x3db0 <vfprintf+0x62a>
    3dc0:	ca 94       	dec	r12
    3dc2:	f3 01       	movw	r30, r6
    3dc4:	ec 0d       	add	r30, r12
    3dc6:	f1 1d       	adc	r31, r1
    3dc8:	80 81       	ld	r24, Z
    3dca:	b7 01       	movw	r22, r14
    3dcc:	90 e0       	ldi	r25, 0x00	; 0
    3dce:	9c d2       	rcall	.+1336   	; 0x4308 <fputc>
    3dd0:	c1 10       	cpse	r12, r1
    3dd2:	f6 cf       	rjmp	.-20     	; 0x3dc0 <vfprintf+0x63a>
    3dd4:	15 c0       	rjmp	.+42     	; 0x3e00 <vfprintf+0x67a>
    3dd6:	f4 e0       	ldi	r31, 0x04	; 4
    3dd8:	f5 15       	cp	r31, r5
    3dda:	50 f5       	brcc	.+84     	; 0x3e30 <vfprintf+0x6aa>
    3ddc:	84 e0       	ldi	r24, 0x04	; 4
    3dde:	58 1a       	sub	r5, r24
    3de0:	93 fe       	sbrs	r9, 3
    3de2:	1e c0       	rjmp	.+60     	; 0x3e20 <vfprintf+0x69a>
    3de4:	01 11       	cpse	r16, r1
    3de6:	25 c0       	rjmp	.+74     	; 0x3e32 <vfprintf+0x6ac>
    3de8:	2c 85       	ldd	r18, Y+12	; 0x0c
    3dea:	23 ff       	sbrs	r18, 3
    3dec:	27 c0       	rjmp	.+78     	; 0x3e3c <vfprintf+0x6b6>
    3dee:	0c ef       	ldi	r16, 0xFC	; 252
    3df0:	12 e0       	ldi	r17, 0x02	; 2
    3df2:	39 2d       	mov	r19, r9
    3df4:	30 71       	andi	r19, 0x10	; 16
    3df6:	93 2e       	mov	r9, r19
    3df8:	f8 01       	movw	r30, r16
    3dfa:	84 91       	lpm	r24, Z
    3dfc:	81 11       	cpse	r24, r1
    3dfe:	21 c0       	rjmp	.+66     	; 0x3e42 <vfprintf+0x6bc>
    3e00:	55 20       	and	r5, r5
    3e02:	09 f4       	brne	.+2      	; 0x3e06 <vfprintf+0x680>
    3e04:	fc cc       	rjmp	.-1544   	; 0x37fe <vfprintf+0x78>
    3e06:	b7 01       	movw	r22, r14
    3e08:	80 e2       	ldi	r24, 0x20	; 32
    3e0a:	90 e0       	ldi	r25, 0x00	; 0
    3e0c:	7d d2       	rcall	.+1274   	; 0x4308 <fputc>
    3e0e:	5a 94       	dec	r5
    3e10:	f7 cf       	rjmp	.-18     	; 0x3e00 <vfprintf+0x67a>
    3e12:	f7 01       	movw	r30, r14
    3e14:	86 81       	ldd	r24, Z+6	; 0x06
    3e16:	97 81       	ldd	r25, Z+7	; 0x07
    3e18:	23 c0       	rjmp	.+70     	; 0x3e60 <vfprintf+0x6da>
    3e1a:	8f ef       	ldi	r24, 0xFF	; 255
    3e1c:	9f ef       	ldi	r25, 0xFF	; 255
    3e1e:	20 c0       	rjmp	.+64     	; 0x3e60 <vfprintf+0x6da>
    3e20:	b7 01       	movw	r22, r14
    3e22:	80 e2       	ldi	r24, 0x20	; 32
    3e24:	90 e0       	ldi	r25, 0x00	; 0
    3e26:	70 d2       	rcall	.+1248   	; 0x4308 <fputc>
    3e28:	5a 94       	dec	r5
    3e2a:	51 10       	cpse	r5, r1
    3e2c:	f9 cf       	rjmp	.-14     	; 0x3e20 <vfprintf+0x69a>
    3e2e:	da cf       	rjmp	.-76     	; 0x3de4 <vfprintf+0x65e>
    3e30:	51 2c       	mov	r5, r1
    3e32:	b7 01       	movw	r22, r14
    3e34:	80 2f       	mov	r24, r16
    3e36:	90 e0       	ldi	r25, 0x00	; 0
    3e38:	67 d2       	rcall	.+1230   	; 0x4308 <fputc>
    3e3a:	d6 cf       	rjmp	.-84     	; 0x3de8 <vfprintf+0x662>
    3e3c:	00 e0       	ldi	r16, 0x00	; 0
    3e3e:	13 e0       	ldi	r17, 0x03	; 3
    3e40:	d8 cf       	rjmp	.-80     	; 0x3df2 <vfprintf+0x66c>
    3e42:	91 10       	cpse	r9, r1
    3e44:	80 52       	subi	r24, 0x20	; 32
    3e46:	b7 01       	movw	r22, r14
    3e48:	90 e0       	ldi	r25, 0x00	; 0
    3e4a:	5e d2       	rcall	.+1212   	; 0x4308 <fputc>
    3e4c:	0f 5f       	subi	r16, 0xFF	; 255
    3e4e:	1f 4f       	sbci	r17, 0xFF	; 255
    3e50:	d3 cf       	rjmp	.-90     	; 0x3df8 <vfprintf+0x672>
    3e52:	23 e0       	ldi	r18, 0x03	; 3
    3e54:	25 15       	cp	r18, r5
    3e56:	10 f4       	brcc	.+4      	; 0x3e5c <vfprintf+0x6d6>
    3e58:	83 e0       	ldi	r24, 0x03	; 3
    3e5a:	c1 cf       	rjmp	.-126    	; 0x3dde <vfprintf+0x658>
    3e5c:	51 2c       	mov	r5, r1
    3e5e:	c4 cf       	rjmp	.-120    	; 0x3de8 <vfprintf+0x662>
    3e60:	60 96       	adiw	r28, 0x10	; 16
    3e62:	cd bf       	out	0x3d, r28	; 61
    3e64:	de bf       	out	0x3e, r29	; 62
    3e66:	df 91       	pop	r29
    3e68:	cf 91       	pop	r28
    3e6a:	1f 91       	pop	r17
    3e6c:	0f 91       	pop	r16
    3e6e:	ff 90       	pop	r15
    3e70:	ef 90       	pop	r14
    3e72:	df 90       	pop	r13
    3e74:	cf 90       	pop	r12
    3e76:	bf 90       	pop	r11
    3e78:	af 90       	pop	r10
    3e7a:	9f 90       	pop	r9
    3e7c:	8f 90       	pop	r8
    3e7e:	7f 90       	pop	r7
    3e80:	6f 90       	pop	r6
    3e82:	5f 90       	pop	r5
    3e84:	4f 90       	pop	r4
    3e86:	3f 90       	pop	r3
    3e88:	2f 90       	pop	r2
    3e8a:	08 95       	ret

00003e8c <__udivmodsi4>:
    3e8c:	a1 e2       	ldi	r26, 0x21	; 33
    3e8e:	1a 2e       	mov	r1, r26
    3e90:	aa 1b       	sub	r26, r26
    3e92:	bb 1b       	sub	r27, r27
    3e94:	fd 01       	movw	r30, r26
    3e96:	0d c0       	rjmp	.+26     	; 0x3eb2 <__udivmodsi4_ep>

00003e98 <__udivmodsi4_loop>:
    3e98:	aa 1f       	adc	r26, r26
    3e9a:	bb 1f       	adc	r27, r27
    3e9c:	ee 1f       	adc	r30, r30
    3e9e:	ff 1f       	adc	r31, r31
    3ea0:	a2 17       	cp	r26, r18
    3ea2:	b3 07       	cpc	r27, r19
    3ea4:	e4 07       	cpc	r30, r20
    3ea6:	f5 07       	cpc	r31, r21
    3ea8:	20 f0       	brcs	.+8      	; 0x3eb2 <__udivmodsi4_ep>
    3eaa:	a2 1b       	sub	r26, r18
    3eac:	b3 0b       	sbc	r27, r19
    3eae:	e4 0b       	sbc	r30, r20
    3eb0:	f5 0b       	sbc	r31, r21

00003eb2 <__udivmodsi4_ep>:
    3eb2:	66 1f       	adc	r22, r22
    3eb4:	77 1f       	adc	r23, r23
    3eb6:	88 1f       	adc	r24, r24
    3eb8:	99 1f       	adc	r25, r25
    3eba:	1a 94       	dec	r1
    3ebc:	69 f7       	brne	.-38     	; 0x3e98 <__udivmodsi4_loop>
    3ebe:	60 95       	com	r22
    3ec0:	70 95       	com	r23
    3ec2:	80 95       	com	r24
    3ec4:	90 95       	com	r25
    3ec6:	9b 01       	movw	r18, r22
    3ec8:	ac 01       	movw	r20, r24
    3eca:	bd 01       	movw	r22, r26
    3ecc:	cf 01       	movw	r24, r30
    3ece:	08 95       	ret

00003ed0 <__divmodsi4>:
    3ed0:	05 2e       	mov	r0, r21
    3ed2:	97 fb       	bst	r25, 7
    3ed4:	16 f4       	brtc	.+4      	; 0x3eda <__divmodsi4+0xa>
    3ed6:	00 94       	com	r0
    3ed8:	0f d0       	rcall	.+30     	; 0x3ef8 <__negsi2>
    3eda:	57 fd       	sbrc	r21, 7
    3edc:	05 d0       	rcall	.+10     	; 0x3ee8 <__divmodsi4_neg2>
    3ede:	d6 df       	rcall	.-84     	; 0x3e8c <__udivmodsi4>
    3ee0:	07 fc       	sbrc	r0, 7
    3ee2:	02 d0       	rcall	.+4      	; 0x3ee8 <__divmodsi4_neg2>
    3ee4:	46 f4       	brtc	.+16     	; 0x3ef6 <__divmodsi4_exit>
    3ee6:	08 c0       	rjmp	.+16     	; 0x3ef8 <__negsi2>

00003ee8 <__divmodsi4_neg2>:
    3ee8:	50 95       	com	r21
    3eea:	40 95       	com	r20
    3eec:	30 95       	com	r19
    3eee:	21 95       	neg	r18
    3ef0:	3f 4f       	sbci	r19, 0xFF	; 255
    3ef2:	4f 4f       	sbci	r20, 0xFF	; 255
    3ef4:	5f 4f       	sbci	r21, 0xFF	; 255

00003ef6 <__divmodsi4_exit>:
    3ef6:	08 95       	ret

00003ef8 <__negsi2>:
    3ef8:	90 95       	com	r25
    3efa:	80 95       	com	r24
    3efc:	70 95       	com	r23
    3efe:	61 95       	neg	r22
    3f00:	7f 4f       	sbci	r23, 0xFF	; 255
    3f02:	8f 4f       	sbci	r24, 0xFF	; 255
    3f04:	9f 4f       	sbci	r25, 0xFF	; 255
    3f06:	08 95       	ret

00003f08 <__tablejump2__>:
    3f08:	ee 0f       	add	r30, r30
    3f0a:	ff 1f       	adc	r31, r31
    3f0c:	88 1f       	adc	r24, r24
    3f0e:	8b bf       	out	0x3b, r24	; 59
    3f10:	07 90       	elpm	r0, Z+
    3f12:	f6 91       	elpm	r31, Z
    3f14:	e0 2d       	mov	r30, r0
    3f16:	1b be       	out	0x3b, r1	; 59
    3f18:	19 94       	eijmp

00003f1a <__muluhisi3>:
    3f1a:	af d0       	rcall	.+350    	; 0x407a <__umulhisi3>
    3f1c:	a5 9f       	mul	r26, r21
    3f1e:	90 0d       	add	r25, r0
    3f20:	b4 9f       	mul	r27, r20
    3f22:	90 0d       	add	r25, r0
    3f24:	a4 9f       	mul	r26, r20
    3f26:	80 0d       	add	r24, r0
    3f28:	91 1d       	adc	r25, r1
    3f2a:	11 24       	eor	r1, r1
    3f2c:	08 95       	ret

00003f2e <__muldi3>:
    3f2e:	df 93       	push	r29
    3f30:	cf 93       	push	r28
    3f32:	1f 93       	push	r17
    3f34:	0f 93       	push	r16
    3f36:	9a 9d       	mul	r25, r10
    3f38:	f0 2d       	mov	r31, r0
    3f3a:	21 9f       	mul	r18, r17
    3f3c:	f0 0d       	add	r31, r0
    3f3e:	8b 9d       	mul	r24, r11
    3f40:	f0 0d       	add	r31, r0
    3f42:	8a 9d       	mul	r24, r10
    3f44:	e0 2d       	mov	r30, r0
    3f46:	f1 0d       	add	r31, r1
    3f48:	03 9f       	mul	r16, r19
    3f4a:	f0 0d       	add	r31, r0
    3f4c:	02 9f       	mul	r16, r18
    3f4e:	e0 0d       	add	r30, r0
    3f50:	f1 1d       	adc	r31, r1
    3f52:	4e 9d       	mul	r20, r14
    3f54:	e0 0d       	add	r30, r0
    3f56:	f1 1d       	adc	r31, r1
    3f58:	5e 9d       	mul	r21, r14
    3f5a:	f0 0d       	add	r31, r0
    3f5c:	4f 9d       	mul	r20, r15
    3f5e:	f0 0d       	add	r31, r0
    3f60:	7f 93       	push	r23
    3f62:	6f 93       	push	r22
    3f64:	bf 92       	push	r11
    3f66:	af 92       	push	r10
    3f68:	5f 93       	push	r21
    3f6a:	4f 93       	push	r20
    3f6c:	d5 01       	movw	r26, r10
    3f6e:	85 d0       	rcall	.+266    	; 0x407a <__umulhisi3>
    3f70:	8b 01       	movw	r16, r22
    3f72:	ac 01       	movw	r20, r24
    3f74:	d7 01       	movw	r26, r14
    3f76:	81 d0       	rcall	.+258    	; 0x407a <__umulhisi3>
    3f78:	eb 01       	movw	r28, r22
    3f7a:	e8 0f       	add	r30, r24
    3f7c:	f9 1f       	adc	r31, r25
    3f7e:	d6 01       	movw	r26, r12
    3f80:	1f d0       	rcall	.+62     	; 0x3fc0 <__muldi3_6>
    3f82:	2f 91       	pop	r18
    3f84:	3f 91       	pop	r19
    3f86:	d6 01       	movw	r26, r12
    3f88:	78 d0       	rcall	.+240    	; 0x407a <__umulhisi3>
    3f8a:	c6 0f       	add	r28, r22
    3f8c:	d7 1f       	adc	r29, r23
    3f8e:	e8 1f       	adc	r30, r24
    3f90:	f9 1f       	adc	r31, r25
    3f92:	af 91       	pop	r26
    3f94:	bf 91       	pop	r27
    3f96:	14 d0       	rcall	.+40     	; 0x3fc0 <__muldi3_6>
    3f98:	2f 91       	pop	r18
    3f9a:	3f 91       	pop	r19
    3f9c:	6e d0       	rcall	.+220    	; 0x407a <__umulhisi3>
    3f9e:	c6 0f       	add	r28, r22
    3fa0:	d7 1f       	adc	r29, r23
    3fa2:	e8 1f       	adc	r30, r24
    3fa4:	f9 1f       	adc	r31, r25
    3fa6:	d6 01       	movw	r26, r12
    3fa8:	68 d0       	rcall	.+208    	; 0x407a <__umulhisi3>
    3faa:	e6 0f       	add	r30, r22
    3fac:	f7 1f       	adc	r31, r23
    3fae:	98 01       	movw	r18, r16
    3fb0:	be 01       	movw	r22, r28
    3fb2:	cf 01       	movw	r24, r30
    3fb4:	11 24       	eor	r1, r1
    3fb6:	0f 91       	pop	r16
    3fb8:	1f 91       	pop	r17
    3fba:	cf 91       	pop	r28
    3fbc:	df 91       	pop	r29
    3fbe:	08 95       	ret

00003fc0 <__muldi3_6>:
    3fc0:	5c d0       	rcall	.+184    	; 0x407a <__umulhisi3>
    3fc2:	46 0f       	add	r20, r22
    3fc4:	57 1f       	adc	r21, r23
    3fc6:	c8 1f       	adc	r28, r24
    3fc8:	d9 1f       	adc	r29, r25
    3fca:	08 f4       	brcc	.+2      	; 0x3fce <__muldi3_6+0xe>
    3fcc:	31 96       	adiw	r30, 0x01	; 1
    3fce:	08 95       	ret

00003fd0 <__ashldi3>:
    3fd0:	0f 93       	push	r16
    3fd2:	08 30       	cpi	r16, 0x08	; 8
    3fd4:	90 f0       	brcs	.+36     	; 0x3ffa <__ashldi3+0x2a>
    3fd6:	98 2f       	mov	r25, r24
    3fd8:	87 2f       	mov	r24, r23
    3fda:	76 2f       	mov	r23, r22
    3fdc:	65 2f       	mov	r22, r21
    3fde:	54 2f       	mov	r21, r20
    3fe0:	43 2f       	mov	r20, r19
    3fe2:	32 2f       	mov	r19, r18
    3fe4:	22 27       	eor	r18, r18
    3fe6:	08 50       	subi	r16, 0x08	; 8
    3fe8:	f4 cf       	rjmp	.-24     	; 0x3fd2 <__ashldi3+0x2>
    3fea:	22 0f       	add	r18, r18
    3fec:	33 1f       	adc	r19, r19
    3fee:	44 1f       	adc	r20, r20
    3ff0:	55 1f       	adc	r21, r21
    3ff2:	66 1f       	adc	r22, r22
    3ff4:	77 1f       	adc	r23, r23
    3ff6:	88 1f       	adc	r24, r24
    3ff8:	99 1f       	adc	r25, r25
    3ffa:	0a 95       	dec	r16
    3ffc:	b2 f7       	brpl	.-20     	; 0x3fea <__ashldi3+0x1a>
    3ffe:	0f 91       	pop	r16
    4000:	08 95       	ret

00004002 <__ashrdi3>:
    4002:	97 fb       	bst	r25, 7
    4004:	10 f8       	bld	r1, 0

00004006 <__lshrdi3>:
    4006:	16 94       	lsr	r1
    4008:	00 08       	sbc	r0, r0
    400a:	0f 93       	push	r16
    400c:	08 30       	cpi	r16, 0x08	; 8
    400e:	98 f0       	brcs	.+38     	; 0x4036 <__lshrdi3+0x30>
    4010:	08 50       	subi	r16, 0x08	; 8
    4012:	23 2f       	mov	r18, r19
    4014:	34 2f       	mov	r19, r20
    4016:	45 2f       	mov	r20, r21
    4018:	56 2f       	mov	r21, r22
    401a:	67 2f       	mov	r22, r23
    401c:	78 2f       	mov	r23, r24
    401e:	89 2f       	mov	r24, r25
    4020:	90 2d       	mov	r25, r0
    4022:	f4 cf       	rjmp	.-24     	; 0x400c <__lshrdi3+0x6>
    4024:	05 94       	asr	r0
    4026:	97 95       	ror	r25
    4028:	87 95       	ror	r24
    402a:	77 95       	ror	r23
    402c:	67 95       	ror	r22
    402e:	57 95       	ror	r21
    4030:	47 95       	ror	r20
    4032:	37 95       	ror	r19
    4034:	27 95       	ror	r18
    4036:	0a 95       	dec	r16
    4038:	aa f7       	brpl	.-22     	; 0x4024 <__lshrdi3+0x1e>
    403a:	0f 91       	pop	r16
    403c:	08 95       	ret

0000403e <__adddi3>:
    403e:	2a 0d       	add	r18, r10
    4040:	3b 1d       	adc	r19, r11
    4042:	4c 1d       	adc	r20, r12
    4044:	5d 1d       	adc	r21, r13
    4046:	6e 1d       	adc	r22, r14
    4048:	7f 1d       	adc	r23, r15
    404a:	80 1f       	adc	r24, r16
    404c:	91 1f       	adc	r25, r17
    404e:	08 95       	ret

00004050 <__subdi3>:
    4050:	2a 19       	sub	r18, r10
    4052:	3b 09       	sbc	r19, r11
    4054:	4c 09       	sbc	r20, r12
    4056:	5d 09       	sbc	r21, r13
    4058:	6e 09       	sbc	r22, r14
    405a:	7f 09       	sbc	r23, r15
    405c:	80 0b       	sbc	r24, r16
    405e:	91 0b       	sbc	r25, r17
    4060:	08 95       	ret

00004062 <__cmpdi2_s8>:
    4062:	00 24       	eor	r0, r0
    4064:	a7 fd       	sbrc	r26, 7
    4066:	00 94       	com	r0
    4068:	2a 17       	cp	r18, r26
    406a:	30 05       	cpc	r19, r0
    406c:	40 05       	cpc	r20, r0
    406e:	50 05       	cpc	r21, r0
    4070:	60 05       	cpc	r22, r0
    4072:	70 05       	cpc	r23, r0
    4074:	80 05       	cpc	r24, r0
    4076:	90 05       	cpc	r25, r0
    4078:	08 95       	ret

0000407a <__umulhisi3>:
    407a:	a2 9f       	mul	r26, r18
    407c:	b0 01       	movw	r22, r0
    407e:	b3 9f       	mul	r27, r19
    4080:	c0 01       	movw	r24, r0
    4082:	a3 9f       	mul	r26, r19
    4084:	70 0d       	add	r23, r0
    4086:	81 1d       	adc	r24, r1
    4088:	11 24       	eor	r1, r1
    408a:	91 1d       	adc	r25, r1
    408c:	b2 9f       	mul	r27, r18
    408e:	70 0d       	add	r23, r0
    4090:	81 1d       	adc	r24, r1
    4092:	11 24       	eor	r1, r1
    4094:	91 1d       	adc	r25, r1
    4096:	08 95       	ret

00004098 <__ftoa_engine>:
    4098:	28 30       	cpi	r18, 0x08	; 8
    409a:	08 f0       	brcs	.+2      	; 0x409e <__ftoa_engine+0x6>
    409c:	27 e0       	ldi	r18, 0x07	; 7
    409e:	33 27       	eor	r19, r19
    40a0:	da 01       	movw	r26, r20
    40a2:	99 0f       	add	r25, r25
    40a4:	31 1d       	adc	r19, r1
    40a6:	87 fd       	sbrc	r24, 7
    40a8:	91 60       	ori	r25, 0x01	; 1
    40aa:	00 96       	adiw	r24, 0x00	; 0
    40ac:	61 05       	cpc	r22, r1
    40ae:	71 05       	cpc	r23, r1
    40b0:	39 f4       	brne	.+14     	; 0x40c0 <__ftoa_engine+0x28>
    40b2:	32 60       	ori	r19, 0x02	; 2
    40b4:	2e 5f       	subi	r18, 0xFE	; 254
    40b6:	3d 93       	st	X+, r19
    40b8:	30 e3       	ldi	r19, 0x30	; 48
    40ba:	2a 95       	dec	r18
    40bc:	e1 f7       	brne	.-8      	; 0x40b6 <__ftoa_engine+0x1e>
    40be:	08 95       	ret
    40c0:	9f 3f       	cpi	r25, 0xFF	; 255
    40c2:	30 f0       	brcs	.+12     	; 0x40d0 <__ftoa_engine+0x38>
    40c4:	80 38       	cpi	r24, 0x80	; 128
    40c6:	71 05       	cpc	r23, r1
    40c8:	61 05       	cpc	r22, r1
    40ca:	09 f0       	breq	.+2      	; 0x40ce <__ftoa_engine+0x36>
    40cc:	3c 5f       	subi	r19, 0xFC	; 252
    40ce:	3c 5f       	subi	r19, 0xFC	; 252
    40d0:	3d 93       	st	X+, r19
    40d2:	91 30       	cpi	r25, 0x01	; 1
    40d4:	08 f0       	brcs	.+2      	; 0x40d8 <__ftoa_engine+0x40>
    40d6:	80 68       	ori	r24, 0x80	; 128
    40d8:	91 1d       	adc	r25, r1
    40da:	df 93       	push	r29
    40dc:	cf 93       	push	r28
    40de:	1f 93       	push	r17
    40e0:	0f 93       	push	r16
    40e2:	ff 92       	push	r15
    40e4:	ef 92       	push	r14
    40e6:	19 2f       	mov	r17, r25
    40e8:	98 7f       	andi	r25, 0xF8	; 248
    40ea:	96 95       	lsr	r25
    40ec:	e9 2f       	mov	r30, r25
    40ee:	96 95       	lsr	r25
    40f0:	96 95       	lsr	r25
    40f2:	e9 0f       	add	r30, r25
    40f4:	ff 27       	eor	r31, r31
    40f6:	e2 5a       	subi	r30, 0xA2	; 162
    40f8:	fc 4f       	sbci	r31, 0xFC	; 252
    40fa:	99 27       	eor	r25, r25
    40fc:	33 27       	eor	r19, r19
    40fe:	ee 24       	eor	r14, r14
    4100:	ff 24       	eor	r15, r15
    4102:	a7 01       	movw	r20, r14
    4104:	e7 01       	movw	r28, r14
    4106:	05 90       	lpm	r0, Z+
    4108:	08 94       	sec
    410a:	07 94       	ror	r0
    410c:	28 f4       	brcc	.+10     	; 0x4118 <__ftoa_engine+0x80>
    410e:	36 0f       	add	r19, r22
    4110:	e7 1e       	adc	r14, r23
    4112:	f8 1e       	adc	r15, r24
    4114:	49 1f       	adc	r20, r25
    4116:	51 1d       	adc	r21, r1
    4118:	66 0f       	add	r22, r22
    411a:	77 1f       	adc	r23, r23
    411c:	88 1f       	adc	r24, r24
    411e:	99 1f       	adc	r25, r25
    4120:	06 94       	lsr	r0
    4122:	a1 f7       	brne	.-24     	; 0x410c <__ftoa_engine+0x74>
    4124:	05 90       	lpm	r0, Z+
    4126:	07 94       	ror	r0
    4128:	28 f4       	brcc	.+10     	; 0x4134 <__ftoa_engine+0x9c>
    412a:	e7 0e       	add	r14, r23
    412c:	f8 1e       	adc	r15, r24
    412e:	49 1f       	adc	r20, r25
    4130:	56 1f       	adc	r21, r22
    4132:	c1 1d       	adc	r28, r1
    4134:	77 0f       	add	r23, r23
    4136:	88 1f       	adc	r24, r24
    4138:	99 1f       	adc	r25, r25
    413a:	66 1f       	adc	r22, r22
    413c:	06 94       	lsr	r0
    413e:	a1 f7       	brne	.-24     	; 0x4128 <__ftoa_engine+0x90>
    4140:	05 90       	lpm	r0, Z+
    4142:	07 94       	ror	r0
    4144:	28 f4       	brcc	.+10     	; 0x4150 <__ftoa_engine+0xb8>
    4146:	f8 0e       	add	r15, r24
    4148:	49 1f       	adc	r20, r25
    414a:	56 1f       	adc	r21, r22
    414c:	c7 1f       	adc	r28, r23
    414e:	d1 1d       	adc	r29, r1
    4150:	88 0f       	add	r24, r24
    4152:	99 1f       	adc	r25, r25
    4154:	66 1f       	adc	r22, r22
    4156:	77 1f       	adc	r23, r23
    4158:	06 94       	lsr	r0
    415a:	a1 f7       	brne	.-24     	; 0x4144 <__ftoa_engine+0xac>
    415c:	05 90       	lpm	r0, Z+
    415e:	07 94       	ror	r0
    4160:	20 f4       	brcc	.+8      	; 0x416a <__ftoa_engine+0xd2>
    4162:	49 0f       	add	r20, r25
    4164:	56 1f       	adc	r21, r22
    4166:	c7 1f       	adc	r28, r23
    4168:	d8 1f       	adc	r29, r24
    416a:	99 0f       	add	r25, r25
    416c:	66 1f       	adc	r22, r22
    416e:	77 1f       	adc	r23, r23
    4170:	88 1f       	adc	r24, r24
    4172:	06 94       	lsr	r0
    4174:	a9 f7       	brne	.-22     	; 0x4160 <__ftoa_engine+0xc8>
    4176:	84 91       	lpm	r24, Z
    4178:	10 95       	com	r17
    417a:	17 70       	andi	r17, 0x07	; 7
    417c:	41 f0       	breq	.+16     	; 0x418e <__ftoa_engine+0xf6>
    417e:	d6 95       	lsr	r29
    4180:	c7 95       	ror	r28
    4182:	57 95       	ror	r21
    4184:	47 95       	ror	r20
    4186:	f7 94       	ror	r15
    4188:	e7 94       	ror	r14
    418a:	1a 95       	dec	r17
    418c:	c1 f7       	brne	.-16     	; 0x417e <__ftoa_engine+0xe6>
    418e:	e4 e0       	ldi	r30, 0x04	; 4
    4190:	f3 e0       	ldi	r31, 0x03	; 3
    4192:	68 94       	set
    4194:	15 90       	lpm	r1, Z+
    4196:	15 91       	lpm	r17, Z+
    4198:	35 91       	lpm	r19, Z+
    419a:	65 91       	lpm	r22, Z+
    419c:	95 91       	lpm	r25, Z+
    419e:	05 90       	lpm	r0, Z+
    41a0:	7f e2       	ldi	r23, 0x2F	; 47
    41a2:	73 95       	inc	r23
    41a4:	e1 18       	sub	r14, r1
    41a6:	f1 0a       	sbc	r15, r17
    41a8:	43 0b       	sbc	r20, r19
    41aa:	56 0b       	sbc	r21, r22
    41ac:	c9 0b       	sbc	r28, r25
    41ae:	d0 09       	sbc	r29, r0
    41b0:	c0 f7       	brcc	.-16     	; 0x41a2 <__ftoa_engine+0x10a>
    41b2:	e1 0c       	add	r14, r1
    41b4:	f1 1e       	adc	r15, r17
    41b6:	43 1f       	adc	r20, r19
    41b8:	56 1f       	adc	r21, r22
    41ba:	c9 1f       	adc	r28, r25
    41bc:	d0 1d       	adc	r29, r0
    41be:	7e f4       	brtc	.+30     	; 0x41de <__ftoa_engine+0x146>
    41c0:	70 33       	cpi	r23, 0x30	; 48
    41c2:	11 f4       	brne	.+4      	; 0x41c8 <__ftoa_engine+0x130>
    41c4:	8a 95       	dec	r24
    41c6:	e6 cf       	rjmp	.-52     	; 0x4194 <__ftoa_engine+0xfc>
    41c8:	e8 94       	clt
    41ca:	01 50       	subi	r16, 0x01	; 1
    41cc:	30 f0       	brcs	.+12     	; 0x41da <__ftoa_engine+0x142>
    41ce:	08 0f       	add	r16, r24
    41d0:	0a f4       	brpl	.+2      	; 0x41d4 <__ftoa_engine+0x13c>
    41d2:	00 27       	eor	r16, r16
    41d4:	02 17       	cp	r16, r18
    41d6:	08 f4       	brcc	.+2      	; 0x41da <__ftoa_engine+0x142>
    41d8:	20 2f       	mov	r18, r16
    41da:	23 95       	inc	r18
    41dc:	02 2f       	mov	r16, r18
    41de:	7a 33       	cpi	r23, 0x3A	; 58
    41e0:	28 f0       	brcs	.+10     	; 0x41ec <__ftoa_engine+0x154>
    41e2:	79 e3       	ldi	r23, 0x39	; 57
    41e4:	7d 93       	st	X+, r23
    41e6:	2a 95       	dec	r18
    41e8:	e9 f7       	brne	.-6      	; 0x41e4 <__ftoa_engine+0x14c>
    41ea:	10 c0       	rjmp	.+32     	; 0x420c <__ftoa_engine+0x174>
    41ec:	7d 93       	st	X+, r23
    41ee:	2a 95       	dec	r18
    41f0:	89 f6       	brne	.-94     	; 0x4194 <__ftoa_engine+0xfc>
    41f2:	06 94       	lsr	r0
    41f4:	97 95       	ror	r25
    41f6:	67 95       	ror	r22
    41f8:	37 95       	ror	r19
    41fa:	17 95       	ror	r17
    41fc:	17 94       	ror	r1
    41fe:	e1 18       	sub	r14, r1
    4200:	f1 0a       	sbc	r15, r17
    4202:	43 0b       	sbc	r20, r19
    4204:	56 0b       	sbc	r21, r22
    4206:	c9 0b       	sbc	r28, r25
    4208:	d0 09       	sbc	r29, r0
    420a:	98 f0       	brcs	.+38     	; 0x4232 <__ftoa_engine+0x19a>
    420c:	23 95       	inc	r18
    420e:	7e 91       	ld	r23, -X
    4210:	73 95       	inc	r23
    4212:	7a 33       	cpi	r23, 0x3A	; 58
    4214:	08 f0       	brcs	.+2      	; 0x4218 <__ftoa_engine+0x180>
    4216:	70 e3       	ldi	r23, 0x30	; 48
    4218:	7c 93       	st	X, r23
    421a:	20 13       	cpse	r18, r16
    421c:	b8 f7       	brcc	.-18     	; 0x420c <__ftoa_engine+0x174>
    421e:	7e 91       	ld	r23, -X
    4220:	70 61       	ori	r23, 0x10	; 16
    4222:	7d 93       	st	X+, r23
    4224:	30 f0       	brcs	.+12     	; 0x4232 <__ftoa_engine+0x19a>
    4226:	83 95       	inc	r24
    4228:	71 e3       	ldi	r23, 0x31	; 49
    422a:	7d 93       	st	X+, r23
    422c:	70 e3       	ldi	r23, 0x30	; 48
    422e:	2a 95       	dec	r18
    4230:	e1 f7       	brne	.-8      	; 0x422a <__ftoa_engine+0x192>
    4232:	11 24       	eor	r1, r1
    4234:	ef 90       	pop	r14
    4236:	ff 90       	pop	r15
    4238:	0f 91       	pop	r16
    423a:	1f 91       	pop	r17
    423c:	cf 91       	pop	r28
    423e:	df 91       	pop	r29
    4240:	99 27       	eor	r25, r25
    4242:	87 fd       	sbrc	r24, 7
    4244:	90 95       	com	r25
    4246:	08 95       	ret

00004248 <strnlen_P>:
    4248:	fc 01       	movw	r30, r24
    424a:	05 90       	lpm	r0, Z+
    424c:	61 50       	subi	r22, 0x01	; 1
    424e:	70 40       	sbci	r23, 0x00	; 0
    4250:	01 10       	cpse	r0, r1
    4252:	d8 f7       	brcc	.-10     	; 0x424a <strnlen_P+0x2>
    4254:	80 95       	com	r24
    4256:	90 95       	com	r25
    4258:	8e 0f       	add	r24, r30
    425a:	9f 1f       	adc	r25, r31
    425c:	08 95       	ret

0000425e <strnlen>:
    425e:	fc 01       	movw	r30, r24
    4260:	61 50       	subi	r22, 0x01	; 1
    4262:	70 40       	sbci	r23, 0x00	; 0
    4264:	01 90       	ld	r0, Z+
    4266:	01 10       	cpse	r0, r1
    4268:	d8 f7       	brcc	.-10     	; 0x4260 <strnlen+0x2>
    426a:	80 95       	com	r24
    426c:	90 95       	com	r25
    426e:	8e 0f       	add	r24, r30
    4270:	9f 1f       	adc	r25, r31
    4272:	08 95       	ret

00004274 <fdevopen>:
    4274:	0f 93       	push	r16
    4276:	1f 93       	push	r17
    4278:	cf 93       	push	r28
    427a:	df 93       	push	r29
    427c:	00 97       	sbiw	r24, 0x00	; 0
    427e:	31 f4       	brne	.+12     	; 0x428c <fdevopen+0x18>
    4280:	61 15       	cp	r22, r1
    4282:	71 05       	cpc	r23, r1
    4284:	19 f4       	brne	.+6      	; 0x428c <fdevopen+0x18>
    4286:	80 e0       	ldi	r24, 0x00	; 0
    4288:	90 e0       	ldi	r25, 0x00	; 0
    428a:	39 c0       	rjmp	.+114    	; 0x42fe <fdevopen+0x8a>
    428c:	8b 01       	movw	r16, r22
    428e:	ec 01       	movw	r28, r24
    4290:	6e e0       	ldi	r22, 0x0E	; 14
    4292:	70 e0       	ldi	r23, 0x00	; 0
    4294:	81 e0       	ldi	r24, 0x01	; 1
    4296:	90 e0       	ldi	r25, 0x00	; 0
    4298:	14 d1       	rcall	.+552    	; 0x44c2 <calloc>
    429a:	fc 01       	movw	r30, r24
    429c:	89 2b       	or	r24, r25
    429e:	99 f3       	breq	.-26     	; 0x4286 <fdevopen+0x12>
    42a0:	80 e8       	ldi	r24, 0x80	; 128
    42a2:	83 83       	std	Z+3, r24	; 0x03
    42a4:	01 15       	cp	r16, r1
    42a6:	11 05       	cpc	r17, r1
    42a8:	71 f0       	breq	.+28     	; 0x42c6 <fdevopen+0x52>
    42aa:	02 87       	std	Z+10, r16	; 0x0a
    42ac:	13 87       	std	Z+11, r17	; 0x0b
    42ae:	81 e8       	ldi	r24, 0x81	; 129
    42b0:	83 83       	std	Z+3, r24	; 0x03
    42b2:	80 91 ce 20 	lds	r24, 0x20CE	; 0x8020ce <__iob>
    42b6:	90 91 cf 20 	lds	r25, 0x20CF	; 0x8020cf <__iob+0x1>
    42ba:	89 2b       	or	r24, r25
    42bc:	21 f4       	brne	.+8      	; 0x42c6 <fdevopen+0x52>
    42be:	e0 93 ce 20 	sts	0x20CE, r30	; 0x8020ce <__iob>
    42c2:	f0 93 cf 20 	sts	0x20CF, r31	; 0x8020cf <__iob+0x1>
    42c6:	20 97       	sbiw	r28, 0x00	; 0
    42c8:	c9 f0       	breq	.+50     	; 0x42fc <fdevopen+0x88>
    42ca:	c0 87       	std	Z+8, r28	; 0x08
    42cc:	d1 87       	std	Z+9, r29	; 0x09
    42ce:	83 81       	ldd	r24, Z+3	; 0x03
    42d0:	82 60       	ori	r24, 0x02	; 2
    42d2:	83 83       	std	Z+3, r24	; 0x03
    42d4:	80 91 d0 20 	lds	r24, 0x20D0	; 0x8020d0 <__iob+0x2>
    42d8:	90 91 d1 20 	lds	r25, 0x20D1	; 0x8020d1 <__iob+0x3>
    42dc:	89 2b       	or	r24, r25
    42de:	71 f4       	brne	.+28     	; 0x42fc <fdevopen+0x88>
    42e0:	e0 93 d0 20 	sts	0x20D0, r30	; 0x8020d0 <__iob+0x2>
    42e4:	f0 93 d1 20 	sts	0x20D1, r31	; 0x8020d1 <__iob+0x3>
    42e8:	80 91 d2 20 	lds	r24, 0x20D2	; 0x8020d2 <__iob+0x4>
    42ec:	90 91 d3 20 	lds	r25, 0x20D3	; 0x8020d3 <__iob+0x5>
    42f0:	89 2b       	or	r24, r25
    42f2:	21 f4       	brne	.+8      	; 0x42fc <fdevopen+0x88>
    42f4:	e0 93 d2 20 	sts	0x20D2, r30	; 0x8020d2 <__iob+0x4>
    42f8:	f0 93 d3 20 	sts	0x20D3, r31	; 0x8020d3 <__iob+0x5>
    42fc:	cf 01       	movw	r24, r30
    42fe:	df 91       	pop	r29
    4300:	cf 91       	pop	r28
    4302:	1f 91       	pop	r17
    4304:	0f 91       	pop	r16
    4306:	08 95       	ret

00004308 <fputc>:
    4308:	0f 93       	push	r16
    430a:	1f 93       	push	r17
    430c:	cf 93       	push	r28
    430e:	df 93       	push	r29
    4310:	fb 01       	movw	r30, r22
    4312:	23 81       	ldd	r18, Z+3	; 0x03
    4314:	21 fd       	sbrc	r18, 1
    4316:	03 c0       	rjmp	.+6      	; 0x431e <fputc+0x16>
    4318:	8f ef       	ldi	r24, 0xFF	; 255
    431a:	9f ef       	ldi	r25, 0xFF	; 255
    431c:	2c c0       	rjmp	.+88     	; 0x4376 <fputc+0x6e>
    431e:	22 ff       	sbrs	r18, 2
    4320:	16 c0       	rjmp	.+44     	; 0x434e <fputc+0x46>
    4322:	46 81       	ldd	r20, Z+6	; 0x06
    4324:	57 81       	ldd	r21, Z+7	; 0x07
    4326:	24 81       	ldd	r18, Z+4	; 0x04
    4328:	35 81       	ldd	r19, Z+5	; 0x05
    432a:	42 17       	cp	r20, r18
    432c:	53 07       	cpc	r21, r19
    432e:	44 f4       	brge	.+16     	; 0x4340 <fputc+0x38>
    4330:	a0 81       	ld	r26, Z
    4332:	b1 81       	ldd	r27, Z+1	; 0x01
    4334:	9d 01       	movw	r18, r26
    4336:	2f 5f       	subi	r18, 0xFF	; 255
    4338:	3f 4f       	sbci	r19, 0xFF	; 255
    433a:	20 83       	st	Z, r18
    433c:	31 83       	std	Z+1, r19	; 0x01
    433e:	8c 93       	st	X, r24
    4340:	26 81       	ldd	r18, Z+6	; 0x06
    4342:	37 81       	ldd	r19, Z+7	; 0x07
    4344:	2f 5f       	subi	r18, 0xFF	; 255
    4346:	3f 4f       	sbci	r19, 0xFF	; 255
    4348:	26 83       	std	Z+6, r18	; 0x06
    434a:	37 83       	std	Z+7, r19	; 0x07
    434c:	14 c0       	rjmp	.+40     	; 0x4376 <fputc+0x6e>
    434e:	8b 01       	movw	r16, r22
    4350:	ec 01       	movw	r28, r24
    4352:	fb 01       	movw	r30, r22
    4354:	00 84       	ldd	r0, Z+8	; 0x08
    4356:	f1 85       	ldd	r31, Z+9	; 0x09
    4358:	e0 2d       	mov	r30, r0
    435a:	19 95       	eicall
    435c:	89 2b       	or	r24, r25
    435e:	e1 f6       	brne	.-72     	; 0x4318 <fputc+0x10>
    4360:	d8 01       	movw	r26, r16
    4362:	16 96       	adiw	r26, 0x06	; 6
    4364:	8d 91       	ld	r24, X+
    4366:	9c 91       	ld	r25, X
    4368:	17 97       	sbiw	r26, 0x07	; 7
    436a:	01 96       	adiw	r24, 0x01	; 1
    436c:	16 96       	adiw	r26, 0x06	; 6
    436e:	8d 93       	st	X+, r24
    4370:	9c 93       	st	X, r25
    4372:	17 97       	sbiw	r26, 0x07	; 7
    4374:	ce 01       	movw	r24, r28
    4376:	df 91       	pop	r29
    4378:	cf 91       	pop	r28
    437a:	1f 91       	pop	r17
    437c:	0f 91       	pop	r16
    437e:	08 95       	ret

00004380 <printf>:
    4380:	cf 93       	push	r28
    4382:	df 93       	push	r29
    4384:	cd b7       	in	r28, 0x3d	; 61
    4386:	de b7       	in	r29, 0x3e	; 62
    4388:	ae 01       	movw	r20, r28
    438a:	4a 5f       	subi	r20, 0xFA	; 250
    438c:	5f 4f       	sbci	r21, 0xFF	; 255
    438e:	fa 01       	movw	r30, r20
    4390:	61 91       	ld	r22, Z+
    4392:	71 91       	ld	r23, Z+
    4394:	af 01       	movw	r20, r30
    4396:	80 91 d0 20 	lds	r24, 0x20D0	; 0x8020d0 <__iob+0x2>
    439a:	90 91 d1 20 	lds	r25, 0x20D1	; 0x8020d1 <__iob+0x3>
    439e:	f3 d9       	rcall	.-3098   	; 0x3786 <vfprintf>
    43a0:	df 91       	pop	r29
    43a2:	cf 91       	pop	r28
    43a4:	08 95       	ret

000043a6 <puts>:
    43a6:	0f 93       	push	r16
    43a8:	1f 93       	push	r17
    43aa:	cf 93       	push	r28
    43ac:	df 93       	push	r29
    43ae:	e0 91 d0 20 	lds	r30, 0x20D0	; 0x8020d0 <__iob+0x2>
    43b2:	f0 91 d1 20 	lds	r31, 0x20D1	; 0x8020d1 <__iob+0x3>
    43b6:	23 81       	ldd	r18, Z+3	; 0x03
    43b8:	21 ff       	sbrs	r18, 1
    43ba:	1b c0       	rjmp	.+54     	; 0x43f2 <puts+0x4c>
    43bc:	8c 01       	movw	r16, r24
    43be:	d0 e0       	ldi	r29, 0x00	; 0
    43c0:	c0 e0       	ldi	r28, 0x00	; 0
    43c2:	f8 01       	movw	r30, r16
    43c4:	81 91       	ld	r24, Z+
    43c6:	8f 01       	movw	r16, r30
    43c8:	60 91 d0 20 	lds	r22, 0x20D0	; 0x8020d0 <__iob+0x2>
    43cc:	70 91 d1 20 	lds	r23, 0x20D1	; 0x8020d1 <__iob+0x3>
    43d0:	db 01       	movw	r26, r22
    43d2:	18 96       	adiw	r26, 0x08	; 8
    43d4:	ed 91       	ld	r30, X+
    43d6:	fc 91       	ld	r31, X
    43d8:	19 97       	sbiw	r26, 0x09	; 9
    43da:	88 23       	and	r24, r24
    43dc:	31 f0       	breq	.+12     	; 0x43ea <puts+0x44>
    43de:	19 95       	eicall
    43e0:	89 2b       	or	r24, r25
    43e2:	79 f3       	breq	.-34     	; 0x43c2 <puts+0x1c>
    43e4:	df ef       	ldi	r29, 0xFF	; 255
    43e6:	cf ef       	ldi	r28, 0xFF	; 255
    43e8:	ec cf       	rjmp	.-40     	; 0x43c2 <puts+0x1c>
    43ea:	8a e0       	ldi	r24, 0x0A	; 10
    43ec:	19 95       	eicall
    43ee:	89 2b       	or	r24, r25
    43f0:	19 f0       	breq	.+6      	; 0x43f8 <puts+0x52>
    43f2:	8f ef       	ldi	r24, 0xFF	; 255
    43f4:	9f ef       	ldi	r25, 0xFF	; 255
    43f6:	02 c0       	rjmp	.+4      	; 0x43fc <puts+0x56>
    43f8:	8d 2f       	mov	r24, r29
    43fa:	9c 2f       	mov	r25, r28
    43fc:	df 91       	pop	r29
    43fe:	cf 91       	pop	r28
    4400:	1f 91       	pop	r17
    4402:	0f 91       	pop	r16
    4404:	08 95       	ret

00004406 <__ultoa_invert>:
    4406:	fa 01       	movw	r30, r20
    4408:	aa 27       	eor	r26, r26
    440a:	28 30       	cpi	r18, 0x08	; 8
    440c:	51 f1       	breq	.+84     	; 0x4462 <__ultoa_invert+0x5c>
    440e:	20 31       	cpi	r18, 0x10	; 16
    4410:	81 f1       	breq	.+96     	; 0x4472 <__ultoa_invert+0x6c>
    4412:	e8 94       	clt
    4414:	6f 93       	push	r22
    4416:	6e 7f       	andi	r22, 0xFE	; 254
    4418:	6e 5f       	subi	r22, 0xFE	; 254
    441a:	7f 4f       	sbci	r23, 0xFF	; 255
    441c:	8f 4f       	sbci	r24, 0xFF	; 255
    441e:	9f 4f       	sbci	r25, 0xFF	; 255
    4420:	af 4f       	sbci	r26, 0xFF	; 255
    4422:	b1 e0       	ldi	r27, 0x01	; 1
    4424:	3e d0       	rcall	.+124    	; 0x44a2 <__ultoa_invert+0x9c>
    4426:	b4 e0       	ldi	r27, 0x04	; 4
    4428:	3c d0       	rcall	.+120    	; 0x44a2 <__ultoa_invert+0x9c>
    442a:	67 0f       	add	r22, r23
    442c:	78 1f       	adc	r23, r24
    442e:	89 1f       	adc	r24, r25
    4430:	9a 1f       	adc	r25, r26
    4432:	a1 1d       	adc	r26, r1
    4434:	68 0f       	add	r22, r24
    4436:	79 1f       	adc	r23, r25
    4438:	8a 1f       	adc	r24, r26
    443a:	91 1d       	adc	r25, r1
    443c:	a1 1d       	adc	r26, r1
    443e:	6a 0f       	add	r22, r26
    4440:	71 1d       	adc	r23, r1
    4442:	81 1d       	adc	r24, r1
    4444:	91 1d       	adc	r25, r1
    4446:	a1 1d       	adc	r26, r1
    4448:	20 d0       	rcall	.+64     	; 0x448a <__ultoa_invert+0x84>
    444a:	09 f4       	brne	.+2      	; 0x444e <__ultoa_invert+0x48>
    444c:	68 94       	set
    444e:	3f 91       	pop	r19
    4450:	2a e0       	ldi	r18, 0x0A	; 10
    4452:	26 9f       	mul	r18, r22
    4454:	11 24       	eor	r1, r1
    4456:	30 19       	sub	r19, r0
    4458:	30 5d       	subi	r19, 0xD0	; 208
    445a:	31 93       	st	Z+, r19
    445c:	de f6       	brtc	.-74     	; 0x4414 <__ultoa_invert+0xe>
    445e:	cf 01       	movw	r24, r30
    4460:	08 95       	ret
    4462:	46 2f       	mov	r20, r22
    4464:	47 70       	andi	r20, 0x07	; 7
    4466:	40 5d       	subi	r20, 0xD0	; 208
    4468:	41 93       	st	Z+, r20
    446a:	b3 e0       	ldi	r27, 0x03	; 3
    446c:	0f d0       	rcall	.+30     	; 0x448c <__ultoa_invert+0x86>
    446e:	c9 f7       	brne	.-14     	; 0x4462 <__ultoa_invert+0x5c>
    4470:	f6 cf       	rjmp	.-20     	; 0x445e <__ultoa_invert+0x58>
    4472:	46 2f       	mov	r20, r22
    4474:	4f 70       	andi	r20, 0x0F	; 15
    4476:	40 5d       	subi	r20, 0xD0	; 208
    4478:	4a 33       	cpi	r20, 0x3A	; 58
    447a:	18 f0       	brcs	.+6      	; 0x4482 <__ultoa_invert+0x7c>
    447c:	49 5d       	subi	r20, 0xD9	; 217
    447e:	31 fd       	sbrc	r19, 1
    4480:	40 52       	subi	r20, 0x20	; 32
    4482:	41 93       	st	Z+, r20
    4484:	02 d0       	rcall	.+4      	; 0x448a <__ultoa_invert+0x84>
    4486:	a9 f7       	brne	.-22     	; 0x4472 <__ultoa_invert+0x6c>
    4488:	ea cf       	rjmp	.-44     	; 0x445e <__ultoa_invert+0x58>
    448a:	b4 e0       	ldi	r27, 0x04	; 4
    448c:	a6 95       	lsr	r26
    448e:	97 95       	ror	r25
    4490:	87 95       	ror	r24
    4492:	77 95       	ror	r23
    4494:	67 95       	ror	r22
    4496:	ba 95       	dec	r27
    4498:	c9 f7       	brne	.-14     	; 0x448c <__ultoa_invert+0x86>
    449a:	00 97       	sbiw	r24, 0x00	; 0
    449c:	61 05       	cpc	r22, r1
    449e:	71 05       	cpc	r23, r1
    44a0:	08 95       	ret
    44a2:	9b 01       	movw	r18, r22
    44a4:	ac 01       	movw	r20, r24
    44a6:	0a 2e       	mov	r0, r26
    44a8:	06 94       	lsr	r0
    44aa:	57 95       	ror	r21
    44ac:	47 95       	ror	r20
    44ae:	37 95       	ror	r19
    44b0:	27 95       	ror	r18
    44b2:	ba 95       	dec	r27
    44b4:	c9 f7       	brne	.-14     	; 0x44a8 <__ultoa_invert+0xa2>
    44b6:	62 0f       	add	r22, r18
    44b8:	73 1f       	adc	r23, r19
    44ba:	84 1f       	adc	r24, r20
    44bc:	95 1f       	adc	r25, r21
    44be:	a0 1d       	adc	r26, r0
    44c0:	08 95       	ret

000044c2 <calloc>:
    44c2:	0f 93       	push	r16
    44c4:	1f 93       	push	r17
    44c6:	cf 93       	push	r28
    44c8:	df 93       	push	r29
    44ca:	86 9f       	mul	r24, r22
    44cc:	80 01       	movw	r16, r0
    44ce:	87 9f       	mul	r24, r23
    44d0:	10 0d       	add	r17, r0
    44d2:	96 9f       	mul	r25, r22
    44d4:	10 0d       	add	r17, r0
    44d6:	11 24       	eor	r1, r1
    44d8:	c8 01       	movw	r24, r16
    44da:	0d d0       	rcall	.+26     	; 0x44f6 <malloc>
    44dc:	ec 01       	movw	r28, r24
    44de:	00 97       	sbiw	r24, 0x00	; 0
    44e0:	21 f0       	breq	.+8      	; 0x44ea <calloc+0x28>
    44e2:	a8 01       	movw	r20, r16
    44e4:	60 e0       	ldi	r22, 0x00	; 0
    44e6:	70 e0       	ldi	r23, 0x00	; 0
    44e8:	27 d1       	rcall	.+590    	; 0x4738 <memset>
    44ea:	ce 01       	movw	r24, r28
    44ec:	df 91       	pop	r29
    44ee:	cf 91       	pop	r28
    44f0:	1f 91       	pop	r17
    44f2:	0f 91       	pop	r16
    44f4:	08 95       	ret

000044f6 <malloc>:
    44f6:	0f 93       	push	r16
    44f8:	1f 93       	push	r17
    44fa:	cf 93       	push	r28
    44fc:	df 93       	push	r29
    44fe:	82 30       	cpi	r24, 0x02	; 2
    4500:	91 05       	cpc	r25, r1
    4502:	10 f4       	brcc	.+4      	; 0x4508 <malloc+0x12>
    4504:	82 e0       	ldi	r24, 0x02	; 2
    4506:	90 e0       	ldi	r25, 0x00	; 0
    4508:	e0 91 d6 20 	lds	r30, 0x20D6	; 0x8020d6 <__flp>
    450c:	f0 91 d7 20 	lds	r31, 0x20D7	; 0x8020d7 <__flp+0x1>
    4510:	20 e0       	ldi	r18, 0x00	; 0
    4512:	30 e0       	ldi	r19, 0x00	; 0
    4514:	a0 e0       	ldi	r26, 0x00	; 0
    4516:	b0 e0       	ldi	r27, 0x00	; 0
    4518:	30 97       	sbiw	r30, 0x00	; 0
    451a:	19 f1       	breq	.+70     	; 0x4562 <malloc+0x6c>
    451c:	40 81       	ld	r20, Z
    451e:	51 81       	ldd	r21, Z+1	; 0x01
    4520:	02 81       	ldd	r16, Z+2	; 0x02
    4522:	13 81       	ldd	r17, Z+3	; 0x03
    4524:	48 17       	cp	r20, r24
    4526:	59 07       	cpc	r21, r25
    4528:	c8 f0       	brcs	.+50     	; 0x455c <malloc+0x66>
    452a:	84 17       	cp	r24, r20
    452c:	95 07       	cpc	r25, r21
    452e:	69 f4       	brne	.+26     	; 0x454a <malloc+0x54>
    4530:	10 97       	sbiw	r26, 0x00	; 0
    4532:	31 f0       	breq	.+12     	; 0x4540 <malloc+0x4a>
    4534:	12 96       	adiw	r26, 0x02	; 2
    4536:	0c 93       	st	X, r16
    4538:	12 97       	sbiw	r26, 0x02	; 2
    453a:	13 96       	adiw	r26, 0x03	; 3
    453c:	1c 93       	st	X, r17
    453e:	27 c0       	rjmp	.+78     	; 0x458e <malloc+0x98>
    4540:	00 93 d6 20 	sts	0x20D6, r16	; 0x8020d6 <__flp>
    4544:	10 93 d7 20 	sts	0x20D7, r17	; 0x8020d7 <__flp+0x1>
    4548:	22 c0       	rjmp	.+68     	; 0x458e <malloc+0x98>
    454a:	21 15       	cp	r18, r1
    454c:	31 05       	cpc	r19, r1
    454e:	19 f0       	breq	.+6      	; 0x4556 <malloc+0x60>
    4550:	42 17       	cp	r20, r18
    4552:	53 07       	cpc	r21, r19
    4554:	18 f4       	brcc	.+6      	; 0x455c <malloc+0x66>
    4556:	9a 01       	movw	r18, r20
    4558:	bd 01       	movw	r22, r26
    455a:	ef 01       	movw	r28, r30
    455c:	df 01       	movw	r26, r30
    455e:	f8 01       	movw	r30, r16
    4560:	db cf       	rjmp	.-74     	; 0x4518 <malloc+0x22>
    4562:	21 15       	cp	r18, r1
    4564:	31 05       	cpc	r19, r1
    4566:	f9 f0       	breq	.+62     	; 0x45a6 <malloc+0xb0>
    4568:	28 1b       	sub	r18, r24
    456a:	39 0b       	sbc	r19, r25
    456c:	24 30       	cpi	r18, 0x04	; 4
    456e:	31 05       	cpc	r19, r1
    4570:	80 f4       	brcc	.+32     	; 0x4592 <malloc+0x9c>
    4572:	8a 81       	ldd	r24, Y+2	; 0x02
    4574:	9b 81       	ldd	r25, Y+3	; 0x03
    4576:	61 15       	cp	r22, r1
    4578:	71 05       	cpc	r23, r1
    457a:	21 f0       	breq	.+8      	; 0x4584 <malloc+0x8e>
    457c:	fb 01       	movw	r30, r22
    457e:	82 83       	std	Z+2, r24	; 0x02
    4580:	93 83       	std	Z+3, r25	; 0x03
    4582:	04 c0       	rjmp	.+8      	; 0x458c <malloc+0x96>
    4584:	80 93 d6 20 	sts	0x20D6, r24	; 0x8020d6 <__flp>
    4588:	90 93 d7 20 	sts	0x20D7, r25	; 0x8020d7 <__flp+0x1>
    458c:	fe 01       	movw	r30, r28
    458e:	32 96       	adiw	r30, 0x02	; 2
    4590:	44 c0       	rjmp	.+136    	; 0x461a <malloc+0x124>
    4592:	fe 01       	movw	r30, r28
    4594:	e2 0f       	add	r30, r18
    4596:	f3 1f       	adc	r31, r19
    4598:	81 93       	st	Z+, r24
    459a:	91 93       	st	Z+, r25
    459c:	22 50       	subi	r18, 0x02	; 2
    459e:	31 09       	sbc	r19, r1
    45a0:	28 83       	st	Y, r18
    45a2:	39 83       	std	Y+1, r19	; 0x01
    45a4:	3a c0       	rjmp	.+116    	; 0x461a <malloc+0x124>
    45a6:	20 91 d4 20 	lds	r18, 0x20D4	; 0x8020d4 <__brkval>
    45aa:	30 91 d5 20 	lds	r19, 0x20D5	; 0x8020d5 <__brkval+0x1>
    45ae:	23 2b       	or	r18, r19
    45b0:	41 f4       	brne	.+16     	; 0x45c2 <malloc+0xcc>
    45b2:	20 91 02 20 	lds	r18, 0x2002	; 0x802002 <__malloc_heap_start>
    45b6:	30 91 03 20 	lds	r19, 0x2003	; 0x802003 <__malloc_heap_start+0x1>
    45ba:	20 93 d4 20 	sts	0x20D4, r18	; 0x8020d4 <__brkval>
    45be:	30 93 d5 20 	sts	0x20D5, r19	; 0x8020d5 <__brkval+0x1>
    45c2:	20 91 00 20 	lds	r18, 0x2000	; 0x802000 <__data_start>
    45c6:	30 91 01 20 	lds	r19, 0x2001	; 0x802001 <__data_start+0x1>
    45ca:	21 15       	cp	r18, r1
    45cc:	31 05       	cpc	r19, r1
    45ce:	41 f4       	brne	.+16     	; 0x45e0 <malloc+0xea>
    45d0:	2d b7       	in	r18, 0x3d	; 61
    45d2:	3e b7       	in	r19, 0x3e	; 62
    45d4:	40 91 04 20 	lds	r20, 0x2004	; 0x802004 <__malloc_margin>
    45d8:	50 91 05 20 	lds	r21, 0x2005	; 0x802005 <__malloc_margin+0x1>
    45dc:	24 1b       	sub	r18, r20
    45de:	35 0b       	sbc	r19, r21
    45e0:	e0 91 d4 20 	lds	r30, 0x20D4	; 0x8020d4 <__brkval>
    45e4:	f0 91 d5 20 	lds	r31, 0x20D5	; 0x8020d5 <__brkval+0x1>
    45e8:	e2 17       	cp	r30, r18
    45ea:	f3 07       	cpc	r31, r19
    45ec:	a0 f4       	brcc	.+40     	; 0x4616 <malloc+0x120>
    45ee:	2e 1b       	sub	r18, r30
    45f0:	3f 0b       	sbc	r19, r31
    45f2:	28 17       	cp	r18, r24
    45f4:	39 07       	cpc	r19, r25
    45f6:	78 f0       	brcs	.+30     	; 0x4616 <malloc+0x120>
    45f8:	ac 01       	movw	r20, r24
    45fa:	4e 5f       	subi	r20, 0xFE	; 254
    45fc:	5f 4f       	sbci	r21, 0xFF	; 255
    45fe:	24 17       	cp	r18, r20
    4600:	35 07       	cpc	r19, r21
    4602:	48 f0       	brcs	.+18     	; 0x4616 <malloc+0x120>
    4604:	4e 0f       	add	r20, r30
    4606:	5f 1f       	adc	r21, r31
    4608:	40 93 d4 20 	sts	0x20D4, r20	; 0x8020d4 <__brkval>
    460c:	50 93 d5 20 	sts	0x20D5, r21	; 0x8020d5 <__brkval+0x1>
    4610:	81 93       	st	Z+, r24
    4612:	91 93       	st	Z+, r25
    4614:	02 c0       	rjmp	.+4      	; 0x461a <malloc+0x124>
    4616:	e0 e0       	ldi	r30, 0x00	; 0
    4618:	f0 e0       	ldi	r31, 0x00	; 0
    461a:	cf 01       	movw	r24, r30
    461c:	df 91       	pop	r29
    461e:	cf 91       	pop	r28
    4620:	1f 91       	pop	r17
    4622:	0f 91       	pop	r16
    4624:	08 95       	ret

00004626 <free>:
    4626:	cf 93       	push	r28
    4628:	df 93       	push	r29
    462a:	00 97       	sbiw	r24, 0x00	; 0
    462c:	09 f4       	brne	.+2      	; 0x4630 <free+0xa>
    462e:	81 c0       	rjmp	.+258    	; 0x4732 <free+0x10c>
    4630:	fc 01       	movw	r30, r24
    4632:	32 97       	sbiw	r30, 0x02	; 2
    4634:	12 82       	std	Z+2, r1	; 0x02
    4636:	13 82       	std	Z+3, r1	; 0x03
    4638:	a0 91 d6 20 	lds	r26, 0x20D6	; 0x8020d6 <__flp>
    463c:	b0 91 d7 20 	lds	r27, 0x20D7	; 0x8020d7 <__flp+0x1>
    4640:	10 97       	sbiw	r26, 0x00	; 0
    4642:	81 f4       	brne	.+32     	; 0x4664 <free+0x3e>
    4644:	20 81       	ld	r18, Z
    4646:	31 81       	ldd	r19, Z+1	; 0x01
    4648:	82 0f       	add	r24, r18
    464a:	93 1f       	adc	r25, r19
    464c:	20 91 d4 20 	lds	r18, 0x20D4	; 0x8020d4 <__brkval>
    4650:	30 91 d5 20 	lds	r19, 0x20D5	; 0x8020d5 <__brkval+0x1>
    4654:	28 17       	cp	r18, r24
    4656:	39 07       	cpc	r19, r25
    4658:	51 f5       	brne	.+84     	; 0x46ae <free+0x88>
    465a:	e0 93 d4 20 	sts	0x20D4, r30	; 0x8020d4 <__brkval>
    465e:	f0 93 d5 20 	sts	0x20D5, r31	; 0x8020d5 <__brkval+0x1>
    4662:	67 c0       	rjmp	.+206    	; 0x4732 <free+0x10c>
    4664:	ed 01       	movw	r28, r26
    4666:	20 e0       	ldi	r18, 0x00	; 0
    4668:	30 e0       	ldi	r19, 0x00	; 0
    466a:	ce 17       	cp	r28, r30
    466c:	df 07       	cpc	r29, r31
    466e:	40 f4       	brcc	.+16     	; 0x4680 <free+0x5a>
    4670:	4a 81       	ldd	r20, Y+2	; 0x02
    4672:	5b 81       	ldd	r21, Y+3	; 0x03
    4674:	9e 01       	movw	r18, r28
    4676:	41 15       	cp	r20, r1
    4678:	51 05       	cpc	r21, r1
    467a:	f1 f0       	breq	.+60     	; 0x46b8 <free+0x92>
    467c:	ea 01       	movw	r28, r20
    467e:	f5 cf       	rjmp	.-22     	; 0x466a <free+0x44>
    4680:	c2 83       	std	Z+2, r28	; 0x02
    4682:	d3 83       	std	Z+3, r29	; 0x03
    4684:	40 81       	ld	r20, Z
    4686:	51 81       	ldd	r21, Z+1	; 0x01
    4688:	84 0f       	add	r24, r20
    468a:	95 1f       	adc	r25, r21
    468c:	c8 17       	cp	r28, r24
    468e:	d9 07       	cpc	r29, r25
    4690:	59 f4       	brne	.+22     	; 0x46a8 <free+0x82>
    4692:	88 81       	ld	r24, Y
    4694:	99 81       	ldd	r25, Y+1	; 0x01
    4696:	84 0f       	add	r24, r20
    4698:	95 1f       	adc	r25, r21
    469a:	02 96       	adiw	r24, 0x02	; 2
    469c:	80 83       	st	Z, r24
    469e:	91 83       	std	Z+1, r25	; 0x01
    46a0:	8a 81       	ldd	r24, Y+2	; 0x02
    46a2:	9b 81       	ldd	r25, Y+3	; 0x03
    46a4:	82 83       	std	Z+2, r24	; 0x02
    46a6:	93 83       	std	Z+3, r25	; 0x03
    46a8:	21 15       	cp	r18, r1
    46aa:	31 05       	cpc	r19, r1
    46ac:	29 f4       	brne	.+10     	; 0x46b8 <free+0x92>
    46ae:	e0 93 d6 20 	sts	0x20D6, r30	; 0x8020d6 <__flp>
    46b2:	f0 93 d7 20 	sts	0x20D7, r31	; 0x8020d7 <__flp+0x1>
    46b6:	3d c0       	rjmp	.+122    	; 0x4732 <free+0x10c>
    46b8:	e9 01       	movw	r28, r18
    46ba:	ea 83       	std	Y+2, r30	; 0x02
    46bc:	fb 83       	std	Y+3, r31	; 0x03
    46be:	49 91       	ld	r20, Y+
    46c0:	59 91       	ld	r21, Y+
    46c2:	c4 0f       	add	r28, r20
    46c4:	d5 1f       	adc	r29, r21
    46c6:	ec 17       	cp	r30, r28
    46c8:	fd 07       	cpc	r31, r29
    46ca:	61 f4       	brne	.+24     	; 0x46e4 <free+0xbe>
    46cc:	80 81       	ld	r24, Z
    46ce:	91 81       	ldd	r25, Z+1	; 0x01
    46d0:	84 0f       	add	r24, r20
    46d2:	95 1f       	adc	r25, r21
    46d4:	02 96       	adiw	r24, 0x02	; 2
    46d6:	e9 01       	movw	r28, r18
    46d8:	88 83       	st	Y, r24
    46da:	99 83       	std	Y+1, r25	; 0x01
    46dc:	82 81       	ldd	r24, Z+2	; 0x02
    46de:	93 81       	ldd	r25, Z+3	; 0x03
    46e0:	8a 83       	std	Y+2, r24	; 0x02
    46e2:	9b 83       	std	Y+3, r25	; 0x03
    46e4:	e0 e0       	ldi	r30, 0x00	; 0
    46e6:	f0 e0       	ldi	r31, 0x00	; 0
    46e8:	12 96       	adiw	r26, 0x02	; 2
    46ea:	8d 91       	ld	r24, X+
    46ec:	9c 91       	ld	r25, X
    46ee:	13 97       	sbiw	r26, 0x03	; 3
    46f0:	00 97       	sbiw	r24, 0x00	; 0
    46f2:	19 f0       	breq	.+6      	; 0x46fa <free+0xd4>
    46f4:	fd 01       	movw	r30, r26
    46f6:	dc 01       	movw	r26, r24
    46f8:	f7 cf       	rjmp	.-18     	; 0x46e8 <free+0xc2>
    46fa:	8d 91       	ld	r24, X+
    46fc:	9c 91       	ld	r25, X
    46fe:	11 97       	sbiw	r26, 0x01	; 1
    4700:	9d 01       	movw	r18, r26
    4702:	2e 5f       	subi	r18, 0xFE	; 254
    4704:	3f 4f       	sbci	r19, 0xFF	; 255
    4706:	82 0f       	add	r24, r18
    4708:	93 1f       	adc	r25, r19
    470a:	20 91 d4 20 	lds	r18, 0x20D4	; 0x8020d4 <__brkval>
    470e:	30 91 d5 20 	lds	r19, 0x20D5	; 0x8020d5 <__brkval+0x1>
    4712:	28 17       	cp	r18, r24
    4714:	39 07       	cpc	r19, r25
    4716:	69 f4       	brne	.+26     	; 0x4732 <free+0x10c>
    4718:	30 97       	sbiw	r30, 0x00	; 0
    471a:	29 f4       	brne	.+10     	; 0x4726 <free+0x100>
    471c:	10 92 d6 20 	sts	0x20D6, r1	; 0x8020d6 <__flp>
    4720:	10 92 d7 20 	sts	0x20D7, r1	; 0x8020d7 <__flp+0x1>
    4724:	02 c0       	rjmp	.+4      	; 0x472a <free+0x104>
    4726:	12 82       	std	Z+2, r1	; 0x02
    4728:	13 82       	std	Z+3, r1	; 0x03
    472a:	a0 93 d4 20 	sts	0x20D4, r26	; 0x8020d4 <__brkval>
    472e:	b0 93 d5 20 	sts	0x20D5, r27	; 0x8020d5 <__brkval+0x1>
    4732:	df 91       	pop	r29
    4734:	cf 91       	pop	r28
    4736:	08 95       	ret

00004738 <memset>:
    4738:	dc 01       	movw	r26, r24
    473a:	01 c0       	rjmp	.+2      	; 0x473e <memset+0x6>
    473c:	6d 93       	st	X+, r22
    473e:	41 50       	subi	r20, 0x01	; 1
    4740:	50 40       	sbci	r21, 0x00	; 0
    4742:	e0 f7       	brcc	.-8      	; 0x473c <memset+0x4>
    4744:	08 95       	ret

00004746 <_exit>:
    4746:	f8 94       	cli

00004748 <__stop_program>:
    4748:	ff cf       	rjmp	.-2      	; 0x4748 <__stop_program>
