
CanSat Probe Code.elf:     file format elf32-avr

Sections:
Idx Name          Size      VMA       LMA       File off  Algn
  0 .text         0000511a  00000000  00000000  00000094  2**1
                  CONTENTS, ALLOC, LOAD, READONLY, CODE
  1 .data         0000007e  00802000  0000511a  000051ae  2**0
                  CONTENTS, ALLOC, LOAD, DATA
  2 .bss          00000331  0080207e  0080207e  0000522c  2**0
                  ALLOC
  3 .comment      0000005c  00000000  00000000  0000522c  2**0
                  CONTENTS, READONLY
  4 .note.gnu.avr.deviceinfo 00000040  00000000  00000000  00005288  2**2
                  CONTENTS, READONLY
  5 .debug_aranges 000007a0  00000000  00000000  000052c8  2**3
                  CONTENTS, READONLY, DEBUGGING
  6 .debug_info   0001624d  00000000  00000000  00005a68  2**0
                  CONTENTS, READONLY, DEBUGGING
  7 .debug_abbrev 00006b1b  00000000  00000000  0001bcb5  2**0
                  CONTENTS, READONLY, DEBUGGING
  8 .debug_line   0000ca31  00000000  00000000  000227d0  2**0
                  CONTENTS, READONLY, DEBUGGING
  9 .debug_frame  00002338  00000000  00000000  0002f204  2**2
                  CONTENTS, READONLY, DEBUGGING
 10 .debug_str    00035ce4  00000000  00000000  0003153c  2**0
                  CONTENTS, READONLY, DEBUGGING
 11 .debug_loc    00008620  00000000  00000000  00067220  2**0
                  CONTENTS, READONLY, DEBUGGING
 12 .debug_ranges 00000728  00000000  00000000  0006f840  2**3
                  CONTENTS, READONLY, DEBUGGING
 13 .debug_macro  0000e4d0  00000000  00000000  0006ff68  2**0
                  CONTENTS, READONLY, DEBUGGING

Disassembly of section .text:

00000000 <__vectors>:
       0:	fe c1       	rjmp	.+1020   	; 0x3fe <__ctors_end>
       2:	00 00       	nop
       4:	22 c2       	rjmp	.+1092   	; 0x44a <__bad_interrupt>
       6:	00 00       	nop
       8:	0c 94 64 16 	jmp	0x2cc8	; 0x2cc8 <__vector_2>
       c:	1e c2       	rjmp	.+1084   	; 0x44a <__bad_interrupt>
       e:	00 00       	nop
      10:	1c c2       	rjmp	.+1080   	; 0x44a <__bad_interrupt>
      12:	00 00       	nop
      14:	1a c2       	rjmp	.+1076   	; 0x44a <__bad_interrupt>
      16:	00 00       	nop
      18:	18 c2       	rjmp	.+1072   	; 0x44a <__bad_interrupt>
      1a:	00 00       	nop
      1c:	16 c2       	rjmp	.+1068   	; 0x44a <__bad_interrupt>
      1e:	00 00       	nop
      20:	14 c2       	rjmp	.+1064   	; 0x44a <__bad_interrupt>
      22:	00 00       	nop
      24:	12 c2       	rjmp	.+1060   	; 0x44a <__bad_interrupt>
      26:	00 00       	nop
      28:	10 c2       	rjmp	.+1056   	; 0x44a <__bad_interrupt>
      2a:	00 00       	nop
      2c:	0e c2       	rjmp	.+1052   	; 0x44a <__bad_interrupt>
      2e:	00 00       	nop
      30:	0c c2       	rjmp	.+1048   	; 0x44a <__bad_interrupt>
      32:	00 00       	nop
      34:	a2 c2       	rjmp	.+1348   	; 0x57a <__vector_13>
      36:	00 00       	nop
      38:	27 c7       	rjmp	.+3662   	; 0xe88 <__vector_14>
      3a:	00 00       	nop
      3c:	5d c7       	rjmp	.+3770   	; 0xef8 <__vector_15>
      3e:	00 00       	nop
      40:	93 c7       	rjmp	.+3878   	; 0xf68 <__vector_16>
      42:	00 00       	nop
      44:	c9 c7       	rjmp	.+3986   	; 0xfd8 <__vector_17>
      46:	00 00       	nop
      48:	0c 94 24 08 	jmp	0x1048	; 0x1048 <__vector_18>
      4c:	0c 94 5c 08 	jmp	0x10b8	; 0x10b8 <__vector_19>
      50:	0c 94 94 08 	jmp	0x1128	; 0x1128 <__vector_20>
      54:	0c 94 cc 08 	jmp	0x1198	; 0x1198 <__vector_21>
      58:	0c 94 04 09 	jmp	0x1208	; 0x1208 <__vector_22>
      5c:	0c 94 3c 09 	jmp	0x1278	; 0x1278 <__vector_23>
      60:	f4 c1       	rjmp	.+1000   	; 0x44a <__bad_interrupt>
      62:	00 00       	nop
      64:	f2 c1       	rjmp	.+996    	; 0x44a <__bad_interrupt>
      66:	00 00       	nop
      68:	f0 c1       	rjmp	.+992    	; 0x44a <__bad_interrupt>
      6a:	00 00       	nop
      6c:	ee c1       	rjmp	.+988    	; 0x44a <__bad_interrupt>
      6e:	00 00       	nop
      70:	ec c1       	rjmp	.+984    	; 0x44a <__bad_interrupt>
      72:	00 00       	nop
      74:	ea c1       	rjmp	.+980    	; 0x44a <__bad_interrupt>
      76:	00 00       	nop
      78:	e8 c1       	rjmp	.+976    	; 0x44a <__bad_interrupt>
      7a:	00 00       	nop
      7c:	e6 c1       	rjmp	.+972    	; 0x44a <__bad_interrupt>
      7e:	00 00       	nop
      80:	e4 c1       	rjmp	.+968    	; 0x44a <__bad_interrupt>
      82:	00 00       	nop
      84:	e2 c1       	rjmp	.+964    	; 0x44a <__bad_interrupt>
      86:	00 00       	nop
      88:	e0 c1       	rjmp	.+960    	; 0x44a <__bad_interrupt>
      8a:	00 00       	nop
      8c:	de c1       	rjmp	.+956    	; 0x44a <__bad_interrupt>
      8e:	00 00       	nop
      90:	dc c1       	rjmp	.+952    	; 0x44a <__bad_interrupt>
      92:	00 00       	nop
      94:	da c1       	rjmp	.+948    	; 0x44a <__bad_interrupt>
      96:	00 00       	nop
      98:	d8 c1       	rjmp	.+944    	; 0x44a <__bad_interrupt>
      9a:	00 00       	nop
      9c:	f1 c5       	rjmp	.+3042   	; 0xc80 <__vector_39>
      9e:	00 00       	nop
      a0:	2c c6       	rjmp	.+3160   	; 0xcfa <__vector_40>
      a2:	00 00       	nop
      a4:	67 c6       	rjmp	.+3278   	; 0xd74 <__vector_41>
      a6:	00 00       	nop
      a8:	a2 c6       	rjmp	.+3396   	; 0xdee <__vector_42>
      aa:	00 00       	nop
      ac:	ce c1       	rjmp	.+924    	; 0x44a <__bad_interrupt>
      ae:	00 00       	nop
      b0:	cc c1       	rjmp	.+920    	; 0x44a <__bad_interrupt>
      b2:	00 00       	nop
      b4:	ca c1       	rjmp	.+916    	; 0x44a <__bad_interrupt>
      b6:	00 00       	nop
      b8:	c4 c2       	rjmp	.+1416   	; 0x642 <__vector_46>
      ba:	00 00       	nop
      bc:	0c 94 a4 0b 	jmp	0x1748	; 0x1748 <__vector_47>
      c0:	0c 94 dc 0b 	jmp	0x17b8	; 0x17b8 <__vector_48>
      c4:	0c 94 14 0c 	jmp	0x1828	; 0x1828 <__vector_49>
      c8:	0c 94 4c 0c 	jmp	0x1898	; 0x1898 <__vector_50>
      cc:	0c 94 84 0c 	jmp	0x1908	; 0x1908 <__vector_51>
      d0:	0c 94 bc 0c 	jmp	0x1978	; 0x1978 <__vector_52>
      d4:	0c 94 f4 0c 	jmp	0x19e8	; 0x19e8 <__vector_53>
      d8:	0c 94 2c 0d 	jmp	0x1a58	; 0x1a58 <__vector_54>
      dc:	0c 94 64 0d 	jmp	0x1ac8	; 0x1ac8 <__vector_55>
      e0:	0c 94 9c 0d 	jmp	0x1b38	; 0x1b38 <__vector_56>
      e4:	b2 c1       	rjmp	.+868    	; 0x44a <__bad_interrupt>
      e6:	00 00       	nop
      e8:	b0 c1       	rjmp	.+864    	; 0x44a <__bad_interrupt>
      ea:	00 00       	nop
      ec:	ae c1       	rjmp	.+860    	; 0x44a <__bad_interrupt>
      ee:	00 00       	nop
      f0:	ac c1       	rjmp	.+856    	; 0x44a <__bad_interrupt>
      f2:	00 00       	nop
      f4:	aa c1       	rjmp	.+852    	; 0x44a <__bad_interrupt>
      f6:	00 00       	nop
      f8:	a8 c1       	rjmp	.+848    	; 0x44a <__bad_interrupt>
      fa:	00 00       	nop
      fc:	a6 c1       	rjmp	.+844    	; 0x44a <__bad_interrupt>
      fe:	00 00       	nop
     100:	a4 c1       	rjmp	.+840    	; 0x44a <__bad_interrupt>
     102:	00 00       	nop
     104:	a2 c1       	rjmp	.+836    	; 0x44a <__bad_interrupt>
     106:	00 00       	nop
     108:	a0 c1       	rjmp	.+832    	; 0x44a <__bad_interrupt>
     10a:	00 00       	nop
     10c:	9e c1       	rjmp	.+828    	; 0x44a <__bad_interrupt>
     10e:	00 00       	nop
     110:	9c c1       	rjmp	.+824    	; 0x44a <__bad_interrupt>
     112:	00 00       	nop
     114:	9a c1       	rjmp	.+820    	; 0x44a <__bad_interrupt>
     116:	00 00       	nop
     118:	98 c1       	rjmp	.+816    	; 0x44a <__bad_interrupt>
     11a:	00 00       	nop
     11c:	bd c4       	rjmp	.+2426   	; 0xa98 <__vector_71>
     11e:	00 00       	nop
     120:	f8 c4       	rjmp	.+2544   	; 0xb12 <__vector_72>
     122:	00 00       	nop
     124:	33 c5       	rjmp	.+2662   	; 0xb8c <__vector_73>
     126:	00 00       	nop
     128:	6e c5       	rjmp	.+2780   	; 0xc06 <__vector_74>
     12a:	00 00       	nop
     12c:	8e c1       	rjmp	.+796    	; 0x44a <__bad_interrupt>
     12e:	00 00       	nop
     130:	56 c2       	rjmp	.+1196   	; 0x5de <__vector_76>
     132:	00 00       	nop
     134:	0c 94 74 09 	jmp	0x12e8	; 0x12e8 <__vector_77>
     138:	0c 94 ac 09 	jmp	0x1358	; 0x1358 <__vector_78>
     13c:	0c 94 e4 09 	jmp	0x13c8	; 0x13c8 <__vector_79>
     140:	0c 94 1c 0a 	jmp	0x1438	; 0x1438 <__vector_80>
     144:	0c 94 54 0a 	jmp	0x14a8	; 0x14a8 <__vector_81>
     148:	0c 94 8c 0a 	jmp	0x1518	; 0x1518 <__vector_82>
     14c:	0c 94 c4 0a 	jmp	0x1588	; 0x1588 <__vector_83>
     150:	0c 94 fc 0a 	jmp	0x15f8	; 0x15f8 <__vector_84>
     154:	0c 94 34 0b 	jmp	0x1668	; 0x1668 <__vector_85>
     158:	0c 94 6c 0b 	jmp	0x16d8	; 0x16d8 <__vector_86>
     15c:	76 c1       	rjmp	.+748    	; 0x44a <__bad_interrupt>
     15e:	00 00       	nop
     160:	0c 94 ed 19 	jmp	0x33da	; 0x33da <__vector_88>
     164:	72 c1       	rjmp	.+740    	; 0x44a <__bad_interrupt>
     166:	00 00       	nop
     168:	70 c1       	rjmp	.+736    	; 0x44a <__bad_interrupt>
     16a:	00 00       	nop
     16c:	e2 c2       	rjmp	.+1476   	; 0x732 <__vector_91>
     16e:	00 00       	nop
     170:	6c c1       	rjmp	.+728    	; 0x44a <__bad_interrupt>
     172:	00 00       	nop
     174:	51 c3       	rjmp	.+1698   	; 0x818 <__vector_93>
     176:	00 00       	nop
     178:	68 c1       	rjmp	.+720    	; 0x44a <__bad_interrupt>
     17a:	00 00       	nop
     17c:	66 c1       	rjmp	.+716    	; 0x44a <__bad_interrupt>
     17e:	00 00       	nop
     180:	64 c1       	rjmp	.+712    	; 0x44a <__bad_interrupt>
     182:	00 00       	nop
     184:	62 c1       	rjmp	.+708    	; 0x44a <__bad_interrupt>
     186:	00 00       	nop
     188:	60 c1       	rjmp	.+704    	; 0x44a <__bad_interrupt>
     18a:	00 00       	nop
     18c:	5e c1       	rjmp	.+700    	; 0x44a <__bad_interrupt>
     18e:	00 00       	nop
     190:	5c c1       	rjmp	.+696    	; 0x44a <__bad_interrupt>
     192:	00 00       	nop
     194:	5a c1       	rjmp	.+692    	; 0x44a <__bad_interrupt>
     196:	00 00       	nop
     198:	58 c1       	rjmp	.+688    	; 0x44a <__bad_interrupt>
     19a:	00 00       	nop
     19c:	56 c1       	rjmp	.+684    	; 0x44a <__bad_interrupt>
     19e:	00 00       	nop
     1a0:	54 c1       	rjmp	.+680    	; 0x44a <__bad_interrupt>
     1a2:	00 00       	nop
     1a4:	52 c1       	rjmp	.+676    	; 0x44a <__bad_interrupt>
     1a6:	00 00       	nop
     1a8:	50 c1       	rjmp	.+672    	; 0x44a <__bad_interrupt>
     1aa:	00 00       	nop
     1ac:	7c c2       	rjmp	.+1272   	; 0x6a6 <__vector_107>
     1ae:	00 00       	nop
     1b0:	0c 94 d4 0d 	jmp	0x1ba8	; 0x1ba8 <__vector_108>
     1b4:	0c 94 0c 0e 	jmp	0x1c18	; 0x1c18 <__vector_109>
     1b8:	0c 94 44 0e 	jmp	0x1c88	; 0x1c88 <__vector_110>
     1bc:	0c 94 7c 0e 	jmp	0x1cf8	; 0x1cf8 <__vector_111>
     1c0:	0c 94 b4 0e 	jmp	0x1d68	; 0x1d68 <__vector_112>
     1c4:	0c 94 ec 0e 	jmp	0x1dd8	; 0x1dd8 <__vector_113>
     1c8:	0c 94 24 0f 	jmp	0x1e48	; 0x1e48 <__vector_114>
     1cc:	0c 94 5c 0f 	jmp	0x1eb8	; 0x1eb8 <__vector_115>
     1d0:	0c 94 94 0f 	jmp	0x1f28	; 0x1f28 <__vector_116>
     1d4:	0c 94 cc 0f 	jmp	0x1f98	; 0x1f98 <__vector_117>
     1d8:	38 c1       	rjmp	.+624    	; 0x44a <__bad_interrupt>
     1da:	00 00       	nop
     1dc:	36 c1       	rjmp	.+620    	; 0x44a <__bad_interrupt>
     1de:	00 00       	nop
     1e0:	34 c1       	rjmp	.+616    	; 0x44a <__bad_interrupt>
     1e2:	00 00       	nop
     1e4:	32 c1       	rjmp	.+612    	; 0x44a <__bad_interrupt>
     1e6:	00 00       	nop
     1e8:	30 c1       	rjmp	.+608    	; 0x44a <__bad_interrupt>
     1ea:	00 00       	nop
     1ec:	2e c1       	rjmp	.+604    	; 0x44a <__bad_interrupt>
     1ee:	00 00       	nop
     1f0:	2c c1       	rjmp	.+600    	; 0x44a <__bad_interrupt>
     1f2:	00 00       	nop
     1f4:	2a c1       	rjmp	.+596    	; 0x44a <__bad_interrupt>
     1f6:	00 00       	nop
     1f8:	28 c1       	rjmp	.+592    	; 0x44a <__bad_interrupt>
     1fa:	00 00       	nop
     1fc:	1f 1a       	sub	r1, r31
     1fe:	2d 1a       	sub	r2, r29
     200:	2d 1a       	sub	r2, r29
     202:	2d 1a       	sub	r2, r29
     204:	2d 1a       	sub	r2, r29
     206:	24 1a       	sub	r2, r20
     208:	2d 1a       	sub	r2, r29
     20a:	28 1a       	sub	r2, r24
     20c:	2a 1a       	sub	r2, r26
     20e:	26 1a       	sub	r2, r22
     210:	2d 1a       	sub	r2, r29
     212:	2d 1a       	sub	r2, r29
     214:	2d 1a       	sub	r2, r29
     216:	2d 1a       	sub	r2, r29
     218:	2d 1a       	sub	r2, r29
     21a:	2d 1a       	sub	r2, r29
     21c:	2d 1a       	sub	r2, r29
     21e:	2d 1a       	sub	r2, r29
     220:	2d 1a       	sub	r2, r29
     222:	2d 1a       	sub	r2, r29
     224:	2d 1a       	sub	r2, r29
     226:	2d 1a       	sub	r2, r29
     228:	2d 1a       	sub	r2, r29
     22a:	2d 1a       	sub	r2, r29
     22c:	2d 1a       	sub	r2, r29
     22e:	2d 1a       	sub	r2, r29
     230:	2d 1a       	sub	r2, r29
     232:	2d 1a       	sub	r2, r29
     234:	2d 1a       	sub	r2, r29
     236:	2d 1a       	sub	r2, r29
     238:	2d 1a       	sub	r2, r29
     23a:	2d 1a       	sub	r2, r29
     23c:	2d 1a       	sub	r2, r29
     23e:	2d 1a       	sub	r2, r29
     240:	2d 1a       	sub	r2, r29
     242:	2d 1a       	sub	r2, r29
     244:	2d 1a       	sub	r2, r29
     246:	2d 1a       	sub	r2, r29
     248:	2d 1a       	sub	r2, r29
     24a:	2d 1a       	sub	r2, r29
     24c:	2d 1a       	sub	r2, r29
     24e:	2d 1a       	sub	r2, r29
     250:	2d 1a       	sub	r2, r29
     252:	2d 1a       	sub	r2, r29
     254:	2d 1a       	sub	r2, r29
     256:	2d 1a       	sub	r2, r29
     258:	2d 1a       	sub	r2, r29
     25a:	2d 1a       	sub	r2, r29
     25c:	2d 1a       	sub	r2, r29
     25e:	2d 1a       	sub	r2, r29
     260:	2d 1a       	sub	r2, r29
     262:	2d 1a       	sub	r2, r29
     264:	2d 1a       	sub	r2, r29
     266:	2d 1a       	sub	r2, r29
     268:	2d 1a       	sub	r2, r29
     26a:	2d 1a       	sub	r2, r29
     26c:	2d 1a       	sub	r2, r29
     26e:	2d 1a       	sub	r2, r29
     270:	2d 1a       	sub	r2, r29
     272:	2d 1a       	sub	r2, r29
     274:	2d 1a       	sub	r2, r29
     276:	22 1a       	sub	r2, r18
     278:	2c 1a       	sub	r2, r28
     27a:	08 00       	.word	0x0008	; ????
     27c:	00 00       	nop
     27e:	be 92       	st	-X, r11
     280:	24 49       	sbci	r18, 0x94	; 148
     282:	12 3e       	cpi	r17, 0xE2	; 226
     284:	ab aa       	std	Y+51, r10	; 0x33
     286:	aa 2a       	or	r10, r26
     288:	be cd       	rjmp	.-1156   	; 0xfffffe06 <__eeprom_end+0xff7efe06>
     28a:	cc cc       	rjmp	.-1640   	; 0xfffffc24 <__eeprom_end+0xff7efc24>
     28c:	4c 3e       	cpi	r20, 0xEC	; 236
     28e:	00 00       	nop
     290:	00 80       	ld	r0, Z
     292:	be ab       	std	Y+54, r27	; 0x36
     294:	aa aa       	std	Y+50, r10	; 0x32
     296:	aa 3e       	cpi	r26, 0xEA	; 234
     298:	00 00       	nop
     29a:	00 00       	nop
     29c:	bf 00       	.word	0x00bf	; ????
     29e:	00 00       	nop
     2a0:	80 3f       	cpi	r24, 0xF0	; 240
     2a2:	00 00       	nop
     2a4:	00 00       	nop
     2a6:	00 08       	sbc	r0, r0
     2a8:	41 78       	andi	r20, 0x81	; 129
     2aa:	d3 bb       	out	0x13, r29	; 19
     2ac:	43 87       	std	Z+11, r20	; 0x0b
     2ae:	d1 13       	cpse	r29, r17
     2b0:	3d 19       	sub	r19, r13
     2b2:	0e 3c       	cpi	r16, 0xCE	; 206
     2b4:	c3 bd       	out	0x23, r28	; 35
     2b6:	42 82       	std	Z+2, r4	; 0x02
     2b8:	ad 2b       	or	r26, r29
     2ba:	3e 68       	ori	r19, 0x8E	; 142
     2bc:	ec 82       	std	Y+4, r14	; 0x04
     2be:	76 be       	out	0x36, r7	; 54
     2c0:	d9 8f       	std	Y+25, r29	; 0x19
     2c2:	e1 a9       	ldd	r30, Z+49	; 0x31
     2c4:	3e 4c       	sbci	r19, 0xCE	; 206
     2c6:	80 ef       	ldi	r24, 0xF0	; 240
     2c8:	ff be       	out	0x3f, r15	; 63
     2ca:	01 c4       	rjmp	.+2050   	; 0xace <__vector_71+0x36>
     2cc:	ff 7f       	andi	r31, 0xFF	; 255
     2ce:	3f 00       	.word	0x003f	; ????
     2d0:	00 00       	nop
     2d2:	00 00       	nop
     2d4:	07 63       	ori	r16, 0x37	; 55
     2d6:	42 36       	cpi	r20, 0x62	; 98
     2d8:	b7 9b       	sbis	0x16, 7	; 22
     2da:	d8 a7       	std	Y+40, r29	; 0x28
     2dc:	1a 39       	cpi	r17, 0x9A	; 154
     2de:	68 56       	subi	r22, 0x68	; 104
     2e0:	18 ae       	std	Y+56, r1	; 0x38
     2e2:	ba ab       	std	Y+50, r27	; 0x32
     2e4:	55 8c       	ldd	r5, Z+29	; 0x1d
     2e6:	1d 3c       	cpi	r17, 0xCD	; 205
     2e8:	b7 cc       	rjmp	.-1682   	; 0xfffffc58 <__eeprom_end+0xff7efc58>
     2ea:	57 63       	ori	r21, 0x37	; 55
     2ec:	bd 6d       	ori	r27, 0xDD	; 221
     2ee:	ed fd       	.word	0xfded	; ????
     2f0:	75 3e       	cpi	r23, 0xE5	; 229
     2f2:	f6 17       	cp	r31, r22
     2f4:	72 31       	cpi	r23, 0x12	; 18
     2f6:	bf 00       	.word	0x00bf	; ????
     2f8:	00 00       	nop
     2fa:	80 3f       	cpi	r24, 0xF0	; 240

000002fc <__trampolines_end>:
     2fc:	6e 61       	ori	r22, 0x1E	; 30
     2fe:	6e 00       	.word	0x006e	; ????

00000300 <__c.2332>:
     300:	69 6e 66 00 00 40 7a 10 f3 5a 00 a0 72 4e 18 09     inf..@z..Z..rN..
     310:	00 10 a5 d4 e8 00 00 e8 76 48 17 00 00 e4 0b 54     ........vH.....T
     320:	02 00 00 ca 9a 3b 00 00 00 e1 f5 05 00 00 80 96     .....;..........
     330:	98 00 00 00 40 42 0f 00 00 00 a0 86 01 00 00 00     ....@B..........
     340:	10 27 00 00 00 00 e8 03 00 00 00 00 64 00 00 00     .'..........d...
     350:	00 00 0a 00 00 00 00 00 01 00 00 00 00 00 2c 76     ..............,v
     360:	d8 88 dc 67 4f 08 23 df c1 df ae 59 e1 b1 b7 96     ...gO.#....Y....
     370:	e5 e3 e4 53 c6 3a e6 51 99 76 96 e8 e6 c2 84 26     ...S.:.Q.v.....&
     380:	eb 89 8c 9b 62 ed 40 7c 6f fc ef bc 9c 9f 40 f2     ....b.@|o.....@.
     390:	ba a5 6f a5 f4 90 05 5a 2a f7 5c 93 6b 6c f9 67     ..o....Z*.\.kl.g
     3a0:	6d c1 1b fc e0 e4 0d 47 fe f5 20 e6 b5 00 d0 ed     m......G.. .....
     3b0:	90 2e 03 00 94 35 77 05 00 80 84 1e 08 00 00 20     .....5w........ 
     3c0:	4e 0a 00 00 00 c8 0c 33 33 33 33 0f 98 6e 12 83     N......3333..n..
     3d0:	11 41 ef 8d 21 14 89 3b e6 55 16 cf fe e6 db 18     .A..!..;.U......
     3e0:	d1 84 4b 38 1b f7 7c 1d 90 1d a4 bb e4 24 20 32     ..K8..|......$ 2
     3f0:	84 72 5e 22 81 00 c9 f1 24 ec a1 e5 3d 27           .r^"....$...='

000003fe <__ctors_end>:
     3fe:	11 24       	eor	r1, r1
     400:	1f be       	out	0x3f, r1	; 63
     402:	cf ef       	ldi	r28, 0xFF	; 255
     404:	cd bf       	out	0x3d, r28	; 61
     406:	df e3       	ldi	r29, 0x3F	; 63
     408:	de bf       	out	0x3e, r29	; 62
     40a:	00 e0       	ldi	r16, 0x00	; 0
     40c:	0c bf       	out	0x3c, r16	; 60
     40e:	18 be       	out	0x38, r1	; 56
     410:	19 be       	out	0x39, r1	; 57
     412:	1a be       	out	0x3a, r1	; 58
     414:	1b be       	out	0x3b, r1	; 59

00000416 <__do_copy_data>:
     416:	10 e2       	ldi	r17, 0x20	; 32
     418:	a0 e0       	ldi	r26, 0x00	; 0
     41a:	b0 e2       	ldi	r27, 0x20	; 32
     41c:	ea e1       	ldi	r30, 0x1A	; 26
     41e:	f1 e5       	ldi	r31, 0x51	; 81
     420:	00 e0       	ldi	r16, 0x00	; 0
     422:	0b bf       	out	0x3b, r16	; 59
     424:	02 c0       	rjmp	.+4      	; 0x42a <__do_copy_data+0x14>
     426:	07 90       	elpm	r0, Z+
     428:	0d 92       	st	X+, r0
     42a:	ae 37       	cpi	r26, 0x7E	; 126
     42c:	b1 07       	cpc	r27, r17
     42e:	d9 f7       	brne	.-10     	; 0x426 <__do_copy_data+0x10>
     430:	1b be       	out	0x3b, r1	; 59

00000432 <__do_clear_bss>:
     432:	23 e2       	ldi	r18, 0x23	; 35
     434:	ae e7       	ldi	r26, 0x7E	; 126
     436:	b0 e2       	ldi	r27, 0x20	; 32
     438:	01 c0       	rjmp	.+2      	; 0x43c <.do_clear_bss_start>

0000043a <.do_clear_bss_loop>:
     43a:	1d 92       	st	X+, r1

0000043c <.do_clear_bss_start>:
     43c:	af 3a       	cpi	r26, 0xAF	; 175
     43e:	b2 07       	cpc	r27, r18
     440:	e1 f7       	brne	.-8      	; 0x43a <.do_clear_bss_loop>
     442:	0e 94 af 1b 	call	0x375e	; 0x375e <main>
     446:	0c 94 8b 28 	jmp	0x5116	; 0x5116 <_exit>

0000044a <__bad_interrupt>:
     44a:	da cd       	rjmp	.-1100   	; 0x0 <__vectors>

0000044c <twim_interrupt_handler>:
 * \brief Common TWI master interrupt service routine.
 *
 *  Check current status and calls the appropriate handler.
 */
static void twim_interrupt_handler(void)
{
     44c:	cf 93       	push	r28
     44e:	df 93       	push	r29
	uint8_t const master_status = transfer.bus->MASTER.STATUS;
     450:	e0 91 7e 20 	lds	r30, 0x207E	; 0x80207e <__data_end>
     454:	f0 91 7f 20 	lds	r31, 0x207F	; 0x80207f <__data_end+0x1>
     458:	84 81       	ldd	r24, Z+4	; 0x04

	if (master_status & TWI_MASTER_ARBLOST_bm) {
     45a:	83 ff       	sbrs	r24, 3
     45c:	08 c0       	rjmp	.+16     	; 0x46e <twim_interrupt_handler+0x22>

		transfer.bus->MASTER.STATUS = master_status | TWI_MASTER_ARBLOST_bm;
     45e:	88 60       	ori	r24, 0x08	; 8
     460:	84 83       	std	Z+4, r24	; 0x04
		transfer.bus->MASTER.CTRLC  = TWI_MASTER_CMD_STOP_gc;
     462:	83 e0       	ldi	r24, 0x03	; 3
     464:	83 83       	std	Z+3, r24	; 0x03
		transfer.status = ERR_BUSY;
     466:	86 ef       	ldi	r24, 0xF6	; 246
     468:	80 93 88 20 	sts	0x2088, r24	; 0x802088 <__data_end+0xa>
     46c:	83 c0       	rjmp	.+262    	; 0x574 <twim_interrupt_handler+0x128>

	} else if ((master_status & TWI_MASTER_BUSERR_bm) ||
     46e:	98 2f       	mov	r25, r24
     470:	94 71       	andi	r25, 0x14	; 20
     472:	31 f0       	breq	.+12     	; 0x480 <twim_interrupt_handler+0x34>
		(master_status & TWI_MASTER_RXACK_bm)) {

		transfer.bus->MASTER.CTRLC = TWI_MASTER_CMD_STOP_gc;
     474:	83 e0       	ldi	r24, 0x03	; 3
     476:	83 83       	std	Z+3, r24	; 0x03
		transfer.status = ERR_IO_ERROR;
     478:	8f ef       	ldi	r24, 0xFF	; 255
     47a:	80 93 88 20 	sts	0x2088, r24	; 0x802088 <__data_end+0xa>
     47e:	7a c0       	rjmp	.+244    	; 0x574 <twim_interrupt_handler+0x128>

	} else if (master_status & TWI_MASTER_WIF_bm) {
     480:	86 ff       	sbrs	r24, 6
     482:	43 c0       	rjmp	.+134    	; 0x50a <twim_interrupt_handler+0xbe>
 *  Handles TWI transactions (master write) and responses to (N)ACK.
 */
static inline void twim_write_handler(void)
{
	TWI_t * const         bus = transfer.bus;
	twi_package_t * const pkg = transfer.pkg;
     484:	ce e7       	ldi	r28, 0x7E	; 126
     486:	d0 e2       	ldi	r29, 0x20	; 32
     488:	aa 81       	ldd	r26, Y+2	; 0x02
     48a:	bb 81       	ldd	r27, Y+3	; 0x03

	if (transfer.addr_count < pkg->addr_length) {
     48c:	8c 81       	ldd	r24, Y+4	; 0x04
     48e:	9d 81       	ldd	r25, Y+5	; 0x05
     490:	14 96       	adiw	r26, 0x04	; 4
     492:	2d 91       	ld	r18, X+
     494:	3c 91       	ld	r19, X
     496:	15 97       	sbiw	r26, 0x05	; 5
     498:	82 17       	cp	r24, r18
     49a:	93 07       	cpc	r25, r19
     49c:	6c f4       	brge	.+26     	; 0x4b8 <twim_interrupt_handler+0x6c>

		const uint8_t * const data = pkg->addr;
		bus->MASTER.DATA = data[transfer.addr_count++];
     49e:	9c 01       	movw	r18, r24
     4a0:	2f 5f       	subi	r18, 0xFF	; 255
     4a2:	3f 4f       	sbci	r19, 0xFF	; 255
     4a4:	20 93 82 20 	sts	0x2082, r18	; 0x802082 <__data_end+0x4>
     4a8:	30 93 83 20 	sts	0x2083, r19	; 0x802083 <__data_end+0x5>
     4ac:	a8 0f       	add	r26, r24
     4ae:	b9 1f       	adc	r27, r25
     4b0:	11 96       	adiw	r26, 0x01	; 1
     4b2:	8c 91       	ld	r24, X
     4b4:	87 83       	std	Z+7, r24	; 0x07
     4b6:	5e c0       	rjmp	.+188    	; 0x574 <twim_interrupt_handler+0x128>

	} else if (transfer.data_count < pkg->length) {
     4b8:	80 91 84 20 	lds	r24, 0x2084	; 0x802084 <__data_end+0x6>
     4bc:	90 91 85 20 	lds	r25, 0x2085	; 0x802085 <__data_end+0x7>
     4c0:	18 96       	adiw	r26, 0x08	; 8
     4c2:	2d 91       	ld	r18, X+
     4c4:	3c 91       	ld	r19, X
     4c6:	19 97       	sbiw	r26, 0x09	; 9
     4c8:	82 17       	cp	r24, r18
     4ca:	93 07       	cpc	r25, r19
     4cc:	c8 f4       	brcc	.+50     	; 0x500 <twim_interrupt_handler+0xb4>

		if (transfer.read) {
     4ce:	20 91 86 20 	lds	r18, 0x2086	; 0x802086 <__data_end+0x8>
     4d2:	22 23       	and	r18, r18
     4d4:	21 f0       	breq	.+8      	; 0x4de <twim_interrupt_handler+0x92>

			/* Send repeated START condition (Address|R/W=1). */

			bus->MASTER.ADDR |= 0x01;
     4d6:	86 81       	ldd	r24, Z+6	; 0x06
     4d8:	81 60       	ori	r24, 0x01	; 1
     4da:	86 83       	std	Z+6, r24	; 0x06
     4dc:	4b c0       	rjmp	.+150    	; 0x574 <twim_interrupt_handler+0x128>

		} else {
			const uint8_t * const data = pkg->buffer;
     4de:	16 96       	adiw	r26, 0x06	; 6
     4e0:	2d 91       	ld	r18, X+
     4e2:	3c 91       	ld	r19, X
     4e4:	17 97       	sbiw	r26, 0x07	; 7
			bus->MASTER.DATA = data[transfer.data_count++];
     4e6:	ac 01       	movw	r20, r24
     4e8:	4f 5f       	subi	r20, 0xFF	; 255
     4ea:	5f 4f       	sbci	r21, 0xFF	; 255
     4ec:	40 93 84 20 	sts	0x2084, r20	; 0x802084 <__data_end+0x6>
     4f0:	50 93 85 20 	sts	0x2085, r21	; 0x802085 <__data_end+0x7>
     4f4:	d9 01       	movw	r26, r18
     4f6:	a8 0f       	add	r26, r24
     4f8:	b9 1f       	adc	r27, r25
     4fa:	8c 91       	ld	r24, X
     4fc:	87 83       	std	Z+7, r24	; 0x07
     4fe:	3a c0       	rjmp	.+116    	; 0x574 <twim_interrupt_handler+0x128>

	} else {

		/* Send STOP condition to complete the transaction. */

		bus->MASTER.CTRLC = TWI_MASTER_CMD_STOP_gc;
     500:	83 e0       	ldi	r24, 0x03	; 3
     502:	83 83       	std	Z+3, r24	; 0x03
		transfer.status = STATUS_OK;
     504:	10 92 88 20 	sts	0x2088, r1	; 0x802088 <__data_end+0xa>
     508:	35 c0       	rjmp	.+106    	; 0x574 <twim_interrupt_handler+0x128>

	} else if (master_status & TWI_MASTER_WIF_bm) {

		twim_write_handler();

	} else if (master_status & TWI_MASTER_RIF_bm) {
     50a:	88 23       	and	r24, r24
     50c:	84 f5       	brge	.+96     	; 0x56e <twim_interrupt_handler+0x122>
 *  reading bytes from the TWI slave.
 */
static inline void twim_read_handler(void)
{
	TWI_t * const         bus = transfer.bus;
	twi_package_t * const pkg = transfer.pkg;
     50e:	ae e7       	ldi	r26, 0x7E	; 126
     510:	b0 e2       	ldi	r27, 0x20	; 32
     512:	12 96       	adiw	r26, 0x02	; 2
     514:	cd 91       	ld	r28, X+
     516:	dc 91       	ld	r29, X
     518:	13 97       	sbiw	r26, 0x03	; 3

	if (transfer.data_count < pkg->length) {
     51a:	16 96       	adiw	r26, 0x06	; 6
     51c:	8d 91       	ld	r24, X+
     51e:	9c 91       	ld	r25, X
     520:	17 97       	sbiw	r26, 0x07	; 7
     522:	28 85       	ldd	r18, Y+8	; 0x08
     524:	39 85       	ldd	r19, Y+9	; 0x09
     526:	82 17       	cp	r24, r18
     528:	93 07       	cpc	r25, r19
     52a:	d8 f4       	brcc	.+54     	; 0x562 <twim_interrupt_handler+0x116>

		uint8_t * const data = pkg->buffer;
     52c:	6e 81       	ldd	r22, Y+6	; 0x06
     52e:	7f 81       	ldd	r23, Y+7	; 0x07
		data[transfer.data_count++] = bus->MASTER.DATA;
     530:	9c 01       	movw	r18, r24
     532:	2f 5f       	subi	r18, 0xFF	; 255
     534:	3f 4f       	sbci	r19, 0xFF	; 255
     536:	20 93 84 20 	sts	0x2084, r18	; 0x802084 <__data_end+0x6>
     53a:	30 93 85 20 	sts	0x2085, r19	; 0x802085 <__data_end+0x7>
     53e:	47 81       	ldd	r20, Z+7	; 0x07
     540:	db 01       	movw	r26, r22
     542:	a8 0f       	add	r26, r24
     544:	b9 1f       	adc	r27, r25
     546:	4c 93       	st	X, r20

		/* If there is more to read, issue ACK and start a byte read.
		 * Otherwise, issue NACK and STOP to complete the transaction.
		 */
		if (transfer.data_count < pkg->length) {
     548:	88 85       	ldd	r24, Y+8	; 0x08
     54a:	99 85       	ldd	r25, Y+9	; 0x09
     54c:	28 17       	cp	r18, r24
     54e:	39 07       	cpc	r19, r25
     550:	18 f4       	brcc	.+6      	; 0x558 <twim_interrupt_handler+0x10c>

			bus->MASTER.CTRLC = TWI_MASTER_CMD_RECVTRANS_gc;
     552:	82 e0       	ldi	r24, 0x02	; 2
     554:	83 83       	std	Z+3, r24	; 0x03
     556:	0e c0       	rjmp	.+28     	; 0x574 <twim_interrupt_handler+0x128>

		} else {

			bus->MASTER.CTRLC = TWI_MASTER_ACKACT_bm | TWI_MASTER_CMD_STOP_gc;
     558:	87 e0       	ldi	r24, 0x07	; 7
     55a:	83 83       	std	Z+3, r24	; 0x03
			transfer.status = STATUS_OK;
     55c:	10 92 88 20 	sts	0x2088, r1	; 0x802088 <__data_end+0xa>
     560:	09 c0       	rjmp	.+18     	; 0x574 <twim_interrupt_handler+0x128>

	} else {

		/* Issue STOP and buffer overflow condition. */

		bus->MASTER.CTRLC = TWI_MASTER_CMD_STOP_gc;
     562:	83 e0       	ldi	r24, 0x03	; 3
     564:	83 83       	std	Z+3, r24	; 0x03
		transfer.status = ERR_NO_MEMORY;
     566:	89 ef       	ldi	r24, 0xF9	; 249
     568:	80 93 88 20 	sts	0x2088, r24	; 0x802088 <__data_end+0xa>
     56c:	03 c0       	rjmp	.+6      	; 0x574 <twim_interrupt_handler+0x128>

		twim_read_handler();

	} else {

		transfer.status = ERR_PROTOCOL;
     56e:	8b ef       	ldi	r24, 0xFB	; 251
     570:	80 93 88 20 	sts	0x2088, r24	; 0x802088 <__data_end+0xa>
	}
}
     574:	df 91       	pop	r29
     576:	cf 91       	pop	r28
     578:	08 95       	ret

0000057a <__vector_13>:
 * parameters specified in the global \c transfer structure.
 */
static void twim_interrupt_handler(void);

#ifdef TWIC
ISR(TWIC_TWIM_vect) { twim_interrupt_handler(); }
     57a:	1f 92       	push	r1
     57c:	0f 92       	push	r0
     57e:	0f b6       	in	r0, 0x3f	; 63
     580:	0f 92       	push	r0
     582:	11 24       	eor	r1, r1
     584:	08 b6       	in	r0, 0x38	; 56
     586:	0f 92       	push	r0
     588:	18 be       	out	0x38, r1	; 56
     58a:	09 b6       	in	r0, 0x39	; 57
     58c:	0f 92       	push	r0
     58e:	19 be       	out	0x39, r1	; 57
     590:	0b b6       	in	r0, 0x3b	; 59
     592:	0f 92       	push	r0
     594:	1b be       	out	0x3b, r1	; 59
     596:	2f 93       	push	r18
     598:	3f 93       	push	r19
     59a:	4f 93       	push	r20
     59c:	5f 93       	push	r21
     59e:	6f 93       	push	r22
     5a0:	7f 93       	push	r23
     5a2:	8f 93       	push	r24
     5a4:	9f 93       	push	r25
     5a6:	af 93       	push	r26
     5a8:	bf 93       	push	r27
     5aa:	ef 93       	push	r30
     5ac:	ff 93       	push	r31
     5ae:	4e df       	rcall	.-356    	; 0x44c <twim_interrupt_handler>
     5b0:	ff 91       	pop	r31
     5b2:	ef 91       	pop	r30
     5b4:	bf 91       	pop	r27
     5b6:	af 91       	pop	r26
     5b8:	9f 91       	pop	r25
     5ba:	8f 91       	pop	r24
     5bc:	7f 91       	pop	r23
     5be:	6f 91       	pop	r22
     5c0:	5f 91       	pop	r21
     5c2:	4f 91       	pop	r20
     5c4:	3f 91       	pop	r19
     5c6:	2f 91       	pop	r18
     5c8:	0f 90       	pop	r0
     5ca:	0b be       	out	0x3b, r0	; 59
     5cc:	0f 90       	pop	r0
     5ce:	09 be       	out	0x39, r0	; 57
     5d0:	0f 90       	pop	r0
     5d2:	08 be       	out	0x38, r0	; 56
     5d4:	0f 90       	pop	r0
     5d6:	0f be       	out	0x3f, r0	; 63
     5d8:	0f 90       	pop	r0
     5da:	1f 90       	pop	r1
     5dc:	18 95       	reti

000005de <__vector_76>:
#endif
#ifdef TWID
ISR(TWID_TWIM_vect) { twim_interrupt_handler(); }
     5de:	1f 92       	push	r1
     5e0:	0f 92       	push	r0
     5e2:	0f b6       	in	r0, 0x3f	; 63
     5e4:	0f 92       	push	r0
     5e6:	11 24       	eor	r1, r1
     5e8:	08 b6       	in	r0, 0x38	; 56
     5ea:	0f 92       	push	r0
     5ec:	18 be       	out	0x38, r1	; 56
     5ee:	09 b6       	in	r0, 0x39	; 57
     5f0:	0f 92       	push	r0
     5f2:	19 be       	out	0x39, r1	; 57
     5f4:	0b b6       	in	r0, 0x3b	; 59
     5f6:	0f 92       	push	r0
     5f8:	1b be       	out	0x3b, r1	; 59
     5fa:	2f 93       	push	r18
     5fc:	3f 93       	push	r19
     5fe:	4f 93       	push	r20
     600:	5f 93       	push	r21
     602:	6f 93       	push	r22
     604:	7f 93       	push	r23
     606:	8f 93       	push	r24
     608:	9f 93       	push	r25
     60a:	af 93       	push	r26
     60c:	bf 93       	push	r27
     60e:	ef 93       	push	r30
     610:	ff 93       	push	r31
     612:	1c df       	rcall	.-456    	; 0x44c <twim_interrupt_handler>
     614:	ff 91       	pop	r31
     616:	ef 91       	pop	r30
     618:	bf 91       	pop	r27
     61a:	af 91       	pop	r26
     61c:	9f 91       	pop	r25
     61e:	8f 91       	pop	r24
     620:	7f 91       	pop	r23
     622:	6f 91       	pop	r22
     624:	5f 91       	pop	r21
     626:	4f 91       	pop	r20
     628:	3f 91       	pop	r19
     62a:	2f 91       	pop	r18
     62c:	0f 90       	pop	r0
     62e:	0b be       	out	0x3b, r0	; 59
     630:	0f 90       	pop	r0
     632:	09 be       	out	0x39, r0	; 57
     634:	0f 90       	pop	r0
     636:	08 be       	out	0x38, r0	; 56
     638:	0f 90       	pop	r0
     63a:	0f be       	out	0x3f, r0	; 63
     63c:	0f 90       	pop	r0
     63e:	1f 90       	pop	r1
     640:	18 95       	reti

00000642 <__vector_46>:
#endif
#ifdef TWIE
ISR(TWIE_TWIM_vect) { twim_interrupt_handler(); }
     642:	1f 92       	push	r1
     644:	0f 92       	push	r0
     646:	0f b6       	in	r0, 0x3f	; 63
     648:	0f 92       	push	r0
     64a:	11 24       	eor	r1, r1
     64c:	08 b6       	in	r0, 0x38	; 56
     64e:	0f 92       	push	r0
     650:	18 be       	out	0x38, r1	; 56
     652:	09 b6       	in	r0, 0x39	; 57
     654:	0f 92       	push	r0
     656:	19 be       	out	0x39, r1	; 57
     658:	0b b6       	in	r0, 0x3b	; 59
     65a:	0f 92       	push	r0
     65c:	1b be       	out	0x3b, r1	; 59
     65e:	2f 93       	push	r18
     660:	3f 93       	push	r19
     662:	4f 93       	push	r20
     664:	5f 93       	push	r21
     666:	6f 93       	push	r22
     668:	7f 93       	push	r23
     66a:	8f 93       	push	r24
     66c:	9f 93       	push	r25
     66e:	af 93       	push	r26
     670:	bf 93       	push	r27
     672:	ef 93       	push	r30
     674:	ff 93       	push	r31
     676:	ea de       	rcall	.-556    	; 0x44c <twim_interrupt_handler>
     678:	ff 91       	pop	r31
     67a:	ef 91       	pop	r30
     67c:	bf 91       	pop	r27
     67e:	af 91       	pop	r26
     680:	9f 91       	pop	r25
     682:	8f 91       	pop	r24
     684:	7f 91       	pop	r23
     686:	6f 91       	pop	r22
     688:	5f 91       	pop	r21
     68a:	4f 91       	pop	r20
     68c:	3f 91       	pop	r19
     68e:	2f 91       	pop	r18
     690:	0f 90       	pop	r0
     692:	0b be       	out	0x3b, r0	; 59
     694:	0f 90       	pop	r0
     696:	09 be       	out	0x39, r0	; 57
     698:	0f 90       	pop	r0
     69a:	08 be       	out	0x38, r0	; 56
     69c:	0f 90       	pop	r0
     69e:	0f be       	out	0x3f, r0	; 63
     6a0:	0f 90       	pop	r0
     6a2:	1f 90       	pop	r1
     6a4:	18 95       	reti

000006a6 <__vector_107>:
#endif
#ifdef TWIF
ISR(TWIF_TWIM_vect) { twim_interrupt_handler(); }
     6a6:	1f 92       	push	r1
     6a8:	0f 92       	push	r0
     6aa:	0f b6       	in	r0, 0x3f	; 63
     6ac:	0f 92       	push	r0
     6ae:	11 24       	eor	r1, r1
     6b0:	08 b6       	in	r0, 0x38	; 56
     6b2:	0f 92       	push	r0
     6b4:	18 be       	out	0x38, r1	; 56
     6b6:	09 b6       	in	r0, 0x39	; 57
     6b8:	0f 92       	push	r0
     6ba:	19 be       	out	0x39, r1	; 57
     6bc:	0b b6       	in	r0, 0x3b	; 59
     6be:	0f 92       	push	r0
     6c0:	1b be       	out	0x3b, r1	; 59
     6c2:	2f 93       	push	r18
     6c4:	3f 93       	push	r19
     6c6:	4f 93       	push	r20
     6c8:	5f 93       	push	r21
     6ca:	6f 93       	push	r22
     6cc:	7f 93       	push	r23
     6ce:	8f 93       	push	r24
     6d0:	9f 93       	push	r25
     6d2:	af 93       	push	r26
     6d4:	bf 93       	push	r27
     6d6:	ef 93       	push	r30
     6d8:	ff 93       	push	r31
     6da:	b8 de       	rcall	.-656    	; 0x44c <twim_interrupt_handler>
     6dc:	ff 91       	pop	r31
     6de:	ef 91       	pop	r30
     6e0:	bf 91       	pop	r27
     6e2:	af 91       	pop	r26
     6e4:	9f 91       	pop	r25
     6e6:	8f 91       	pop	r24
     6e8:	7f 91       	pop	r23
     6ea:	6f 91       	pop	r22
     6ec:	5f 91       	pop	r21
     6ee:	4f 91       	pop	r20
     6f0:	3f 91       	pop	r19
     6f2:	2f 91       	pop	r18
     6f4:	0f 90       	pop	r0
     6f6:	0b be       	out	0x3b, r0	; 59
     6f8:	0f 90       	pop	r0
     6fa:	09 be       	out	0x39, r0	; 57
     6fc:	0f 90       	pop	r0
     6fe:	08 be       	out	0x38, r0	; 56
     700:	0f 90       	pop	r0
     702:	0f be       	out	0x3f, r0	; 63
     704:	0f 90       	pop	r0
     706:	1f 90       	pop	r1
     708:	18 95       	reti

0000070a <wdt_reset_mcu>:
uint8_t temp;
	/*
	 * WDT enabled (minimum timeout period for max. security)
	 */
	temp = WDT_PER_8CLK_gc | (1 << WDT_ENABLE_bp) | (1 << WDT_CEN_bp);
	ccp_write_io((void *)&WDT.CTRL, temp);
     70a:	63 e0       	ldi	r22, 0x03	; 3
     70c:	80 e8       	ldi	r24, 0x80	; 128
     70e:	90 e0       	ldi	r25, 0x00	; 0
     710:	ab d3       	rcall	.+1878   	; 0xe68 <ccp_write_io>
/*! \brief Wait until WD settings are synchronized to the WD clock domain.
 *
 */
static inline void wdt_wait_while_busy(void)
{
	while ((WDT.STATUS & WDT_SYNCBUSY_bm) == WDT_SYNCBUSY_bm) {
     712:	e0 e8       	ldi	r30, 0x80	; 128
     714:	f0 e0       	ldi	r31, 0x00	; 0
     716:	82 81       	ldd	r24, Z+2	; 0x02
     718:	80 fd       	sbrc	r24, 0
     71a:	fd cf       	rjmp	.-6      	; 0x716 <wdt_reset_mcu+0xc>
	wdt_wait_while_busy();
	/*
	 * WDT enabled (maximum window period for max. security)
	 */
	temp = WDT_WPER_8KCLK_gc | (1 << WDT_WEN_bp) | (1 << WDT_WCEN_bp);
	ccp_write_io((void *)&WDT.WINCTRL, temp);
     71c:	6b e2       	ldi	r22, 0x2B	; 43
     71e:	81 e8       	ldi	r24, 0x81	; 129
     720:	90 e0       	ldi	r25, 0x00	; 0
     722:	a2 d3       	rcall	.+1860   	; 0xe68 <ccp_write_io>
     724:	e0 e8       	ldi	r30, 0x80	; 128
     726:	f0 e0       	ldi	r31, 0x00	; 0
     728:	82 81       	ldd	r24, Z+2	; 0x02
     72a:	80 fd       	sbrc	r24, 0
     72c:	fd cf       	rjmp	.-6      	; 0x728 <wdt_reset_mcu+0x1e>
	wdt_wait_while_busy();
	/*
	 * WDT Reset during window => WDT generates an Hard Reset.
	 */
	wdt_reset();
     72e:	a8 95       	wdr
     730:	ff cf       	rjmp	.-2      	; 0x730 <wdt_reset_mcu+0x26>

00000732 <__vector_91>:
	rbu8_init(&gps_receive_buffer, RAW_gps_receive_buffer, GPS_RECEIVE_BUFFER_SIZE);
	rbu8_init(&gps_send_buffer, RAW_gps_send_buffer, GPS_TRANSMIT_BUFFER_SIZE);
}

ISR (GPS_RECEIVE_INTERRUPT_VECTOR)
{
     732:	1f 92       	push	r1
     734:	0f 92       	push	r0
     736:	0f b6       	in	r0, 0x3f	; 63
     738:	0f 92       	push	r0
     73a:	11 24       	eor	r1, r1
     73c:	08 b6       	in	r0, 0x38	; 56
     73e:	0f 92       	push	r0
     740:	18 be       	out	0x38, r1	; 56
     742:	09 b6       	in	r0, 0x39	; 57
     744:	0f 92       	push	r0
     746:	19 be       	out	0x39, r1	; 57
     748:	0b b6       	in	r0, 0x3b	; 59
     74a:	0f 92       	push	r0
     74c:	1b be       	out	0x3b, r1	; 59
     74e:	2f 93       	push	r18
     750:	3f 93       	push	r19
     752:	4f 93       	push	r20
     754:	5f 93       	push	r21
     756:	6f 93       	push	r22
     758:	7f 93       	push	r23
     75a:	8f 93       	push	r24
     75c:	9f 93       	push	r25
     75e:	af 93       	push	r26
     760:	bf 93       	push	r27
     762:	cf 93       	push	r28
     764:	ef 93       	push	r30
     766:	ff 93       	push	r31
		It should not have any code that waits for anything. Examples include
			* printf
			* while (!(SPIC.STATUS >> 7));
		Essentially, it needs to run fast. This can be called as many as 25,000 times per second, and the cansat has other stuff to do
	*/
	uint8_t c = GPS_USART.DATA;
     768:	c0 91 b0 09 	lds	r28, 0x09B0	; 0x8009b0 <__TEXT_REGION_LENGTH__+0x7009b0>
	printf("%c", c);
     76c:	8c 2f       	mov	r24, r28
     76e:	90 e0       	ldi	r25, 0x00	; 0
     770:	0e 94 b6 26 	call	0x4d6c	; 0x4d6c <putchar>
	//putchar(c);
	//putchar(c);
	if (current_sentence == SENTENCE_GPGGA)
     774:	80 91 ea 21 	lds	r24, 0x21EA	; 0x8021ea <current_sentence>
     778:	81 30       	cpi	r24, 0x01	; 1
     77a:	51 f4       	brne	.+20     	; 0x790 <__vector_91+0x5e>
	{
		gpgga_buff[gpgga_index] = c;
     77c:	90 91 88 23 	lds	r25, 0x2388	; 0x802388 <gpgga_index>
     780:	e9 2f       	mov	r30, r25
     782:	f0 e0       	ldi	r31, 0x00	; 0
     784:	ed 5c       	subi	r30, 0xCD	; 205
     786:	fc 4d       	sbci	r31, 0xDC	; 220
     788:	c0 83       	st	Z, r28
		gpgga_index++;
     78a:	9f 5f       	subi	r25, 0xFF	; 255
     78c:	90 93 88 23 	sts	0x2388, r25	; 0x802388 <gpgga_index>
		//printf("GPGGA %i = %i", gpgga_index, gpgga_buff[gpgga_index]);
	}	
	
	if (c == '\n')
     790:	ca 30       	cpi	r28, 0x0A	; 10
     792:	39 f4       	brne	.+14     	; 0x7a2 <__vector_91+0x70>
	{
		last_finished = current_sentence;
     794:	80 93 93 21 	sts	0x2193, r24	; 0x802193 <last_finished>
		current_sentence = SENTENCE_NONE;
     798:	10 92 ea 21 	sts	0x21EA, r1	; 0x8021ea <current_sentence>
		dollar_counter = 0;
     79c:	10 92 8a 21 	sts	0x218A, r1	; 0x80218a <dollar_counter>
     7a0:	23 c0       	rjmp	.+70     	; 0x7e8 <__vector_91+0xb6>
	}
	else if (c == '$' && current_sentence == SENTENCE_NONE)
     7a2:	c4 32       	cpi	r28, 0x24	; 36
     7a4:	11 f4       	brne	.+4      	; 0x7aa <__vector_91+0x78>
     7a6:	88 23       	and	r24, r24
     7a8:	d9 f0       	breq	.+54     	; 0x7e0 <__vector_91+0xae>
	{
		dollar_counter = 1;
	}
	
	if (dollar_counter > 0)
     7aa:	80 91 8a 21 	lds	r24, 0x218A	; 0x80218a <dollar_counter>
     7ae:	88 23       	and	r24, r24
     7b0:	d9 f0       	breq	.+54     	; 0x7e8 <__vector_91+0xb6>
	{
		if (dollar_counter == 5 && c == 'G' )
     7b2:	85 30       	cpi	r24, 0x05	; 5
     7b4:	b1 f4       	brne	.+44     	; 0x7e2 <__vector_91+0xb0>
     7b6:	c7 34       	cpi	r28, 0x47	; 71
     7b8:	a1 f4       	brne	.+40     	; 0x7e2 <__vector_91+0xb0>
		{
			current_sentence= SENTENCE_GPGGA;
     7ba:	81 e0       	ldi	r24, 0x01	; 1
     7bc:	80 93 ea 21 	sts	0x21EA, r24	; 0x8021ea <current_sentence>
			memcpy(gpgga_buff, "$GPGG", 5);
     7c0:	85 e0       	ldi	r24, 0x05	; 5
     7c2:	e0 e2       	ldi	r30, 0x20	; 32
     7c4:	f0 e2       	ldi	r31, 0x20	; 32
     7c6:	a3 e3       	ldi	r26, 0x33	; 51
     7c8:	b3 e2       	ldi	r27, 0x23	; 35
     7ca:	01 90       	ld	r0, Z+
     7cc:	0d 92       	st	X+, r0
     7ce:	8a 95       	dec	r24
     7d0:	e1 f7       	brne	.-8      	; 0x7ca <__vector_91+0x98>
			gpgga_index = 5;
     7d2:	85 e0       	ldi	r24, 0x05	; 5
     7d4:	80 93 88 23 	sts	0x2388, r24	; 0x802388 <gpgga_index>
			dollar_counter++;
     7d8:	86 e0       	ldi	r24, 0x06	; 6
     7da:	80 93 8a 21 	sts	0x218A, r24	; 0x80218a <dollar_counter>
     7de:	04 c0       	rjmp	.+8      	; 0x7e8 <__vector_91+0xb6>
	else if (c == '$' && current_sentence == SENTENCE_NONE)
	{
		dollar_counter = 1;
	}
	
	if (dollar_counter > 0)
     7e0:	81 e0       	ldi	r24, 0x01	; 1
			gpgga_index = 5;
			dollar_counter++;
		}
		else
		{
			dollar_counter++;
     7e2:	8f 5f       	subi	r24, 0xFF	; 255
     7e4:	80 93 8a 21 	sts	0x218A, r24	; 0x80218a <dollar_counter>
		}
	}
	//rbu8_write(&gps_receive_buffer, &(GPS_USART.DATA), 1);
}
     7e8:	ff 91       	pop	r31
     7ea:	ef 91       	pop	r30
     7ec:	cf 91       	pop	r28
     7ee:	bf 91       	pop	r27
     7f0:	af 91       	pop	r26
     7f2:	9f 91       	pop	r25
     7f4:	8f 91       	pop	r24
     7f6:	7f 91       	pop	r23
     7f8:	6f 91       	pop	r22
     7fa:	5f 91       	pop	r21
     7fc:	4f 91       	pop	r20
     7fe:	3f 91       	pop	r19
     800:	2f 91       	pop	r18
     802:	0f 90       	pop	r0
     804:	0b be       	out	0x3b, r0	; 59
     806:	0f 90       	pop	r0
     808:	09 be       	out	0x39, r0	; 57
     80a:	0f 90       	pop	r0
     80c:	08 be       	out	0x38, r0	; 56
     80e:	0f 90       	pop	r0
     810:	0f be       	out	0x3f, r0	; 63
     812:	0f 90       	pop	r0
     814:	1f 90       	pop	r1
     816:	18 95       	reti

00000818 <__vector_93>:

ISR (GPS_SEND_INTERRUPT_VECTOR)
{
     818:	1f 92       	push	r1
     81a:	0f 92       	push	r0
     81c:	0f b6       	in	r0, 0x3f	; 63
     81e:	0f 92       	push	r0
     820:	11 24       	eor	r1, r1
     822:	08 b6       	in	r0, 0x38	; 56
     824:	0f 92       	push	r0
     826:	18 be       	out	0x38, r1	; 56
     828:	09 b6       	in	r0, 0x39	; 57
     82a:	0f 92       	push	r0
     82c:	19 be       	out	0x39, r1	; 57
     82e:	0b b6       	in	r0, 0x3b	; 59
     830:	0f 92       	push	r0
     832:	1b be       	out	0x3b, r1	; 59
     834:	2f 93       	push	r18
     836:	3f 93       	push	r19
     838:	4f 93       	push	r20
     83a:	5f 93       	push	r21
     83c:	6f 93       	push	r22
     83e:	7f 93       	push	r23
     840:	8f 93       	push	r24
     842:	9f 93       	push	r25
     844:	af 93       	push	r26
     846:	bf 93       	push	r27
     848:	ef 93       	push	r30
     84a:	ff 93       	push	r31
			* printf
			* while (!(SPIC.STATUS >> 7));
		Essentially, it needs to run fast. This can be called as many as 25,000 times per second, and the cansat has other stuff to do
	*/
	
  rbu8_read(&gps_send_buffer, &(GPS_USART.DATA), 1);
     84c:	41 e0       	ldi	r20, 0x01	; 1
     84e:	50 e0       	ldi	r21, 0x00	; 0
     850:	60 eb       	ldi	r22, 0xB0	; 176
     852:	79 e0       	ldi	r23, 0x09	; 9
     854:	8b e2       	ldi	r24, 0x2B	; 43
     856:	93 e2       	ldi	r25, 0x23	; 35
     858:	2e d0       	rcall	.+92     	; 0x8b6 <rbu8_read>
  rbu8_delete_oldest(&gps_send_buffer, 1);
     85a:	61 e0       	ldi	r22, 0x01	; 1
     85c:	70 e0       	ldi	r23, 0x00	; 0
     85e:	8b e2       	ldi	r24, 0x2B	; 43
     860:	93 e2       	ldi	r25, 0x23	; 35
     862:	79 d0       	rcall	.+242    	; 0x956 <rbu8_delete_oldest>
     864:	ff 91       	pop	r31
     866:	ef 91       	pop	r30
     868:	bf 91       	pop	r27
     86a:	af 91       	pop	r26
     86c:	9f 91       	pop	r25
     86e:	8f 91       	pop	r24
     870:	7f 91       	pop	r23
     872:	6f 91       	pop	r22
     874:	5f 91       	pop	r21
     876:	4f 91       	pop	r20
     878:	3f 91       	pop	r19
     87a:	2f 91       	pop	r18
     87c:	0f 90       	pop	r0
     87e:	0b be       	out	0x3b, r0	; 59
     880:	0f 90       	pop	r0
     882:	09 be       	out	0x39, r0	; 57
     884:	0f 90       	pop	r0
     886:	08 be       	out	0x38, r0	; 56
     888:	0f 90       	pop	r0
     88a:	0f be       	out	0x3f, r0	; 63
     88c:	0f 90       	pop	r0
     88e:	1f 90       	pop	r1
     890:	18 95       	reti

00000892 <rbu8_length>:
uint16_t rbu8_length(RingBufferu8_t* buffer)
/*	Returns the number of bytes of data currently stored in the RingBuffer pointed to by its argument
	The return value will always be greater than or equal to 0
	And less than or equal to buffer->array_length
*/
{
     892:	fc 01       	movw	r30, r24
	if (buffer->head >= buffer->tail)
     894:	82 81       	ldd	r24, Z+2	; 0x02
     896:	93 81       	ldd	r25, Z+3	; 0x03
     898:	44 81       	ldd	r20, Z+4	; 0x04
     89a:	55 81       	ldd	r21, Z+5	; 0x05
     89c:	84 17       	cp	r24, r20
     89e:	95 07       	cpc	r25, r21
     8a0:	18 f0       	brcs	.+6      	; 0x8a8 <rbu8_length+0x16>
	//We are not currently wrapped around the end of the buffer, so we are using the space between the head and tail
	{
		return buffer->head - buffer->tail;
     8a2:	84 1b       	sub	r24, r20
     8a4:	95 0b       	sbc	r25, r21
     8a6:	08 95       	ret
	}
	else
	//We have wrapped around the end of the buffer, so subtract the unused space between the head and tail
	{
		return buffer->array_length - (buffer->tail - buffer->head);
     8a8:	20 81       	ld	r18, Z
     8aa:	31 81       	ldd	r19, Z+1	; 0x01
     8ac:	82 0f       	add	r24, r18
     8ae:	93 1f       	adc	r25, r19
     8b0:	84 1b       	sub	r24, r20
     8b2:	95 0b       	sbc	r25, r21
	}
}
     8b4:	08 95       	ret

000008b6 <rbu8_read>:
	length - number of bytes to be read
	Return values
	* 0 - success
	* 1 - the buffer doesn't have length bytes of data in it, but dest now has everything that was in there, null-terminated
*/
{
     8b6:	8f 92       	push	r8
     8b8:	9f 92       	push	r9
     8ba:	af 92       	push	r10
     8bc:	bf 92       	push	r11
     8be:	cf 92       	push	r12
     8c0:	df 92       	push	r13
     8c2:	ef 92       	push	r14
     8c4:	ff 92       	push	r15
     8c6:	0f 93       	push	r16
     8c8:	1f 93       	push	r17
     8ca:	cf 93       	push	r28
     8cc:	df 93       	push	r29
     8ce:	8c 01       	movw	r16, r24
     8d0:	6a 01       	movw	r12, r20
	uint16_t index = buffer->tail;
     8d2:	dc 01       	movw	r26, r24
     8d4:	14 96       	adiw	r26, 0x04	; 4
     8d6:	cd 91       	ld	r28, X+
     8d8:	dc 91       	ld	r29, X
     8da:	15 97       	sbiw	r26, 0x05	; 5
     8dc:	e6 2e       	mov	r14, r22
     8de:	f7 2e       	mov	r15, r23
	uint16_t i = 0;
	for (i = 0; i < min(rbu8_length(buffer), length); i++)
     8e0:	a1 2c       	mov	r10, r1
     8e2:	b1 2c       	mov	r11, r1
     8e4:	84 2e       	mov	r8, r20
     8e6:	9d 2c       	mov	r9, r13
     8e8:	18 c0       	rjmp	.+48     	; 0x91a <rbu8_read+0x64>
	{

		dest[i] = buffer->buffer[index];
     8ea:	d8 01       	movw	r26, r16
     8ec:	16 96       	adiw	r26, 0x06	; 6
     8ee:	ed 91       	ld	r30, X+
     8f0:	fc 91       	ld	r31, X
     8f2:	17 97       	sbiw	r26, 0x07	; 7
     8f4:	ec 0f       	add	r30, r28
     8f6:	fd 1f       	adc	r31, r29
     8f8:	80 81       	ld	r24, Z
     8fa:	f7 01       	movw	r30, r14
     8fc:	81 93       	st	Z+, r24
     8fe:	7f 01       	movw	r14, r30
		if (index == buffer->array_length - 1) //Reset if we've hit the end
     900:	8d 91       	ld	r24, X+
     902:	9c 91       	ld	r25, X
     904:	01 97       	sbiw	r24, 0x01	; 1
     906:	c8 17       	cp	r28, r24
     908:	d9 07       	cpc	r29, r25
     90a:	11 f0       	breq	.+4      	; 0x910 <rbu8_read+0x5a>
		{
			index = 0;
		}
		else
		{
			index++;
     90c:	21 96       	adiw	r28, 0x01	; 1
     90e:	02 c0       	rjmp	.+4      	; 0x914 <rbu8_read+0x5e>
	{

		dest[i] = buffer->buffer[index];
		if (index == buffer->array_length - 1) //Reset if we've hit the end
		{
			index = 0;
     910:	c0 e0       	ldi	r28, 0x00	; 0
     912:	d0 e0       	ldi	r29, 0x00	; 0
	* 1 - the buffer doesn't have length bytes of data in it, but dest now has everything that was in there, null-terminated
*/
{
	uint16_t index = buffer->tail;
	uint16_t i = 0;
	for (i = 0; i < min(rbu8_length(buffer), length); i++)
     914:	ff ef       	ldi	r31, 0xFF	; 255
     916:	af 1a       	sub	r10, r31
     918:	bf 0a       	sbc	r11, r31
     91a:	c8 01       	movw	r24, r16
     91c:	ba df       	rcall	.-140    	; 0x892 <rbu8_length>
     91e:	9c 01       	movw	r18, r24
     920:	c8 16       	cp	r12, r24
     922:	d9 06       	cpc	r13, r25
     924:	10 f4       	brcc	.+4      	; 0x92a <rbu8_read+0x74>
     926:	28 2d       	mov	r18, r8
     928:	39 2d       	mov	r19, r9
     92a:	a2 16       	cp	r10, r18
     92c:	b3 06       	cpc	r11, r19
     92e:	e8 f2       	brcs	.-70     	; 0x8ea <rbu8_read+0x34>
     930:	21 e0       	ldi	r18, 0x01	; 1
     932:	8c 15       	cp	r24, r12
     934:	9d 05       	cpc	r25, r13
     936:	08 f0       	brcs	.+2      	; 0x93a <rbu8_read+0x84>
     938:	20 e0       	ldi	r18, 0x00	; 0
	}
	if (length > rbu8_length(buffer))
		return 1;
	else
		return 0;
}
     93a:	82 2f       	mov	r24, r18
     93c:	df 91       	pop	r29
     93e:	cf 91       	pop	r28
     940:	1f 91       	pop	r17
     942:	0f 91       	pop	r16
     944:	ff 90       	pop	r15
     946:	ef 90       	pop	r14
     948:	df 90       	pop	r13
     94a:	cf 90       	pop	r12
     94c:	bf 90       	pop	r11
     94e:	af 90       	pop	r10
     950:	9f 90       	pop	r9
     952:	8f 90       	pop	r8
     954:	08 95       	ret

00000956 <rbu8_delete_oldest>:

void rbu8_delete_oldest(RingBufferu8_t* buffer, uint16_t length)
/*	Deletes data from the ring buffer
	All it really has to do is move buffer->tail up length bytes or until one byte below buffer->head, whichever is lower
*/
{
     956:	0f 93       	push	r16
     958:	1f 93       	push	r17
     95a:	cf 93       	push	r28
     95c:	df 93       	push	r29
     95e:	ec 01       	movw	r28, r24
	uint16_t move_distance = min(length, rbu8_length(buffer));
     960:	8b 01       	movw	r16, r22
     962:	97 df       	rcall	.-210    	; 0x892 <rbu8_length>
     964:	9c 01       	movw	r18, r24
     966:	08 17       	cp	r16, r24
     968:	19 07       	cpc	r17, r25
     96a:	08 f4       	brcc	.+2      	; 0x96e <rbu8_delete_oldest+0x18>
	if (move_distance >= rbu8_length(buffer))
     96c:	98 01       	movw	r18, r16
     96e:	28 17       	cp	r18, r24
     970:	39 07       	cpc	r19, r25
	{
		buffer->tail = (buffer->tail + move_distance) % buffer->array_length; //Modulus is so that we don't point to above the buffer's location
     972:	68 f0       	brcs	.+26     	; 0x98e <rbu8_delete_oldest+0x38>
     974:	8c 81       	ldd	r24, Y+4	; 0x04
     976:	9d 81       	ldd	r25, Y+5	; 0x05
     978:	82 0f       	add	r24, r18
     97a:	93 1f       	adc	r25, r19
     97c:	68 81       	ld	r22, Y
     97e:	79 81       	ldd	r23, Y+1	; 0x01
     980:	0e 94 fd 23 	call	0x47fa	; 0x47fa <__udivmodhi4>
     984:	8c 83       	std	Y+4, r24	; 0x04
		buffer->head = buffer->tail;
     986:	9d 83       	std	Y+5, r25	; 0x05
     988:	8a 83       	std	Y+2, r24	; 0x02
     98a:	9b 83       	std	Y+3, r25	; 0x03
	}
	else
	{
		buffer->tail = (buffer->tail + move_distance) % buffer->array_length; //Modulus is so that we don't point to above the buffer's location
     98c:	0a c0       	rjmp	.+20     	; 0x9a2 <rbu8_delete_oldest+0x4c>
     98e:	8c 81       	ldd	r24, Y+4	; 0x04
     990:	9d 81       	ldd	r25, Y+5	; 0x05
     992:	82 0f       	add	r24, r18
     994:	93 1f       	adc	r25, r19
     996:	68 81       	ld	r22, Y
     998:	79 81       	ldd	r23, Y+1	; 0x01
     99a:	0e 94 fd 23 	call	0x47fa	; 0x47fa <__udivmodhi4>
     99e:	8c 83       	std	Y+4, r24	; 0x04
	}
}
     9a0:	9d 83       	std	Y+5, r25	; 0x05
     9a2:	df 91       	pop	r29
     9a4:	cf 91       	pop	r28
     9a6:	1f 91       	pop	r17
     9a8:	0f 91       	pop	r16
     9aa:	08 95       	ret

000009ac <sysclk_init>:
#  include <nvm.h>
#endif


void sysclk_init(void)
{
     9ac:	cf 93       	push	r28
     9ae:	df 93       	push	r29
     9b0:	1f 92       	push	r1
     9b2:	1f 92       	push	r1
     9b4:	cd b7       	in	r28, 0x3d	; 61
     9b6:	de b7       	in	r29, 0x3e	; 62
#endif
	bool need_rc2mhz = false;

	/* Turn off all peripheral clocks that can be turned off. */
	for (i = 0; i <= SYSCLK_PORT_F; i++) {
		*(reg++) = 0xff;
     9b8:	8f ef       	ldi	r24, 0xFF	; 255
     9ba:	80 93 70 00 	sts	0x0070, r24	; 0x800070 <__TEXT_REGION_LENGTH__+0x700070>
     9be:	80 93 71 00 	sts	0x0071, r24	; 0x800071 <__TEXT_REGION_LENGTH__+0x700071>
     9c2:	80 93 72 00 	sts	0x0072, r24	; 0x800072 <__TEXT_REGION_LENGTH__+0x700072>
     9c6:	80 93 73 00 	sts	0x0073, r24	; 0x800073 <__TEXT_REGION_LENGTH__+0x700073>
     9ca:	80 93 74 00 	sts	0x0074, r24	; 0x800074 <__TEXT_REGION_LENGTH__+0x700074>
     9ce:	80 93 75 00 	sts	0x0075, r24	; 0x800075 <__TEXT_REGION_LENGTH__+0x700075>
     9d2:	80 93 76 00 	sts	0x0076, r24	; 0x800076 <__TEXT_REGION_LENGTH__+0x700076>

typedef uint8_t irqflags_t;

static inline irqflags_t cpu_irq_save(void)
{
	volatile irqflags_t flags = SREG;
     9d6:	8f b7       	in	r24, 0x3f	; 63
     9d8:	8a 83       	std	Y+2, r24	; 0x02
	cpu_irq_disable();
     9da:	f8 94       	cli
	return flags;
     9dc:	9a 81       	ldd	r25, Y+2	; 0x02
	irqflags_t flags;

	Assert(id != OSC_ID_USBSOF);

	flags = cpu_irq_save();
	OSC.CTRL |= id;
     9de:	e0 e5       	ldi	r30, 0x50	; 80
     9e0:	f0 e0       	ldi	r31, 0x00	; 0
     9e2:	80 81       	ld	r24, Z
     9e4:	82 60       	ori	r24, 0x02	; 2
     9e6:	80 83       	st	Z, r24
}

static inline void cpu_irq_restore(irqflags_t flags)
{
	barrier();
	SREG = flags;
     9e8:	9f bf       	out	0x3f, r25	; 63

static inline bool osc_is_ready(uint8_t id)
{
	Assert(id != OSC_ID_USBSOF);

	return OSC.STATUS & id;
     9ea:	81 81       	ldd	r24, Z+1	; 0x01
 *
 * \param id A number identifying the oscillator to wait for.
 */
static inline void osc_wait_ready(uint8_t id)
{
	while (!osc_is_ready(id)) {
     9ec:	81 ff       	sbrs	r24, 1
     9ee:	fd cf       	rjmp	.-6      	; 0x9ea <sysclk_init+0x3e>
		default:
			//unhandled_case(CONFIG_SYSCLK_SOURCE);
			return;
		}

		ccp_write_io((uint8_t *)&CLK.CTRL, CONFIG_SYSCLK_SOURCE);
     9f0:	61 e0       	ldi	r22, 0x01	; 1
     9f2:	80 e4       	ldi	r24, 0x40	; 64
     9f4:	90 e0       	ldi	r25, 0x00	; 0
     9f6:	38 d2       	rcall	.+1136   	; 0xe68 <ccp_write_io>

typedef uint8_t irqflags_t;

static inline irqflags_t cpu_irq_save(void)
{
	volatile irqflags_t flags = SREG;
     9f8:	8f b7       	in	r24, 0x3f	; 63
     9fa:	89 83       	std	Y+1, r24	; 0x01
	cpu_irq_disable();
     9fc:	f8 94       	cli
	return flags;
     9fe:	99 81       	ldd	r25, Y+1	; 0x01
	irqflags_t flags;

	Assert(id != OSC_ID_USBSOF);

	flags = cpu_irq_save();
	OSC.CTRL &= ~id;
     a00:	e0 e5       	ldi	r30, 0x50	; 80
     a02:	f0 e0       	ldi	r31, 0x00	; 0
     a04:	80 81       	ld	r24, Z
     a06:	8e 7f       	andi	r24, 0xFE	; 254
     a08:	80 83       	st	Z, r24
}

static inline void cpu_irq_restore(irqflags_t flags)
{
	barrier();
	SREG = flags;
     a0a:	9f bf       	out	0x3f, r25	; 63
	}

#ifdef CONFIG_RTC_SOURCE
	sysclk_rtcsrc_enable(CONFIG_RTC_SOURCE);
#endif
}
     a0c:	0f 90       	pop	r0
     a0e:	0f 90       	pop	r0
     a10:	df 91       	pop	r29
     a12:	cf 91       	pop	r28
     a14:	08 95       	ret

00000a16 <sysclk_enable_module>:

void sysclk_enable_module(enum sysclk_port_id port, uint8_t id)
{
     a16:	cf 93       	push	r28
     a18:	df 93       	push	r29
     a1a:	1f 92       	push	r1
     a1c:	cd b7       	in	r28, 0x3d	; 61
     a1e:	de b7       	in	r29, 0x3e	; 62

typedef uint8_t irqflags_t;

static inline irqflags_t cpu_irq_save(void)
{
	volatile irqflags_t flags = SREG;
     a20:	9f b7       	in	r25, 0x3f	; 63
     a22:	99 83       	std	Y+1, r25	; 0x01
	cpu_irq_disable();
     a24:	f8 94       	cli
	return flags;
     a26:	99 81       	ldd	r25, Y+1	; 0x01
	irqflags_t flags = cpu_irq_save();

	*((uint8_t *)&PR.PRGEN + port) &= ~id;
     a28:	e8 2f       	mov	r30, r24
     a2a:	f0 e0       	ldi	r31, 0x00	; 0
     a2c:	e0 59       	subi	r30, 0x90	; 144
     a2e:	ff 4f       	sbci	r31, 0xFF	; 255
     a30:	60 95       	com	r22
     a32:	80 81       	ld	r24, Z
     a34:	68 23       	and	r22, r24
     a36:	60 83       	st	Z, r22
}

static inline void cpu_irq_restore(irqflags_t flags)
{
	barrier();
	SREG = flags;
     a38:	9f bf       	out	0x3f, r25	; 63

	cpu_irq_restore(flags);
}
     a3a:	0f 90       	pop	r0
     a3c:	df 91       	pop	r29
     a3e:	cf 91       	pop	r28
     a40:	08 95       	ret

00000a42 <_read>:
#elif (defined(__GNUC__) && (XMEGA || MEGA) )

int _read (int *f); // Remove GCC compiler warning

int _read (int *f)
{
     a42:	cf 93       	push	r28
     a44:	df 93       	push	r29
     a46:	1f 92       	push	r1
     a48:	cd b7       	in	r28, 0x3d	; 61
     a4a:	de b7       	in	r29, 0x3e	; 62
	char c;
	ptr_get(stdio_base,&c);
     a4c:	80 91 8e 23 	lds	r24, 0x238E	; 0x80238e <stdio_base>
     a50:	90 91 8f 23 	lds	r25, 0x238F	; 0x80238f <stdio_base+0x1>
     a54:	e0 91 8a 23 	lds	r30, 0x238A	; 0x80238a <ptr_get>
     a58:	f0 91 8b 23 	lds	r31, 0x238B	; 0x80238b <ptr_get+0x1>
     a5c:	be 01       	movw	r22, r28
     a5e:	6f 5f       	subi	r22, 0xFF	; 255
     a60:	7f 4f       	sbci	r23, 0xFF	; 255
     a62:	19 95       	eicall
	return c;
     a64:	89 81       	ldd	r24, Y+1	; 0x01
}
     a66:	08 2e       	mov	r0, r24
     a68:	00 0c       	add	r0, r0
     a6a:	99 0b       	sbc	r25, r25
     a6c:	0f 90       	pop	r0
     a6e:	df 91       	pop	r29
     a70:	cf 91       	pop	r28
     a72:	08 95       	ret

00000a74 <_write>:
#elif (defined(__GNUC__) && (XMEGA || MEGA))

int _write (char c, int *f);

int _write (char c, int *f)
{
     a74:	68 2f       	mov	r22, r24
	if (ptr_put(stdio_base, c) < 0) {
     a76:	80 91 8e 23 	lds	r24, 0x238E	; 0x80238e <stdio_base>
     a7a:	90 91 8f 23 	lds	r25, 0x238F	; 0x80238f <stdio_base+0x1>
     a7e:	e0 91 8c 23 	lds	r30, 0x238C	; 0x80238c <ptr_put>
     a82:	f0 91 8d 23 	lds	r31, 0x238D	; 0x80238d <ptr_put+0x1>
     a86:	19 95       	eicall
     a88:	99 23       	and	r25, r25
     a8a:	1c f0       	brlt	.+6      	; 0xa92 <_write+0x1e>
		return -1;
	}
	return 1;
     a8c:	81 e0       	ldi	r24, 0x01	; 1
     a8e:	90 e0       	ldi	r25, 0x00	; 0
     a90:	08 95       	ret
int _write (char c, int *f);

int _write (char c, int *f)
{
	if (ptr_put(stdio_base, c) < 0) {
		return -1;
     a92:	8f ef       	ldi	r24, 0xFF	; 255
     a94:	9f ef       	ldi	r25, 0xFF	; 255
	}
	return 1;
}
     a96:	08 95       	ret

00000a98 <__vector_71>:
 *
 * Calls the callback function that has been set for the ADC when the channel's
 * interrupt flag is set, if its interrupt has been enabled.
 */
ISR(ADCA_CH0_vect)
{
     a98:	1f 92       	push	r1
     a9a:	0f 92       	push	r0
     a9c:	0f b6       	in	r0, 0x3f	; 63
     a9e:	0f 92       	push	r0
     aa0:	11 24       	eor	r1, r1
     aa2:	08 b6       	in	r0, 0x38	; 56
     aa4:	0f 92       	push	r0
     aa6:	18 be       	out	0x38, r1	; 56
     aa8:	09 b6       	in	r0, 0x39	; 57
     aaa:	0f 92       	push	r0
     aac:	19 be       	out	0x39, r1	; 57
     aae:	0b b6       	in	r0, 0x3b	; 59
     ab0:	0f 92       	push	r0
     ab2:	1b be       	out	0x3b, r1	; 59
     ab4:	2f 93       	push	r18
     ab6:	3f 93       	push	r19
     ab8:	4f 93       	push	r20
     aba:	5f 93       	push	r21
     abc:	6f 93       	push	r22
     abe:	7f 93       	push	r23
     ac0:	8f 93       	push	r24
     ac2:	9f 93       	push	r25
     ac4:	af 93       	push	r26
     ac6:	bf 93       	push	r27
     ac8:	ef 93       	push	r30
     aca:	ff 93       	push	r31
	adca_callback(&ADCA, ADC_CH0, adc_get_result(&ADCA, ADC_CH0));
     acc:	40 91 24 02 	lds	r20, 0x0224	; 0x800224 <__TEXT_REGION_LENGTH__+0x700224>
     ad0:	50 91 25 02 	lds	r21, 0x0225	; 0x800225 <__TEXT_REGION_LENGTH__+0x700225>
     ad4:	e0 91 92 23 	lds	r30, 0x2392	; 0x802392 <adca_callback>
     ad8:	f0 91 93 23 	lds	r31, 0x2393	; 0x802393 <adca_callback+0x1>
     adc:	61 e0       	ldi	r22, 0x01	; 1
     ade:	80 e0       	ldi	r24, 0x00	; 0
     ae0:	92 e0       	ldi	r25, 0x02	; 2
     ae2:	19 95       	eicall
}
     ae4:	ff 91       	pop	r31
     ae6:	ef 91       	pop	r30
     ae8:	bf 91       	pop	r27
     aea:	af 91       	pop	r26
     aec:	9f 91       	pop	r25
     aee:	8f 91       	pop	r24
     af0:	7f 91       	pop	r23
     af2:	6f 91       	pop	r22
     af4:	5f 91       	pop	r21
     af6:	4f 91       	pop	r20
     af8:	3f 91       	pop	r19
     afa:	2f 91       	pop	r18
     afc:	0f 90       	pop	r0
     afe:	0b be       	out	0x3b, r0	; 59
     b00:	0f 90       	pop	r0
     b02:	09 be       	out	0x39, r0	; 57
     b04:	0f 90       	pop	r0
     b06:	08 be       	out	0x38, r0	; 56
     b08:	0f 90       	pop	r0
     b0a:	0f be       	out	0x3f, r0	; 63
     b0c:	0f 90       	pop	r0
     b0e:	1f 90       	pop	r1
     b10:	18 95       	reti

00000b12 <__vector_72>:
 *
 * Calls the callback function that has been set for the ADC when the channel's
 * interrupt flag is set, if its interrupt has been enabled.
 */
ISR(ADCA_CH1_vect)
{
     b12:	1f 92       	push	r1
     b14:	0f 92       	push	r0
     b16:	0f b6       	in	r0, 0x3f	; 63
     b18:	0f 92       	push	r0
     b1a:	11 24       	eor	r1, r1
     b1c:	08 b6       	in	r0, 0x38	; 56
     b1e:	0f 92       	push	r0
     b20:	18 be       	out	0x38, r1	; 56
     b22:	09 b6       	in	r0, 0x39	; 57
     b24:	0f 92       	push	r0
     b26:	19 be       	out	0x39, r1	; 57
     b28:	0b b6       	in	r0, 0x3b	; 59
     b2a:	0f 92       	push	r0
     b2c:	1b be       	out	0x3b, r1	; 59
     b2e:	2f 93       	push	r18
     b30:	3f 93       	push	r19
     b32:	4f 93       	push	r20
     b34:	5f 93       	push	r21
     b36:	6f 93       	push	r22
     b38:	7f 93       	push	r23
     b3a:	8f 93       	push	r24
     b3c:	9f 93       	push	r25
     b3e:	af 93       	push	r26
     b40:	bf 93       	push	r27
     b42:	ef 93       	push	r30
     b44:	ff 93       	push	r31
	adca_callback(&ADCA, ADC_CH1, adc_get_result(&ADCA, ADC_CH1));
     b46:	40 91 2c 02 	lds	r20, 0x022C	; 0x80022c <__TEXT_REGION_LENGTH__+0x70022c>
     b4a:	50 91 2d 02 	lds	r21, 0x022D	; 0x80022d <__TEXT_REGION_LENGTH__+0x70022d>
     b4e:	e0 91 92 23 	lds	r30, 0x2392	; 0x802392 <adca_callback>
     b52:	f0 91 93 23 	lds	r31, 0x2393	; 0x802393 <adca_callback+0x1>
     b56:	62 e0       	ldi	r22, 0x02	; 2
     b58:	80 e0       	ldi	r24, 0x00	; 0
     b5a:	92 e0       	ldi	r25, 0x02	; 2
     b5c:	19 95       	eicall
}
     b5e:	ff 91       	pop	r31
     b60:	ef 91       	pop	r30
     b62:	bf 91       	pop	r27
     b64:	af 91       	pop	r26
     b66:	9f 91       	pop	r25
     b68:	8f 91       	pop	r24
     b6a:	7f 91       	pop	r23
     b6c:	6f 91       	pop	r22
     b6e:	5f 91       	pop	r21
     b70:	4f 91       	pop	r20
     b72:	3f 91       	pop	r19
     b74:	2f 91       	pop	r18
     b76:	0f 90       	pop	r0
     b78:	0b be       	out	0x3b, r0	; 59
     b7a:	0f 90       	pop	r0
     b7c:	09 be       	out	0x39, r0	; 57
     b7e:	0f 90       	pop	r0
     b80:	08 be       	out	0x38, r0	; 56
     b82:	0f 90       	pop	r0
     b84:	0f be       	out	0x3f, r0	; 63
     b86:	0f 90       	pop	r0
     b88:	1f 90       	pop	r1
     b8a:	18 95       	reti

00000b8c <__vector_73>:
 *
 * Calls the callback function that has been set for the ADC when the channel's
 * interrupt flag is set, if its interrupt has been enabled.
 */
ISR(ADCA_CH2_vect)
{
     b8c:	1f 92       	push	r1
     b8e:	0f 92       	push	r0
     b90:	0f b6       	in	r0, 0x3f	; 63
     b92:	0f 92       	push	r0
     b94:	11 24       	eor	r1, r1
     b96:	08 b6       	in	r0, 0x38	; 56
     b98:	0f 92       	push	r0
     b9a:	18 be       	out	0x38, r1	; 56
     b9c:	09 b6       	in	r0, 0x39	; 57
     b9e:	0f 92       	push	r0
     ba0:	19 be       	out	0x39, r1	; 57
     ba2:	0b b6       	in	r0, 0x3b	; 59
     ba4:	0f 92       	push	r0
     ba6:	1b be       	out	0x3b, r1	; 59
     ba8:	2f 93       	push	r18
     baa:	3f 93       	push	r19
     bac:	4f 93       	push	r20
     bae:	5f 93       	push	r21
     bb0:	6f 93       	push	r22
     bb2:	7f 93       	push	r23
     bb4:	8f 93       	push	r24
     bb6:	9f 93       	push	r25
     bb8:	af 93       	push	r26
     bba:	bf 93       	push	r27
     bbc:	ef 93       	push	r30
     bbe:	ff 93       	push	r31
	adca_callback(&ADCA, ADC_CH2, adc_get_result(&ADCA, ADC_CH2));
     bc0:	40 91 34 02 	lds	r20, 0x0234	; 0x800234 <__TEXT_REGION_LENGTH__+0x700234>
     bc4:	50 91 35 02 	lds	r21, 0x0235	; 0x800235 <__TEXT_REGION_LENGTH__+0x700235>
     bc8:	e0 91 92 23 	lds	r30, 0x2392	; 0x802392 <adca_callback>
     bcc:	f0 91 93 23 	lds	r31, 0x2393	; 0x802393 <adca_callback+0x1>
     bd0:	64 e0       	ldi	r22, 0x04	; 4
     bd2:	80 e0       	ldi	r24, 0x00	; 0
     bd4:	92 e0       	ldi	r25, 0x02	; 2
     bd6:	19 95       	eicall
}
     bd8:	ff 91       	pop	r31
     bda:	ef 91       	pop	r30
     bdc:	bf 91       	pop	r27
     bde:	af 91       	pop	r26
     be0:	9f 91       	pop	r25
     be2:	8f 91       	pop	r24
     be4:	7f 91       	pop	r23
     be6:	6f 91       	pop	r22
     be8:	5f 91       	pop	r21
     bea:	4f 91       	pop	r20
     bec:	3f 91       	pop	r19
     bee:	2f 91       	pop	r18
     bf0:	0f 90       	pop	r0
     bf2:	0b be       	out	0x3b, r0	; 59
     bf4:	0f 90       	pop	r0
     bf6:	09 be       	out	0x39, r0	; 57
     bf8:	0f 90       	pop	r0
     bfa:	08 be       	out	0x38, r0	; 56
     bfc:	0f 90       	pop	r0
     bfe:	0f be       	out	0x3f, r0	; 63
     c00:	0f 90       	pop	r0
     c02:	1f 90       	pop	r1
     c04:	18 95       	reti

00000c06 <__vector_74>:
 *
 * Calls the callback function that has been set for the ADC when the channel's
 * interrupt flag is set, if its interrupt has been enabled.
 */
ISR(ADCA_CH3_vect)
{
     c06:	1f 92       	push	r1
     c08:	0f 92       	push	r0
     c0a:	0f b6       	in	r0, 0x3f	; 63
     c0c:	0f 92       	push	r0
     c0e:	11 24       	eor	r1, r1
     c10:	08 b6       	in	r0, 0x38	; 56
     c12:	0f 92       	push	r0
     c14:	18 be       	out	0x38, r1	; 56
     c16:	09 b6       	in	r0, 0x39	; 57
     c18:	0f 92       	push	r0
     c1a:	19 be       	out	0x39, r1	; 57
     c1c:	0b b6       	in	r0, 0x3b	; 59
     c1e:	0f 92       	push	r0
     c20:	1b be       	out	0x3b, r1	; 59
     c22:	2f 93       	push	r18
     c24:	3f 93       	push	r19
     c26:	4f 93       	push	r20
     c28:	5f 93       	push	r21
     c2a:	6f 93       	push	r22
     c2c:	7f 93       	push	r23
     c2e:	8f 93       	push	r24
     c30:	9f 93       	push	r25
     c32:	af 93       	push	r26
     c34:	bf 93       	push	r27
     c36:	ef 93       	push	r30
     c38:	ff 93       	push	r31
	adca_callback(&ADCA, ADC_CH3, adc_get_result(&ADCA, ADC_CH3));
     c3a:	40 91 3c 02 	lds	r20, 0x023C	; 0x80023c <__TEXT_REGION_LENGTH__+0x70023c>
     c3e:	50 91 3d 02 	lds	r21, 0x023D	; 0x80023d <__TEXT_REGION_LENGTH__+0x70023d>
     c42:	e0 91 92 23 	lds	r30, 0x2392	; 0x802392 <adca_callback>
     c46:	f0 91 93 23 	lds	r31, 0x2393	; 0x802393 <adca_callback+0x1>
     c4a:	68 e0       	ldi	r22, 0x08	; 8
     c4c:	80 e0       	ldi	r24, 0x00	; 0
     c4e:	92 e0       	ldi	r25, 0x02	; 2
     c50:	19 95       	eicall
}
     c52:	ff 91       	pop	r31
     c54:	ef 91       	pop	r30
     c56:	bf 91       	pop	r27
     c58:	af 91       	pop	r26
     c5a:	9f 91       	pop	r25
     c5c:	8f 91       	pop	r24
     c5e:	7f 91       	pop	r23
     c60:	6f 91       	pop	r22
     c62:	5f 91       	pop	r21
     c64:	4f 91       	pop	r20
     c66:	3f 91       	pop	r19
     c68:	2f 91       	pop	r18
     c6a:	0f 90       	pop	r0
     c6c:	0b be       	out	0x3b, r0	; 59
     c6e:	0f 90       	pop	r0
     c70:	09 be       	out	0x39, r0	; 57
     c72:	0f 90       	pop	r0
     c74:	08 be       	out	0x38, r0	; 56
     c76:	0f 90       	pop	r0
     c78:	0f be       	out	0x3f, r0	; 63
     c7a:	0f 90       	pop	r0
     c7c:	1f 90       	pop	r1
     c7e:	18 95       	reti

00000c80 <__vector_39>:
 *
 * Calls the callback function that has been set for the ADC when the channel's
 * interrupt flag is set, if its interrupt has been enabled.
 */
ISR(ADCB_CH0_vect)
{
     c80:	1f 92       	push	r1
     c82:	0f 92       	push	r0
     c84:	0f b6       	in	r0, 0x3f	; 63
     c86:	0f 92       	push	r0
     c88:	11 24       	eor	r1, r1
     c8a:	08 b6       	in	r0, 0x38	; 56
     c8c:	0f 92       	push	r0
     c8e:	18 be       	out	0x38, r1	; 56
     c90:	09 b6       	in	r0, 0x39	; 57
     c92:	0f 92       	push	r0
     c94:	19 be       	out	0x39, r1	; 57
     c96:	0b b6       	in	r0, 0x3b	; 59
     c98:	0f 92       	push	r0
     c9a:	1b be       	out	0x3b, r1	; 59
     c9c:	2f 93       	push	r18
     c9e:	3f 93       	push	r19
     ca0:	4f 93       	push	r20
     ca2:	5f 93       	push	r21
     ca4:	6f 93       	push	r22
     ca6:	7f 93       	push	r23
     ca8:	8f 93       	push	r24
     caa:	9f 93       	push	r25
     cac:	af 93       	push	r26
     cae:	bf 93       	push	r27
     cb0:	ef 93       	push	r30
     cb2:	ff 93       	push	r31
	adcb_callback(&ADCB, ADC_CH0, adc_get_result(&ADCB, ADC_CH0));
     cb4:	40 91 64 02 	lds	r20, 0x0264	; 0x800264 <__TEXT_REGION_LENGTH__+0x700264>
     cb8:	50 91 65 02 	lds	r21, 0x0265	; 0x800265 <__TEXT_REGION_LENGTH__+0x700265>
     cbc:	e0 91 90 23 	lds	r30, 0x2390	; 0x802390 <adcb_callback>
     cc0:	f0 91 91 23 	lds	r31, 0x2391	; 0x802391 <adcb_callback+0x1>
     cc4:	61 e0       	ldi	r22, 0x01	; 1
     cc6:	80 e4       	ldi	r24, 0x40	; 64
     cc8:	92 e0       	ldi	r25, 0x02	; 2
     cca:	19 95       	eicall
}
     ccc:	ff 91       	pop	r31
     cce:	ef 91       	pop	r30
     cd0:	bf 91       	pop	r27
     cd2:	af 91       	pop	r26
     cd4:	9f 91       	pop	r25
     cd6:	8f 91       	pop	r24
     cd8:	7f 91       	pop	r23
     cda:	6f 91       	pop	r22
     cdc:	5f 91       	pop	r21
     cde:	4f 91       	pop	r20
     ce0:	3f 91       	pop	r19
     ce2:	2f 91       	pop	r18
     ce4:	0f 90       	pop	r0
     ce6:	0b be       	out	0x3b, r0	; 59
     ce8:	0f 90       	pop	r0
     cea:	09 be       	out	0x39, r0	; 57
     cec:	0f 90       	pop	r0
     cee:	08 be       	out	0x38, r0	; 56
     cf0:	0f 90       	pop	r0
     cf2:	0f be       	out	0x3f, r0	; 63
     cf4:	0f 90       	pop	r0
     cf6:	1f 90       	pop	r1
     cf8:	18 95       	reti

00000cfa <__vector_40>:
 *
 * Calls the callback function that has been set for the ADC when the channel's
 * interrupt flag is set, if its interrupt has been enabled.
 */
ISR(ADCB_CH1_vect)
{
     cfa:	1f 92       	push	r1
     cfc:	0f 92       	push	r0
     cfe:	0f b6       	in	r0, 0x3f	; 63
     d00:	0f 92       	push	r0
     d02:	11 24       	eor	r1, r1
     d04:	08 b6       	in	r0, 0x38	; 56
     d06:	0f 92       	push	r0
     d08:	18 be       	out	0x38, r1	; 56
     d0a:	09 b6       	in	r0, 0x39	; 57
     d0c:	0f 92       	push	r0
     d0e:	19 be       	out	0x39, r1	; 57
     d10:	0b b6       	in	r0, 0x3b	; 59
     d12:	0f 92       	push	r0
     d14:	1b be       	out	0x3b, r1	; 59
     d16:	2f 93       	push	r18
     d18:	3f 93       	push	r19
     d1a:	4f 93       	push	r20
     d1c:	5f 93       	push	r21
     d1e:	6f 93       	push	r22
     d20:	7f 93       	push	r23
     d22:	8f 93       	push	r24
     d24:	9f 93       	push	r25
     d26:	af 93       	push	r26
     d28:	bf 93       	push	r27
     d2a:	ef 93       	push	r30
     d2c:	ff 93       	push	r31
	adcb_callback(&ADCB, ADC_CH1, adc_get_result(&ADCB, ADC_CH1));
     d2e:	40 91 6c 02 	lds	r20, 0x026C	; 0x80026c <__TEXT_REGION_LENGTH__+0x70026c>
     d32:	50 91 6d 02 	lds	r21, 0x026D	; 0x80026d <__TEXT_REGION_LENGTH__+0x70026d>
     d36:	e0 91 90 23 	lds	r30, 0x2390	; 0x802390 <adcb_callback>
     d3a:	f0 91 91 23 	lds	r31, 0x2391	; 0x802391 <adcb_callback+0x1>
     d3e:	62 e0       	ldi	r22, 0x02	; 2
     d40:	80 e4       	ldi	r24, 0x40	; 64
     d42:	92 e0       	ldi	r25, 0x02	; 2
     d44:	19 95       	eicall
}
     d46:	ff 91       	pop	r31
     d48:	ef 91       	pop	r30
     d4a:	bf 91       	pop	r27
     d4c:	af 91       	pop	r26
     d4e:	9f 91       	pop	r25
     d50:	8f 91       	pop	r24
     d52:	7f 91       	pop	r23
     d54:	6f 91       	pop	r22
     d56:	5f 91       	pop	r21
     d58:	4f 91       	pop	r20
     d5a:	3f 91       	pop	r19
     d5c:	2f 91       	pop	r18
     d5e:	0f 90       	pop	r0
     d60:	0b be       	out	0x3b, r0	; 59
     d62:	0f 90       	pop	r0
     d64:	09 be       	out	0x39, r0	; 57
     d66:	0f 90       	pop	r0
     d68:	08 be       	out	0x38, r0	; 56
     d6a:	0f 90       	pop	r0
     d6c:	0f be       	out	0x3f, r0	; 63
     d6e:	0f 90       	pop	r0
     d70:	1f 90       	pop	r1
     d72:	18 95       	reti

00000d74 <__vector_41>:
 *
 * Calls the callback function that has been set for the ADC when the channel's
 * interrupt flag is set, if its interrupt has been enabled.
 */
ISR(ADCB_CH2_vect)
{
     d74:	1f 92       	push	r1
     d76:	0f 92       	push	r0
     d78:	0f b6       	in	r0, 0x3f	; 63
     d7a:	0f 92       	push	r0
     d7c:	11 24       	eor	r1, r1
     d7e:	08 b6       	in	r0, 0x38	; 56
     d80:	0f 92       	push	r0
     d82:	18 be       	out	0x38, r1	; 56
     d84:	09 b6       	in	r0, 0x39	; 57
     d86:	0f 92       	push	r0
     d88:	19 be       	out	0x39, r1	; 57
     d8a:	0b b6       	in	r0, 0x3b	; 59
     d8c:	0f 92       	push	r0
     d8e:	1b be       	out	0x3b, r1	; 59
     d90:	2f 93       	push	r18
     d92:	3f 93       	push	r19
     d94:	4f 93       	push	r20
     d96:	5f 93       	push	r21
     d98:	6f 93       	push	r22
     d9a:	7f 93       	push	r23
     d9c:	8f 93       	push	r24
     d9e:	9f 93       	push	r25
     da0:	af 93       	push	r26
     da2:	bf 93       	push	r27
     da4:	ef 93       	push	r30
     da6:	ff 93       	push	r31
	adcb_callback(&ADCB, ADC_CH2, adc_get_result(&ADCB, ADC_CH2));
     da8:	40 91 74 02 	lds	r20, 0x0274	; 0x800274 <__TEXT_REGION_LENGTH__+0x700274>
     dac:	50 91 75 02 	lds	r21, 0x0275	; 0x800275 <__TEXT_REGION_LENGTH__+0x700275>
     db0:	e0 91 90 23 	lds	r30, 0x2390	; 0x802390 <adcb_callback>
     db4:	f0 91 91 23 	lds	r31, 0x2391	; 0x802391 <adcb_callback+0x1>
     db8:	64 e0       	ldi	r22, 0x04	; 4
     dba:	80 e4       	ldi	r24, 0x40	; 64
     dbc:	92 e0       	ldi	r25, 0x02	; 2
     dbe:	19 95       	eicall
}
     dc0:	ff 91       	pop	r31
     dc2:	ef 91       	pop	r30
     dc4:	bf 91       	pop	r27
     dc6:	af 91       	pop	r26
     dc8:	9f 91       	pop	r25
     dca:	8f 91       	pop	r24
     dcc:	7f 91       	pop	r23
     dce:	6f 91       	pop	r22
     dd0:	5f 91       	pop	r21
     dd2:	4f 91       	pop	r20
     dd4:	3f 91       	pop	r19
     dd6:	2f 91       	pop	r18
     dd8:	0f 90       	pop	r0
     dda:	0b be       	out	0x3b, r0	; 59
     ddc:	0f 90       	pop	r0
     dde:	09 be       	out	0x39, r0	; 57
     de0:	0f 90       	pop	r0
     de2:	08 be       	out	0x38, r0	; 56
     de4:	0f 90       	pop	r0
     de6:	0f be       	out	0x3f, r0	; 63
     de8:	0f 90       	pop	r0
     dea:	1f 90       	pop	r1
     dec:	18 95       	reti

00000dee <__vector_42>:
 *
 * Calls the callback function that has been set for the ADC when the channel's
 * interrupt flag is set, if its interrupt has been enabled.
 */
ISR(ADCB_CH3_vect)
{
     dee:	1f 92       	push	r1
     df0:	0f 92       	push	r0
     df2:	0f b6       	in	r0, 0x3f	; 63
     df4:	0f 92       	push	r0
     df6:	11 24       	eor	r1, r1
     df8:	08 b6       	in	r0, 0x38	; 56
     dfa:	0f 92       	push	r0
     dfc:	18 be       	out	0x38, r1	; 56
     dfe:	09 b6       	in	r0, 0x39	; 57
     e00:	0f 92       	push	r0
     e02:	19 be       	out	0x39, r1	; 57
     e04:	0b b6       	in	r0, 0x3b	; 59
     e06:	0f 92       	push	r0
     e08:	1b be       	out	0x3b, r1	; 59
     e0a:	2f 93       	push	r18
     e0c:	3f 93       	push	r19
     e0e:	4f 93       	push	r20
     e10:	5f 93       	push	r21
     e12:	6f 93       	push	r22
     e14:	7f 93       	push	r23
     e16:	8f 93       	push	r24
     e18:	9f 93       	push	r25
     e1a:	af 93       	push	r26
     e1c:	bf 93       	push	r27
     e1e:	ef 93       	push	r30
     e20:	ff 93       	push	r31
	adcb_callback(&ADCB, ADC_CH3, adc_get_result(&ADCB, ADC_CH3));
     e22:	40 91 7c 02 	lds	r20, 0x027C	; 0x80027c <__TEXT_REGION_LENGTH__+0x70027c>
     e26:	50 91 7d 02 	lds	r21, 0x027D	; 0x80027d <__TEXT_REGION_LENGTH__+0x70027d>
     e2a:	e0 91 90 23 	lds	r30, 0x2390	; 0x802390 <adcb_callback>
     e2e:	f0 91 91 23 	lds	r31, 0x2391	; 0x802391 <adcb_callback+0x1>
     e32:	68 e0       	ldi	r22, 0x08	; 8
     e34:	80 e4       	ldi	r24, 0x40	; 64
     e36:	92 e0       	ldi	r25, 0x02	; 2
     e38:	19 95       	eicall
}
     e3a:	ff 91       	pop	r31
     e3c:	ef 91       	pop	r30
     e3e:	bf 91       	pop	r27
     e40:	af 91       	pop	r26
     e42:	9f 91       	pop	r25
     e44:	8f 91       	pop	r24
     e46:	7f 91       	pop	r23
     e48:	6f 91       	pop	r22
     e4a:	5f 91       	pop	r21
     e4c:	4f 91       	pop	r20
     e4e:	3f 91       	pop	r19
     e50:	2f 91       	pop	r18
     e52:	0f 90       	pop	r0
     e54:	0b be       	out	0x3b, r0	; 59
     e56:	0f 90       	pop	r0
     e58:	09 be       	out	0x39, r0	; 57
     e5a:	0f 90       	pop	r0
     e5c:	08 be       	out	0x38, r0	; 56
     e5e:	0f 90       	pop	r0
     e60:	0f be       	out	0x3f, r0	; 63
     e62:	0f 90       	pop	r0
     e64:	1f 90       	pop	r1
     e66:	18 95       	reti

00000e68 <ccp_write_io>:

	PUBLIC_FUNCTION(ccp_write_io)

#if defined(__GNUC__)

	out     RAMPZ, r1               // Reset bits 23:16 of Z
     e68:	1b be       	out	0x3b, r1	; 59
	movw    r30, r24                // Load addr into Z
     e6a:	fc 01       	movw	r30, r24
	ldi     r18, CCP_IOREG          // Load magic CCP value
     e6c:	28 ed       	ldi	r18, 0xD8	; 216
	out     CCP, r18                // Start CCP handshake
     e6e:	24 bf       	out	0x34, r18	; 52
	st      Z, r22                  // Write value to I/O register
     e70:	60 83       	st	Z, r22
	ret                             // Return to caller
     e72:	08 95       	ret

00000e74 <nvm_read_byte>:
#endif

#ifndef __DOXYGEN__
	PUBLIC_FUNCTION(nvm_read_byte)
#if defined(__GNUC__)
	lds r20, NVM_CMD          ; Store NVM command register
     e74:	40 91 ca 01 	lds	r20, 0x01CA	; 0x8001ca <__TEXT_REGION_LENGTH__+0x7001ca>
	mov ZL, r22               ; Load byte index into low byte of Z.
     e78:	e6 2f       	mov	r30, r22
	mov ZH, r23               ; Load high byte into Z.
     e7a:	f7 2f       	mov	r31, r23
	sts NVM_CMD, r24          ; Load prepared command into NVM Command register.
     e7c:	80 93 ca 01 	sts	0x01CA, r24	; 0x8001ca <__TEXT_REGION_LENGTH__+0x7001ca>
	lpm r24, Z                ; Perform an LPM to read out byte
     e80:	84 91       	lpm	r24, Z
	sts NVM_CMD, r20          ; Restore NVM command register
     e82:	40 93 ca 01 	sts	0x01CA, r20	; 0x8001ca <__TEXT_REGION_LENGTH__+0x7001ca>
	sts NVM_CMD, r16          ; Load prepared command into NVM Command register.
	lpm r16, Z                ; Perform an LPM to read out byte
	sts NVM_CMD, r20          ; Restore NVM command register
#endif

	ret
     e86:	08 95       	ret

00000e88 <__vector_14>:
 *
 * This function will handle interrupt on Timer Counter CO overflow and
 * call the callback function.
 */
ISR(TCC0_OVF_vect)
{
     e88:	1f 92       	push	r1
     e8a:	0f 92       	push	r0
     e8c:	0f b6       	in	r0, 0x3f	; 63
     e8e:	0f 92       	push	r0
     e90:	11 24       	eor	r1, r1
     e92:	08 b6       	in	r0, 0x38	; 56
     e94:	0f 92       	push	r0
     e96:	18 be       	out	0x38, r1	; 56
     e98:	09 b6       	in	r0, 0x39	; 57
     e9a:	0f 92       	push	r0
     e9c:	19 be       	out	0x39, r1	; 57
     e9e:	0b b6       	in	r0, 0x3b	; 59
     ea0:	0f 92       	push	r0
     ea2:	1b be       	out	0x3b, r1	; 59
     ea4:	2f 93       	push	r18
     ea6:	3f 93       	push	r19
     ea8:	4f 93       	push	r20
     eaa:	5f 93       	push	r21
     eac:	6f 93       	push	r22
     eae:	7f 93       	push	r23
     eb0:	8f 93       	push	r24
     eb2:	9f 93       	push	r25
     eb4:	af 93       	push	r26
     eb6:	bf 93       	push	r27
     eb8:	ef 93       	push	r30
     eba:	ff 93       	push	r31
	if (tc_tcc0_ovf_callback) {
     ebc:	e0 91 d7 20 	lds	r30, 0x20D7	; 0x8020d7 <tc_tcc0_ovf_callback>
     ec0:	f0 91 d8 20 	lds	r31, 0x20D8	; 0x8020d8 <tc_tcc0_ovf_callback+0x1>
     ec4:	30 97       	sbiw	r30, 0x00	; 0
     ec6:	09 f0       	breq	.+2      	; 0xeca <__vector_14+0x42>
		tc_tcc0_ovf_callback();
     ec8:	19 95       	eicall
	}
}
     eca:	ff 91       	pop	r31
     ecc:	ef 91       	pop	r30
     ece:	bf 91       	pop	r27
     ed0:	af 91       	pop	r26
     ed2:	9f 91       	pop	r25
     ed4:	8f 91       	pop	r24
     ed6:	7f 91       	pop	r23
     ed8:	6f 91       	pop	r22
     eda:	5f 91       	pop	r21
     edc:	4f 91       	pop	r20
     ede:	3f 91       	pop	r19
     ee0:	2f 91       	pop	r18
     ee2:	0f 90       	pop	r0
     ee4:	0b be       	out	0x3b, r0	; 59
     ee6:	0f 90       	pop	r0
     ee8:	09 be       	out	0x39, r0	; 57
     eea:	0f 90       	pop	r0
     eec:	08 be       	out	0x38, r0	; 56
     eee:	0f 90       	pop	r0
     ef0:	0f be       	out	0x3f, r0	; 63
     ef2:	0f 90       	pop	r0
     ef4:	1f 90       	pop	r1
     ef6:	18 95       	reti

00000ef8 <__vector_15>:
 *
 * This function will handle interrupt on Timer Counter CO error and
 * call the callback function.
 */
ISR(TCC0_ERR_vect)
{
     ef8:	1f 92       	push	r1
     efa:	0f 92       	push	r0
     efc:	0f b6       	in	r0, 0x3f	; 63
     efe:	0f 92       	push	r0
     f00:	11 24       	eor	r1, r1
     f02:	08 b6       	in	r0, 0x38	; 56
     f04:	0f 92       	push	r0
     f06:	18 be       	out	0x38, r1	; 56
     f08:	09 b6       	in	r0, 0x39	; 57
     f0a:	0f 92       	push	r0
     f0c:	19 be       	out	0x39, r1	; 57
     f0e:	0b b6       	in	r0, 0x3b	; 59
     f10:	0f 92       	push	r0
     f12:	1b be       	out	0x3b, r1	; 59
     f14:	2f 93       	push	r18
     f16:	3f 93       	push	r19
     f18:	4f 93       	push	r20
     f1a:	5f 93       	push	r21
     f1c:	6f 93       	push	r22
     f1e:	7f 93       	push	r23
     f20:	8f 93       	push	r24
     f22:	9f 93       	push	r25
     f24:	af 93       	push	r26
     f26:	bf 93       	push	r27
     f28:	ef 93       	push	r30
     f2a:	ff 93       	push	r31
	if (tc_tcc0_err_callback) {
     f2c:	e0 91 d5 20 	lds	r30, 0x20D5	; 0x8020d5 <tc_tcc0_err_callback>
     f30:	f0 91 d6 20 	lds	r31, 0x20D6	; 0x8020d6 <tc_tcc0_err_callback+0x1>
     f34:	30 97       	sbiw	r30, 0x00	; 0
     f36:	09 f0       	breq	.+2      	; 0xf3a <__vector_15+0x42>
		tc_tcc0_err_callback();
     f38:	19 95       	eicall
	}
}
     f3a:	ff 91       	pop	r31
     f3c:	ef 91       	pop	r30
     f3e:	bf 91       	pop	r27
     f40:	af 91       	pop	r26
     f42:	9f 91       	pop	r25
     f44:	8f 91       	pop	r24
     f46:	7f 91       	pop	r23
     f48:	6f 91       	pop	r22
     f4a:	5f 91       	pop	r21
     f4c:	4f 91       	pop	r20
     f4e:	3f 91       	pop	r19
     f50:	2f 91       	pop	r18
     f52:	0f 90       	pop	r0
     f54:	0b be       	out	0x3b, r0	; 59
     f56:	0f 90       	pop	r0
     f58:	09 be       	out	0x39, r0	; 57
     f5a:	0f 90       	pop	r0
     f5c:	08 be       	out	0x38, r0	; 56
     f5e:	0f 90       	pop	r0
     f60:	0f be       	out	0x3f, r0	; 63
     f62:	0f 90       	pop	r0
     f64:	1f 90       	pop	r1
     f66:	18 95       	reti

00000f68 <__vector_16>:
 *
 * This function will handle interrupt on Timer Counter CO Compare/CaptureA and
 * call the callback function.
 */
ISR(TCC0_CCA_vect)
{
     f68:	1f 92       	push	r1
     f6a:	0f 92       	push	r0
     f6c:	0f b6       	in	r0, 0x3f	; 63
     f6e:	0f 92       	push	r0
     f70:	11 24       	eor	r1, r1
     f72:	08 b6       	in	r0, 0x38	; 56
     f74:	0f 92       	push	r0
     f76:	18 be       	out	0x38, r1	; 56
     f78:	09 b6       	in	r0, 0x39	; 57
     f7a:	0f 92       	push	r0
     f7c:	19 be       	out	0x39, r1	; 57
     f7e:	0b b6       	in	r0, 0x3b	; 59
     f80:	0f 92       	push	r0
     f82:	1b be       	out	0x3b, r1	; 59
     f84:	2f 93       	push	r18
     f86:	3f 93       	push	r19
     f88:	4f 93       	push	r20
     f8a:	5f 93       	push	r21
     f8c:	6f 93       	push	r22
     f8e:	7f 93       	push	r23
     f90:	8f 93       	push	r24
     f92:	9f 93       	push	r25
     f94:	af 93       	push	r26
     f96:	bf 93       	push	r27
     f98:	ef 93       	push	r30
     f9a:	ff 93       	push	r31
	if (tc_tcc0_cca_callback) {
     f9c:	e0 91 d3 20 	lds	r30, 0x20D3	; 0x8020d3 <tc_tcc0_cca_callback>
     fa0:	f0 91 d4 20 	lds	r31, 0x20D4	; 0x8020d4 <tc_tcc0_cca_callback+0x1>
     fa4:	30 97       	sbiw	r30, 0x00	; 0
     fa6:	09 f0       	breq	.+2      	; 0xfaa <__vector_16+0x42>
		tc_tcc0_cca_callback();
     fa8:	19 95       	eicall
	}
}
     faa:	ff 91       	pop	r31
     fac:	ef 91       	pop	r30
     fae:	bf 91       	pop	r27
     fb0:	af 91       	pop	r26
     fb2:	9f 91       	pop	r25
     fb4:	8f 91       	pop	r24
     fb6:	7f 91       	pop	r23
     fb8:	6f 91       	pop	r22
     fba:	5f 91       	pop	r21
     fbc:	4f 91       	pop	r20
     fbe:	3f 91       	pop	r19
     fc0:	2f 91       	pop	r18
     fc2:	0f 90       	pop	r0
     fc4:	0b be       	out	0x3b, r0	; 59
     fc6:	0f 90       	pop	r0
     fc8:	09 be       	out	0x39, r0	; 57
     fca:	0f 90       	pop	r0
     fcc:	08 be       	out	0x38, r0	; 56
     fce:	0f 90       	pop	r0
     fd0:	0f be       	out	0x3f, r0	; 63
     fd2:	0f 90       	pop	r0
     fd4:	1f 90       	pop	r1
     fd6:	18 95       	reti

00000fd8 <__vector_17>:
 *
 * This function will handle interrupt on Timer Counter CO Compare/CaptureB and
 * call the callback function.
 */
ISR(TCC0_CCB_vect)
{
     fd8:	1f 92       	push	r1
     fda:	0f 92       	push	r0
     fdc:	0f b6       	in	r0, 0x3f	; 63
     fde:	0f 92       	push	r0
     fe0:	11 24       	eor	r1, r1
     fe2:	08 b6       	in	r0, 0x38	; 56
     fe4:	0f 92       	push	r0
     fe6:	18 be       	out	0x38, r1	; 56
     fe8:	09 b6       	in	r0, 0x39	; 57
     fea:	0f 92       	push	r0
     fec:	19 be       	out	0x39, r1	; 57
     fee:	0b b6       	in	r0, 0x3b	; 59
     ff0:	0f 92       	push	r0
     ff2:	1b be       	out	0x3b, r1	; 59
     ff4:	2f 93       	push	r18
     ff6:	3f 93       	push	r19
     ff8:	4f 93       	push	r20
     ffa:	5f 93       	push	r21
     ffc:	6f 93       	push	r22
     ffe:	7f 93       	push	r23
    1000:	8f 93       	push	r24
    1002:	9f 93       	push	r25
    1004:	af 93       	push	r26
    1006:	bf 93       	push	r27
    1008:	ef 93       	push	r30
    100a:	ff 93       	push	r31
	if (tc_tcc0_ccb_callback) {
    100c:	e0 91 d1 20 	lds	r30, 0x20D1	; 0x8020d1 <tc_tcc0_ccb_callback>
    1010:	f0 91 d2 20 	lds	r31, 0x20D2	; 0x8020d2 <tc_tcc0_ccb_callback+0x1>
    1014:	30 97       	sbiw	r30, 0x00	; 0
    1016:	09 f0       	breq	.+2      	; 0x101a <__vector_17+0x42>
		tc_tcc0_ccb_callback();
    1018:	19 95       	eicall
	}
}
    101a:	ff 91       	pop	r31
    101c:	ef 91       	pop	r30
    101e:	bf 91       	pop	r27
    1020:	af 91       	pop	r26
    1022:	9f 91       	pop	r25
    1024:	8f 91       	pop	r24
    1026:	7f 91       	pop	r23
    1028:	6f 91       	pop	r22
    102a:	5f 91       	pop	r21
    102c:	4f 91       	pop	r20
    102e:	3f 91       	pop	r19
    1030:	2f 91       	pop	r18
    1032:	0f 90       	pop	r0
    1034:	0b be       	out	0x3b, r0	; 59
    1036:	0f 90       	pop	r0
    1038:	09 be       	out	0x39, r0	; 57
    103a:	0f 90       	pop	r0
    103c:	08 be       	out	0x38, r0	; 56
    103e:	0f 90       	pop	r0
    1040:	0f be       	out	0x3f, r0	; 63
    1042:	0f 90       	pop	r0
    1044:	1f 90       	pop	r1
    1046:	18 95       	reti

00001048 <__vector_18>:
 *
 * This function will handle interrupt on Timer Counter CO Compare/CaptureC and
 * call the callback function.
 */
ISR(TCC0_CCC_vect)
{
    1048:	1f 92       	push	r1
    104a:	0f 92       	push	r0
    104c:	0f b6       	in	r0, 0x3f	; 63
    104e:	0f 92       	push	r0
    1050:	11 24       	eor	r1, r1
    1052:	08 b6       	in	r0, 0x38	; 56
    1054:	0f 92       	push	r0
    1056:	18 be       	out	0x38, r1	; 56
    1058:	09 b6       	in	r0, 0x39	; 57
    105a:	0f 92       	push	r0
    105c:	19 be       	out	0x39, r1	; 57
    105e:	0b b6       	in	r0, 0x3b	; 59
    1060:	0f 92       	push	r0
    1062:	1b be       	out	0x3b, r1	; 59
    1064:	2f 93       	push	r18
    1066:	3f 93       	push	r19
    1068:	4f 93       	push	r20
    106a:	5f 93       	push	r21
    106c:	6f 93       	push	r22
    106e:	7f 93       	push	r23
    1070:	8f 93       	push	r24
    1072:	9f 93       	push	r25
    1074:	af 93       	push	r26
    1076:	bf 93       	push	r27
    1078:	ef 93       	push	r30
    107a:	ff 93       	push	r31
	if (tc_tcc0_ccc_callback) {
    107c:	e0 91 cf 20 	lds	r30, 0x20CF	; 0x8020cf <tc_tcc0_ccc_callback>
    1080:	f0 91 d0 20 	lds	r31, 0x20D0	; 0x8020d0 <tc_tcc0_ccc_callback+0x1>
    1084:	30 97       	sbiw	r30, 0x00	; 0
    1086:	09 f0       	breq	.+2      	; 0x108a <__vector_18+0x42>
		tc_tcc0_ccc_callback();
    1088:	19 95       	eicall
	}
}
    108a:	ff 91       	pop	r31
    108c:	ef 91       	pop	r30
    108e:	bf 91       	pop	r27
    1090:	af 91       	pop	r26
    1092:	9f 91       	pop	r25
    1094:	8f 91       	pop	r24
    1096:	7f 91       	pop	r23
    1098:	6f 91       	pop	r22
    109a:	5f 91       	pop	r21
    109c:	4f 91       	pop	r20
    109e:	3f 91       	pop	r19
    10a0:	2f 91       	pop	r18
    10a2:	0f 90       	pop	r0
    10a4:	0b be       	out	0x3b, r0	; 59
    10a6:	0f 90       	pop	r0
    10a8:	09 be       	out	0x39, r0	; 57
    10aa:	0f 90       	pop	r0
    10ac:	08 be       	out	0x38, r0	; 56
    10ae:	0f 90       	pop	r0
    10b0:	0f be       	out	0x3f, r0	; 63
    10b2:	0f 90       	pop	r0
    10b4:	1f 90       	pop	r1
    10b6:	18 95       	reti

000010b8 <__vector_19>:
 *
 * This function will handle interrupt on Timer Counter CO Compare/CaptureD and
 * call the callback function.
 */
ISR(TCC0_CCD_vect)
{
    10b8:	1f 92       	push	r1
    10ba:	0f 92       	push	r0
    10bc:	0f b6       	in	r0, 0x3f	; 63
    10be:	0f 92       	push	r0
    10c0:	11 24       	eor	r1, r1
    10c2:	08 b6       	in	r0, 0x38	; 56
    10c4:	0f 92       	push	r0
    10c6:	18 be       	out	0x38, r1	; 56
    10c8:	09 b6       	in	r0, 0x39	; 57
    10ca:	0f 92       	push	r0
    10cc:	19 be       	out	0x39, r1	; 57
    10ce:	0b b6       	in	r0, 0x3b	; 59
    10d0:	0f 92       	push	r0
    10d2:	1b be       	out	0x3b, r1	; 59
    10d4:	2f 93       	push	r18
    10d6:	3f 93       	push	r19
    10d8:	4f 93       	push	r20
    10da:	5f 93       	push	r21
    10dc:	6f 93       	push	r22
    10de:	7f 93       	push	r23
    10e0:	8f 93       	push	r24
    10e2:	9f 93       	push	r25
    10e4:	af 93       	push	r26
    10e6:	bf 93       	push	r27
    10e8:	ef 93       	push	r30
    10ea:	ff 93       	push	r31
	if (tc_tcc0_ccd_callback) {
    10ec:	e0 91 cd 20 	lds	r30, 0x20CD	; 0x8020cd <tc_tcc0_ccd_callback>
    10f0:	f0 91 ce 20 	lds	r31, 0x20CE	; 0x8020ce <tc_tcc0_ccd_callback+0x1>
    10f4:	30 97       	sbiw	r30, 0x00	; 0
    10f6:	09 f0       	breq	.+2      	; 0x10fa <__vector_19+0x42>
		tc_tcc0_ccd_callback();
    10f8:	19 95       	eicall
	}
}
    10fa:	ff 91       	pop	r31
    10fc:	ef 91       	pop	r30
    10fe:	bf 91       	pop	r27
    1100:	af 91       	pop	r26
    1102:	9f 91       	pop	r25
    1104:	8f 91       	pop	r24
    1106:	7f 91       	pop	r23
    1108:	6f 91       	pop	r22
    110a:	5f 91       	pop	r21
    110c:	4f 91       	pop	r20
    110e:	3f 91       	pop	r19
    1110:	2f 91       	pop	r18
    1112:	0f 90       	pop	r0
    1114:	0b be       	out	0x3b, r0	; 59
    1116:	0f 90       	pop	r0
    1118:	09 be       	out	0x39, r0	; 57
    111a:	0f 90       	pop	r0
    111c:	08 be       	out	0x38, r0	; 56
    111e:	0f 90       	pop	r0
    1120:	0f be       	out	0x3f, r0	; 63
    1122:	0f 90       	pop	r0
    1124:	1f 90       	pop	r1
    1126:	18 95       	reti

00001128 <__vector_20>:
 *
 * This function will handle interrupt on Timer Counter C1 overflow and
 * call the callback function.
 */
ISR(TCC1_OVF_vect)
{
    1128:	1f 92       	push	r1
    112a:	0f 92       	push	r0
    112c:	0f b6       	in	r0, 0x3f	; 63
    112e:	0f 92       	push	r0
    1130:	11 24       	eor	r1, r1
    1132:	08 b6       	in	r0, 0x38	; 56
    1134:	0f 92       	push	r0
    1136:	18 be       	out	0x38, r1	; 56
    1138:	09 b6       	in	r0, 0x39	; 57
    113a:	0f 92       	push	r0
    113c:	19 be       	out	0x39, r1	; 57
    113e:	0b b6       	in	r0, 0x3b	; 59
    1140:	0f 92       	push	r0
    1142:	1b be       	out	0x3b, r1	; 59
    1144:	2f 93       	push	r18
    1146:	3f 93       	push	r19
    1148:	4f 93       	push	r20
    114a:	5f 93       	push	r21
    114c:	6f 93       	push	r22
    114e:	7f 93       	push	r23
    1150:	8f 93       	push	r24
    1152:	9f 93       	push	r25
    1154:	af 93       	push	r26
    1156:	bf 93       	push	r27
    1158:	ef 93       	push	r30
    115a:	ff 93       	push	r31
	if (tc_tcc1_ovf_callback) {
    115c:	e0 91 cb 20 	lds	r30, 0x20CB	; 0x8020cb <tc_tcc1_ovf_callback>
    1160:	f0 91 cc 20 	lds	r31, 0x20CC	; 0x8020cc <tc_tcc1_ovf_callback+0x1>
    1164:	30 97       	sbiw	r30, 0x00	; 0
    1166:	09 f0       	breq	.+2      	; 0x116a <__vector_20+0x42>
		tc_tcc1_ovf_callback();
    1168:	19 95       	eicall
	}
}
    116a:	ff 91       	pop	r31
    116c:	ef 91       	pop	r30
    116e:	bf 91       	pop	r27
    1170:	af 91       	pop	r26
    1172:	9f 91       	pop	r25
    1174:	8f 91       	pop	r24
    1176:	7f 91       	pop	r23
    1178:	6f 91       	pop	r22
    117a:	5f 91       	pop	r21
    117c:	4f 91       	pop	r20
    117e:	3f 91       	pop	r19
    1180:	2f 91       	pop	r18
    1182:	0f 90       	pop	r0
    1184:	0b be       	out	0x3b, r0	; 59
    1186:	0f 90       	pop	r0
    1188:	09 be       	out	0x39, r0	; 57
    118a:	0f 90       	pop	r0
    118c:	08 be       	out	0x38, r0	; 56
    118e:	0f 90       	pop	r0
    1190:	0f be       	out	0x3f, r0	; 63
    1192:	0f 90       	pop	r0
    1194:	1f 90       	pop	r1
    1196:	18 95       	reti

00001198 <__vector_21>:
 *
 * This function will handle interrupt on Timer Counter C1 error and
 * call the callback function.
 */
ISR(TCC1_ERR_vect)
{
    1198:	1f 92       	push	r1
    119a:	0f 92       	push	r0
    119c:	0f b6       	in	r0, 0x3f	; 63
    119e:	0f 92       	push	r0
    11a0:	11 24       	eor	r1, r1
    11a2:	08 b6       	in	r0, 0x38	; 56
    11a4:	0f 92       	push	r0
    11a6:	18 be       	out	0x38, r1	; 56
    11a8:	09 b6       	in	r0, 0x39	; 57
    11aa:	0f 92       	push	r0
    11ac:	19 be       	out	0x39, r1	; 57
    11ae:	0b b6       	in	r0, 0x3b	; 59
    11b0:	0f 92       	push	r0
    11b2:	1b be       	out	0x3b, r1	; 59
    11b4:	2f 93       	push	r18
    11b6:	3f 93       	push	r19
    11b8:	4f 93       	push	r20
    11ba:	5f 93       	push	r21
    11bc:	6f 93       	push	r22
    11be:	7f 93       	push	r23
    11c0:	8f 93       	push	r24
    11c2:	9f 93       	push	r25
    11c4:	af 93       	push	r26
    11c6:	bf 93       	push	r27
    11c8:	ef 93       	push	r30
    11ca:	ff 93       	push	r31
	if (tc_tcc1_err_callback) {
    11cc:	e0 91 c9 20 	lds	r30, 0x20C9	; 0x8020c9 <tc_tcc1_err_callback>
    11d0:	f0 91 ca 20 	lds	r31, 0x20CA	; 0x8020ca <tc_tcc1_err_callback+0x1>
    11d4:	30 97       	sbiw	r30, 0x00	; 0
    11d6:	09 f0       	breq	.+2      	; 0x11da <__vector_21+0x42>
		tc_tcc1_err_callback();
    11d8:	19 95       	eicall
	}
}
    11da:	ff 91       	pop	r31
    11dc:	ef 91       	pop	r30
    11de:	bf 91       	pop	r27
    11e0:	af 91       	pop	r26
    11e2:	9f 91       	pop	r25
    11e4:	8f 91       	pop	r24
    11e6:	7f 91       	pop	r23
    11e8:	6f 91       	pop	r22
    11ea:	5f 91       	pop	r21
    11ec:	4f 91       	pop	r20
    11ee:	3f 91       	pop	r19
    11f0:	2f 91       	pop	r18
    11f2:	0f 90       	pop	r0
    11f4:	0b be       	out	0x3b, r0	; 59
    11f6:	0f 90       	pop	r0
    11f8:	09 be       	out	0x39, r0	; 57
    11fa:	0f 90       	pop	r0
    11fc:	08 be       	out	0x38, r0	; 56
    11fe:	0f 90       	pop	r0
    1200:	0f be       	out	0x3f, r0	; 63
    1202:	0f 90       	pop	r0
    1204:	1f 90       	pop	r1
    1206:	18 95       	reti

00001208 <__vector_22>:
 *
 * This function will handle interrupt on Timer Counter C1 Compare/CaptureA and
 * call the callback function.
 */
ISR(TCC1_CCA_vect)
{
    1208:	1f 92       	push	r1
    120a:	0f 92       	push	r0
    120c:	0f b6       	in	r0, 0x3f	; 63
    120e:	0f 92       	push	r0
    1210:	11 24       	eor	r1, r1
    1212:	08 b6       	in	r0, 0x38	; 56
    1214:	0f 92       	push	r0
    1216:	18 be       	out	0x38, r1	; 56
    1218:	09 b6       	in	r0, 0x39	; 57
    121a:	0f 92       	push	r0
    121c:	19 be       	out	0x39, r1	; 57
    121e:	0b b6       	in	r0, 0x3b	; 59
    1220:	0f 92       	push	r0
    1222:	1b be       	out	0x3b, r1	; 59
    1224:	2f 93       	push	r18
    1226:	3f 93       	push	r19
    1228:	4f 93       	push	r20
    122a:	5f 93       	push	r21
    122c:	6f 93       	push	r22
    122e:	7f 93       	push	r23
    1230:	8f 93       	push	r24
    1232:	9f 93       	push	r25
    1234:	af 93       	push	r26
    1236:	bf 93       	push	r27
    1238:	ef 93       	push	r30
    123a:	ff 93       	push	r31
	if (tc_tcc1_cca_callback) {
    123c:	e0 91 c7 20 	lds	r30, 0x20C7	; 0x8020c7 <tc_tcc1_cca_callback>
    1240:	f0 91 c8 20 	lds	r31, 0x20C8	; 0x8020c8 <tc_tcc1_cca_callback+0x1>
    1244:	30 97       	sbiw	r30, 0x00	; 0
    1246:	09 f0       	breq	.+2      	; 0x124a <__vector_22+0x42>
		tc_tcc1_cca_callback();
    1248:	19 95       	eicall
	}
}
    124a:	ff 91       	pop	r31
    124c:	ef 91       	pop	r30
    124e:	bf 91       	pop	r27
    1250:	af 91       	pop	r26
    1252:	9f 91       	pop	r25
    1254:	8f 91       	pop	r24
    1256:	7f 91       	pop	r23
    1258:	6f 91       	pop	r22
    125a:	5f 91       	pop	r21
    125c:	4f 91       	pop	r20
    125e:	3f 91       	pop	r19
    1260:	2f 91       	pop	r18
    1262:	0f 90       	pop	r0
    1264:	0b be       	out	0x3b, r0	; 59
    1266:	0f 90       	pop	r0
    1268:	09 be       	out	0x39, r0	; 57
    126a:	0f 90       	pop	r0
    126c:	08 be       	out	0x38, r0	; 56
    126e:	0f 90       	pop	r0
    1270:	0f be       	out	0x3f, r0	; 63
    1272:	0f 90       	pop	r0
    1274:	1f 90       	pop	r1
    1276:	18 95       	reti

00001278 <__vector_23>:
 *
 * This function will handle interrupt on Timer Counter C1 Compare/CaptureB and
 * call the callback function.
 */
ISR(TCC1_CCB_vect)
{
    1278:	1f 92       	push	r1
    127a:	0f 92       	push	r0
    127c:	0f b6       	in	r0, 0x3f	; 63
    127e:	0f 92       	push	r0
    1280:	11 24       	eor	r1, r1
    1282:	08 b6       	in	r0, 0x38	; 56
    1284:	0f 92       	push	r0
    1286:	18 be       	out	0x38, r1	; 56
    1288:	09 b6       	in	r0, 0x39	; 57
    128a:	0f 92       	push	r0
    128c:	19 be       	out	0x39, r1	; 57
    128e:	0b b6       	in	r0, 0x3b	; 59
    1290:	0f 92       	push	r0
    1292:	1b be       	out	0x3b, r1	; 59
    1294:	2f 93       	push	r18
    1296:	3f 93       	push	r19
    1298:	4f 93       	push	r20
    129a:	5f 93       	push	r21
    129c:	6f 93       	push	r22
    129e:	7f 93       	push	r23
    12a0:	8f 93       	push	r24
    12a2:	9f 93       	push	r25
    12a4:	af 93       	push	r26
    12a6:	bf 93       	push	r27
    12a8:	ef 93       	push	r30
    12aa:	ff 93       	push	r31
	if (tc_tcc1_ccb_callback) {
    12ac:	e0 91 c5 20 	lds	r30, 0x20C5	; 0x8020c5 <tc_tcc1_ccb_callback>
    12b0:	f0 91 c6 20 	lds	r31, 0x20C6	; 0x8020c6 <tc_tcc1_ccb_callback+0x1>
    12b4:	30 97       	sbiw	r30, 0x00	; 0
    12b6:	09 f0       	breq	.+2      	; 0x12ba <__vector_23+0x42>
		tc_tcc1_ccb_callback();
    12b8:	19 95       	eicall
	}
}
    12ba:	ff 91       	pop	r31
    12bc:	ef 91       	pop	r30
    12be:	bf 91       	pop	r27
    12c0:	af 91       	pop	r26
    12c2:	9f 91       	pop	r25
    12c4:	8f 91       	pop	r24
    12c6:	7f 91       	pop	r23
    12c8:	6f 91       	pop	r22
    12ca:	5f 91       	pop	r21
    12cc:	4f 91       	pop	r20
    12ce:	3f 91       	pop	r19
    12d0:	2f 91       	pop	r18
    12d2:	0f 90       	pop	r0
    12d4:	0b be       	out	0x3b, r0	; 59
    12d6:	0f 90       	pop	r0
    12d8:	09 be       	out	0x39, r0	; 57
    12da:	0f 90       	pop	r0
    12dc:	08 be       	out	0x38, r0	; 56
    12de:	0f 90       	pop	r0
    12e0:	0f be       	out	0x3f, r0	; 63
    12e2:	0f 90       	pop	r0
    12e4:	1f 90       	pop	r1
    12e6:	18 95       	reti

000012e8 <__vector_77>:
 *
 * This function will handle interrupt on Timer Counter D0 overflow and
 * call the callback function.
 */
ISR(TCD0_OVF_vect)
{
    12e8:	1f 92       	push	r1
    12ea:	0f 92       	push	r0
    12ec:	0f b6       	in	r0, 0x3f	; 63
    12ee:	0f 92       	push	r0
    12f0:	11 24       	eor	r1, r1
    12f2:	08 b6       	in	r0, 0x38	; 56
    12f4:	0f 92       	push	r0
    12f6:	18 be       	out	0x38, r1	; 56
    12f8:	09 b6       	in	r0, 0x39	; 57
    12fa:	0f 92       	push	r0
    12fc:	19 be       	out	0x39, r1	; 57
    12fe:	0b b6       	in	r0, 0x3b	; 59
    1300:	0f 92       	push	r0
    1302:	1b be       	out	0x3b, r1	; 59
    1304:	2f 93       	push	r18
    1306:	3f 93       	push	r19
    1308:	4f 93       	push	r20
    130a:	5f 93       	push	r21
    130c:	6f 93       	push	r22
    130e:	7f 93       	push	r23
    1310:	8f 93       	push	r24
    1312:	9f 93       	push	r25
    1314:	af 93       	push	r26
    1316:	bf 93       	push	r27
    1318:	ef 93       	push	r30
    131a:	ff 93       	push	r31
	if (tc_tcd0_ovf_callback) {
    131c:	e0 91 c3 20 	lds	r30, 0x20C3	; 0x8020c3 <tc_tcd0_ovf_callback>
    1320:	f0 91 c4 20 	lds	r31, 0x20C4	; 0x8020c4 <tc_tcd0_ovf_callback+0x1>
    1324:	30 97       	sbiw	r30, 0x00	; 0
    1326:	09 f0       	breq	.+2      	; 0x132a <__vector_77+0x42>
		tc_tcd0_ovf_callback();
    1328:	19 95       	eicall
	}
}
    132a:	ff 91       	pop	r31
    132c:	ef 91       	pop	r30
    132e:	bf 91       	pop	r27
    1330:	af 91       	pop	r26
    1332:	9f 91       	pop	r25
    1334:	8f 91       	pop	r24
    1336:	7f 91       	pop	r23
    1338:	6f 91       	pop	r22
    133a:	5f 91       	pop	r21
    133c:	4f 91       	pop	r20
    133e:	3f 91       	pop	r19
    1340:	2f 91       	pop	r18
    1342:	0f 90       	pop	r0
    1344:	0b be       	out	0x3b, r0	; 59
    1346:	0f 90       	pop	r0
    1348:	09 be       	out	0x39, r0	; 57
    134a:	0f 90       	pop	r0
    134c:	08 be       	out	0x38, r0	; 56
    134e:	0f 90       	pop	r0
    1350:	0f be       	out	0x3f, r0	; 63
    1352:	0f 90       	pop	r0
    1354:	1f 90       	pop	r1
    1356:	18 95       	reti

00001358 <__vector_78>:
 *
 * This function will handle interrupt on Timer Counter D0 error and
 * call the callback function.
 */
ISR(TCD0_ERR_vect)
{
    1358:	1f 92       	push	r1
    135a:	0f 92       	push	r0
    135c:	0f b6       	in	r0, 0x3f	; 63
    135e:	0f 92       	push	r0
    1360:	11 24       	eor	r1, r1
    1362:	08 b6       	in	r0, 0x38	; 56
    1364:	0f 92       	push	r0
    1366:	18 be       	out	0x38, r1	; 56
    1368:	09 b6       	in	r0, 0x39	; 57
    136a:	0f 92       	push	r0
    136c:	19 be       	out	0x39, r1	; 57
    136e:	0b b6       	in	r0, 0x3b	; 59
    1370:	0f 92       	push	r0
    1372:	1b be       	out	0x3b, r1	; 59
    1374:	2f 93       	push	r18
    1376:	3f 93       	push	r19
    1378:	4f 93       	push	r20
    137a:	5f 93       	push	r21
    137c:	6f 93       	push	r22
    137e:	7f 93       	push	r23
    1380:	8f 93       	push	r24
    1382:	9f 93       	push	r25
    1384:	af 93       	push	r26
    1386:	bf 93       	push	r27
    1388:	ef 93       	push	r30
    138a:	ff 93       	push	r31
	if (tc_tcd0_err_callback) {
    138c:	e0 91 c1 20 	lds	r30, 0x20C1	; 0x8020c1 <tc_tcd0_err_callback>
    1390:	f0 91 c2 20 	lds	r31, 0x20C2	; 0x8020c2 <tc_tcd0_err_callback+0x1>
    1394:	30 97       	sbiw	r30, 0x00	; 0
    1396:	09 f0       	breq	.+2      	; 0x139a <__vector_78+0x42>
		tc_tcd0_err_callback();
    1398:	19 95       	eicall
	}
}
    139a:	ff 91       	pop	r31
    139c:	ef 91       	pop	r30
    139e:	bf 91       	pop	r27
    13a0:	af 91       	pop	r26
    13a2:	9f 91       	pop	r25
    13a4:	8f 91       	pop	r24
    13a6:	7f 91       	pop	r23
    13a8:	6f 91       	pop	r22
    13aa:	5f 91       	pop	r21
    13ac:	4f 91       	pop	r20
    13ae:	3f 91       	pop	r19
    13b0:	2f 91       	pop	r18
    13b2:	0f 90       	pop	r0
    13b4:	0b be       	out	0x3b, r0	; 59
    13b6:	0f 90       	pop	r0
    13b8:	09 be       	out	0x39, r0	; 57
    13ba:	0f 90       	pop	r0
    13bc:	08 be       	out	0x38, r0	; 56
    13be:	0f 90       	pop	r0
    13c0:	0f be       	out	0x3f, r0	; 63
    13c2:	0f 90       	pop	r0
    13c4:	1f 90       	pop	r1
    13c6:	18 95       	reti

000013c8 <__vector_79>:
 *
 * This function will handle interrupt on Timer Counter D0 Compare/CaptureA and
 * call the callback function.
 */
ISR(TCD0_CCA_vect)
{
    13c8:	1f 92       	push	r1
    13ca:	0f 92       	push	r0
    13cc:	0f b6       	in	r0, 0x3f	; 63
    13ce:	0f 92       	push	r0
    13d0:	11 24       	eor	r1, r1
    13d2:	08 b6       	in	r0, 0x38	; 56
    13d4:	0f 92       	push	r0
    13d6:	18 be       	out	0x38, r1	; 56
    13d8:	09 b6       	in	r0, 0x39	; 57
    13da:	0f 92       	push	r0
    13dc:	19 be       	out	0x39, r1	; 57
    13de:	0b b6       	in	r0, 0x3b	; 59
    13e0:	0f 92       	push	r0
    13e2:	1b be       	out	0x3b, r1	; 59
    13e4:	2f 93       	push	r18
    13e6:	3f 93       	push	r19
    13e8:	4f 93       	push	r20
    13ea:	5f 93       	push	r21
    13ec:	6f 93       	push	r22
    13ee:	7f 93       	push	r23
    13f0:	8f 93       	push	r24
    13f2:	9f 93       	push	r25
    13f4:	af 93       	push	r26
    13f6:	bf 93       	push	r27
    13f8:	ef 93       	push	r30
    13fa:	ff 93       	push	r31
	if (tc_tcd0_cca_callback) {
    13fc:	e0 91 bf 20 	lds	r30, 0x20BF	; 0x8020bf <tc_tcd0_cca_callback>
    1400:	f0 91 c0 20 	lds	r31, 0x20C0	; 0x8020c0 <tc_tcd0_cca_callback+0x1>
    1404:	30 97       	sbiw	r30, 0x00	; 0
    1406:	09 f0       	breq	.+2      	; 0x140a <__vector_79+0x42>
		tc_tcd0_cca_callback();
    1408:	19 95       	eicall
	}
}
    140a:	ff 91       	pop	r31
    140c:	ef 91       	pop	r30
    140e:	bf 91       	pop	r27
    1410:	af 91       	pop	r26
    1412:	9f 91       	pop	r25
    1414:	8f 91       	pop	r24
    1416:	7f 91       	pop	r23
    1418:	6f 91       	pop	r22
    141a:	5f 91       	pop	r21
    141c:	4f 91       	pop	r20
    141e:	3f 91       	pop	r19
    1420:	2f 91       	pop	r18
    1422:	0f 90       	pop	r0
    1424:	0b be       	out	0x3b, r0	; 59
    1426:	0f 90       	pop	r0
    1428:	09 be       	out	0x39, r0	; 57
    142a:	0f 90       	pop	r0
    142c:	08 be       	out	0x38, r0	; 56
    142e:	0f 90       	pop	r0
    1430:	0f be       	out	0x3f, r0	; 63
    1432:	0f 90       	pop	r0
    1434:	1f 90       	pop	r1
    1436:	18 95       	reti

00001438 <__vector_80>:
 *
 * This function will handle interrupt on Timer Counter D0 Compare/CaptureB and
 * call the callback function.
 */
ISR(TCD0_CCB_vect)
{
    1438:	1f 92       	push	r1
    143a:	0f 92       	push	r0
    143c:	0f b6       	in	r0, 0x3f	; 63
    143e:	0f 92       	push	r0
    1440:	11 24       	eor	r1, r1
    1442:	08 b6       	in	r0, 0x38	; 56
    1444:	0f 92       	push	r0
    1446:	18 be       	out	0x38, r1	; 56
    1448:	09 b6       	in	r0, 0x39	; 57
    144a:	0f 92       	push	r0
    144c:	19 be       	out	0x39, r1	; 57
    144e:	0b b6       	in	r0, 0x3b	; 59
    1450:	0f 92       	push	r0
    1452:	1b be       	out	0x3b, r1	; 59
    1454:	2f 93       	push	r18
    1456:	3f 93       	push	r19
    1458:	4f 93       	push	r20
    145a:	5f 93       	push	r21
    145c:	6f 93       	push	r22
    145e:	7f 93       	push	r23
    1460:	8f 93       	push	r24
    1462:	9f 93       	push	r25
    1464:	af 93       	push	r26
    1466:	bf 93       	push	r27
    1468:	ef 93       	push	r30
    146a:	ff 93       	push	r31
	if (tc_tcd0_ccb_callback) {
    146c:	e0 91 bd 20 	lds	r30, 0x20BD	; 0x8020bd <tc_tcd0_ccb_callback>
    1470:	f0 91 be 20 	lds	r31, 0x20BE	; 0x8020be <tc_tcd0_ccb_callback+0x1>
    1474:	30 97       	sbiw	r30, 0x00	; 0
    1476:	09 f0       	breq	.+2      	; 0x147a <__vector_80+0x42>
		tc_tcd0_ccb_callback();
    1478:	19 95       	eicall
	}
}
    147a:	ff 91       	pop	r31
    147c:	ef 91       	pop	r30
    147e:	bf 91       	pop	r27
    1480:	af 91       	pop	r26
    1482:	9f 91       	pop	r25
    1484:	8f 91       	pop	r24
    1486:	7f 91       	pop	r23
    1488:	6f 91       	pop	r22
    148a:	5f 91       	pop	r21
    148c:	4f 91       	pop	r20
    148e:	3f 91       	pop	r19
    1490:	2f 91       	pop	r18
    1492:	0f 90       	pop	r0
    1494:	0b be       	out	0x3b, r0	; 59
    1496:	0f 90       	pop	r0
    1498:	09 be       	out	0x39, r0	; 57
    149a:	0f 90       	pop	r0
    149c:	08 be       	out	0x38, r0	; 56
    149e:	0f 90       	pop	r0
    14a0:	0f be       	out	0x3f, r0	; 63
    14a2:	0f 90       	pop	r0
    14a4:	1f 90       	pop	r1
    14a6:	18 95       	reti

000014a8 <__vector_81>:
 *
 * This function will handle interrupt on Timer Counter D0 Compare/CaptureC and
 * call the callback function.
 */
ISR(TCD0_CCC_vect)
{
    14a8:	1f 92       	push	r1
    14aa:	0f 92       	push	r0
    14ac:	0f b6       	in	r0, 0x3f	; 63
    14ae:	0f 92       	push	r0
    14b0:	11 24       	eor	r1, r1
    14b2:	08 b6       	in	r0, 0x38	; 56
    14b4:	0f 92       	push	r0
    14b6:	18 be       	out	0x38, r1	; 56
    14b8:	09 b6       	in	r0, 0x39	; 57
    14ba:	0f 92       	push	r0
    14bc:	19 be       	out	0x39, r1	; 57
    14be:	0b b6       	in	r0, 0x3b	; 59
    14c0:	0f 92       	push	r0
    14c2:	1b be       	out	0x3b, r1	; 59
    14c4:	2f 93       	push	r18
    14c6:	3f 93       	push	r19
    14c8:	4f 93       	push	r20
    14ca:	5f 93       	push	r21
    14cc:	6f 93       	push	r22
    14ce:	7f 93       	push	r23
    14d0:	8f 93       	push	r24
    14d2:	9f 93       	push	r25
    14d4:	af 93       	push	r26
    14d6:	bf 93       	push	r27
    14d8:	ef 93       	push	r30
    14da:	ff 93       	push	r31
	if (tc_tcd0_ccc_callback) {
    14dc:	e0 91 bb 20 	lds	r30, 0x20BB	; 0x8020bb <tc_tcd0_ccc_callback>
    14e0:	f0 91 bc 20 	lds	r31, 0x20BC	; 0x8020bc <tc_tcd0_ccc_callback+0x1>
    14e4:	30 97       	sbiw	r30, 0x00	; 0
    14e6:	09 f0       	breq	.+2      	; 0x14ea <__vector_81+0x42>
		tc_tcd0_ccc_callback();
    14e8:	19 95       	eicall
	}
}
    14ea:	ff 91       	pop	r31
    14ec:	ef 91       	pop	r30
    14ee:	bf 91       	pop	r27
    14f0:	af 91       	pop	r26
    14f2:	9f 91       	pop	r25
    14f4:	8f 91       	pop	r24
    14f6:	7f 91       	pop	r23
    14f8:	6f 91       	pop	r22
    14fa:	5f 91       	pop	r21
    14fc:	4f 91       	pop	r20
    14fe:	3f 91       	pop	r19
    1500:	2f 91       	pop	r18
    1502:	0f 90       	pop	r0
    1504:	0b be       	out	0x3b, r0	; 59
    1506:	0f 90       	pop	r0
    1508:	09 be       	out	0x39, r0	; 57
    150a:	0f 90       	pop	r0
    150c:	08 be       	out	0x38, r0	; 56
    150e:	0f 90       	pop	r0
    1510:	0f be       	out	0x3f, r0	; 63
    1512:	0f 90       	pop	r0
    1514:	1f 90       	pop	r1
    1516:	18 95       	reti

00001518 <__vector_82>:
 *
 * This function will handle interrupt on Timer Counter D0 Compare/CaptureD and
 * call the callback function.
 */
ISR(TCD0_CCD_vect)
{
    1518:	1f 92       	push	r1
    151a:	0f 92       	push	r0
    151c:	0f b6       	in	r0, 0x3f	; 63
    151e:	0f 92       	push	r0
    1520:	11 24       	eor	r1, r1
    1522:	08 b6       	in	r0, 0x38	; 56
    1524:	0f 92       	push	r0
    1526:	18 be       	out	0x38, r1	; 56
    1528:	09 b6       	in	r0, 0x39	; 57
    152a:	0f 92       	push	r0
    152c:	19 be       	out	0x39, r1	; 57
    152e:	0b b6       	in	r0, 0x3b	; 59
    1530:	0f 92       	push	r0
    1532:	1b be       	out	0x3b, r1	; 59
    1534:	2f 93       	push	r18
    1536:	3f 93       	push	r19
    1538:	4f 93       	push	r20
    153a:	5f 93       	push	r21
    153c:	6f 93       	push	r22
    153e:	7f 93       	push	r23
    1540:	8f 93       	push	r24
    1542:	9f 93       	push	r25
    1544:	af 93       	push	r26
    1546:	bf 93       	push	r27
    1548:	ef 93       	push	r30
    154a:	ff 93       	push	r31
	if (tc_tcd0_ccd_callback) {
    154c:	e0 91 b9 20 	lds	r30, 0x20B9	; 0x8020b9 <tc_tcd0_ccd_callback>
    1550:	f0 91 ba 20 	lds	r31, 0x20BA	; 0x8020ba <tc_tcd0_ccd_callback+0x1>
    1554:	30 97       	sbiw	r30, 0x00	; 0
    1556:	09 f0       	breq	.+2      	; 0x155a <__vector_82+0x42>
		tc_tcd0_ccd_callback();
    1558:	19 95       	eicall
	}
}
    155a:	ff 91       	pop	r31
    155c:	ef 91       	pop	r30
    155e:	bf 91       	pop	r27
    1560:	af 91       	pop	r26
    1562:	9f 91       	pop	r25
    1564:	8f 91       	pop	r24
    1566:	7f 91       	pop	r23
    1568:	6f 91       	pop	r22
    156a:	5f 91       	pop	r21
    156c:	4f 91       	pop	r20
    156e:	3f 91       	pop	r19
    1570:	2f 91       	pop	r18
    1572:	0f 90       	pop	r0
    1574:	0b be       	out	0x3b, r0	; 59
    1576:	0f 90       	pop	r0
    1578:	09 be       	out	0x39, r0	; 57
    157a:	0f 90       	pop	r0
    157c:	08 be       	out	0x38, r0	; 56
    157e:	0f 90       	pop	r0
    1580:	0f be       	out	0x3f, r0	; 63
    1582:	0f 90       	pop	r0
    1584:	1f 90       	pop	r1
    1586:	18 95       	reti

00001588 <__vector_83>:
 *
 * This function will handle interrupt on Timer Counter D1 overflow and
 * call the callback function.
 */
ISR(TCD1_OVF_vect)
{
    1588:	1f 92       	push	r1
    158a:	0f 92       	push	r0
    158c:	0f b6       	in	r0, 0x3f	; 63
    158e:	0f 92       	push	r0
    1590:	11 24       	eor	r1, r1
    1592:	08 b6       	in	r0, 0x38	; 56
    1594:	0f 92       	push	r0
    1596:	18 be       	out	0x38, r1	; 56
    1598:	09 b6       	in	r0, 0x39	; 57
    159a:	0f 92       	push	r0
    159c:	19 be       	out	0x39, r1	; 57
    159e:	0b b6       	in	r0, 0x3b	; 59
    15a0:	0f 92       	push	r0
    15a2:	1b be       	out	0x3b, r1	; 59
    15a4:	2f 93       	push	r18
    15a6:	3f 93       	push	r19
    15a8:	4f 93       	push	r20
    15aa:	5f 93       	push	r21
    15ac:	6f 93       	push	r22
    15ae:	7f 93       	push	r23
    15b0:	8f 93       	push	r24
    15b2:	9f 93       	push	r25
    15b4:	af 93       	push	r26
    15b6:	bf 93       	push	r27
    15b8:	ef 93       	push	r30
    15ba:	ff 93       	push	r31
	if (tc_tcd1_ovf_callback) {
    15bc:	e0 91 b7 20 	lds	r30, 0x20B7	; 0x8020b7 <tc_tcd1_ovf_callback>
    15c0:	f0 91 b8 20 	lds	r31, 0x20B8	; 0x8020b8 <tc_tcd1_ovf_callback+0x1>
    15c4:	30 97       	sbiw	r30, 0x00	; 0
    15c6:	09 f0       	breq	.+2      	; 0x15ca <__vector_83+0x42>
		tc_tcd1_ovf_callback();
    15c8:	19 95       	eicall
	}
}
    15ca:	ff 91       	pop	r31
    15cc:	ef 91       	pop	r30
    15ce:	bf 91       	pop	r27
    15d0:	af 91       	pop	r26
    15d2:	9f 91       	pop	r25
    15d4:	8f 91       	pop	r24
    15d6:	7f 91       	pop	r23
    15d8:	6f 91       	pop	r22
    15da:	5f 91       	pop	r21
    15dc:	4f 91       	pop	r20
    15de:	3f 91       	pop	r19
    15e0:	2f 91       	pop	r18
    15e2:	0f 90       	pop	r0
    15e4:	0b be       	out	0x3b, r0	; 59
    15e6:	0f 90       	pop	r0
    15e8:	09 be       	out	0x39, r0	; 57
    15ea:	0f 90       	pop	r0
    15ec:	08 be       	out	0x38, r0	; 56
    15ee:	0f 90       	pop	r0
    15f0:	0f be       	out	0x3f, r0	; 63
    15f2:	0f 90       	pop	r0
    15f4:	1f 90       	pop	r1
    15f6:	18 95       	reti

000015f8 <__vector_84>:
 *
 * This function will handle interrupt on Timer Counter D1 error and
 * call the callback function.
 */
ISR(TCD1_ERR_vect)
{
    15f8:	1f 92       	push	r1
    15fa:	0f 92       	push	r0
    15fc:	0f b6       	in	r0, 0x3f	; 63
    15fe:	0f 92       	push	r0
    1600:	11 24       	eor	r1, r1
    1602:	08 b6       	in	r0, 0x38	; 56
    1604:	0f 92       	push	r0
    1606:	18 be       	out	0x38, r1	; 56
    1608:	09 b6       	in	r0, 0x39	; 57
    160a:	0f 92       	push	r0
    160c:	19 be       	out	0x39, r1	; 57
    160e:	0b b6       	in	r0, 0x3b	; 59
    1610:	0f 92       	push	r0
    1612:	1b be       	out	0x3b, r1	; 59
    1614:	2f 93       	push	r18
    1616:	3f 93       	push	r19
    1618:	4f 93       	push	r20
    161a:	5f 93       	push	r21
    161c:	6f 93       	push	r22
    161e:	7f 93       	push	r23
    1620:	8f 93       	push	r24
    1622:	9f 93       	push	r25
    1624:	af 93       	push	r26
    1626:	bf 93       	push	r27
    1628:	ef 93       	push	r30
    162a:	ff 93       	push	r31
	if (tc_tcd1_err_callback) {
    162c:	e0 91 b5 20 	lds	r30, 0x20B5	; 0x8020b5 <tc_tcd1_err_callback>
    1630:	f0 91 b6 20 	lds	r31, 0x20B6	; 0x8020b6 <tc_tcd1_err_callback+0x1>
    1634:	30 97       	sbiw	r30, 0x00	; 0
    1636:	09 f0       	breq	.+2      	; 0x163a <__vector_84+0x42>
		tc_tcd1_err_callback();
    1638:	19 95       	eicall
	}
}
    163a:	ff 91       	pop	r31
    163c:	ef 91       	pop	r30
    163e:	bf 91       	pop	r27
    1640:	af 91       	pop	r26
    1642:	9f 91       	pop	r25
    1644:	8f 91       	pop	r24
    1646:	7f 91       	pop	r23
    1648:	6f 91       	pop	r22
    164a:	5f 91       	pop	r21
    164c:	4f 91       	pop	r20
    164e:	3f 91       	pop	r19
    1650:	2f 91       	pop	r18
    1652:	0f 90       	pop	r0
    1654:	0b be       	out	0x3b, r0	; 59
    1656:	0f 90       	pop	r0
    1658:	09 be       	out	0x39, r0	; 57
    165a:	0f 90       	pop	r0
    165c:	08 be       	out	0x38, r0	; 56
    165e:	0f 90       	pop	r0
    1660:	0f be       	out	0x3f, r0	; 63
    1662:	0f 90       	pop	r0
    1664:	1f 90       	pop	r1
    1666:	18 95       	reti

00001668 <__vector_85>:
 *
 * This function will handle interrupt on Timer Counter D1 Compare/CaptureA and
 * call the callback function.
 */
ISR(TCD1_CCA_vect)
{
    1668:	1f 92       	push	r1
    166a:	0f 92       	push	r0
    166c:	0f b6       	in	r0, 0x3f	; 63
    166e:	0f 92       	push	r0
    1670:	11 24       	eor	r1, r1
    1672:	08 b6       	in	r0, 0x38	; 56
    1674:	0f 92       	push	r0
    1676:	18 be       	out	0x38, r1	; 56
    1678:	09 b6       	in	r0, 0x39	; 57
    167a:	0f 92       	push	r0
    167c:	19 be       	out	0x39, r1	; 57
    167e:	0b b6       	in	r0, 0x3b	; 59
    1680:	0f 92       	push	r0
    1682:	1b be       	out	0x3b, r1	; 59
    1684:	2f 93       	push	r18
    1686:	3f 93       	push	r19
    1688:	4f 93       	push	r20
    168a:	5f 93       	push	r21
    168c:	6f 93       	push	r22
    168e:	7f 93       	push	r23
    1690:	8f 93       	push	r24
    1692:	9f 93       	push	r25
    1694:	af 93       	push	r26
    1696:	bf 93       	push	r27
    1698:	ef 93       	push	r30
    169a:	ff 93       	push	r31
	if (tc_tcd1_cca_callback) {
    169c:	e0 91 b3 20 	lds	r30, 0x20B3	; 0x8020b3 <tc_tcd1_cca_callback>
    16a0:	f0 91 b4 20 	lds	r31, 0x20B4	; 0x8020b4 <tc_tcd1_cca_callback+0x1>
    16a4:	30 97       	sbiw	r30, 0x00	; 0
    16a6:	09 f0       	breq	.+2      	; 0x16aa <__vector_85+0x42>
		tc_tcd1_cca_callback();
    16a8:	19 95       	eicall
	}
}
    16aa:	ff 91       	pop	r31
    16ac:	ef 91       	pop	r30
    16ae:	bf 91       	pop	r27
    16b0:	af 91       	pop	r26
    16b2:	9f 91       	pop	r25
    16b4:	8f 91       	pop	r24
    16b6:	7f 91       	pop	r23
    16b8:	6f 91       	pop	r22
    16ba:	5f 91       	pop	r21
    16bc:	4f 91       	pop	r20
    16be:	3f 91       	pop	r19
    16c0:	2f 91       	pop	r18
    16c2:	0f 90       	pop	r0
    16c4:	0b be       	out	0x3b, r0	; 59
    16c6:	0f 90       	pop	r0
    16c8:	09 be       	out	0x39, r0	; 57
    16ca:	0f 90       	pop	r0
    16cc:	08 be       	out	0x38, r0	; 56
    16ce:	0f 90       	pop	r0
    16d0:	0f be       	out	0x3f, r0	; 63
    16d2:	0f 90       	pop	r0
    16d4:	1f 90       	pop	r1
    16d6:	18 95       	reti

000016d8 <__vector_86>:
 *
 * This function will handle interrupt on Timer Counter D1 Compare/CaptureB and
 * call the callback function.
 */
ISR(TCD1_CCB_vect)
{
    16d8:	1f 92       	push	r1
    16da:	0f 92       	push	r0
    16dc:	0f b6       	in	r0, 0x3f	; 63
    16de:	0f 92       	push	r0
    16e0:	11 24       	eor	r1, r1
    16e2:	08 b6       	in	r0, 0x38	; 56
    16e4:	0f 92       	push	r0
    16e6:	18 be       	out	0x38, r1	; 56
    16e8:	09 b6       	in	r0, 0x39	; 57
    16ea:	0f 92       	push	r0
    16ec:	19 be       	out	0x39, r1	; 57
    16ee:	0b b6       	in	r0, 0x3b	; 59
    16f0:	0f 92       	push	r0
    16f2:	1b be       	out	0x3b, r1	; 59
    16f4:	2f 93       	push	r18
    16f6:	3f 93       	push	r19
    16f8:	4f 93       	push	r20
    16fa:	5f 93       	push	r21
    16fc:	6f 93       	push	r22
    16fe:	7f 93       	push	r23
    1700:	8f 93       	push	r24
    1702:	9f 93       	push	r25
    1704:	af 93       	push	r26
    1706:	bf 93       	push	r27
    1708:	ef 93       	push	r30
    170a:	ff 93       	push	r31
	if (tc_tcd1_ccb_callback) {
    170c:	e0 91 b1 20 	lds	r30, 0x20B1	; 0x8020b1 <tc_tcd1_ccb_callback>
    1710:	f0 91 b2 20 	lds	r31, 0x20B2	; 0x8020b2 <tc_tcd1_ccb_callback+0x1>
    1714:	30 97       	sbiw	r30, 0x00	; 0
    1716:	09 f0       	breq	.+2      	; 0x171a <__vector_86+0x42>
		tc_tcd1_ccb_callback();
    1718:	19 95       	eicall
	}
}
    171a:	ff 91       	pop	r31
    171c:	ef 91       	pop	r30
    171e:	bf 91       	pop	r27
    1720:	af 91       	pop	r26
    1722:	9f 91       	pop	r25
    1724:	8f 91       	pop	r24
    1726:	7f 91       	pop	r23
    1728:	6f 91       	pop	r22
    172a:	5f 91       	pop	r21
    172c:	4f 91       	pop	r20
    172e:	3f 91       	pop	r19
    1730:	2f 91       	pop	r18
    1732:	0f 90       	pop	r0
    1734:	0b be       	out	0x3b, r0	; 59
    1736:	0f 90       	pop	r0
    1738:	09 be       	out	0x39, r0	; 57
    173a:	0f 90       	pop	r0
    173c:	08 be       	out	0x38, r0	; 56
    173e:	0f 90       	pop	r0
    1740:	0f be       	out	0x3f, r0	; 63
    1742:	0f 90       	pop	r0
    1744:	1f 90       	pop	r1
    1746:	18 95       	reti

00001748 <__vector_47>:
 *
 * This function will handle interrupt on Timer Counter E0 overflow and
 * call the callback function.
 */
ISR(TCE0_OVF_vect)
{
    1748:	1f 92       	push	r1
    174a:	0f 92       	push	r0
    174c:	0f b6       	in	r0, 0x3f	; 63
    174e:	0f 92       	push	r0
    1750:	11 24       	eor	r1, r1
    1752:	08 b6       	in	r0, 0x38	; 56
    1754:	0f 92       	push	r0
    1756:	18 be       	out	0x38, r1	; 56
    1758:	09 b6       	in	r0, 0x39	; 57
    175a:	0f 92       	push	r0
    175c:	19 be       	out	0x39, r1	; 57
    175e:	0b b6       	in	r0, 0x3b	; 59
    1760:	0f 92       	push	r0
    1762:	1b be       	out	0x3b, r1	; 59
    1764:	2f 93       	push	r18
    1766:	3f 93       	push	r19
    1768:	4f 93       	push	r20
    176a:	5f 93       	push	r21
    176c:	6f 93       	push	r22
    176e:	7f 93       	push	r23
    1770:	8f 93       	push	r24
    1772:	9f 93       	push	r25
    1774:	af 93       	push	r26
    1776:	bf 93       	push	r27
    1778:	ef 93       	push	r30
    177a:	ff 93       	push	r31
	if (tc_tce0_ovf_callback) {
    177c:	e0 91 af 20 	lds	r30, 0x20AF	; 0x8020af <tc_tce0_ovf_callback>
    1780:	f0 91 b0 20 	lds	r31, 0x20B0	; 0x8020b0 <tc_tce0_ovf_callback+0x1>
    1784:	30 97       	sbiw	r30, 0x00	; 0
    1786:	09 f0       	breq	.+2      	; 0x178a <__vector_47+0x42>
		tc_tce0_ovf_callback();
    1788:	19 95       	eicall
	}
}
    178a:	ff 91       	pop	r31
    178c:	ef 91       	pop	r30
    178e:	bf 91       	pop	r27
    1790:	af 91       	pop	r26
    1792:	9f 91       	pop	r25
    1794:	8f 91       	pop	r24
    1796:	7f 91       	pop	r23
    1798:	6f 91       	pop	r22
    179a:	5f 91       	pop	r21
    179c:	4f 91       	pop	r20
    179e:	3f 91       	pop	r19
    17a0:	2f 91       	pop	r18
    17a2:	0f 90       	pop	r0
    17a4:	0b be       	out	0x3b, r0	; 59
    17a6:	0f 90       	pop	r0
    17a8:	09 be       	out	0x39, r0	; 57
    17aa:	0f 90       	pop	r0
    17ac:	08 be       	out	0x38, r0	; 56
    17ae:	0f 90       	pop	r0
    17b0:	0f be       	out	0x3f, r0	; 63
    17b2:	0f 90       	pop	r0
    17b4:	1f 90       	pop	r1
    17b6:	18 95       	reti

000017b8 <__vector_48>:
 *
 * This function will handle interrupt on Timer Counter E0 error and
 * call the callback function.
 */
ISR(TCE0_ERR_vect)
{
    17b8:	1f 92       	push	r1
    17ba:	0f 92       	push	r0
    17bc:	0f b6       	in	r0, 0x3f	; 63
    17be:	0f 92       	push	r0
    17c0:	11 24       	eor	r1, r1
    17c2:	08 b6       	in	r0, 0x38	; 56
    17c4:	0f 92       	push	r0
    17c6:	18 be       	out	0x38, r1	; 56
    17c8:	09 b6       	in	r0, 0x39	; 57
    17ca:	0f 92       	push	r0
    17cc:	19 be       	out	0x39, r1	; 57
    17ce:	0b b6       	in	r0, 0x3b	; 59
    17d0:	0f 92       	push	r0
    17d2:	1b be       	out	0x3b, r1	; 59
    17d4:	2f 93       	push	r18
    17d6:	3f 93       	push	r19
    17d8:	4f 93       	push	r20
    17da:	5f 93       	push	r21
    17dc:	6f 93       	push	r22
    17de:	7f 93       	push	r23
    17e0:	8f 93       	push	r24
    17e2:	9f 93       	push	r25
    17e4:	af 93       	push	r26
    17e6:	bf 93       	push	r27
    17e8:	ef 93       	push	r30
    17ea:	ff 93       	push	r31
	if (tc_tce0_err_callback) {
    17ec:	e0 91 ad 20 	lds	r30, 0x20AD	; 0x8020ad <tc_tce0_err_callback>
    17f0:	f0 91 ae 20 	lds	r31, 0x20AE	; 0x8020ae <tc_tce0_err_callback+0x1>
    17f4:	30 97       	sbiw	r30, 0x00	; 0
    17f6:	09 f0       	breq	.+2      	; 0x17fa <__vector_48+0x42>
		tc_tce0_err_callback();
    17f8:	19 95       	eicall
	}
}
    17fa:	ff 91       	pop	r31
    17fc:	ef 91       	pop	r30
    17fe:	bf 91       	pop	r27
    1800:	af 91       	pop	r26
    1802:	9f 91       	pop	r25
    1804:	8f 91       	pop	r24
    1806:	7f 91       	pop	r23
    1808:	6f 91       	pop	r22
    180a:	5f 91       	pop	r21
    180c:	4f 91       	pop	r20
    180e:	3f 91       	pop	r19
    1810:	2f 91       	pop	r18
    1812:	0f 90       	pop	r0
    1814:	0b be       	out	0x3b, r0	; 59
    1816:	0f 90       	pop	r0
    1818:	09 be       	out	0x39, r0	; 57
    181a:	0f 90       	pop	r0
    181c:	08 be       	out	0x38, r0	; 56
    181e:	0f 90       	pop	r0
    1820:	0f be       	out	0x3f, r0	; 63
    1822:	0f 90       	pop	r0
    1824:	1f 90       	pop	r1
    1826:	18 95       	reti

00001828 <__vector_49>:
 *
 * This function will handle interrupt on Timer Counter E0 Compare/CaptureA and
 * call the callback function.
 */
ISR(TCE0_CCA_vect)
{
    1828:	1f 92       	push	r1
    182a:	0f 92       	push	r0
    182c:	0f b6       	in	r0, 0x3f	; 63
    182e:	0f 92       	push	r0
    1830:	11 24       	eor	r1, r1
    1832:	08 b6       	in	r0, 0x38	; 56
    1834:	0f 92       	push	r0
    1836:	18 be       	out	0x38, r1	; 56
    1838:	09 b6       	in	r0, 0x39	; 57
    183a:	0f 92       	push	r0
    183c:	19 be       	out	0x39, r1	; 57
    183e:	0b b6       	in	r0, 0x3b	; 59
    1840:	0f 92       	push	r0
    1842:	1b be       	out	0x3b, r1	; 59
    1844:	2f 93       	push	r18
    1846:	3f 93       	push	r19
    1848:	4f 93       	push	r20
    184a:	5f 93       	push	r21
    184c:	6f 93       	push	r22
    184e:	7f 93       	push	r23
    1850:	8f 93       	push	r24
    1852:	9f 93       	push	r25
    1854:	af 93       	push	r26
    1856:	bf 93       	push	r27
    1858:	ef 93       	push	r30
    185a:	ff 93       	push	r31
	if (tc_tce0_cca_callback) {
    185c:	e0 91 ab 20 	lds	r30, 0x20AB	; 0x8020ab <tc_tce0_cca_callback>
    1860:	f0 91 ac 20 	lds	r31, 0x20AC	; 0x8020ac <tc_tce0_cca_callback+0x1>
    1864:	30 97       	sbiw	r30, 0x00	; 0
    1866:	09 f0       	breq	.+2      	; 0x186a <__vector_49+0x42>
		tc_tce0_cca_callback();
    1868:	19 95       	eicall
	}
}
    186a:	ff 91       	pop	r31
    186c:	ef 91       	pop	r30
    186e:	bf 91       	pop	r27
    1870:	af 91       	pop	r26
    1872:	9f 91       	pop	r25
    1874:	8f 91       	pop	r24
    1876:	7f 91       	pop	r23
    1878:	6f 91       	pop	r22
    187a:	5f 91       	pop	r21
    187c:	4f 91       	pop	r20
    187e:	3f 91       	pop	r19
    1880:	2f 91       	pop	r18
    1882:	0f 90       	pop	r0
    1884:	0b be       	out	0x3b, r0	; 59
    1886:	0f 90       	pop	r0
    1888:	09 be       	out	0x39, r0	; 57
    188a:	0f 90       	pop	r0
    188c:	08 be       	out	0x38, r0	; 56
    188e:	0f 90       	pop	r0
    1890:	0f be       	out	0x3f, r0	; 63
    1892:	0f 90       	pop	r0
    1894:	1f 90       	pop	r1
    1896:	18 95       	reti

00001898 <__vector_50>:
 *
 * This function will handle interrupt on Timer Counter E0 Compare/CaptureB and
 * call the callback function.
 */
ISR(TCE0_CCB_vect)
{
    1898:	1f 92       	push	r1
    189a:	0f 92       	push	r0
    189c:	0f b6       	in	r0, 0x3f	; 63
    189e:	0f 92       	push	r0
    18a0:	11 24       	eor	r1, r1
    18a2:	08 b6       	in	r0, 0x38	; 56
    18a4:	0f 92       	push	r0
    18a6:	18 be       	out	0x38, r1	; 56
    18a8:	09 b6       	in	r0, 0x39	; 57
    18aa:	0f 92       	push	r0
    18ac:	19 be       	out	0x39, r1	; 57
    18ae:	0b b6       	in	r0, 0x3b	; 59
    18b0:	0f 92       	push	r0
    18b2:	1b be       	out	0x3b, r1	; 59
    18b4:	2f 93       	push	r18
    18b6:	3f 93       	push	r19
    18b8:	4f 93       	push	r20
    18ba:	5f 93       	push	r21
    18bc:	6f 93       	push	r22
    18be:	7f 93       	push	r23
    18c0:	8f 93       	push	r24
    18c2:	9f 93       	push	r25
    18c4:	af 93       	push	r26
    18c6:	bf 93       	push	r27
    18c8:	ef 93       	push	r30
    18ca:	ff 93       	push	r31
	if (tc_tce0_ccb_callback) {
    18cc:	e0 91 a9 20 	lds	r30, 0x20A9	; 0x8020a9 <tc_tce0_ccb_callback>
    18d0:	f0 91 aa 20 	lds	r31, 0x20AA	; 0x8020aa <tc_tce0_ccb_callback+0x1>
    18d4:	30 97       	sbiw	r30, 0x00	; 0
    18d6:	09 f0       	breq	.+2      	; 0x18da <__vector_50+0x42>
		tc_tce0_ccb_callback();
    18d8:	19 95       	eicall
	}
}
    18da:	ff 91       	pop	r31
    18dc:	ef 91       	pop	r30
    18de:	bf 91       	pop	r27
    18e0:	af 91       	pop	r26
    18e2:	9f 91       	pop	r25
    18e4:	8f 91       	pop	r24
    18e6:	7f 91       	pop	r23
    18e8:	6f 91       	pop	r22
    18ea:	5f 91       	pop	r21
    18ec:	4f 91       	pop	r20
    18ee:	3f 91       	pop	r19
    18f0:	2f 91       	pop	r18
    18f2:	0f 90       	pop	r0
    18f4:	0b be       	out	0x3b, r0	; 59
    18f6:	0f 90       	pop	r0
    18f8:	09 be       	out	0x39, r0	; 57
    18fa:	0f 90       	pop	r0
    18fc:	08 be       	out	0x38, r0	; 56
    18fe:	0f 90       	pop	r0
    1900:	0f be       	out	0x3f, r0	; 63
    1902:	0f 90       	pop	r0
    1904:	1f 90       	pop	r1
    1906:	18 95       	reti

00001908 <__vector_51>:
 *
 * This function will handle interrupt on Timer Counter E0 Compare/CaptureC and
 * call the callback function.
 */
ISR(TCE0_CCC_vect)
{
    1908:	1f 92       	push	r1
    190a:	0f 92       	push	r0
    190c:	0f b6       	in	r0, 0x3f	; 63
    190e:	0f 92       	push	r0
    1910:	11 24       	eor	r1, r1
    1912:	08 b6       	in	r0, 0x38	; 56
    1914:	0f 92       	push	r0
    1916:	18 be       	out	0x38, r1	; 56
    1918:	09 b6       	in	r0, 0x39	; 57
    191a:	0f 92       	push	r0
    191c:	19 be       	out	0x39, r1	; 57
    191e:	0b b6       	in	r0, 0x3b	; 59
    1920:	0f 92       	push	r0
    1922:	1b be       	out	0x3b, r1	; 59
    1924:	2f 93       	push	r18
    1926:	3f 93       	push	r19
    1928:	4f 93       	push	r20
    192a:	5f 93       	push	r21
    192c:	6f 93       	push	r22
    192e:	7f 93       	push	r23
    1930:	8f 93       	push	r24
    1932:	9f 93       	push	r25
    1934:	af 93       	push	r26
    1936:	bf 93       	push	r27
    1938:	ef 93       	push	r30
    193a:	ff 93       	push	r31
	if (tc_tce0_ccc_callback) {
    193c:	e0 91 a7 20 	lds	r30, 0x20A7	; 0x8020a7 <tc_tce0_ccc_callback>
    1940:	f0 91 a8 20 	lds	r31, 0x20A8	; 0x8020a8 <tc_tce0_ccc_callback+0x1>
    1944:	30 97       	sbiw	r30, 0x00	; 0
    1946:	09 f0       	breq	.+2      	; 0x194a <__vector_51+0x42>
		tc_tce0_ccc_callback();
    1948:	19 95       	eicall
	}
}
    194a:	ff 91       	pop	r31
    194c:	ef 91       	pop	r30
    194e:	bf 91       	pop	r27
    1950:	af 91       	pop	r26
    1952:	9f 91       	pop	r25
    1954:	8f 91       	pop	r24
    1956:	7f 91       	pop	r23
    1958:	6f 91       	pop	r22
    195a:	5f 91       	pop	r21
    195c:	4f 91       	pop	r20
    195e:	3f 91       	pop	r19
    1960:	2f 91       	pop	r18
    1962:	0f 90       	pop	r0
    1964:	0b be       	out	0x3b, r0	; 59
    1966:	0f 90       	pop	r0
    1968:	09 be       	out	0x39, r0	; 57
    196a:	0f 90       	pop	r0
    196c:	08 be       	out	0x38, r0	; 56
    196e:	0f 90       	pop	r0
    1970:	0f be       	out	0x3f, r0	; 63
    1972:	0f 90       	pop	r0
    1974:	1f 90       	pop	r1
    1976:	18 95       	reti

00001978 <__vector_52>:
 *
 * This function will handle interrupt on Timer Counter E0 Compare/CaptureD and
 * call the callback function.
 */
ISR(TCE0_CCD_vect)
{
    1978:	1f 92       	push	r1
    197a:	0f 92       	push	r0
    197c:	0f b6       	in	r0, 0x3f	; 63
    197e:	0f 92       	push	r0
    1980:	11 24       	eor	r1, r1
    1982:	08 b6       	in	r0, 0x38	; 56
    1984:	0f 92       	push	r0
    1986:	18 be       	out	0x38, r1	; 56
    1988:	09 b6       	in	r0, 0x39	; 57
    198a:	0f 92       	push	r0
    198c:	19 be       	out	0x39, r1	; 57
    198e:	0b b6       	in	r0, 0x3b	; 59
    1990:	0f 92       	push	r0
    1992:	1b be       	out	0x3b, r1	; 59
    1994:	2f 93       	push	r18
    1996:	3f 93       	push	r19
    1998:	4f 93       	push	r20
    199a:	5f 93       	push	r21
    199c:	6f 93       	push	r22
    199e:	7f 93       	push	r23
    19a0:	8f 93       	push	r24
    19a2:	9f 93       	push	r25
    19a4:	af 93       	push	r26
    19a6:	bf 93       	push	r27
    19a8:	ef 93       	push	r30
    19aa:	ff 93       	push	r31
	if (tc_tce0_ccd_callback) {
    19ac:	e0 91 a5 20 	lds	r30, 0x20A5	; 0x8020a5 <tc_tce0_ccd_callback>
    19b0:	f0 91 a6 20 	lds	r31, 0x20A6	; 0x8020a6 <tc_tce0_ccd_callback+0x1>
    19b4:	30 97       	sbiw	r30, 0x00	; 0
    19b6:	09 f0       	breq	.+2      	; 0x19ba <__vector_52+0x42>
		tc_tce0_ccd_callback();
    19b8:	19 95       	eicall
	}
}
    19ba:	ff 91       	pop	r31
    19bc:	ef 91       	pop	r30
    19be:	bf 91       	pop	r27
    19c0:	af 91       	pop	r26
    19c2:	9f 91       	pop	r25
    19c4:	8f 91       	pop	r24
    19c6:	7f 91       	pop	r23
    19c8:	6f 91       	pop	r22
    19ca:	5f 91       	pop	r21
    19cc:	4f 91       	pop	r20
    19ce:	3f 91       	pop	r19
    19d0:	2f 91       	pop	r18
    19d2:	0f 90       	pop	r0
    19d4:	0b be       	out	0x3b, r0	; 59
    19d6:	0f 90       	pop	r0
    19d8:	09 be       	out	0x39, r0	; 57
    19da:	0f 90       	pop	r0
    19dc:	08 be       	out	0x38, r0	; 56
    19de:	0f 90       	pop	r0
    19e0:	0f be       	out	0x3f, r0	; 63
    19e2:	0f 90       	pop	r0
    19e4:	1f 90       	pop	r1
    19e6:	18 95       	reti

000019e8 <__vector_53>:
 *
 * This function will handle interrupt on Timer Counter E1 overflow and
 * call the callback function.
 */
ISR(TCE1_OVF_vect)
{
    19e8:	1f 92       	push	r1
    19ea:	0f 92       	push	r0
    19ec:	0f b6       	in	r0, 0x3f	; 63
    19ee:	0f 92       	push	r0
    19f0:	11 24       	eor	r1, r1
    19f2:	08 b6       	in	r0, 0x38	; 56
    19f4:	0f 92       	push	r0
    19f6:	18 be       	out	0x38, r1	; 56
    19f8:	09 b6       	in	r0, 0x39	; 57
    19fa:	0f 92       	push	r0
    19fc:	19 be       	out	0x39, r1	; 57
    19fe:	0b b6       	in	r0, 0x3b	; 59
    1a00:	0f 92       	push	r0
    1a02:	1b be       	out	0x3b, r1	; 59
    1a04:	2f 93       	push	r18
    1a06:	3f 93       	push	r19
    1a08:	4f 93       	push	r20
    1a0a:	5f 93       	push	r21
    1a0c:	6f 93       	push	r22
    1a0e:	7f 93       	push	r23
    1a10:	8f 93       	push	r24
    1a12:	9f 93       	push	r25
    1a14:	af 93       	push	r26
    1a16:	bf 93       	push	r27
    1a18:	ef 93       	push	r30
    1a1a:	ff 93       	push	r31
	if (tc_tce1_ovf_callback) {
    1a1c:	e0 91 a3 20 	lds	r30, 0x20A3	; 0x8020a3 <tc_tce1_ovf_callback>
    1a20:	f0 91 a4 20 	lds	r31, 0x20A4	; 0x8020a4 <tc_tce1_ovf_callback+0x1>
    1a24:	30 97       	sbiw	r30, 0x00	; 0
    1a26:	09 f0       	breq	.+2      	; 0x1a2a <__vector_53+0x42>
		tc_tce1_ovf_callback();
    1a28:	19 95       	eicall
	}
}
    1a2a:	ff 91       	pop	r31
    1a2c:	ef 91       	pop	r30
    1a2e:	bf 91       	pop	r27
    1a30:	af 91       	pop	r26
    1a32:	9f 91       	pop	r25
    1a34:	8f 91       	pop	r24
    1a36:	7f 91       	pop	r23
    1a38:	6f 91       	pop	r22
    1a3a:	5f 91       	pop	r21
    1a3c:	4f 91       	pop	r20
    1a3e:	3f 91       	pop	r19
    1a40:	2f 91       	pop	r18
    1a42:	0f 90       	pop	r0
    1a44:	0b be       	out	0x3b, r0	; 59
    1a46:	0f 90       	pop	r0
    1a48:	09 be       	out	0x39, r0	; 57
    1a4a:	0f 90       	pop	r0
    1a4c:	08 be       	out	0x38, r0	; 56
    1a4e:	0f 90       	pop	r0
    1a50:	0f be       	out	0x3f, r0	; 63
    1a52:	0f 90       	pop	r0
    1a54:	1f 90       	pop	r1
    1a56:	18 95       	reti

00001a58 <__vector_54>:
 *
 * This function will handle interrupt on Timer Counter E1 error and
 * call the callback function.
 */
ISR(TCE1_ERR_vect)
{
    1a58:	1f 92       	push	r1
    1a5a:	0f 92       	push	r0
    1a5c:	0f b6       	in	r0, 0x3f	; 63
    1a5e:	0f 92       	push	r0
    1a60:	11 24       	eor	r1, r1
    1a62:	08 b6       	in	r0, 0x38	; 56
    1a64:	0f 92       	push	r0
    1a66:	18 be       	out	0x38, r1	; 56
    1a68:	09 b6       	in	r0, 0x39	; 57
    1a6a:	0f 92       	push	r0
    1a6c:	19 be       	out	0x39, r1	; 57
    1a6e:	0b b6       	in	r0, 0x3b	; 59
    1a70:	0f 92       	push	r0
    1a72:	1b be       	out	0x3b, r1	; 59
    1a74:	2f 93       	push	r18
    1a76:	3f 93       	push	r19
    1a78:	4f 93       	push	r20
    1a7a:	5f 93       	push	r21
    1a7c:	6f 93       	push	r22
    1a7e:	7f 93       	push	r23
    1a80:	8f 93       	push	r24
    1a82:	9f 93       	push	r25
    1a84:	af 93       	push	r26
    1a86:	bf 93       	push	r27
    1a88:	ef 93       	push	r30
    1a8a:	ff 93       	push	r31
	if (tc_tce1_err_callback) {
    1a8c:	e0 91 a1 20 	lds	r30, 0x20A1	; 0x8020a1 <tc_tce1_err_callback>
    1a90:	f0 91 a2 20 	lds	r31, 0x20A2	; 0x8020a2 <tc_tce1_err_callback+0x1>
    1a94:	30 97       	sbiw	r30, 0x00	; 0
    1a96:	09 f0       	breq	.+2      	; 0x1a9a <__vector_54+0x42>
		tc_tce1_err_callback();
    1a98:	19 95       	eicall
	}
}
    1a9a:	ff 91       	pop	r31
    1a9c:	ef 91       	pop	r30
    1a9e:	bf 91       	pop	r27
    1aa0:	af 91       	pop	r26
    1aa2:	9f 91       	pop	r25
    1aa4:	8f 91       	pop	r24
    1aa6:	7f 91       	pop	r23
    1aa8:	6f 91       	pop	r22
    1aaa:	5f 91       	pop	r21
    1aac:	4f 91       	pop	r20
    1aae:	3f 91       	pop	r19
    1ab0:	2f 91       	pop	r18
    1ab2:	0f 90       	pop	r0
    1ab4:	0b be       	out	0x3b, r0	; 59
    1ab6:	0f 90       	pop	r0
    1ab8:	09 be       	out	0x39, r0	; 57
    1aba:	0f 90       	pop	r0
    1abc:	08 be       	out	0x38, r0	; 56
    1abe:	0f 90       	pop	r0
    1ac0:	0f be       	out	0x3f, r0	; 63
    1ac2:	0f 90       	pop	r0
    1ac4:	1f 90       	pop	r1
    1ac6:	18 95       	reti

00001ac8 <__vector_55>:
 *
 * This function will handle interrupt on Timer Counter E1 Compare/CaptureA and
 * call the callback function.
 */
ISR(TCE1_CCA_vect)
{
    1ac8:	1f 92       	push	r1
    1aca:	0f 92       	push	r0
    1acc:	0f b6       	in	r0, 0x3f	; 63
    1ace:	0f 92       	push	r0
    1ad0:	11 24       	eor	r1, r1
    1ad2:	08 b6       	in	r0, 0x38	; 56
    1ad4:	0f 92       	push	r0
    1ad6:	18 be       	out	0x38, r1	; 56
    1ad8:	09 b6       	in	r0, 0x39	; 57
    1ada:	0f 92       	push	r0
    1adc:	19 be       	out	0x39, r1	; 57
    1ade:	0b b6       	in	r0, 0x3b	; 59
    1ae0:	0f 92       	push	r0
    1ae2:	1b be       	out	0x3b, r1	; 59
    1ae4:	2f 93       	push	r18
    1ae6:	3f 93       	push	r19
    1ae8:	4f 93       	push	r20
    1aea:	5f 93       	push	r21
    1aec:	6f 93       	push	r22
    1aee:	7f 93       	push	r23
    1af0:	8f 93       	push	r24
    1af2:	9f 93       	push	r25
    1af4:	af 93       	push	r26
    1af6:	bf 93       	push	r27
    1af8:	ef 93       	push	r30
    1afa:	ff 93       	push	r31
	if (tc_tce1_cca_callback) {
    1afc:	e0 91 9f 20 	lds	r30, 0x209F	; 0x80209f <tc_tce1_cca_callback>
    1b00:	f0 91 a0 20 	lds	r31, 0x20A0	; 0x8020a0 <tc_tce1_cca_callback+0x1>
    1b04:	30 97       	sbiw	r30, 0x00	; 0
    1b06:	09 f0       	breq	.+2      	; 0x1b0a <__vector_55+0x42>
		tc_tce1_cca_callback();
    1b08:	19 95       	eicall
	}
}
    1b0a:	ff 91       	pop	r31
    1b0c:	ef 91       	pop	r30
    1b0e:	bf 91       	pop	r27
    1b10:	af 91       	pop	r26
    1b12:	9f 91       	pop	r25
    1b14:	8f 91       	pop	r24
    1b16:	7f 91       	pop	r23
    1b18:	6f 91       	pop	r22
    1b1a:	5f 91       	pop	r21
    1b1c:	4f 91       	pop	r20
    1b1e:	3f 91       	pop	r19
    1b20:	2f 91       	pop	r18
    1b22:	0f 90       	pop	r0
    1b24:	0b be       	out	0x3b, r0	; 59
    1b26:	0f 90       	pop	r0
    1b28:	09 be       	out	0x39, r0	; 57
    1b2a:	0f 90       	pop	r0
    1b2c:	08 be       	out	0x38, r0	; 56
    1b2e:	0f 90       	pop	r0
    1b30:	0f be       	out	0x3f, r0	; 63
    1b32:	0f 90       	pop	r0
    1b34:	1f 90       	pop	r1
    1b36:	18 95       	reti

00001b38 <__vector_56>:
 *
 * This function will handle interrupt on Timer Counter E1 Compare/CaptureB and
 * call the callback function.
 */
ISR(TCE1_CCB_vect)
{
    1b38:	1f 92       	push	r1
    1b3a:	0f 92       	push	r0
    1b3c:	0f b6       	in	r0, 0x3f	; 63
    1b3e:	0f 92       	push	r0
    1b40:	11 24       	eor	r1, r1
    1b42:	08 b6       	in	r0, 0x38	; 56
    1b44:	0f 92       	push	r0
    1b46:	18 be       	out	0x38, r1	; 56
    1b48:	09 b6       	in	r0, 0x39	; 57
    1b4a:	0f 92       	push	r0
    1b4c:	19 be       	out	0x39, r1	; 57
    1b4e:	0b b6       	in	r0, 0x3b	; 59
    1b50:	0f 92       	push	r0
    1b52:	1b be       	out	0x3b, r1	; 59
    1b54:	2f 93       	push	r18
    1b56:	3f 93       	push	r19
    1b58:	4f 93       	push	r20
    1b5a:	5f 93       	push	r21
    1b5c:	6f 93       	push	r22
    1b5e:	7f 93       	push	r23
    1b60:	8f 93       	push	r24
    1b62:	9f 93       	push	r25
    1b64:	af 93       	push	r26
    1b66:	bf 93       	push	r27
    1b68:	ef 93       	push	r30
    1b6a:	ff 93       	push	r31
	if (tc_tce1_ccb_callback) {
    1b6c:	e0 91 9d 20 	lds	r30, 0x209D	; 0x80209d <tc_tce1_ccb_callback>
    1b70:	f0 91 9e 20 	lds	r31, 0x209E	; 0x80209e <tc_tce1_ccb_callback+0x1>
    1b74:	30 97       	sbiw	r30, 0x00	; 0
    1b76:	09 f0       	breq	.+2      	; 0x1b7a <__vector_56+0x42>
		tc_tce1_ccb_callback();
    1b78:	19 95       	eicall
	}
}
    1b7a:	ff 91       	pop	r31
    1b7c:	ef 91       	pop	r30
    1b7e:	bf 91       	pop	r27
    1b80:	af 91       	pop	r26
    1b82:	9f 91       	pop	r25
    1b84:	8f 91       	pop	r24
    1b86:	7f 91       	pop	r23
    1b88:	6f 91       	pop	r22
    1b8a:	5f 91       	pop	r21
    1b8c:	4f 91       	pop	r20
    1b8e:	3f 91       	pop	r19
    1b90:	2f 91       	pop	r18
    1b92:	0f 90       	pop	r0
    1b94:	0b be       	out	0x3b, r0	; 59
    1b96:	0f 90       	pop	r0
    1b98:	09 be       	out	0x39, r0	; 57
    1b9a:	0f 90       	pop	r0
    1b9c:	08 be       	out	0x38, r0	; 56
    1b9e:	0f 90       	pop	r0
    1ba0:	0f be       	out	0x3f, r0	; 63
    1ba2:	0f 90       	pop	r0
    1ba4:	1f 90       	pop	r1
    1ba6:	18 95       	reti

00001ba8 <__vector_108>:
 *
 * This function will handle interrupt on Timer Counter F0 overflow and
 * call the callback function.
 */
ISR(TCF0_OVF_vect)
{
    1ba8:	1f 92       	push	r1
    1baa:	0f 92       	push	r0
    1bac:	0f b6       	in	r0, 0x3f	; 63
    1bae:	0f 92       	push	r0
    1bb0:	11 24       	eor	r1, r1
    1bb2:	08 b6       	in	r0, 0x38	; 56
    1bb4:	0f 92       	push	r0
    1bb6:	18 be       	out	0x38, r1	; 56
    1bb8:	09 b6       	in	r0, 0x39	; 57
    1bba:	0f 92       	push	r0
    1bbc:	19 be       	out	0x39, r1	; 57
    1bbe:	0b b6       	in	r0, 0x3b	; 59
    1bc0:	0f 92       	push	r0
    1bc2:	1b be       	out	0x3b, r1	; 59
    1bc4:	2f 93       	push	r18
    1bc6:	3f 93       	push	r19
    1bc8:	4f 93       	push	r20
    1bca:	5f 93       	push	r21
    1bcc:	6f 93       	push	r22
    1bce:	7f 93       	push	r23
    1bd0:	8f 93       	push	r24
    1bd2:	9f 93       	push	r25
    1bd4:	af 93       	push	r26
    1bd6:	bf 93       	push	r27
    1bd8:	ef 93       	push	r30
    1bda:	ff 93       	push	r31
	if (tc_tcf0_ovf_callback) {
    1bdc:	e0 91 9b 20 	lds	r30, 0x209B	; 0x80209b <tc_tcf0_ovf_callback>
    1be0:	f0 91 9c 20 	lds	r31, 0x209C	; 0x80209c <tc_tcf0_ovf_callback+0x1>
    1be4:	30 97       	sbiw	r30, 0x00	; 0
    1be6:	09 f0       	breq	.+2      	; 0x1bea <__vector_108+0x42>
		tc_tcf0_ovf_callback();
    1be8:	19 95       	eicall
	}
}
    1bea:	ff 91       	pop	r31
    1bec:	ef 91       	pop	r30
    1bee:	bf 91       	pop	r27
    1bf0:	af 91       	pop	r26
    1bf2:	9f 91       	pop	r25
    1bf4:	8f 91       	pop	r24
    1bf6:	7f 91       	pop	r23
    1bf8:	6f 91       	pop	r22
    1bfa:	5f 91       	pop	r21
    1bfc:	4f 91       	pop	r20
    1bfe:	3f 91       	pop	r19
    1c00:	2f 91       	pop	r18
    1c02:	0f 90       	pop	r0
    1c04:	0b be       	out	0x3b, r0	; 59
    1c06:	0f 90       	pop	r0
    1c08:	09 be       	out	0x39, r0	; 57
    1c0a:	0f 90       	pop	r0
    1c0c:	08 be       	out	0x38, r0	; 56
    1c0e:	0f 90       	pop	r0
    1c10:	0f be       	out	0x3f, r0	; 63
    1c12:	0f 90       	pop	r0
    1c14:	1f 90       	pop	r1
    1c16:	18 95       	reti

00001c18 <__vector_109>:
 *
 * This function will handle interrupt on Timer Counter F0 error and
 * call the callback function.
 */
ISR(TCF0_ERR_vect)
{
    1c18:	1f 92       	push	r1
    1c1a:	0f 92       	push	r0
    1c1c:	0f b6       	in	r0, 0x3f	; 63
    1c1e:	0f 92       	push	r0
    1c20:	11 24       	eor	r1, r1
    1c22:	08 b6       	in	r0, 0x38	; 56
    1c24:	0f 92       	push	r0
    1c26:	18 be       	out	0x38, r1	; 56
    1c28:	09 b6       	in	r0, 0x39	; 57
    1c2a:	0f 92       	push	r0
    1c2c:	19 be       	out	0x39, r1	; 57
    1c2e:	0b b6       	in	r0, 0x3b	; 59
    1c30:	0f 92       	push	r0
    1c32:	1b be       	out	0x3b, r1	; 59
    1c34:	2f 93       	push	r18
    1c36:	3f 93       	push	r19
    1c38:	4f 93       	push	r20
    1c3a:	5f 93       	push	r21
    1c3c:	6f 93       	push	r22
    1c3e:	7f 93       	push	r23
    1c40:	8f 93       	push	r24
    1c42:	9f 93       	push	r25
    1c44:	af 93       	push	r26
    1c46:	bf 93       	push	r27
    1c48:	ef 93       	push	r30
    1c4a:	ff 93       	push	r31
	if (tc_tcf0_err_callback) {
    1c4c:	e0 91 99 20 	lds	r30, 0x2099	; 0x802099 <tc_tcf0_err_callback>
    1c50:	f0 91 9a 20 	lds	r31, 0x209A	; 0x80209a <tc_tcf0_err_callback+0x1>
    1c54:	30 97       	sbiw	r30, 0x00	; 0
    1c56:	09 f0       	breq	.+2      	; 0x1c5a <__vector_109+0x42>
		tc_tcf0_err_callback();
    1c58:	19 95       	eicall
	}
}
    1c5a:	ff 91       	pop	r31
    1c5c:	ef 91       	pop	r30
    1c5e:	bf 91       	pop	r27
    1c60:	af 91       	pop	r26
    1c62:	9f 91       	pop	r25
    1c64:	8f 91       	pop	r24
    1c66:	7f 91       	pop	r23
    1c68:	6f 91       	pop	r22
    1c6a:	5f 91       	pop	r21
    1c6c:	4f 91       	pop	r20
    1c6e:	3f 91       	pop	r19
    1c70:	2f 91       	pop	r18
    1c72:	0f 90       	pop	r0
    1c74:	0b be       	out	0x3b, r0	; 59
    1c76:	0f 90       	pop	r0
    1c78:	09 be       	out	0x39, r0	; 57
    1c7a:	0f 90       	pop	r0
    1c7c:	08 be       	out	0x38, r0	; 56
    1c7e:	0f 90       	pop	r0
    1c80:	0f be       	out	0x3f, r0	; 63
    1c82:	0f 90       	pop	r0
    1c84:	1f 90       	pop	r1
    1c86:	18 95       	reti

00001c88 <__vector_110>:
 *
 * This function will handle interrupt on Timer Counter F0 Compare/CaptureA and
 * call the callback function.
 */
ISR(TCF0_CCA_vect)
{
    1c88:	1f 92       	push	r1
    1c8a:	0f 92       	push	r0
    1c8c:	0f b6       	in	r0, 0x3f	; 63
    1c8e:	0f 92       	push	r0
    1c90:	11 24       	eor	r1, r1
    1c92:	08 b6       	in	r0, 0x38	; 56
    1c94:	0f 92       	push	r0
    1c96:	18 be       	out	0x38, r1	; 56
    1c98:	09 b6       	in	r0, 0x39	; 57
    1c9a:	0f 92       	push	r0
    1c9c:	19 be       	out	0x39, r1	; 57
    1c9e:	0b b6       	in	r0, 0x3b	; 59
    1ca0:	0f 92       	push	r0
    1ca2:	1b be       	out	0x3b, r1	; 59
    1ca4:	2f 93       	push	r18
    1ca6:	3f 93       	push	r19
    1ca8:	4f 93       	push	r20
    1caa:	5f 93       	push	r21
    1cac:	6f 93       	push	r22
    1cae:	7f 93       	push	r23
    1cb0:	8f 93       	push	r24
    1cb2:	9f 93       	push	r25
    1cb4:	af 93       	push	r26
    1cb6:	bf 93       	push	r27
    1cb8:	ef 93       	push	r30
    1cba:	ff 93       	push	r31
	if (tc_tcf0_cca_callback) {
    1cbc:	e0 91 97 20 	lds	r30, 0x2097	; 0x802097 <tc_tcf0_cca_callback>
    1cc0:	f0 91 98 20 	lds	r31, 0x2098	; 0x802098 <tc_tcf0_cca_callback+0x1>
    1cc4:	30 97       	sbiw	r30, 0x00	; 0
    1cc6:	09 f0       	breq	.+2      	; 0x1cca <__vector_110+0x42>
		tc_tcf0_cca_callback();
    1cc8:	19 95       	eicall
	}
}
    1cca:	ff 91       	pop	r31
    1ccc:	ef 91       	pop	r30
    1cce:	bf 91       	pop	r27
    1cd0:	af 91       	pop	r26
    1cd2:	9f 91       	pop	r25
    1cd4:	8f 91       	pop	r24
    1cd6:	7f 91       	pop	r23
    1cd8:	6f 91       	pop	r22
    1cda:	5f 91       	pop	r21
    1cdc:	4f 91       	pop	r20
    1cde:	3f 91       	pop	r19
    1ce0:	2f 91       	pop	r18
    1ce2:	0f 90       	pop	r0
    1ce4:	0b be       	out	0x3b, r0	; 59
    1ce6:	0f 90       	pop	r0
    1ce8:	09 be       	out	0x39, r0	; 57
    1cea:	0f 90       	pop	r0
    1cec:	08 be       	out	0x38, r0	; 56
    1cee:	0f 90       	pop	r0
    1cf0:	0f be       	out	0x3f, r0	; 63
    1cf2:	0f 90       	pop	r0
    1cf4:	1f 90       	pop	r1
    1cf6:	18 95       	reti

00001cf8 <__vector_111>:
 *
 * This function will handle interrupt on Timer Counter F0 Compare/CaptureB and
 * call the callback function.
 */
ISR(TCF0_CCB_vect)
{
    1cf8:	1f 92       	push	r1
    1cfa:	0f 92       	push	r0
    1cfc:	0f b6       	in	r0, 0x3f	; 63
    1cfe:	0f 92       	push	r0
    1d00:	11 24       	eor	r1, r1
    1d02:	08 b6       	in	r0, 0x38	; 56
    1d04:	0f 92       	push	r0
    1d06:	18 be       	out	0x38, r1	; 56
    1d08:	09 b6       	in	r0, 0x39	; 57
    1d0a:	0f 92       	push	r0
    1d0c:	19 be       	out	0x39, r1	; 57
    1d0e:	0b b6       	in	r0, 0x3b	; 59
    1d10:	0f 92       	push	r0
    1d12:	1b be       	out	0x3b, r1	; 59
    1d14:	2f 93       	push	r18
    1d16:	3f 93       	push	r19
    1d18:	4f 93       	push	r20
    1d1a:	5f 93       	push	r21
    1d1c:	6f 93       	push	r22
    1d1e:	7f 93       	push	r23
    1d20:	8f 93       	push	r24
    1d22:	9f 93       	push	r25
    1d24:	af 93       	push	r26
    1d26:	bf 93       	push	r27
    1d28:	ef 93       	push	r30
    1d2a:	ff 93       	push	r31
	if (tc_tcf0_ccb_callback) {
    1d2c:	e0 91 95 20 	lds	r30, 0x2095	; 0x802095 <tc_tcf0_ccb_callback>
    1d30:	f0 91 96 20 	lds	r31, 0x2096	; 0x802096 <tc_tcf0_ccb_callback+0x1>
    1d34:	30 97       	sbiw	r30, 0x00	; 0
    1d36:	09 f0       	breq	.+2      	; 0x1d3a <__vector_111+0x42>
		tc_tcf0_ccb_callback();
    1d38:	19 95       	eicall
	}
}
    1d3a:	ff 91       	pop	r31
    1d3c:	ef 91       	pop	r30
    1d3e:	bf 91       	pop	r27
    1d40:	af 91       	pop	r26
    1d42:	9f 91       	pop	r25
    1d44:	8f 91       	pop	r24
    1d46:	7f 91       	pop	r23
    1d48:	6f 91       	pop	r22
    1d4a:	5f 91       	pop	r21
    1d4c:	4f 91       	pop	r20
    1d4e:	3f 91       	pop	r19
    1d50:	2f 91       	pop	r18
    1d52:	0f 90       	pop	r0
    1d54:	0b be       	out	0x3b, r0	; 59
    1d56:	0f 90       	pop	r0
    1d58:	09 be       	out	0x39, r0	; 57
    1d5a:	0f 90       	pop	r0
    1d5c:	08 be       	out	0x38, r0	; 56
    1d5e:	0f 90       	pop	r0
    1d60:	0f be       	out	0x3f, r0	; 63
    1d62:	0f 90       	pop	r0
    1d64:	1f 90       	pop	r1
    1d66:	18 95       	reti

00001d68 <__vector_112>:
 *
 * This function will handle interrupt on Timer Counter F0 Compare/CaptureC and
 * call the callback function.
 */
ISR(TCF0_CCC_vect)
{
    1d68:	1f 92       	push	r1
    1d6a:	0f 92       	push	r0
    1d6c:	0f b6       	in	r0, 0x3f	; 63
    1d6e:	0f 92       	push	r0
    1d70:	11 24       	eor	r1, r1
    1d72:	08 b6       	in	r0, 0x38	; 56
    1d74:	0f 92       	push	r0
    1d76:	18 be       	out	0x38, r1	; 56
    1d78:	09 b6       	in	r0, 0x39	; 57
    1d7a:	0f 92       	push	r0
    1d7c:	19 be       	out	0x39, r1	; 57
    1d7e:	0b b6       	in	r0, 0x3b	; 59
    1d80:	0f 92       	push	r0
    1d82:	1b be       	out	0x3b, r1	; 59
    1d84:	2f 93       	push	r18
    1d86:	3f 93       	push	r19
    1d88:	4f 93       	push	r20
    1d8a:	5f 93       	push	r21
    1d8c:	6f 93       	push	r22
    1d8e:	7f 93       	push	r23
    1d90:	8f 93       	push	r24
    1d92:	9f 93       	push	r25
    1d94:	af 93       	push	r26
    1d96:	bf 93       	push	r27
    1d98:	ef 93       	push	r30
    1d9a:	ff 93       	push	r31
	if (tc_tcf0_ccc_callback) {
    1d9c:	e0 91 93 20 	lds	r30, 0x2093	; 0x802093 <tc_tcf0_ccc_callback>
    1da0:	f0 91 94 20 	lds	r31, 0x2094	; 0x802094 <tc_tcf0_ccc_callback+0x1>
    1da4:	30 97       	sbiw	r30, 0x00	; 0
    1da6:	09 f0       	breq	.+2      	; 0x1daa <__vector_112+0x42>
		tc_tcf0_ccc_callback();
    1da8:	19 95       	eicall
	}
}
    1daa:	ff 91       	pop	r31
    1dac:	ef 91       	pop	r30
    1dae:	bf 91       	pop	r27
    1db0:	af 91       	pop	r26
    1db2:	9f 91       	pop	r25
    1db4:	8f 91       	pop	r24
    1db6:	7f 91       	pop	r23
    1db8:	6f 91       	pop	r22
    1dba:	5f 91       	pop	r21
    1dbc:	4f 91       	pop	r20
    1dbe:	3f 91       	pop	r19
    1dc0:	2f 91       	pop	r18
    1dc2:	0f 90       	pop	r0
    1dc4:	0b be       	out	0x3b, r0	; 59
    1dc6:	0f 90       	pop	r0
    1dc8:	09 be       	out	0x39, r0	; 57
    1dca:	0f 90       	pop	r0
    1dcc:	08 be       	out	0x38, r0	; 56
    1dce:	0f 90       	pop	r0
    1dd0:	0f be       	out	0x3f, r0	; 63
    1dd2:	0f 90       	pop	r0
    1dd4:	1f 90       	pop	r1
    1dd6:	18 95       	reti

00001dd8 <__vector_113>:
 *
 * This function will handle interrupt on Timer Counter F0 Compare/CaptureD and
 * call the callback function.
 */
ISR(TCF0_CCD_vect)
{
    1dd8:	1f 92       	push	r1
    1dda:	0f 92       	push	r0
    1ddc:	0f b6       	in	r0, 0x3f	; 63
    1dde:	0f 92       	push	r0
    1de0:	11 24       	eor	r1, r1
    1de2:	08 b6       	in	r0, 0x38	; 56
    1de4:	0f 92       	push	r0
    1de6:	18 be       	out	0x38, r1	; 56
    1de8:	09 b6       	in	r0, 0x39	; 57
    1dea:	0f 92       	push	r0
    1dec:	19 be       	out	0x39, r1	; 57
    1dee:	0b b6       	in	r0, 0x3b	; 59
    1df0:	0f 92       	push	r0
    1df2:	1b be       	out	0x3b, r1	; 59
    1df4:	2f 93       	push	r18
    1df6:	3f 93       	push	r19
    1df8:	4f 93       	push	r20
    1dfa:	5f 93       	push	r21
    1dfc:	6f 93       	push	r22
    1dfe:	7f 93       	push	r23
    1e00:	8f 93       	push	r24
    1e02:	9f 93       	push	r25
    1e04:	af 93       	push	r26
    1e06:	bf 93       	push	r27
    1e08:	ef 93       	push	r30
    1e0a:	ff 93       	push	r31
	if (tc_tcf0_ccd_callback) {
    1e0c:	e0 91 91 20 	lds	r30, 0x2091	; 0x802091 <tc_tcf0_ccd_callback>
    1e10:	f0 91 92 20 	lds	r31, 0x2092	; 0x802092 <tc_tcf0_ccd_callback+0x1>
    1e14:	30 97       	sbiw	r30, 0x00	; 0
    1e16:	09 f0       	breq	.+2      	; 0x1e1a <__vector_113+0x42>
		tc_tcf0_ccd_callback();
    1e18:	19 95       	eicall
	}
}
    1e1a:	ff 91       	pop	r31
    1e1c:	ef 91       	pop	r30
    1e1e:	bf 91       	pop	r27
    1e20:	af 91       	pop	r26
    1e22:	9f 91       	pop	r25
    1e24:	8f 91       	pop	r24
    1e26:	7f 91       	pop	r23
    1e28:	6f 91       	pop	r22
    1e2a:	5f 91       	pop	r21
    1e2c:	4f 91       	pop	r20
    1e2e:	3f 91       	pop	r19
    1e30:	2f 91       	pop	r18
    1e32:	0f 90       	pop	r0
    1e34:	0b be       	out	0x3b, r0	; 59
    1e36:	0f 90       	pop	r0
    1e38:	09 be       	out	0x39, r0	; 57
    1e3a:	0f 90       	pop	r0
    1e3c:	08 be       	out	0x38, r0	; 56
    1e3e:	0f 90       	pop	r0
    1e40:	0f be       	out	0x3f, r0	; 63
    1e42:	0f 90       	pop	r0
    1e44:	1f 90       	pop	r1
    1e46:	18 95       	reti

00001e48 <__vector_114>:
 *
 * This function will handle interrupt on Timer Counter F1 overflow and
 * call the callback function.
 */
ISR(TCF1_OVF_vect)
{
    1e48:	1f 92       	push	r1
    1e4a:	0f 92       	push	r0
    1e4c:	0f b6       	in	r0, 0x3f	; 63
    1e4e:	0f 92       	push	r0
    1e50:	11 24       	eor	r1, r1
    1e52:	08 b6       	in	r0, 0x38	; 56
    1e54:	0f 92       	push	r0
    1e56:	18 be       	out	0x38, r1	; 56
    1e58:	09 b6       	in	r0, 0x39	; 57
    1e5a:	0f 92       	push	r0
    1e5c:	19 be       	out	0x39, r1	; 57
    1e5e:	0b b6       	in	r0, 0x3b	; 59
    1e60:	0f 92       	push	r0
    1e62:	1b be       	out	0x3b, r1	; 59
    1e64:	2f 93       	push	r18
    1e66:	3f 93       	push	r19
    1e68:	4f 93       	push	r20
    1e6a:	5f 93       	push	r21
    1e6c:	6f 93       	push	r22
    1e6e:	7f 93       	push	r23
    1e70:	8f 93       	push	r24
    1e72:	9f 93       	push	r25
    1e74:	af 93       	push	r26
    1e76:	bf 93       	push	r27
    1e78:	ef 93       	push	r30
    1e7a:	ff 93       	push	r31
	if (tc_tcf1_ovf_callback) {
    1e7c:	e0 91 8f 20 	lds	r30, 0x208F	; 0x80208f <tc_tcf1_ovf_callback>
    1e80:	f0 91 90 20 	lds	r31, 0x2090	; 0x802090 <tc_tcf1_ovf_callback+0x1>
    1e84:	30 97       	sbiw	r30, 0x00	; 0
    1e86:	09 f0       	breq	.+2      	; 0x1e8a <__vector_114+0x42>
		tc_tcf1_ovf_callback();
    1e88:	19 95       	eicall
	}
}
    1e8a:	ff 91       	pop	r31
    1e8c:	ef 91       	pop	r30
    1e8e:	bf 91       	pop	r27
    1e90:	af 91       	pop	r26
    1e92:	9f 91       	pop	r25
    1e94:	8f 91       	pop	r24
    1e96:	7f 91       	pop	r23
    1e98:	6f 91       	pop	r22
    1e9a:	5f 91       	pop	r21
    1e9c:	4f 91       	pop	r20
    1e9e:	3f 91       	pop	r19
    1ea0:	2f 91       	pop	r18
    1ea2:	0f 90       	pop	r0
    1ea4:	0b be       	out	0x3b, r0	; 59
    1ea6:	0f 90       	pop	r0
    1ea8:	09 be       	out	0x39, r0	; 57
    1eaa:	0f 90       	pop	r0
    1eac:	08 be       	out	0x38, r0	; 56
    1eae:	0f 90       	pop	r0
    1eb0:	0f be       	out	0x3f, r0	; 63
    1eb2:	0f 90       	pop	r0
    1eb4:	1f 90       	pop	r1
    1eb6:	18 95       	reti

00001eb8 <__vector_115>:
 *
 * This function will handle interrupt on Timer Counter F1 error and
 * call the callback function.
 */
ISR(TCF1_ERR_vect)
{
    1eb8:	1f 92       	push	r1
    1eba:	0f 92       	push	r0
    1ebc:	0f b6       	in	r0, 0x3f	; 63
    1ebe:	0f 92       	push	r0
    1ec0:	11 24       	eor	r1, r1
    1ec2:	08 b6       	in	r0, 0x38	; 56
    1ec4:	0f 92       	push	r0
    1ec6:	18 be       	out	0x38, r1	; 56
    1ec8:	09 b6       	in	r0, 0x39	; 57
    1eca:	0f 92       	push	r0
    1ecc:	19 be       	out	0x39, r1	; 57
    1ece:	0b b6       	in	r0, 0x3b	; 59
    1ed0:	0f 92       	push	r0
    1ed2:	1b be       	out	0x3b, r1	; 59
    1ed4:	2f 93       	push	r18
    1ed6:	3f 93       	push	r19
    1ed8:	4f 93       	push	r20
    1eda:	5f 93       	push	r21
    1edc:	6f 93       	push	r22
    1ede:	7f 93       	push	r23
    1ee0:	8f 93       	push	r24
    1ee2:	9f 93       	push	r25
    1ee4:	af 93       	push	r26
    1ee6:	bf 93       	push	r27
    1ee8:	ef 93       	push	r30
    1eea:	ff 93       	push	r31
	if (tc_tcf1_err_callback) {
    1eec:	e0 91 8d 20 	lds	r30, 0x208D	; 0x80208d <tc_tcf1_err_callback>
    1ef0:	f0 91 8e 20 	lds	r31, 0x208E	; 0x80208e <tc_tcf1_err_callback+0x1>
    1ef4:	30 97       	sbiw	r30, 0x00	; 0
    1ef6:	09 f0       	breq	.+2      	; 0x1efa <__vector_115+0x42>
		tc_tcf1_err_callback();
    1ef8:	19 95       	eicall
	}
}
    1efa:	ff 91       	pop	r31
    1efc:	ef 91       	pop	r30
    1efe:	bf 91       	pop	r27
    1f00:	af 91       	pop	r26
    1f02:	9f 91       	pop	r25
    1f04:	8f 91       	pop	r24
    1f06:	7f 91       	pop	r23
    1f08:	6f 91       	pop	r22
    1f0a:	5f 91       	pop	r21
    1f0c:	4f 91       	pop	r20
    1f0e:	3f 91       	pop	r19
    1f10:	2f 91       	pop	r18
    1f12:	0f 90       	pop	r0
    1f14:	0b be       	out	0x3b, r0	; 59
    1f16:	0f 90       	pop	r0
    1f18:	09 be       	out	0x39, r0	; 57
    1f1a:	0f 90       	pop	r0
    1f1c:	08 be       	out	0x38, r0	; 56
    1f1e:	0f 90       	pop	r0
    1f20:	0f be       	out	0x3f, r0	; 63
    1f22:	0f 90       	pop	r0
    1f24:	1f 90       	pop	r1
    1f26:	18 95       	reti

00001f28 <__vector_116>:
 *
 * This function will handle interrupt on Timer Counter F1 Compare/CaptureA and
 * call the callback function.
 */
ISR(TCF1_CCA_vect)
{
    1f28:	1f 92       	push	r1
    1f2a:	0f 92       	push	r0
    1f2c:	0f b6       	in	r0, 0x3f	; 63
    1f2e:	0f 92       	push	r0
    1f30:	11 24       	eor	r1, r1
    1f32:	08 b6       	in	r0, 0x38	; 56
    1f34:	0f 92       	push	r0
    1f36:	18 be       	out	0x38, r1	; 56
    1f38:	09 b6       	in	r0, 0x39	; 57
    1f3a:	0f 92       	push	r0
    1f3c:	19 be       	out	0x39, r1	; 57
    1f3e:	0b b6       	in	r0, 0x3b	; 59
    1f40:	0f 92       	push	r0
    1f42:	1b be       	out	0x3b, r1	; 59
    1f44:	2f 93       	push	r18
    1f46:	3f 93       	push	r19
    1f48:	4f 93       	push	r20
    1f4a:	5f 93       	push	r21
    1f4c:	6f 93       	push	r22
    1f4e:	7f 93       	push	r23
    1f50:	8f 93       	push	r24
    1f52:	9f 93       	push	r25
    1f54:	af 93       	push	r26
    1f56:	bf 93       	push	r27
    1f58:	ef 93       	push	r30
    1f5a:	ff 93       	push	r31
	if (tc_tcf1_cca_callback) {
    1f5c:	e0 91 8b 20 	lds	r30, 0x208B	; 0x80208b <tc_tcf1_cca_callback>
    1f60:	f0 91 8c 20 	lds	r31, 0x208C	; 0x80208c <tc_tcf1_cca_callback+0x1>
    1f64:	30 97       	sbiw	r30, 0x00	; 0
    1f66:	09 f0       	breq	.+2      	; 0x1f6a <__vector_116+0x42>
		tc_tcf1_cca_callback();
    1f68:	19 95       	eicall
	}
}
    1f6a:	ff 91       	pop	r31
    1f6c:	ef 91       	pop	r30
    1f6e:	bf 91       	pop	r27
    1f70:	af 91       	pop	r26
    1f72:	9f 91       	pop	r25
    1f74:	8f 91       	pop	r24
    1f76:	7f 91       	pop	r23
    1f78:	6f 91       	pop	r22
    1f7a:	5f 91       	pop	r21
    1f7c:	4f 91       	pop	r20
    1f7e:	3f 91       	pop	r19
    1f80:	2f 91       	pop	r18
    1f82:	0f 90       	pop	r0
    1f84:	0b be       	out	0x3b, r0	; 59
    1f86:	0f 90       	pop	r0
    1f88:	09 be       	out	0x39, r0	; 57
    1f8a:	0f 90       	pop	r0
    1f8c:	08 be       	out	0x38, r0	; 56
    1f8e:	0f 90       	pop	r0
    1f90:	0f be       	out	0x3f, r0	; 63
    1f92:	0f 90       	pop	r0
    1f94:	1f 90       	pop	r1
    1f96:	18 95       	reti

00001f98 <__vector_117>:
 *
 * This function will handle interrupt on Timer Counter F1 Compare/CaptureB and
 * call the callback function.
 */
ISR(TCF1_CCB_vect)
{
    1f98:	1f 92       	push	r1
    1f9a:	0f 92       	push	r0
    1f9c:	0f b6       	in	r0, 0x3f	; 63
    1f9e:	0f 92       	push	r0
    1fa0:	11 24       	eor	r1, r1
    1fa2:	08 b6       	in	r0, 0x38	; 56
    1fa4:	0f 92       	push	r0
    1fa6:	18 be       	out	0x38, r1	; 56
    1fa8:	09 b6       	in	r0, 0x39	; 57
    1faa:	0f 92       	push	r0
    1fac:	19 be       	out	0x39, r1	; 57
    1fae:	0b b6       	in	r0, 0x3b	; 59
    1fb0:	0f 92       	push	r0
    1fb2:	1b be       	out	0x3b, r1	; 59
    1fb4:	2f 93       	push	r18
    1fb6:	3f 93       	push	r19
    1fb8:	4f 93       	push	r20
    1fba:	5f 93       	push	r21
    1fbc:	6f 93       	push	r22
    1fbe:	7f 93       	push	r23
    1fc0:	8f 93       	push	r24
    1fc2:	9f 93       	push	r25
    1fc4:	af 93       	push	r26
    1fc6:	bf 93       	push	r27
    1fc8:	ef 93       	push	r30
    1fca:	ff 93       	push	r31
	if (tc_tcf1_ccb_callback) {
    1fcc:	e0 91 89 20 	lds	r30, 0x2089	; 0x802089 <tc_tcf1_ccb_callback>
    1fd0:	f0 91 8a 20 	lds	r31, 0x208A	; 0x80208a <tc_tcf1_ccb_callback+0x1>
    1fd4:	30 97       	sbiw	r30, 0x00	; 0
    1fd6:	09 f0       	breq	.+2      	; 0x1fda <__vector_117+0x42>
		tc_tcf1_ccb_callback();
    1fd8:	19 95       	eicall
	}
}
    1fda:	ff 91       	pop	r31
    1fdc:	ef 91       	pop	r30
    1fde:	bf 91       	pop	r27
    1fe0:	af 91       	pop	r26
    1fe2:	9f 91       	pop	r25
    1fe4:	8f 91       	pop	r24
    1fe6:	7f 91       	pop	r23
    1fe8:	6f 91       	pop	r22
    1fea:	5f 91       	pop	r21
    1fec:	4f 91       	pop	r20
    1fee:	3f 91       	pop	r19
    1ff0:	2f 91       	pop	r18
    1ff2:	0f 90       	pop	r0
    1ff4:	0b be       	out	0x3b, r0	; 59
    1ff6:	0f 90       	pop	r0
    1ff8:	09 be       	out	0x39, r0	; 57
    1ffa:	0f 90       	pop	r0
    1ffc:	08 be       	out	0x38, r0	; 56
    1ffe:	0f 90       	pop	r0
    2000:	0f be       	out	0x3f, r0	; 63
    2002:	0f 90       	pop	r0
    2004:	1f 90       	pop	r1
    2006:	18 95       	reti

00002008 <usart_putchar>:

	if (baud_offset != USART_BAUD_UNDEFINED) {
		(usart)->BAUDCTRLB = (uint8_t)((uint16_t)baudctrl);
		(usart)->BAUDCTRLA = (uint8_t)((uint16_t)baudctrl >> 8);
	}
}
    2008:	fc 01       	movw	r30, r24
    200a:	91 81       	ldd	r25, Z+1	; 0x01
    200c:	95 ff       	sbrs	r25, 5
    200e:	fd cf       	rjmp	.-6      	; 0x200a <usart_putchar+0x2>
    2010:	60 83       	st	Z, r22
    2012:	80 e0       	ldi	r24, 0x00	; 0
    2014:	90 e0       	ldi	r25, 0x00	; 0
    2016:	08 95       	ret

00002018 <usart_getchar>:
    2018:	fc 01       	movw	r30, r24
    201a:	91 81       	ldd	r25, Z+1	; 0x01
    201c:	99 23       	and	r25, r25
    201e:	ec f7       	brge	.-6      	; 0x201a <usart_getchar+0x2>
    2020:	80 81       	ld	r24, Z
    2022:	08 95       	ret

00002024 <usart_set_baudrate>:
 * \retval true if the hardware supports the baud rate
 * \retval false if the hardware does not support the baud rate (i.e. it's
 *               either too high or too low.)
 */
bool usart_set_baudrate(USART_t *usart, uint32_t baud, uint32_t cpu_hz)
{
    2024:	4f 92       	push	r4
    2026:	5f 92       	push	r5
    2028:	6f 92       	push	r6
    202a:	7f 92       	push	r7
    202c:	8f 92       	push	r8
    202e:	9f 92       	push	r9
    2030:	af 92       	push	r10
    2032:	bf 92       	push	r11
    2034:	ef 92       	push	r14
    2036:	ff 92       	push	r15
    2038:	0f 93       	push	r16
    203a:	1f 93       	push	r17
    203c:	cf 93       	push	r28
    203e:	7c 01       	movw	r14, r24
    2040:	4a 01       	movw	r8, r20
    2042:	5b 01       	movw	r10, r22
    2044:	28 01       	movw	r4, r16
    2046:	39 01       	movw	r6, r18
	/* 8 = (2^0) * 8 * (2^0) = (2^BSCALE_MIN) * 8 * (BSEL_MIN) */
	max_rate = cpu_hz / 8;
	/* 4194304 = (2^7) * 8 * (2^12) = (2^BSCALE_MAX) * 8 * (BSEL_MAX+1) */
	min_rate = cpu_hz / 4194304;

	if (!((usart)->CTRLB & USART_CLK2X_bm)) {
    2048:	fc 01       	movw	r30, r24
    204a:	84 81       	ldd	r24, Z+4	; 0x04
    204c:	82 ff       	sbrs	r24, 2
    204e:	16 c0       	rjmp	.+44     	; 0x207c <usart_set_baudrate+0x58>

	/*
	 * Check if the hardware supports the given baud rate
	 */
	/* 8 = (2^0) * 8 * (2^0) = (2^BSCALE_MIN) * 8 * (BSEL_MIN) */
	max_rate = cpu_hz / 8;
    2050:	d9 01       	movw	r26, r18
    2052:	c8 01       	movw	r24, r16
    2054:	68 94       	set
    2056:	12 f8       	bld	r1, 2
    2058:	b6 95       	lsr	r27
    205a:	a7 95       	ror	r26
    205c:	97 95       	ror	r25
    205e:	87 95       	ror	r24
    2060:	16 94       	lsr	r1
    2062:	d1 f7       	brne	.-12     	; 0x2058 <usart_set_baudrate+0x34>
	/* 4194304 = (2^7) * 8 * (2^12) = (2^BSCALE_MAX) * 8 * (BSEL_MAX+1) */
	min_rate = cpu_hz / 4194304;
    2064:	b9 01       	movw	r22, r18
    2066:	a8 01       	movw	r20, r16
    2068:	03 2e       	mov	r0, r19
    206a:	36 e1       	ldi	r19, 0x16	; 22
    206c:	76 95       	lsr	r23
    206e:	67 95       	ror	r22
    2070:	57 95       	ror	r21
    2072:	47 95       	ror	r20
    2074:	3a 95       	dec	r19
    2076:	d1 f7       	brne	.-12     	; 0x206c <usart_set_baudrate+0x48>
    2078:	30 2d       	mov	r19, r0
    207a:	15 c0       	rjmp	.+42     	; 0x20a6 <usart_set_baudrate+0x82>

	if (!((usart)->CTRLB & USART_CLK2X_bm)) {
		max_rate /= 2;
    207c:	d9 01       	movw	r26, r18
    207e:	c8 01       	movw	r24, r16
    2080:	68 94       	set
    2082:	13 f8       	bld	r1, 3
    2084:	b6 95       	lsr	r27
    2086:	a7 95       	ror	r26
    2088:	97 95       	ror	r25
    208a:	87 95       	ror	r24
    208c:	16 94       	lsr	r1
    208e:	d1 f7       	brne	.-12     	; 0x2084 <usart_set_baudrate+0x60>
		min_rate /= 2;
    2090:	b9 01       	movw	r22, r18
    2092:	a8 01       	movw	r20, r16
    2094:	03 2e       	mov	r0, r19
    2096:	37 e1       	ldi	r19, 0x17	; 23
    2098:	76 95       	lsr	r23
    209a:	67 95       	ror	r22
    209c:	57 95       	ror	r21
    209e:	47 95       	ror	r20
    20a0:	3a 95       	dec	r19
    20a2:	d1 f7       	brne	.-12     	; 0x2098 <usart_set_baudrate+0x74>
    20a4:	30 2d       	mov	r19, r0
	}

	if ((baud > max_rate) || (baud < min_rate)) {
    20a6:	88 15       	cp	r24, r8
    20a8:	99 05       	cpc	r25, r9
    20aa:	aa 05       	cpc	r26, r10
    20ac:	bb 05       	cpc	r27, r11
    20ae:	08 f4       	brcc	.+2      	; 0x20b2 <usart_set_baudrate+0x8e>
    20b0:	a6 c0       	rjmp	.+332    	; 0x21fe <usart_set_baudrate+0x1da>
    20b2:	84 16       	cp	r8, r20
    20b4:	95 06       	cpc	r9, r21
    20b6:	a6 06       	cpc	r10, r22
    20b8:	b7 06       	cpc	r11, r23
    20ba:	08 f4       	brcc	.+2      	; 0x20be <usart_set_baudrate+0x9a>
    20bc:	a2 c0       	rjmp	.+324    	; 0x2202 <usart_set_baudrate+0x1de>
		return false;
	}

	/* Check if double speed is enabled. */
	if (!((usart)->CTRLB & USART_CLK2X_bm)) {
    20be:	f7 01       	movw	r30, r14
    20c0:	84 81       	ldd	r24, Z+4	; 0x04
    20c2:	82 fd       	sbrc	r24, 2
    20c4:	04 c0       	rjmp	.+8      	; 0x20ce <usart_set_baudrate+0xaa>
		baud *= 2;
    20c6:	88 0c       	add	r8, r8
    20c8:	99 1c       	adc	r9, r9
    20ca:	aa 1c       	adc	r10, r10
    20cc:	bb 1c       	adc	r11, r11
	}

	/* Find the lowest possible exponent. */
	limit = 0xfffU >> 4;
	ratio = cpu_hz / baud;
    20ce:	c3 01       	movw	r24, r6
    20d0:	b2 01       	movw	r22, r4
    20d2:	a5 01       	movw	r20, r10
    20d4:	94 01       	movw	r18, r8
    20d6:	0e 94 11 24 	call	0x4822	; 0x4822 <__udivmodsi4>

	for (exp = -7; exp < 7; exp++) {
		if (ratio < limit) {
    20da:	2f 3f       	cpi	r18, 0xFF	; 255
    20dc:	31 05       	cpc	r19, r1
    20de:	41 05       	cpc	r20, r1
    20e0:	51 05       	cpc	r21, r1
    20e2:	08 f4       	brcc	.+2      	; 0x20e6 <usart_set_baudrate+0xc2>
    20e4:	90 c0       	rjmp	.+288    	; 0x2206 <usart_set_baudrate+0x1e2>
    20e6:	8f ef       	ldi	r24, 0xFF	; 255
    20e8:	90 e0       	ldi	r25, 0x00	; 0
    20ea:	a0 e0       	ldi	r26, 0x00	; 0
    20ec:	b0 e0       	ldi	r27, 0x00	; 0
    20ee:	c9 ef       	ldi	r28, 0xF9	; 249
    20f0:	05 c0       	rjmp	.+10     	; 0x20fc <usart_set_baudrate+0xd8>
    20f2:	28 17       	cp	r18, r24
    20f4:	39 07       	cpc	r19, r25
    20f6:	4a 07       	cpc	r20, r26
    20f8:	5b 07       	cpc	r21, r27
    20fa:	58 f0       	brcs	.+22     	; 0x2112 <usart_set_baudrate+0xee>
			break;
		}

		limit <<= 1;
    20fc:	88 0f       	add	r24, r24
    20fe:	99 1f       	adc	r25, r25
    2100:	aa 1f       	adc	r26, r26
    2102:	bb 1f       	adc	r27, r27

		if (exp < -3) {
    2104:	cd 3f       	cpi	r28, 0xFD	; 253
    2106:	0c f4       	brge	.+2      	; 0x210a <usart_set_baudrate+0xe6>
			limit |= 1;
    2108:	81 60       	ori	r24, 0x01	; 1
    210a:	cf 5f       	subi	r28, 0xFF	; 255

	/* Find the lowest possible exponent. */
	limit = 0xfffU >> 4;
	ratio = cpu_hz / baud;

	for (exp = -7; exp < 7; exp++) {
    210c:	c7 30       	cpi	r28, 0x07	; 7
    210e:	89 f7       	brne	.-30     	; 0x20f2 <usart_set_baudrate+0xce>
    2110:	4f c0       	rjmp	.+158    	; 0x21b0 <usart_set_baudrate+0x18c>
	 * point.
	 *
	 * The formula for calculating BSEL is slightly different when exp is
	 * negative than it is when exp is positive.
	 */
	if (exp < 0) {
    2112:	cc 23       	and	r28, r28
    2114:	0c f0       	brlt	.+2      	; 0x2118 <usart_set_baudrate+0xf4>
    2116:	4c c0       	rjmp	.+152    	; 0x21b0 <usart_set_baudrate+0x18c>
		/* We are supposed to subtract 1, then apply BSCALE. We want to
		 * apply BSCALE first, so we need to turn everything inside the
		 * parenthesis into a single fractional expression.
		 */
		cpu_hz -= 8 * baud;
    2118:	d5 01       	movw	r26, r10
    211a:	c4 01       	movw	r24, r8
    211c:	88 0f       	add	r24, r24
    211e:	99 1f       	adc	r25, r25
    2120:	aa 1f       	adc	r26, r26
    2122:	bb 1f       	adc	r27, r27
    2124:	88 0f       	add	r24, r24
    2126:	99 1f       	adc	r25, r25
    2128:	aa 1f       	adc	r26, r26
    212a:	bb 1f       	adc	r27, r27
    212c:	88 0f       	add	r24, r24
    212e:	99 1f       	adc	r25, r25
    2130:	aa 1f       	adc	r26, r26
    2132:	bb 1f       	adc	r27, r27
    2134:	48 1a       	sub	r4, r24
    2136:	59 0a       	sbc	r5, r25
    2138:	6a 0a       	sbc	r6, r26
    213a:	7b 0a       	sbc	r7, r27
		/* If we end up with a left-shift after taking the final
		 * divide-by-8 into account, do the shift before the divide.
		 * Otherwise, left-shift the denominator instead (effectively
		 * resulting in an overall right shift.)
		 */
		if (exp <= -3) {
    213c:	ce 3f       	cpi	r28, 0xFE	; 254
    213e:	f4 f4       	brge	.+60     	; 0x217c <usart_set_baudrate+0x158>
			div = ((cpu_hz << (-exp - 3)) + baud / 2) / baud;
    2140:	8d ef       	ldi	r24, 0xFD	; 253
    2142:	9f ef       	ldi	r25, 0xFF	; 255
    2144:	8c 1b       	sub	r24, r28
    2146:	91 09       	sbc	r25, r1
    2148:	c7 fd       	sbrc	r28, 7
    214a:	93 95       	inc	r25
    214c:	04 c0       	rjmp	.+8      	; 0x2156 <usart_set_baudrate+0x132>
    214e:	44 0c       	add	r4, r4
    2150:	55 1c       	adc	r5, r5
    2152:	66 1c       	adc	r6, r6
    2154:	77 1c       	adc	r7, r7
    2156:	8a 95       	dec	r24
    2158:	d2 f7       	brpl	.-12     	; 0x214e <usart_set_baudrate+0x12a>
    215a:	d5 01       	movw	r26, r10
    215c:	c4 01       	movw	r24, r8
    215e:	b6 95       	lsr	r27
    2160:	a7 95       	ror	r26
    2162:	97 95       	ror	r25
    2164:	87 95       	ror	r24
    2166:	bc 01       	movw	r22, r24
    2168:	cd 01       	movw	r24, r26
    216a:	64 0d       	add	r22, r4
    216c:	75 1d       	adc	r23, r5
    216e:	86 1d       	adc	r24, r6
    2170:	97 1d       	adc	r25, r7
    2172:	a5 01       	movw	r20, r10
    2174:	94 01       	movw	r18, r8
    2176:	0e 94 11 24 	call	0x4822	; 0x4822 <__udivmodsi4>
    217a:	37 c0       	rjmp	.+110    	; 0x21ea <usart_set_baudrate+0x1c6>
		} else {
			baud <<= exp + 3;
    217c:	83 e0       	ldi	r24, 0x03	; 3
    217e:	8c 0f       	add	r24, r28
    2180:	a5 01       	movw	r20, r10
    2182:	94 01       	movw	r18, r8
    2184:	04 c0       	rjmp	.+8      	; 0x218e <usart_set_baudrate+0x16a>
    2186:	22 0f       	add	r18, r18
    2188:	33 1f       	adc	r19, r19
    218a:	44 1f       	adc	r20, r20
    218c:	55 1f       	adc	r21, r21
    218e:	8a 95       	dec	r24
    2190:	d2 f7       	brpl	.-12     	; 0x2186 <usart_set_baudrate+0x162>
			div = (cpu_hz + baud / 2) / baud;
    2192:	da 01       	movw	r26, r20
    2194:	c9 01       	movw	r24, r18
    2196:	b6 95       	lsr	r27
    2198:	a7 95       	ror	r26
    219a:	97 95       	ror	r25
    219c:	87 95       	ror	r24
    219e:	bc 01       	movw	r22, r24
    21a0:	cd 01       	movw	r24, r26
    21a2:	64 0d       	add	r22, r4
    21a4:	75 1d       	adc	r23, r5
    21a6:	86 1d       	adc	r24, r6
    21a8:	97 1d       	adc	r25, r7
    21aa:	0e 94 11 24 	call	0x4822	; 0x4822 <__udivmodsi4>
    21ae:	1d c0       	rjmp	.+58     	; 0x21ea <usart_set_baudrate+0x1c6>
		}
	} else {
		/* We will always do a right shift in this case, but we need to
		 * shift three extra positions because of the divide-by-8.
		 */
		baud <<= exp + 3;
    21b0:	83 e0       	ldi	r24, 0x03	; 3
    21b2:	8c 0f       	add	r24, r28
    21b4:	a5 01       	movw	r20, r10
    21b6:	94 01       	movw	r18, r8
    21b8:	04 c0       	rjmp	.+8      	; 0x21c2 <usart_set_baudrate+0x19e>
    21ba:	22 0f       	add	r18, r18
    21bc:	33 1f       	adc	r19, r19
    21be:	44 1f       	adc	r20, r20
    21c0:	55 1f       	adc	r21, r21
    21c2:	8a 95       	dec	r24
    21c4:	d2 f7       	brpl	.-12     	; 0x21ba <usart_set_baudrate+0x196>
		div = (cpu_hz + baud / 2) / baud - 1;
    21c6:	da 01       	movw	r26, r20
    21c8:	c9 01       	movw	r24, r18
    21ca:	b6 95       	lsr	r27
    21cc:	a7 95       	ror	r26
    21ce:	97 95       	ror	r25
    21d0:	87 95       	ror	r24
    21d2:	bc 01       	movw	r22, r24
    21d4:	cd 01       	movw	r24, r26
    21d6:	64 0d       	add	r22, r4
    21d8:	75 1d       	adc	r23, r5
    21da:	86 1d       	adc	r24, r6
    21dc:	97 1d       	adc	r25, r7
    21de:	0e 94 11 24 	call	0x4822	; 0x4822 <__udivmodsi4>
    21e2:	21 50       	subi	r18, 0x01	; 1
    21e4:	31 09       	sbc	r19, r1
    21e6:	41 09       	sbc	r20, r1
    21e8:	51 09       	sbc	r21, r1
	}

	(usart)->BAUDCTRLB = (uint8_t)(((div >> 8) & 0X0F) | (exp << 4));
    21ea:	83 2f       	mov	r24, r19
    21ec:	8f 70       	andi	r24, 0x0F	; 15
    21ee:	c2 95       	swap	r28
    21f0:	c0 7f       	andi	r28, 0xF0	; 240
    21f2:	c8 2b       	or	r28, r24
    21f4:	f7 01       	movw	r30, r14
    21f6:	c7 83       	std	Z+7, r28	; 0x07
	(usart)->BAUDCTRLA = (uint8_t)div;
    21f8:	26 83       	std	Z+6, r18	; 0x06

	return true;
    21fa:	81 e0       	ldi	r24, 0x01	; 1
    21fc:	18 c0       	rjmp	.+48     	; 0x222e <usart_set_baudrate+0x20a>
		max_rate /= 2;
		min_rate /= 2;
	}

	if ((baud > max_rate) || (baud < min_rate)) {
		return false;
    21fe:	80 e0       	ldi	r24, 0x00	; 0
    2200:	16 c0       	rjmp	.+44     	; 0x222e <usart_set_baudrate+0x20a>
    2202:	80 e0       	ldi	r24, 0x00	; 0
    2204:	14 c0       	rjmp	.+40     	; 0x222e <usart_set_baudrate+0x20a>
	if (exp < 0) {
		/* We are supposed to subtract 1, then apply BSCALE. We want to
		 * apply BSCALE first, so we need to turn everything inside the
		 * parenthesis into a single fractional expression.
		 */
		cpu_hz -= 8 * baud;
    2206:	d5 01       	movw	r26, r10
    2208:	c4 01       	movw	r24, r8
    220a:	88 0f       	add	r24, r24
    220c:	99 1f       	adc	r25, r25
    220e:	aa 1f       	adc	r26, r26
    2210:	bb 1f       	adc	r27, r27
    2212:	88 0f       	add	r24, r24
    2214:	99 1f       	adc	r25, r25
    2216:	aa 1f       	adc	r26, r26
    2218:	bb 1f       	adc	r27, r27
    221a:	88 0f       	add	r24, r24
    221c:	99 1f       	adc	r25, r25
    221e:	aa 1f       	adc	r26, r26
    2220:	bb 1f       	adc	r27, r27
    2222:	48 1a       	sub	r4, r24
    2224:	59 0a       	sbc	r5, r25
    2226:	6a 0a       	sbc	r6, r26
    2228:	7b 0a       	sbc	r7, r27

	/* Find the lowest possible exponent. */
	limit = 0xfffU >> 4;
	ratio = cpu_hz / baud;

	for (exp = -7; exp < 7; exp++) {
    222a:	c9 ef       	ldi	r28, 0xF9	; 249
    222c:	89 cf       	rjmp	.-238    	; 0x2140 <usart_set_baudrate+0x11c>

	(usart)->BAUDCTRLB = (uint8_t)(((div >> 8) & 0X0F) | (exp << 4));
	(usart)->BAUDCTRLA = (uint8_t)div;

	return true;
}
    222e:	cf 91       	pop	r28
    2230:	1f 91       	pop	r17
    2232:	0f 91       	pop	r16
    2234:	ff 90       	pop	r15
    2236:	ef 90       	pop	r14
    2238:	bf 90       	pop	r11
    223a:	af 90       	pop	r10
    223c:	9f 90       	pop	r9
    223e:	8f 90       	pop	r8
    2240:	7f 90       	pop	r7
    2242:	6f 90       	pop	r6
    2244:	5f 90       	pop	r5
    2246:	4f 90       	pop	r4
    2248:	08 95       	ret

0000224a <usart_init_rs232>:
 *
 * \retval true if the initialization was successfull
 * \retval false if the initialization failed (error in baud rate calculation)
 */
bool usart_init_rs232(USART_t *usart, const usart_rs232_options_t *opt)
{
    224a:	0f 93       	push	r16
    224c:	1f 93       	push	r17
    224e:	cf 93       	push	r28
    2250:	df 93       	push	r29
    2252:	ec 01       	movw	r28, r24
    2254:	8b 01       	movw	r16, r22
 *
 * \param module Pointer to the module's base address.
 */
static inline void sysclk_enable_peripheral_clock(const volatile void *module)
{
	if (module == NULL) {
    2256:	00 97       	sbiw	r24, 0x00	; 0
    2258:	09 f4       	brne	.+2      	; 0x225c <usart_init_rs232+0x12>
    225a:	5d c1       	rjmp	.+698    	; 0x2516 <usart_init_rs232+0x2cc>
		Assert(false);
	}
#ifdef AES
	else if (module == &AES) {
    225c:	80 3c       	cpi	r24, 0xC0	; 192
    225e:	91 05       	cpc	r25, r1
    2260:	29 f4       	brne	.+10     	; 0x226c <usart_init_rs232+0x22>
		sysclk_enable_module(SYSCLK_PORT_GEN, SYSCLK_AES);
    2262:	60 e1       	ldi	r22, 0x10	; 16
    2264:	80 e0       	ldi	r24, 0x00	; 0
    2266:	0e 94 0b 05 	call	0xa16	; 0xa16 <sysclk_enable_module>
    226a:	55 c1       	rjmp	.+682    	; 0x2516 <usart_init_rs232+0x2cc>
	}
#endif
#ifdef EBI
	else if (module == &EBI) {
    226c:	c0 34       	cpi	r28, 0x40	; 64
    226e:	84 e0       	ldi	r24, 0x04	; 4
    2270:	d8 07       	cpc	r29, r24
    2272:	29 f4       	brne	.+10     	; 0x227e <usart_init_rs232+0x34>
		sysclk_enable_module(SYSCLK_PORT_GEN, SYSCLK_EBI);
    2274:	68 e0       	ldi	r22, 0x08	; 8
    2276:	80 e0       	ldi	r24, 0x00	; 0
    2278:	0e 94 0b 05 	call	0xa16	; 0xa16 <sysclk_enable_module>
    227c:	4c c1       	rjmp	.+664    	; 0x2516 <usart_init_rs232+0x2cc>
	}
#endif
#ifdef RTC
	else if (module == &RTC) {
    227e:	c1 15       	cp	r28, r1
    2280:	e4 e0       	ldi	r30, 0x04	; 4
    2282:	de 07       	cpc	r29, r30
    2284:	29 f4       	brne	.+10     	; 0x2290 <usart_init_rs232+0x46>
		sysclk_enable_module(SYSCLK_PORT_GEN, SYSCLK_RTC);
    2286:	64 e0       	ldi	r22, 0x04	; 4
    2288:	80 e0       	ldi	r24, 0x00	; 0
    228a:	0e 94 0b 05 	call	0xa16	; 0xa16 <sysclk_enable_module>
    228e:	43 c1       	rjmp	.+646    	; 0x2516 <usart_init_rs232+0x2cc>
	}
#endif
#ifdef EVSYS
	else if (module == &EVSYS) {
    2290:	c0 38       	cpi	r28, 0x80	; 128
    2292:	f1 e0       	ldi	r31, 0x01	; 1
    2294:	df 07       	cpc	r29, r31
    2296:	29 f4       	brne	.+10     	; 0x22a2 <usart_init_rs232+0x58>
		sysclk_enable_module(SYSCLK_PORT_GEN, SYSCLK_EVSYS);
    2298:	62 e0       	ldi	r22, 0x02	; 2
    229a:	80 e0       	ldi	r24, 0x00	; 0
    229c:	0e 94 0b 05 	call	0xa16	; 0xa16 <sysclk_enable_module>
    22a0:	3a c1       	rjmp	.+628    	; 0x2516 <usart_init_rs232+0x2cc>
	}
#endif
#ifdef DMA
	else if (module == &DMA) {
    22a2:	c1 15       	cp	r28, r1
    22a4:	81 e0       	ldi	r24, 0x01	; 1
    22a6:	d8 07       	cpc	r29, r24
    22a8:	29 f4       	brne	.+10     	; 0x22b4 <usart_init_rs232+0x6a>
		sysclk_enable_module(SYSCLK_PORT_GEN, SYSCLK_DMA);
    22aa:	61 e0       	ldi	r22, 0x01	; 1
    22ac:	80 e0       	ldi	r24, 0x00	; 0
    22ae:	0e 94 0b 05 	call	0xa16	; 0xa16 <sysclk_enable_module>
    22b2:	31 c1       	rjmp	.+610    	; 0x2516 <usart_init_rs232+0x2cc>
	else if (module == &EDMA) {
		sysclk_enable_module(SYSCLK_PORT_GEN, SYSCLK_EDMA);
	}
#endif
#ifdef ACA
	else if (module == &ACA) {
    22b4:	c0 38       	cpi	r28, 0x80	; 128
    22b6:	e3 e0       	ldi	r30, 0x03	; 3
    22b8:	de 07       	cpc	r29, r30
    22ba:	29 f4       	brne	.+10     	; 0x22c6 <usart_init_rs232+0x7c>
		sysclk_enable_module(SYSCLK_PORT_A, SYSCLK_AC);
    22bc:	61 e0       	ldi	r22, 0x01	; 1
    22be:	81 e0       	ldi	r24, 0x01	; 1
    22c0:	0e 94 0b 05 	call	0xa16	; 0xa16 <sysclk_enable_module>
    22c4:	28 c1       	rjmp	.+592    	; 0x2516 <usart_init_rs232+0x2cc>
	}
#endif
#ifdef ACB
	else if (module == &ACB) {
    22c6:	c0 39       	cpi	r28, 0x90	; 144
    22c8:	f3 e0       	ldi	r31, 0x03	; 3
    22ca:	df 07       	cpc	r29, r31
    22cc:	29 f4       	brne	.+10     	; 0x22d8 <usart_init_rs232+0x8e>
		sysclk_enable_module(SYSCLK_PORT_B, SYSCLK_AC);
    22ce:	61 e0       	ldi	r22, 0x01	; 1
    22d0:	82 e0       	ldi	r24, 0x02	; 2
    22d2:	0e 94 0b 05 	call	0xa16	; 0xa16 <sysclk_enable_module>
    22d6:	1f c1       	rjmp	.+574    	; 0x2516 <usart_init_rs232+0x2cc>
	}
#endif
#ifdef ADCA
	else if (module == &ADCA) {
    22d8:	c1 15       	cp	r28, r1
    22da:	82 e0       	ldi	r24, 0x02	; 2
    22dc:	d8 07       	cpc	r29, r24
    22de:	29 f4       	brne	.+10     	; 0x22ea <usart_init_rs232+0xa0>
		sysclk_enable_module(SYSCLK_PORT_A, SYSCLK_ADC);
    22e0:	62 e0       	ldi	r22, 0x02	; 2
    22e2:	81 e0       	ldi	r24, 0x01	; 1
    22e4:	0e 94 0b 05 	call	0xa16	; 0xa16 <sysclk_enable_module>
    22e8:	16 c1       	rjmp	.+556    	; 0x2516 <usart_init_rs232+0x2cc>
	}
#endif
#ifdef ADCB
	else if (module == &ADCB) {
    22ea:	c0 34       	cpi	r28, 0x40	; 64
    22ec:	e2 e0       	ldi	r30, 0x02	; 2
    22ee:	de 07       	cpc	r29, r30
    22f0:	29 f4       	brne	.+10     	; 0x22fc <usart_init_rs232+0xb2>
		sysclk_enable_module(SYSCLK_PORT_B, SYSCLK_ADC);
    22f2:	62 e0       	ldi	r22, 0x02	; 2
    22f4:	82 e0       	ldi	r24, 0x02	; 2
    22f6:	0e 94 0b 05 	call	0xa16	; 0xa16 <sysclk_enable_module>
    22fa:	0d c1       	rjmp	.+538    	; 0x2516 <usart_init_rs232+0x2cc>
	}
#endif
#ifdef DACA
	else if (module == &DACA) {
    22fc:	c1 15       	cp	r28, r1
    22fe:	f3 e0       	ldi	r31, 0x03	; 3
    2300:	df 07       	cpc	r29, r31
    2302:	29 f4       	brne	.+10     	; 0x230e <usart_init_rs232+0xc4>
		sysclk_enable_module(SYSCLK_PORT_A, SYSCLK_DAC);
    2304:	64 e0       	ldi	r22, 0x04	; 4
    2306:	81 e0       	ldi	r24, 0x01	; 1
    2308:	0e 94 0b 05 	call	0xa16	; 0xa16 <sysclk_enable_module>
    230c:	04 c1       	rjmp	.+520    	; 0x2516 <usart_init_rs232+0x2cc>
	}
#endif
// Workaround for bad XMEGA D header file
#if !XMEGA_D
#ifdef DACB
	else if (module == &DACB) {
    230e:	c0 32       	cpi	r28, 0x20	; 32
    2310:	83 e0       	ldi	r24, 0x03	; 3
    2312:	d8 07       	cpc	r29, r24
    2314:	29 f4       	brne	.+10     	; 0x2320 <usart_init_rs232+0xd6>
		sysclk_enable_module(SYSCLK_PORT_B, SYSCLK_DAC);
    2316:	64 e0       	ldi	r22, 0x04	; 4
    2318:	82 e0       	ldi	r24, 0x02	; 2
    231a:	0e 94 0b 05 	call	0xa16	; 0xa16 <sysclk_enable_module>
    231e:	fb c0       	rjmp	.+502    	; 0x2516 <usart_init_rs232+0x2cc>
	}
#endif
#endif // Workaround end
#ifdef TCC0
	else if (module == &TCC0) {
    2320:	c1 15       	cp	r28, r1
    2322:	e8 e0       	ldi	r30, 0x08	; 8
    2324:	de 07       	cpc	r29, r30
    2326:	29 f4       	brne	.+10     	; 0x2332 <usart_init_rs232+0xe8>
		sysclk_enable_module(SYSCLK_PORT_C, SYSCLK_TC0);
    2328:	61 e0       	ldi	r22, 0x01	; 1
    232a:	83 e0       	ldi	r24, 0x03	; 3
    232c:	0e 94 0b 05 	call	0xa16	; 0xa16 <sysclk_enable_module>
    2330:	f2 c0       	rjmp	.+484    	; 0x2516 <usart_init_rs232+0x2cc>
	}
#endif
#ifdef TCD0
	else if (module == &TCD0) {
    2332:	c1 15       	cp	r28, r1
    2334:	f9 e0       	ldi	r31, 0x09	; 9
    2336:	df 07       	cpc	r29, r31
    2338:	29 f4       	brne	.+10     	; 0x2344 <usart_init_rs232+0xfa>
		sysclk_enable_module(SYSCLK_PORT_D, SYSCLK_TC0);
    233a:	61 e0       	ldi	r22, 0x01	; 1
    233c:	84 e0       	ldi	r24, 0x04	; 4
    233e:	0e 94 0b 05 	call	0xa16	; 0xa16 <sysclk_enable_module>
    2342:	e9 c0       	rjmp	.+466    	; 0x2516 <usart_init_rs232+0x2cc>
	}
#endif
#ifdef TCE0
	else if (module == &TCE0) {
    2344:	c1 15       	cp	r28, r1
    2346:	8a e0       	ldi	r24, 0x0A	; 10
    2348:	d8 07       	cpc	r29, r24
    234a:	29 f4       	brne	.+10     	; 0x2356 <usart_init_rs232+0x10c>
		sysclk_enable_module(SYSCLK_PORT_E, SYSCLK_TC0);
    234c:	61 e0       	ldi	r22, 0x01	; 1
    234e:	85 e0       	ldi	r24, 0x05	; 5
    2350:	0e 94 0b 05 	call	0xa16	; 0xa16 <sysclk_enable_module>
    2354:	e0 c0       	rjmp	.+448    	; 0x2516 <usart_init_rs232+0x2cc>
	}
#endif
#ifdef TCF0
	else if (module == &TCF0) {
    2356:	c1 15       	cp	r28, r1
    2358:	eb e0       	ldi	r30, 0x0B	; 11
    235a:	de 07       	cpc	r29, r30
    235c:	29 f4       	brne	.+10     	; 0x2368 <usart_init_rs232+0x11e>
		sysclk_enable_module(SYSCLK_PORT_F, SYSCLK_TC0);
    235e:	61 e0       	ldi	r22, 0x01	; 1
    2360:	86 e0       	ldi	r24, 0x06	; 6
    2362:	0e 94 0b 05 	call	0xa16	; 0xa16 <sysclk_enable_module>
    2366:	d7 c0       	rjmp	.+430    	; 0x2516 <usart_init_rs232+0x2cc>
	}
#endif
#ifdef TCC1
	else if (module == &TCC1) {
    2368:	c0 34       	cpi	r28, 0x40	; 64
    236a:	f8 e0       	ldi	r31, 0x08	; 8
    236c:	df 07       	cpc	r29, r31
    236e:	29 f4       	brne	.+10     	; 0x237a <usart_init_rs232+0x130>
		sysclk_enable_module(SYSCLK_PORT_C, SYSCLK_TC1);
    2370:	62 e0       	ldi	r22, 0x02	; 2
    2372:	83 e0       	ldi	r24, 0x03	; 3
    2374:	0e 94 0b 05 	call	0xa16	; 0xa16 <sysclk_enable_module>
    2378:	ce c0       	rjmp	.+412    	; 0x2516 <usart_init_rs232+0x2cc>
	}
#endif
#ifdef TCD1
	else if (module == &TCD1) {
    237a:	c0 34       	cpi	r28, 0x40	; 64
    237c:	89 e0       	ldi	r24, 0x09	; 9
    237e:	d8 07       	cpc	r29, r24
    2380:	29 f4       	brne	.+10     	; 0x238c <usart_init_rs232+0x142>
		sysclk_enable_module(SYSCLK_PORT_D, SYSCLK_TC1);
    2382:	62 e0       	ldi	r22, 0x02	; 2
    2384:	84 e0       	ldi	r24, 0x04	; 4
    2386:	0e 94 0b 05 	call	0xa16	; 0xa16 <sysclk_enable_module>
    238a:	c5 c0       	rjmp	.+394    	; 0x2516 <usart_init_rs232+0x2cc>
	}
#endif
#ifdef TCE1
	else if (module == &TCE1) {
    238c:	c0 34       	cpi	r28, 0x40	; 64
    238e:	ea e0       	ldi	r30, 0x0A	; 10
    2390:	de 07       	cpc	r29, r30
    2392:	29 f4       	brne	.+10     	; 0x239e <usart_init_rs232+0x154>
		sysclk_enable_module(SYSCLK_PORT_E, SYSCLK_TC1);
    2394:	62 e0       	ldi	r22, 0x02	; 2
    2396:	85 e0       	ldi	r24, 0x05	; 5
    2398:	0e 94 0b 05 	call	0xa16	; 0xa16 <sysclk_enable_module>
    239c:	bc c0       	rjmp	.+376    	; 0x2516 <usart_init_rs232+0x2cc>
	}
#endif
#ifdef TCF1
	else if (module == &TCF1) {
    239e:	c0 34       	cpi	r28, 0x40	; 64
    23a0:	fb e0       	ldi	r31, 0x0B	; 11
    23a2:	df 07       	cpc	r29, r31
    23a4:	29 f4       	brne	.+10     	; 0x23b0 <usart_init_rs232+0x166>
		sysclk_enable_module(SYSCLK_PORT_F, SYSCLK_TC1);
    23a6:	62 e0       	ldi	r22, 0x02	; 2
    23a8:	86 e0       	ldi	r24, 0x06	; 6
    23aa:	0e 94 0b 05 	call	0xa16	; 0xa16 <sysclk_enable_module>
    23ae:	b3 c0       	rjmp	.+358    	; 0x2516 <usart_init_rs232+0x2cc>
	else if (module == &TCD5) {
		sysclk_enable_module(SYSCLK_PORT_D, SYSCLK_TC5);
	}
#endif
#ifdef HIRESC
	else if (module == &HIRESC) {
    23b0:	c0 39       	cpi	r28, 0x90	; 144
    23b2:	88 e0       	ldi	r24, 0x08	; 8
    23b4:	d8 07       	cpc	r29, r24
    23b6:	29 f4       	brne	.+10     	; 0x23c2 <usart_init_rs232+0x178>
			sysclk_enable_module(SYSCLK_PORT_C, SYSCLK_HIRES);
    23b8:	64 e0       	ldi	r22, 0x04	; 4
    23ba:	83 e0       	ldi	r24, 0x03	; 3
    23bc:	0e 94 0b 05 	call	0xa16	; 0xa16 <sysclk_enable_module>
    23c0:	aa c0       	rjmp	.+340    	; 0x2516 <usart_init_rs232+0x2cc>
	}
#endif
#ifdef HIRESD
	else if (module == &HIRESD) {
    23c2:	c0 39       	cpi	r28, 0x90	; 144
    23c4:	e9 e0       	ldi	r30, 0x09	; 9
    23c6:	de 07       	cpc	r29, r30
    23c8:	29 f4       	brne	.+10     	; 0x23d4 <usart_init_rs232+0x18a>
		sysclk_enable_module(SYSCLK_PORT_D, SYSCLK_HIRES);
    23ca:	64 e0       	ldi	r22, 0x04	; 4
    23cc:	84 e0       	ldi	r24, 0x04	; 4
    23ce:	0e 94 0b 05 	call	0xa16	; 0xa16 <sysclk_enable_module>
    23d2:	a1 c0       	rjmp	.+322    	; 0x2516 <usart_init_rs232+0x2cc>
	}
#endif
#ifdef HIRESE
	else if (module == &HIRESE) {
    23d4:	c0 39       	cpi	r28, 0x90	; 144
    23d6:	fa e0       	ldi	r31, 0x0A	; 10
    23d8:	df 07       	cpc	r29, r31
    23da:	29 f4       	brne	.+10     	; 0x23e6 <usart_init_rs232+0x19c>
		sysclk_enable_module(SYSCLK_PORT_E, SYSCLK_HIRES);
    23dc:	64 e0       	ldi	r22, 0x04	; 4
    23de:	85 e0       	ldi	r24, 0x05	; 5
    23e0:	0e 94 0b 05 	call	0xa16	; 0xa16 <sysclk_enable_module>
    23e4:	98 c0       	rjmp	.+304    	; 0x2516 <usart_init_rs232+0x2cc>
	}
#endif
#ifdef HIRESF
	else if (module == &HIRESF) {
    23e6:	c0 39       	cpi	r28, 0x90	; 144
    23e8:	8b e0       	ldi	r24, 0x0B	; 11
    23ea:	d8 07       	cpc	r29, r24
    23ec:	29 f4       	brne	.+10     	; 0x23f8 <usart_init_rs232+0x1ae>
		sysclk_enable_module(SYSCLK_PORT_F, SYSCLK_HIRES);
    23ee:	64 e0       	ldi	r22, 0x04	; 4
    23f0:	86 e0       	ldi	r24, 0x06	; 6
    23f2:	0e 94 0b 05 	call	0xa16	; 0xa16 <sysclk_enable_module>
    23f6:	8f c0       	rjmp	.+286    	; 0x2516 <usart_init_rs232+0x2cc>
	}
#endif
#ifdef SPIC
	else if (module == &SPIC) {
    23f8:	c0 3c       	cpi	r28, 0xC0	; 192
    23fa:	e8 e0       	ldi	r30, 0x08	; 8
    23fc:	de 07       	cpc	r29, r30
    23fe:	29 f4       	brne	.+10     	; 0x240a <usart_init_rs232+0x1c0>
		sysclk_enable_module(SYSCLK_PORT_C, SYSCLK_SPI);
    2400:	68 e0       	ldi	r22, 0x08	; 8
    2402:	83 e0       	ldi	r24, 0x03	; 3
    2404:	0e 94 0b 05 	call	0xa16	; 0xa16 <sysclk_enable_module>
    2408:	86 c0       	rjmp	.+268    	; 0x2516 <usart_init_rs232+0x2cc>
	}
#endif
#ifdef SPID
	else if (module == &SPID) {
    240a:	c0 3c       	cpi	r28, 0xC0	; 192
    240c:	f9 e0       	ldi	r31, 0x09	; 9
    240e:	df 07       	cpc	r29, r31
    2410:	29 f4       	brne	.+10     	; 0x241c <usart_init_rs232+0x1d2>
		sysclk_enable_module(SYSCLK_PORT_D, SYSCLK_SPI);
    2412:	68 e0       	ldi	r22, 0x08	; 8
    2414:	84 e0       	ldi	r24, 0x04	; 4
    2416:	0e 94 0b 05 	call	0xa16	; 0xa16 <sysclk_enable_module>
    241a:	7d c0       	rjmp	.+250    	; 0x2516 <usart_init_rs232+0x2cc>
	}
#endif
#ifdef SPIE
	else if (module == &SPIE) {
    241c:	c0 3c       	cpi	r28, 0xC0	; 192
    241e:	8a e0       	ldi	r24, 0x0A	; 10
    2420:	d8 07       	cpc	r29, r24
    2422:	29 f4       	brne	.+10     	; 0x242e <usart_init_rs232+0x1e4>
		sysclk_enable_module(SYSCLK_PORT_E, SYSCLK_SPI);
    2424:	68 e0       	ldi	r22, 0x08	; 8
    2426:	85 e0       	ldi	r24, 0x05	; 5
    2428:	0e 94 0b 05 	call	0xa16	; 0xa16 <sysclk_enable_module>
    242c:	74 c0       	rjmp	.+232    	; 0x2516 <usart_init_rs232+0x2cc>
	}
#endif
#ifdef SPIF
	else if (module == &SPIF) {
    242e:	c0 3c       	cpi	r28, 0xC0	; 192
    2430:	eb e0       	ldi	r30, 0x0B	; 11
    2432:	de 07       	cpc	r29, r30
    2434:	29 f4       	brne	.+10     	; 0x2440 <usart_init_rs232+0x1f6>
		sysclk_enable_module(SYSCLK_PORT_F, SYSCLK_SPI);
    2436:	68 e0       	ldi	r22, 0x08	; 8
    2438:	86 e0       	ldi	r24, 0x06	; 6
    243a:	0e 94 0b 05 	call	0xa16	; 0xa16 <sysclk_enable_module>
    243e:	6b c0       	rjmp	.+214    	; 0x2516 <usart_init_rs232+0x2cc>
	}
#endif
#ifdef USARTC0
	else if (module == &USARTC0) {
    2440:	c0 3a       	cpi	r28, 0xA0	; 160
    2442:	f8 e0       	ldi	r31, 0x08	; 8
    2444:	df 07       	cpc	r29, r31
    2446:	29 f4       	brne	.+10     	; 0x2452 <usart_init_rs232+0x208>
		sysclk_enable_module(SYSCLK_PORT_C, SYSCLK_USART0);
    2448:	60 e1       	ldi	r22, 0x10	; 16
    244a:	83 e0       	ldi	r24, 0x03	; 3
    244c:	0e 94 0b 05 	call	0xa16	; 0xa16 <sysclk_enable_module>
    2450:	62 c0       	rjmp	.+196    	; 0x2516 <usart_init_rs232+0x2cc>
	}
#endif
#ifdef USARTD0
	else if (module == &USARTD0) {
    2452:	c0 3a       	cpi	r28, 0xA0	; 160
    2454:	89 e0       	ldi	r24, 0x09	; 9
    2456:	d8 07       	cpc	r29, r24
    2458:	29 f4       	brne	.+10     	; 0x2464 <usart_init_rs232+0x21a>
		sysclk_enable_module(SYSCLK_PORT_D, SYSCLK_USART0);
    245a:	60 e1       	ldi	r22, 0x10	; 16
    245c:	84 e0       	ldi	r24, 0x04	; 4
    245e:	0e 94 0b 05 	call	0xa16	; 0xa16 <sysclk_enable_module>
    2462:	59 c0       	rjmp	.+178    	; 0x2516 <usart_init_rs232+0x2cc>
	}
#endif
#ifdef USARTE0
	else if (module == &USARTE0) {
    2464:	c0 3a       	cpi	r28, 0xA0	; 160
    2466:	ea e0       	ldi	r30, 0x0A	; 10
    2468:	de 07       	cpc	r29, r30
    246a:	29 f4       	brne	.+10     	; 0x2476 <usart_init_rs232+0x22c>
		sysclk_enable_module(SYSCLK_PORT_E, SYSCLK_USART0);
    246c:	60 e1       	ldi	r22, 0x10	; 16
    246e:	85 e0       	ldi	r24, 0x05	; 5
    2470:	0e 94 0b 05 	call	0xa16	; 0xa16 <sysclk_enable_module>
    2474:	50 c0       	rjmp	.+160    	; 0x2516 <usart_init_rs232+0x2cc>
	}
#endif
#ifdef USARTF0
	else if (module == &USARTF0) {
    2476:	c0 3a       	cpi	r28, 0xA0	; 160
    2478:	fb e0       	ldi	r31, 0x0B	; 11
    247a:	df 07       	cpc	r29, r31
    247c:	29 f4       	brne	.+10     	; 0x2488 <usart_init_rs232+0x23e>
		sysclk_enable_module(SYSCLK_PORT_F, SYSCLK_USART0);
    247e:	60 e1       	ldi	r22, 0x10	; 16
    2480:	86 e0       	ldi	r24, 0x06	; 6
    2482:	0e 94 0b 05 	call	0xa16	; 0xa16 <sysclk_enable_module>
    2486:	47 c0       	rjmp	.+142    	; 0x2516 <usart_init_rs232+0x2cc>
	}
#endif
#ifdef USARTC1
	else if (module == &USARTC1) {
    2488:	c0 3b       	cpi	r28, 0xB0	; 176
    248a:	88 e0       	ldi	r24, 0x08	; 8
    248c:	d8 07       	cpc	r29, r24
    248e:	29 f4       	brne	.+10     	; 0x249a <usart_init_rs232+0x250>
		sysclk_enable_module(SYSCLK_PORT_C, SYSCLK_USART1);
    2490:	60 e2       	ldi	r22, 0x20	; 32
    2492:	83 e0       	ldi	r24, 0x03	; 3
    2494:	0e 94 0b 05 	call	0xa16	; 0xa16 <sysclk_enable_module>
    2498:	3e c0       	rjmp	.+124    	; 0x2516 <usart_init_rs232+0x2cc>
	}
#endif
#ifdef USARTD1
	else if (module == &USARTD1) {
    249a:	c0 3b       	cpi	r28, 0xB0	; 176
    249c:	e9 e0       	ldi	r30, 0x09	; 9
    249e:	de 07       	cpc	r29, r30
    24a0:	29 f4       	brne	.+10     	; 0x24ac <usart_init_rs232+0x262>
		sysclk_enable_module(SYSCLK_PORT_D, SYSCLK_USART1);
    24a2:	60 e2       	ldi	r22, 0x20	; 32
    24a4:	84 e0       	ldi	r24, 0x04	; 4
    24a6:	0e 94 0b 05 	call	0xa16	; 0xa16 <sysclk_enable_module>
    24aa:	35 c0       	rjmp	.+106    	; 0x2516 <usart_init_rs232+0x2cc>
	}
#endif
#ifdef USARTE1
	else if (module == &USARTE1) {
    24ac:	c0 3b       	cpi	r28, 0xB0	; 176
    24ae:	fa e0       	ldi	r31, 0x0A	; 10
    24b0:	df 07       	cpc	r29, r31
    24b2:	29 f4       	brne	.+10     	; 0x24be <usart_init_rs232+0x274>
		sysclk_enable_module(SYSCLK_PORT_E, SYSCLK_USART1);
    24b4:	60 e2       	ldi	r22, 0x20	; 32
    24b6:	85 e0       	ldi	r24, 0x05	; 5
    24b8:	0e 94 0b 05 	call	0xa16	; 0xa16 <sysclk_enable_module>
    24bc:	2c c0       	rjmp	.+88     	; 0x2516 <usart_init_rs232+0x2cc>
	}
#endif
#ifdef USARTF1
	else if (module == &USARTF1) {
    24be:	c0 3b       	cpi	r28, 0xB0	; 176
    24c0:	8b e0       	ldi	r24, 0x0B	; 11
    24c2:	d8 07       	cpc	r29, r24
    24c4:	29 f4       	brne	.+10     	; 0x24d0 <usart_init_rs232+0x286>
		sysclk_enable_module(SYSCLK_PORT_F, SYSCLK_USART1);
    24c6:	60 e2       	ldi	r22, 0x20	; 32
    24c8:	86 e0       	ldi	r24, 0x06	; 6
    24ca:	0e 94 0b 05 	call	0xa16	; 0xa16 <sysclk_enable_module>
    24ce:	23 c0       	rjmp	.+70     	; 0x2516 <usart_init_rs232+0x2cc>
	}
#endif
#ifdef TWIC
	else if (module == &TWIC) {
    24d0:	c0 38       	cpi	r28, 0x80	; 128
    24d2:	e4 e0       	ldi	r30, 0x04	; 4
    24d4:	de 07       	cpc	r29, r30
    24d6:	29 f4       	brne	.+10     	; 0x24e2 <usart_init_rs232+0x298>
		sysclk_enable_module(SYSCLK_PORT_C, SYSCLK_TWI);
    24d8:	60 e4       	ldi	r22, 0x40	; 64
    24da:	83 e0       	ldi	r24, 0x03	; 3
    24dc:	0e 94 0b 05 	call	0xa16	; 0xa16 <sysclk_enable_module>
    24e0:	1a c0       	rjmp	.+52     	; 0x2516 <usart_init_rs232+0x2cc>
	}
#endif
#ifdef TWID
	else if (module == &TWID) {
    24e2:	c0 39       	cpi	r28, 0x90	; 144
    24e4:	f4 e0       	ldi	r31, 0x04	; 4
    24e6:	df 07       	cpc	r29, r31
    24e8:	29 f4       	brne	.+10     	; 0x24f4 <usart_init_rs232+0x2aa>
		sysclk_enable_module(SYSCLK_PORT_D, SYSCLK_TWI);
    24ea:	60 e4       	ldi	r22, 0x40	; 64
    24ec:	84 e0       	ldi	r24, 0x04	; 4
    24ee:	0e 94 0b 05 	call	0xa16	; 0xa16 <sysclk_enable_module>
    24f2:	11 c0       	rjmp	.+34     	; 0x2516 <usart_init_rs232+0x2cc>
	}
#endif
#ifdef TWIE
	else if (module == &TWIE) {
    24f4:	c0 3a       	cpi	r28, 0xA0	; 160
    24f6:	84 e0       	ldi	r24, 0x04	; 4
    24f8:	d8 07       	cpc	r29, r24
    24fa:	29 f4       	brne	.+10     	; 0x2506 <usart_init_rs232+0x2bc>
		sysclk_enable_module(SYSCLK_PORT_E, SYSCLK_TWI);
    24fc:	60 e4       	ldi	r22, 0x40	; 64
    24fe:	85 e0       	ldi	r24, 0x05	; 5
    2500:	0e 94 0b 05 	call	0xa16	; 0xa16 <sysclk_enable_module>
    2504:	08 c0       	rjmp	.+16     	; 0x2516 <usart_init_rs232+0x2cc>
	}
#endif
#ifdef TWIF
	else if (module == &TWIF) {
    2506:	c0 3b       	cpi	r28, 0xB0	; 176
    2508:	e4 e0       	ldi	r30, 0x04	; 4
    250a:	de 07       	cpc	r29, r30
    250c:	21 f4       	brne	.+8      	; 0x2516 <usart_init_rs232+0x2cc>
		sysclk_enable_module(SYSCLK_PORT_F, SYSCLK_TWI);
    250e:	60 e4       	ldi	r22, 0x40	; 64
    2510:	86 e0       	ldi	r24, 0x06	; 6
    2512:	0e 94 0b 05 	call	0xa16	; 0xa16 <sysclk_enable_module>
 * - 0x2        : IrDA mode.
 * - 0x3        : Master SPI mode.
 */
static inline void usart_set_mode(USART_t *usart, USART_CMODE_t usartmode)
{
	(usart)->CTRLC = ((usart)->CTRLC & (~USART_CMODE_gm)) | usartmode;
    2516:	8d 81       	ldd	r24, Y+5	; 0x05
    2518:	8f 73       	andi	r24, 0x3F	; 63
    251a:	8d 83       	std	Y+5, r24	; 0x05
 *  \param twoStopBits Enable two stop bit mode. Use bool type.
 */
static inline void usart_format_set(USART_t *usart, USART_CHSIZE_t charSize,
		USART_PMODE_t parityMode, bool twoStopBits)
{
	(usart)->CTRLC = (uint8_t)charSize | parityMode
    251c:	f8 01       	movw	r30, r16
    251e:	95 81       	ldd	r25, Z+5	; 0x05
    2520:	84 81       	ldd	r24, Z+4	; 0x04
    2522:	89 2b       	or	r24, r25
    2524:	96 81       	ldd	r25, Z+6	; 0x06
    2526:	91 11       	cpse	r25, r1
    2528:	98 e0       	ldi	r25, 0x08	; 8
    252a:	89 2b       	or	r24, r25
    252c:	8d 83       	std	Y+5, r24	; 0x05
	bool result;
	sysclk_enable_peripheral_clock(usart);
	usart_set_mode(usart, USART_CMODE_ASYNCHRONOUS_gc);
	usart_format_set(usart, opt->charlength, opt->paritytype,
			opt->stopbits);
	result = usart_set_baudrate(usart, opt->baudrate, sysclk_get_per_hz());
    252e:	f8 01       	movw	r30, r16
    2530:	40 81       	ld	r20, Z
    2532:	51 81       	ldd	r21, Z+1	; 0x01
    2534:	62 81       	ldd	r22, Z+2	; 0x02
    2536:	73 81       	ldd	r23, Z+3	; 0x03
    2538:	00 e0       	ldi	r16, 0x00	; 0
    253a:	18 e4       	ldi	r17, 0x48	; 72
    253c:	28 ee       	ldi	r18, 0xE8	; 232
    253e:	31 e0       	ldi	r19, 0x01	; 1
    2540:	ce 01       	movw	r24, r28
    2542:	70 dd       	rcall	.-1312   	; 0x2024 <usart_set_baudrate>
 *
 * \param usart Pointer to the USART module.
 */
static inline void usart_tx_enable(USART_t *usart)
{
	(usart)->CTRLB |= USART_TXEN_bm;
    2544:	9c 81       	ldd	r25, Y+4	; 0x04
    2546:	98 60       	ori	r25, 0x08	; 8
    2548:	9c 83       	std	Y+4, r25	; 0x04
 *
 * \param usart Pointer to the USART module
 */
static inline void usart_rx_enable(USART_t *usart)
{
	(usart)->CTRLB |= USART_RXEN_bm;
    254a:	9c 81       	ldd	r25, Y+4	; 0x04
    254c:	90 61       	ori	r25, 0x10	; 16
    254e:	9c 83       	std	Y+4, r25	; 0x04
	usart_tx_enable(usart);
	usart_rx_enable(usart);
	
	return result;
}
    2550:	df 91       	pop	r29
    2552:	cf 91       	pop	r28
    2554:	1f 91       	pop	r17
    2556:	0f 91       	pop	r16
    2558:	08 95       	ret

0000255a <Get_altitude>:
	//printf("altitude = %f \n", (float)altitude);
	return altitude;
}*/

//Old, working function. Uses TEMP from pressure sensor calculations. May as well use
float Get_altitude(uint32_t initial, uint32_t pressure){
    255a:	4f 92       	push	r4
    255c:	5f 92       	push	r5
    255e:	6f 92       	push	r6
    2560:	7f 92       	push	r7
    2562:	8f 92       	push	r8
    2564:	9f 92       	push	r9
    2566:	af 92       	push	r10
    2568:	bf 92       	push	r11
    256a:	cf 92       	push	r12
    256c:	df 92       	push	r13
    256e:	ef 92       	push	r14
    2570:	ff 92       	push	r15
    2572:	29 01       	movw	r4, r18
    2574:	3a 01       	movw	r6, r20
	//printf("Initial Pressure = %lu\n", initial);
	//printf("pressure = %lu \n", pressure);
	//printf("temperature = %li \n", TEMP/100);
	//float altitude = (((287.058 * (((float)(TEMP)/100)+273.15)/9.8))*log((float)initial/get_pressure())*3.28);	Not this one, this one's bad
	float altitude = (pow(((initial/100)/(pressure/100)),(1/5.257))-1)*((TEMP/100)+273.15)/.0065; //This is now right, just gotta use the thermistor
    2576:	0f 2e       	mov	r0, r31
    2578:	f4 e6       	ldi	r31, 0x64	; 100
    257a:	cf 2e       	mov	r12, r31
    257c:	d1 2c       	mov	r13, r1
    257e:	e1 2c       	mov	r14, r1
    2580:	f1 2c       	mov	r15, r1
    2582:	f0 2d       	mov	r31, r0
    2584:	a7 01       	movw	r20, r14
    2586:	96 01       	movw	r18, r12
    2588:	0e 94 11 24 	call	0x4822	; 0x4822 <__udivmodsi4>
    258c:	49 01       	movw	r8, r18
    258e:	5a 01       	movw	r10, r20
    2590:	c3 01       	movw	r24, r6
    2592:	b2 01       	movw	r22, r4
    2594:	a7 01       	movw	r20, r14
    2596:	96 01       	movw	r18, r12
    2598:	0e 94 11 24 	call	0x4822	; 0x4822 <__udivmodsi4>
    259c:	c5 01       	movw	r24, r10
    259e:	b4 01       	movw	r22, r8
    25a0:	0e 94 11 24 	call	0x4822	; 0x4822 <__udivmodsi4>
    25a4:	ca 01       	movw	r24, r20
    25a6:	b9 01       	movw	r22, r18
    25a8:	0e 94 24 1e 	call	0x3c48	; 0x3c48 <__floatunsisf>
    25ac:	24 eb       	ldi	r18, 0xB4	; 180
    25ae:	39 ec       	ldi	r19, 0xC9	; 201
    25b0:	42 e4       	ldi	r20, 0x42	; 66
    25b2:	5e e3       	ldi	r21, 0x3E	; 62
    25b4:	0e 94 5a 1f 	call	0x3eb4	; 0x3eb4 <pow>
    25b8:	4b 01       	movw	r8, r22
    25ba:	5c 01       	movw	r10, r24
	//printf("altitude = %f \n", (float)altitude);
	return altitude;
    25bc:	60 91 94 23 	lds	r22, 0x2394	; 0x802394 <TEMP>
    25c0:	70 91 95 23 	lds	r23, 0x2395	; 0x802395 <TEMP+0x1>
    25c4:	80 91 96 23 	lds	r24, 0x2396	; 0x802396 <TEMP+0x2>
    25c8:	90 91 97 23 	lds	r25, 0x2397	; 0x802397 <TEMP+0x3>
    25cc:	a7 01       	movw	r20, r14
    25ce:	96 01       	movw	r18, r12
    25d0:	0e 94 33 24 	call	0x4866	; 0x4866 <__divmodsi4>
    25d4:	ca 01       	movw	r24, r20
    25d6:	b9 01       	movw	r22, r18
    25d8:	0e 94 26 1e 	call	0x3c4c	; 0x3c4c <__floatsisf>
    25dc:	23 e3       	ldi	r18, 0x33	; 51
    25de:	33 e9       	ldi	r19, 0x93	; 147
    25e0:	48 e8       	ldi	r20, 0x88	; 136
    25e2:	53 e4       	ldi	r21, 0x43	; 67
    25e4:	0e 94 27 1d 	call	0x3a4e	; 0x3a4e <__addsf3>
    25e8:	6b 01       	movw	r12, r22
    25ea:	7c 01       	movw	r14, r24
    25ec:	20 e0       	ldi	r18, 0x00	; 0
    25ee:	30 e0       	ldi	r19, 0x00	; 0
    25f0:	40 e8       	ldi	r20, 0x80	; 128
    25f2:	5f e3       	ldi	r21, 0x3F	; 63
    25f4:	c5 01       	movw	r24, r10
    25f6:	b4 01       	movw	r22, r8
    25f8:	0e 94 26 1d 	call	0x3a4c	; 0x3a4c <__subsf3>
    25fc:	9b 01       	movw	r18, r22
    25fe:	ac 01       	movw	r20, r24
    2600:	c7 01       	movw	r24, r14
    2602:	b6 01       	movw	r22, r12
    2604:	0e 94 f7 1e 	call	0x3dee	; 0x3dee <__mulsf3>
    2608:	24 ef       	ldi	r18, 0xF4	; 244
    260a:	3d ef       	ldi	r19, 0xFD	; 253
    260c:	44 ed       	ldi	r20, 0xD4	; 212
    260e:	5b e3       	ldi	r21, 0x3B	; 59
    2610:	0e 94 8b 1d 	call	0x3b16	; 0x3b16 <__divsf3>
}
    2614:	ff 90       	pop	r15
    2616:	ef 90       	pop	r14
    2618:	df 90       	pop	r13
    261a:	cf 90       	pop	r12
    261c:	bf 90       	pop	r11
    261e:	af 90       	pop	r10
    2620:	9f 90       	pop	r9
    2622:	8f 90       	pop	r8
    2624:	7f 90       	pop	r7
    2626:	6f 90       	pop	r6
    2628:	5f 90       	pop	r5
    262a:	4f 90       	pop	r4
    262c:	08 95       	ret

0000262e <startswith>:
		{
			return i;
		}
	}
	return i+1;
}
    262e:	dc 01       	movw	r26, r24
    2630:	fb 01       	movw	r30, r22
    2632:	80 81       	ld	r24, Z
    2634:	88 23       	and	r24, r24
    2636:	01 f1       	breq	.+64     	; 0x2678 <startswith+0x4a>
    2638:	08 2e       	mov	r0, r24
    263a:	00 0c       	add	r0, r0
    263c:	99 0b       	sbc	r25, r25
    263e:	2c 91       	ld	r18, X
    2640:	30 e0       	ldi	r19, 0x00	; 0
    2642:	82 17       	cp	r24, r18
    2644:	93 07       	cpc	r25, r19
    2646:	d1 f4       	brne	.+52     	; 0x267c <startswith+0x4e>
    2648:	90 e0       	ldi	r25, 0x00	; 0
    264a:	0b c0       	rjmp	.+22     	; 0x2662 <startswith+0x34>
    264c:	02 2e       	mov	r0, r18
    264e:	00 0c       	add	r0, r0
    2650:	33 0b       	sbc	r19, r19
    2652:	fd 01       	movw	r30, r26
    2654:	e4 0f       	add	r30, r20
    2656:	f5 1f       	adc	r31, r21
    2658:	40 81       	ld	r20, Z
    265a:	50 e0       	ldi	r21, 0x00	; 0
    265c:	24 17       	cp	r18, r20
    265e:	35 07       	cpc	r19, r21
    2660:	79 f4       	brne	.+30     	; 0x2680 <startswith+0x52>
    2662:	9f 5f       	subi	r25, 0xFF	; 255
    2664:	49 2f       	mov	r20, r25
    2666:	50 e0       	ldi	r21, 0x00	; 0
    2668:	fb 01       	movw	r30, r22
    266a:	e4 0f       	add	r30, r20
    266c:	f5 1f       	adc	r31, r21
    266e:	20 81       	ld	r18, Z
    2670:	21 11       	cpse	r18, r1
    2672:	ec cf       	rjmp	.-40     	; 0x264c <startswith+0x1e>
    2674:	81 e0       	ldi	r24, 0x01	; 1
    2676:	08 95       	ret
    2678:	81 e0       	ldi	r24, 0x01	; 1
    267a:	08 95       	ret
    267c:	80 e0       	ldi	r24, 0x00	; 0
    267e:	08 95       	ret
    2680:	80 e0       	ldi	r24, 0x00	; 0
    2682:	08 95       	ret

00002684 <getGPSDatafromNMEA>:

GPS_data_t getGPSDatafromNMEA(uint8_t* NMEA_sentence, uint8_t sentencelength)
{
    2684:	2f 92       	push	r2
    2686:	3f 92       	push	r3
    2688:	4f 92       	push	r4
    268a:	5f 92       	push	r5
    268c:	6f 92       	push	r6
    268e:	7f 92       	push	r7
    2690:	8f 92       	push	r8
    2692:	9f 92       	push	r9
    2694:	af 92       	push	r10
    2696:	bf 92       	push	r11
    2698:	cf 92       	push	r12
    269a:	df 92       	push	r13
    269c:	ef 92       	push	r14
    269e:	ff 92       	push	r15
    26a0:	0f 93       	push	r16
    26a2:	1f 93       	push	r17
    26a4:	cf 93       	push	r28
    26a6:	df 93       	push	r29
    26a8:	cd b7       	in	r28, 0x3d	; 61
    26aa:	de b7       	in	r29, 0x3e	; 62
    26ac:	a2 97       	sbiw	r28, 0x22	; 34
    26ae:	cd bf       	out	0x3d, r28	; 61
    26b0:	de bf       	out	0x3e, r29	; 62
    26b2:	4c 01       	movw	r8, r24
    26b4:	69 83       	std	Y+1, r22	; 0x01
    26b6:	7a 83       	std	Y+2, r23	; 0x02
    26b8:	24 2e       	mov	r2, r20
	uint8_t speedwritten=0;
	uint8_t heightwritten=0;
	uint8_t no_of_sateliiteswritten=0;
	uint8_t comma_position=0;
	int a=0;
	if (startswith(NMEA_sentence, "$GPGGA"))
    26ba:	66 e2       	ldi	r22, 0x26	; 38
    26bc:	70 e2       	ldi	r23, 0x20	; 32
    26be:	89 81       	ldd	r24, Y+1	; 0x01
    26c0:	9a 81       	ldd	r25, Y+2	; 0x02
    26c2:	b5 df       	rcall	.-150    	; 0x262e <startswith>
    26c4:	88 23       	and	r24, r24
    26c6:	09 f4       	brne	.+2      	; 0x26ca <getGPSDatafromNMEA+0x46>
    26c8:	47 c2       	rjmp	.+1166   	; 0x2b58 <getGPSDatafromNMEA+0x4d4>
	{
		//printf("Parsing GPGGA with len %u\n", sentencelength);
		for (a=0;a<sentencelength; a++)
    26ca:	31 2c       	mov	r3, r1
    26cc:	12 14       	cp	r1, r2
    26ce:	13 04       	cpc	r1, r3
    26d0:	0c f0       	brlt	.+2      	; 0x26d4 <getGPSDatafromNMEA+0x50>
    26d2:	42 c2       	rjmp	.+1156   	; 0x2b58 <getGPSDatafromNMEA+0x4d4>
    26d4:	49 80       	ldd	r4, Y+1	; 0x01
    26d6:	5a 80       	ldd	r5, Y+2	; 0x02
    26d8:	00 e0       	ldi	r16, 0x00	; 0
    26da:	10 e0       	ldi	r17, 0x00	; 0
    26dc:	f1 2c       	mov	r15, r1
										 + 1000l*(NMEA_sentence[a+7] - '0')
										  + 100l*(NMEA_sentence[a+8] - '0')
										   + 10l*(NMEA_sentence[a+9] - '0')
										       + (NMEA_sentence[a+10] - '0');
					//printf("%lu\n",GPSData.lonminutes);
					GPSData.londecimal = (NMEA_sentence[a+12] == 'E' ? 1.0 : -1.0) * ((double)GPSData.londegrees + ((double)GPSData.lonminutes/(60.0*10000.0)));
    26de:	df 2c       	mov	r13, r15
    26e0:	48 a2       	std	Y+32, r4	; 0x20
    26e2:	59 a2       	std	Y+33, r5	; 0x21
	{
		//printf("Parsing GPGGA with len %u\n", sentencelength);
		for (a=0;a<sentencelength; a++)
		{
			//printf("hate6");
			if (NMEA_sentence[a]==',')
    26e4:	a8 a1       	ldd	r26, Y+32	; 0x20
    26e6:	b9 a1       	ldd	r27, Y+33	; 0x21
    26e8:	8d 91       	ld	r24, X+
    26ea:	a8 a3       	std	Y+32, r26	; 0x20
    26ec:	b9 a3       	std	Y+33, r27	; 0x21
    26ee:	8c 32       	cpi	r24, 0x2C	; 44
    26f0:	09 f0       	breq	.+2      	; 0x26f4 <getGPSDatafromNMEA+0x70>
    26f2:	2c c2       	rjmp	.+1112   	; 0x2b4c <getGPSDatafromNMEA+0x4c8>
			{
				//printf("gfhghhf");
				countcommas++;
    26f4:	d3 94       	inc	r13
				if (countcommas == 1)
    26f6:	b1 e0       	ldi	r27, 0x01	; 1
    26f8:	db 12       	cpse	r13, r27
    26fa:	23 c0       	rjmp	.+70     	; 0x2742 <getGPSDatafromNMEA+0xbe>
				{
					//printf("Begin %u, end %u\n", NMEA_sentence[a + 1] - '0', NMEA_sentence[a + 2] - '0');
					GPSData.hour = 10 * (NMEA_sentence[a + 1] - (uint8_t)'0') + (NMEA_sentence[a + 2] - (uint8_t)'0');
    26fc:	e8 a1       	ldd	r30, Y+32	; 0x20
    26fe:	f9 a1       	ldd	r31, Y+33	; 0x21
    2700:	80 81       	ld	r24, Z
    2702:	88 0f       	add	r24, r24
    2704:	80 56       	subi	r24, 0x60	; 96
    2706:	98 2f       	mov	r25, r24
    2708:	99 0f       	add	r25, r25
    270a:	99 0f       	add	r25, r25
    270c:	89 0f       	add	r24, r25
    270e:	91 81       	ldd	r25, Z+1	; 0x01
    2710:	90 53       	subi	r25, 0x30	; 48
    2712:	89 0f       	add	r24, r25
    2714:	8d 87       	std	Y+13, r24	; 0x0d
					GPSData.minutes = 10 * (NMEA_sentence[a + 3] - '0') + NMEA_sentence[a + 4] - '0';
    2716:	82 81       	ldd	r24, Z+2	; 0x02
    2718:	88 0f       	add	r24, r24
    271a:	80 56       	subi	r24, 0x60	; 96
    271c:	98 2f       	mov	r25, r24
    271e:	99 0f       	add	r25, r25
    2720:	99 0f       	add	r25, r25
    2722:	89 0f       	add	r24, r25
    2724:	93 81       	ldd	r25, Z+3	; 0x03
    2726:	90 53       	subi	r25, 0x30	; 48
    2728:	89 0f       	add	r24, r25
    272a:	8e 87       	std	Y+14, r24	; 0x0e
					GPSData.seconds = 10 * (NMEA_sentence[a + 5] - '0') + NMEA_sentence[a + 6] - '0';
    272c:	84 81       	ldd	r24, Z+4	; 0x04
    272e:	88 0f       	add	r24, r24
    2730:	80 56       	subi	r24, 0x60	; 96
    2732:	a8 2e       	mov	r10, r24
    2734:	aa 0c       	add	r10, r10
    2736:	aa 0c       	add	r10, r10
    2738:	a8 0e       	add	r10, r24
    273a:	95 81       	ldd	r25, Z+5	; 0x05
    273c:	90 53       	subi	r25, 0x30	; 48
    273e:	a9 0e       	add	r10, r25
    2740:	05 c2       	rjmp	.+1034   	; 0x2b4c <getGPSDatafromNMEA+0x4c8>
				}
				else if (countcommas == 2 && NMEA_sentence[a+1] != ',')
    2742:	f2 e0       	ldi	r31, 0x02	; 2
    2744:	df 12       	cpse	r13, r31
    2746:	bb c0       	rjmp	.+374    	; 0x28be <getGPSDatafromNMEA+0x23a>
    2748:	a8 a1       	ldd	r26, Y+32	; 0x20
    274a:	b9 a1       	ldd	r27, Y+33	; 0x21
    274c:	8c 91       	ld	r24, X
    274e:	8c 32       	cpi	r24, 0x2C	; 44
    2750:	09 f4       	brne	.+2      	; 0x2754 <getGPSDatafromNMEA+0xd0>
    2752:	ee c1       	rjmp	.+988    	; 0x2b30 <getGPSDatafromNMEA+0x4ac>
				{
					GPSData.latdegrees = 10*(NMEA_sentence[a+1] - '0') + (NMEA_sentence[a+2] - '0');
    2754:	90 e0       	ldi	r25, 0x00	; 0
    2756:	c0 97       	sbiw	r24, 0x30	; 48
    2758:	9c 01       	movw	r18, r24
    275a:	22 0f       	add	r18, r18
    275c:	33 1f       	adc	r19, r19
    275e:	88 0f       	add	r24, r24
    2760:	99 1f       	adc	r25, r25
    2762:	88 0f       	add	r24, r24
    2764:	99 1f       	adc	r25, r25
    2766:	88 0f       	add	r24, r24
    2768:	99 1f       	adc	r25, r25
    276a:	82 0f       	add	r24, r18
    276c:	93 1f       	adc	r25, r19
    276e:	11 96       	adiw	r26, 0x01	; 1
    2770:	2c 91       	ld	r18, X
    2772:	11 97       	sbiw	r26, 0x01	; 1
    2774:	30 e0       	ldi	r19, 0x00	; 0
    2776:	20 53       	subi	r18, 0x30	; 48
    2778:	31 09       	sbc	r19, r1
    277a:	2c 01       	movw	r4, r24
    277c:	42 0e       	add	r4, r18
    277e:	53 1e       	adc	r5, r19
    2780:	4b 86       	std	Y+11, r4	; 0x0b
    2782:	5c 86       	std	Y+12, r5	; 0x0c
					//printf("%u\n",GPSData.latdegrees);
					GPSData.latminutes = 100000l*(NMEA_sentence[a+3] - '0') + 10000l*(NMEA_sentence[a+4] - '0') + 1000l*(NMEA_sentence[a+6] - '0') + 100l*(NMEA_sentence[a+7] - '0') + 10l*(NMEA_sentence[a+8] - '0') + (NMEA_sentence[a+9] - '0');
    2784:	12 96       	adiw	r26, 0x02	; 2
    2786:	ac 91       	ld	r26, X
    2788:	b0 e0       	ldi	r27, 0x00	; 0
    278a:	d0 97       	sbiw	r26, 0x30	; 48
    278c:	20 ea       	ldi	r18, 0xA0	; 160
    278e:	36 e8       	ldi	r19, 0x86	; 134
    2790:	41 e0       	ldi	r20, 0x01	; 1
    2792:	50 e0       	ldi	r21, 0x00	; 0
    2794:	0e 94 5e 24 	call	0x48bc	; 0x48bc <__mulshisi3>
    2798:	2b 01       	movw	r4, r22
    279a:	3c 01       	movw	r6, r24
    279c:	e8 a1       	ldd	r30, Y+32	; 0x20
    279e:	f9 a1       	ldd	r31, Y+33	; 0x21
    27a0:	a3 81       	ldd	r26, Z+3	; 0x03
    27a2:	b0 e0       	ldi	r27, 0x00	; 0
    27a4:	d0 97       	sbiw	r26, 0x30	; 48
    27a6:	20 e1       	ldi	r18, 0x10	; 16
    27a8:	37 e2       	ldi	r19, 0x27	; 39
    27aa:	0e 94 58 24 	call	0x48b0	; 0x48b0 <__usmulhisi3>
    27ae:	46 0e       	add	r4, r22
    27b0:	57 1e       	adc	r5, r23
    27b2:	68 1e       	adc	r6, r24
    27b4:	79 1e       	adc	r7, r25
    27b6:	a5 81       	ldd	r26, Z+5	; 0x05
    27b8:	b0 e0       	ldi	r27, 0x00	; 0
    27ba:	d0 97       	sbiw	r26, 0x30	; 48
    27bc:	28 ee       	ldi	r18, 0xE8	; 232
    27be:	33 e0       	ldi	r19, 0x03	; 3
    27c0:	0e 94 58 24 	call	0x48b0	; 0x48b0 <__usmulhisi3>
    27c4:	46 0e       	add	r4, r22
    27c6:	57 1e       	adc	r5, r23
    27c8:	68 1e       	adc	r6, r24
    27ca:	79 1e       	adc	r7, r25
    27cc:	a6 81       	ldd	r26, Z+6	; 0x06
    27ce:	b0 e0       	ldi	r27, 0x00	; 0
    27d0:	d0 97       	sbiw	r26, 0x30	; 48
    27d2:	24 e6       	ldi	r18, 0x64	; 100
    27d4:	30 e0       	ldi	r19, 0x00	; 0
    27d6:	0e 94 58 24 	call	0x48b0	; 0x48b0 <__usmulhisi3>
    27da:	ab 01       	movw	r20, r22
    27dc:	bc 01       	movw	r22, r24
    27de:	44 0d       	add	r20, r4
    27e0:	55 1d       	adc	r21, r5
    27e2:	66 1d       	adc	r22, r6
    27e4:	77 1d       	adc	r23, r7
    27e6:	97 81       	ldd	r25, Z+7	; 0x07
    27e8:	89 2f       	mov	r24, r25
    27ea:	90 e0       	ldi	r25, 0x00	; 0
    27ec:	c0 97       	sbiw	r24, 0x30	; 48
    27ee:	09 2e       	mov	r0, r25
    27f0:	00 0c       	add	r0, r0
    27f2:	aa 0b       	sbc	r26, r26
    27f4:	bb 0b       	sbc	r27, r27
    27f6:	88 0f       	add	r24, r24
    27f8:	99 1f       	adc	r25, r25
    27fa:	aa 1f       	adc	r26, r26
    27fc:	bb 1f       	adc	r27, r27
    27fe:	2c 01       	movw	r4, r24
    2800:	3d 01       	movw	r6, r26
    2802:	44 0c       	add	r4, r4
    2804:	55 1c       	adc	r5, r5
    2806:	66 1c       	adc	r6, r6
    2808:	77 1c       	adc	r7, r7
    280a:	44 0c       	add	r4, r4
    280c:	55 1c       	adc	r5, r5
    280e:	66 1c       	adc	r6, r6
    2810:	77 1c       	adc	r7, r7
    2812:	84 0d       	add	r24, r4
    2814:	95 1d       	adc	r25, r5
    2816:	a6 1d       	adc	r26, r6
    2818:	b7 1d       	adc	r27, r7
    281a:	84 0f       	add	r24, r20
    281c:	95 1f       	adc	r25, r21
    281e:	a6 1f       	adc	r26, r22
    2820:	b7 1f       	adc	r27, r23
    2822:	40 85       	ldd	r20, Z+8	; 0x08
    2824:	50 e0       	ldi	r21, 0x00	; 0
    2826:	40 53       	subi	r20, 0x30	; 48
    2828:	51 09       	sbc	r21, r1
    282a:	05 2e       	mov	r0, r21
    282c:	00 0c       	add	r0, r0
    282e:	66 0b       	sbc	r22, r22
    2830:	77 0b       	sbc	r23, r23
    2832:	2c 01       	movw	r4, r24
    2834:	3d 01       	movw	r6, r26
    2836:	44 0e       	add	r4, r20
    2838:	55 1e       	adc	r5, r21
    283a:	66 1e       	adc	r6, r22
    283c:	77 1e       	adc	r7, r23
    283e:	4f 82       	std	Y+7, r4	; 0x07
    2840:	58 86       	std	Y+8, r5	; 0x08
    2842:	69 86       	std	Y+9, r6	; 0x09
    2844:	7a 86       	std	Y+10, r7	; 0x0a
					//printf("%lu\n",GPSData.latminutes);

					GPSData.latdecimal = (NMEA_sentence[a+11] == 'N' ? 1.0 : -1.0) * ((double)GPSData.latdegrees + ((double)GPSData.latminutes/(60.0*10000.0)));
    2846:	82 85       	ldd	r24, Z+10	; 0x0a
    2848:	8e 34       	cpi	r24, 0x4E	; 78
    284a:	51 f0       	breq	.+20     	; 0x2860 <getGPSDatafromNMEA+0x1dc>
    284c:	b1 2c       	mov	r11, r1
    284e:	c1 2c       	mov	r12, r1
    2850:	68 94       	set
    2852:	ee 24       	eor	r14, r14
    2854:	e7 f8       	bld	r14, 7
    2856:	0f 2e       	mov	r0, r31
    2858:	ff eb       	ldi	r31, 0xBF	; 191
    285a:	ff 2e       	mov	r15, r31
    285c:	f0 2d       	mov	r31, r0
    285e:	09 c0       	rjmp	.+18     	; 0x2872 <getGPSDatafromNMEA+0x1ee>
    2860:	b1 2c       	mov	r11, r1
    2862:	c1 2c       	mov	r12, r1
    2864:	68 94       	set
    2866:	ee 24       	eor	r14, r14
    2868:	e7 f8       	bld	r14, 7
    286a:	0f 2e       	mov	r0, r31
    286c:	ff e3       	ldi	r31, 0x3F	; 63
    286e:	ff 2e       	mov	r15, r31
    2870:	f0 2d       	mov	r31, r0
    2872:	6f 81       	ldd	r22, Y+7	; 0x07
    2874:	78 85       	ldd	r23, Y+8	; 0x08
    2876:	89 85       	ldd	r24, Y+9	; 0x09
    2878:	9a 85       	ldd	r25, Y+10	; 0x0a
    287a:	0e 94 24 1e 	call	0x3c48	; 0x3c48 <__floatunsisf>
    287e:	20 e0       	ldi	r18, 0x00	; 0
    2880:	3c e7       	ldi	r19, 0x7C	; 124
    2882:	42 e1       	ldi	r20, 0x12	; 18
    2884:	59 e4       	ldi	r21, 0x49	; 73
    2886:	0e 94 8b 1d 	call	0x3b16	; 0x3b16 <__divsf3>
    288a:	2b 01       	movw	r4, r22
    288c:	3c 01       	movw	r6, r24
    288e:	2b 85       	ldd	r18, Y+11	; 0x0b
    2890:	3c 85       	ldd	r19, Y+12	; 0x0c
    2892:	b9 01       	movw	r22, r18
    2894:	80 e0       	ldi	r24, 0x00	; 0
    2896:	90 e0       	ldi	r25, 0x00	; 0
    2898:	0e 94 24 1e 	call	0x3c48	; 0x3c48 <__floatunsisf>
    289c:	9b 01       	movw	r18, r22
    289e:	ac 01       	movw	r20, r24
    28a0:	c3 01       	movw	r24, r6
    28a2:	b2 01       	movw	r22, r4
    28a4:	0e 94 27 1d 	call	0x3a4e	; 0x3a4e <__addsf3>
    28a8:	2b 2d       	mov	r18, r11
    28aa:	3c 2d       	mov	r19, r12
    28ac:	4e 2d       	mov	r20, r14
    28ae:	5f 2d       	mov	r21, r15
    28b0:	0e 94 f7 1e 	call	0x3dee	; 0x3dee <__mulsf3>
    28b4:	6f 87       	std	Y+15, r22	; 0x0f
    28b6:	78 8b       	std	Y+16, r23	; 0x10
    28b8:	89 8b       	std	Y+17, r24	; 0x11
    28ba:	9a 8b       	std	Y+18, r25	; 0x12
    28bc:	47 c1       	rjmp	.+654    	; 0x2b4c <getGPSDatafromNMEA+0x4c8>
				}
				else if (countcommas == 2)
				{
					GPSData.latdecimal = 0.0;
				}
				else if (countcommas == 4 && NMEA_sentence[a+1] != ',')
    28be:	34 e0       	ldi	r19, 0x04	; 4
    28c0:	d3 12       	cpse	r13, r19
    28c2:	c5 c0       	rjmp	.+394    	; 0x2a4e <getGPSDatafromNMEA+0x3ca>
    28c4:	a8 a1       	ldd	r26, Y+32	; 0x20
    28c6:	b9 a1       	ldd	r27, Y+33	; 0x21
    28c8:	2c 91       	ld	r18, X
    28ca:	2c 32       	cpi	r18, 0x2C	; 44
    28cc:	09 f4       	brne	.+2      	; 0x28d0 <getGPSDatafromNMEA+0x24c>
    28ce:	35 c1       	rjmp	.+618    	; 0x2b3a <getGPSDatafromNMEA+0x4b6>
				{
					GPSData.londegrees = 100*(NMEA_sentence[a+1] - '0') +10*(NMEA_sentence[a+2] - '0') + (NMEA_sentence[a+3] - '0');
    28d0:	11 96       	adiw	r26, 0x01	; 1
    28d2:	8c 91       	ld	r24, X
    28d4:	90 e0       	ldi	r25, 0x00	; 0
    28d6:	c0 97       	sbiw	r24, 0x30	; 48
    28d8:	ac 01       	movw	r20, r24
    28da:	44 0f       	add	r20, r20
    28dc:	55 1f       	adc	r21, r21
    28de:	88 0f       	add	r24, r24
    28e0:	99 1f       	adc	r25, r25
    28e2:	88 0f       	add	r24, r24
    28e4:	99 1f       	adc	r25, r25
    28e6:	88 0f       	add	r24, r24
    28e8:	99 1f       	adc	r25, r25
    28ea:	84 0f       	add	r24, r20
    28ec:	95 1f       	adc	r25, r21
    28ee:	30 e0       	ldi	r19, 0x00	; 0
    28f0:	20 53       	subi	r18, 0x30	; 48
    28f2:	31 09       	sbc	r19, r1
    28f4:	b4 e6       	ldi	r27, 0x64	; 100
    28f6:	b2 9f       	mul	r27, r18
    28f8:	a0 01       	movw	r20, r0
    28fa:	b3 9f       	mul	r27, r19
    28fc:	50 0d       	add	r21, r0
    28fe:	11 24       	eor	r1, r1
    2900:	84 0f       	add	r24, r20
    2902:	95 1f       	adc	r25, r21
    2904:	e8 a1       	ldd	r30, Y+32	; 0x20
    2906:	f9 a1       	ldd	r31, Y+33	; 0x21
    2908:	22 81       	ldd	r18, Z+2	; 0x02
    290a:	30 e0       	ldi	r19, 0x00	; 0
    290c:	20 53       	subi	r18, 0x30	; 48
    290e:	31 09       	sbc	r19, r1
    2910:	2c 01       	movw	r4, r24
    2912:	42 0e       	add	r4, r18
    2914:	53 1e       	adc	r5, r19
    2916:	4f 8a       	std	Y+23, r4	; 0x17
    2918:	58 8e       	std	Y+24, r5	; 0x18
					//printf("%u\n",GPSData.londegrees);
					GPSData.lonminutes = 100000l*(NMEA_sentence[a+4] - '0')
    291a:	a3 81       	ldd	r26, Z+3	; 0x03
    291c:	b0 e0       	ldi	r27, 0x00	; 0
    291e:	d0 97       	sbiw	r26, 0x30	; 48
    2920:	20 ea       	ldi	r18, 0xA0	; 160
    2922:	36 e8       	ldi	r19, 0x86	; 134
    2924:	41 e0       	ldi	r20, 0x01	; 1
    2926:	50 e0       	ldi	r21, 0x00	; 0
    2928:	0e 94 5e 24 	call	0x48bc	; 0x48bc <__mulshisi3>
    292c:	2b 01       	movw	r4, r22
    292e:	3c 01       	movw	r6, r24
    2930:	a4 81       	ldd	r26, Z+4	; 0x04
    2932:	b0 e0       	ldi	r27, 0x00	; 0
    2934:	d0 97       	sbiw	r26, 0x30	; 48
    2936:	20 e1       	ldi	r18, 0x10	; 16
    2938:	37 e2       	ldi	r19, 0x27	; 39
    293a:	0e 94 58 24 	call	0x48b0	; 0x48b0 <__usmulhisi3>
    293e:	46 0e       	add	r4, r22
    2940:	57 1e       	adc	r5, r23
    2942:	68 1e       	adc	r6, r24
    2944:	79 1e       	adc	r7, r25
    2946:	a6 81       	ldd	r26, Z+6	; 0x06
    2948:	b0 e0       	ldi	r27, 0x00	; 0
    294a:	d0 97       	sbiw	r26, 0x30	; 48
    294c:	28 ee       	ldi	r18, 0xE8	; 232
    294e:	33 e0       	ldi	r19, 0x03	; 3
    2950:	0e 94 58 24 	call	0x48b0	; 0x48b0 <__usmulhisi3>
    2954:	46 0e       	add	r4, r22
    2956:	57 1e       	adc	r5, r23
    2958:	68 1e       	adc	r6, r24
    295a:	79 1e       	adc	r7, r25
    295c:	a7 81       	ldd	r26, Z+7	; 0x07
    295e:	b0 e0       	ldi	r27, 0x00	; 0
    2960:	d0 97       	sbiw	r26, 0x30	; 48
    2962:	24 e6       	ldi	r18, 0x64	; 100
    2964:	30 e0       	ldi	r19, 0x00	; 0
    2966:	0e 94 58 24 	call	0x48b0	; 0x48b0 <__usmulhisi3>
    296a:	ab 01       	movw	r20, r22
    296c:	bc 01       	movw	r22, r24
    296e:	44 0d       	add	r20, r4
    2970:	55 1d       	adc	r21, r5
    2972:	66 1d       	adc	r22, r6
    2974:	77 1d       	adc	r23, r7
    2976:	90 85       	ldd	r25, Z+8	; 0x08
    2978:	89 2f       	mov	r24, r25
    297a:	90 e0       	ldi	r25, 0x00	; 0
    297c:	c0 97       	sbiw	r24, 0x30	; 48
    297e:	09 2e       	mov	r0, r25
    2980:	00 0c       	add	r0, r0
    2982:	aa 0b       	sbc	r26, r26
    2984:	bb 0b       	sbc	r27, r27
    2986:	88 0f       	add	r24, r24
    2988:	99 1f       	adc	r25, r25
    298a:	aa 1f       	adc	r26, r26
    298c:	bb 1f       	adc	r27, r27
    298e:	2c 01       	movw	r4, r24
    2990:	3d 01       	movw	r6, r26
    2992:	44 0c       	add	r4, r4
    2994:	55 1c       	adc	r5, r5
    2996:	66 1c       	adc	r6, r6
    2998:	77 1c       	adc	r7, r7
    299a:	44 0c       	add	r4, r4
    299c:	55 1c       	adc	r5, r5
    299e:	66 1c       	adc	r6, r6
    29a0:	77 1c       	adc	r7, r7
    29a2:	84 0d       	add	r24, r4
    29a4:	95 1d       	adc	r25, r5
    29a6:	a6 1d       	adc	r26, r6
    29a8:	b7 1d       	adc	r27, r7
    29aa:	84 0f       	add	r24, r20
    29ac:	95 1f       	adc	r25, r21
    29ae:	a6 1f       	adc	r26, r22
    29b0:	b7 1f       	adc	r27, r23
    29b2:	41 85       	ldd	r20, Z+9	; 0x09
    29b4:	50 e0       	ldi	r21, 0x00	; 0
    29b6:	40 53       	subi	r20, 0x30	; 48
    29b8:	51 09       	sbc	r21, r1
    29ba:	05 2e       	mov	r0, r21
    29bc:	00 0c       	add	r0, r0
    29be:	66 0b       	sbc	r22, r22
    29c0:	77 0b       	sbc	r23, r23
    29c2:	2c 01       	movw	r4, r24
    29c4:	3d 01       	movw	r6, r26
    29c6:	44 0e       	add	r4, r20
    29c8:	55 1e       	adc	r5, r21
    29ca:	66 1e       	adc	r6, r22
    29cc:	77 1e       	adc	r7, r23
    29ce:	4b 8a       	std	Y+19, r4	; 0x13
    29d0:	5c 8a       	std	Y+20, r5	; 0x14
    29d2:	6d 8a       	std	Y+21, r6	; 0x15
    29d4:	7e 8a       	std	Y+22, r7	; 0x16
										 + 1000l*(NMEA_sentence[a+7] - '0')
										  + 100l*(NMEA_sentence[a+8] - '0')
										   + 10l*(NMEA_sentence[a+9] - '0')
										       + (NMEA_sentence[a+10] - '0');
					//printf("%lu\n",GPSData.lonminutes);
					GPSData.londecimal = (NMEA_sentence[a+12] == 'E' ? 1.0 : -1.0) * ((double)GPSData.londegrees + ((double)GPSData.lonminutes/(60.0*10000.0)));
    29d6:	83 85       	ldd	r24, Z+11	; 0x0b
    29d8:	85 34       	cpi	r24, 0x45	; 69
    29da:	51 f0       	breq	.+20     	; 0x29f0 <getGPSDatafromNMEA+0x36c>
    29dc:	b1 2c       	mov	r11, r1
    29de:	c1 2c       	mov	r12, r1
    29e0:	68 94       	set
    29e2:	ee 24       	eor	r14, r14
    29e4:	e7 f8       	bld	r14, 7
    29e6:	0f 2e       	mov	r0, r31
    29e8:	ff eb       	ldi	r31, 0xBF	; 191
    29ea:	ff 2e       	mov	r15, r31
    29ec:	f0 2d       	mov	r31, r0
    29ee:	09 c0       	rjmp	.+18     	; 0x2a02 <getGPSDatafromNMEA+0x37e>
    29f0:	b1 2c       	mov	r11, r1
    29f2:	c1 2c       	mov	r12, r1
    29f4:	68 94       	set
    29f6:	ee 24       	eor	r14, r14
    29f8:	e7 f8       	bld	r14, 7
    29fa:	0f 2e       	mov	r0, r31
    29fc:	ff e3       	ldi	r31, 0x3F	; 63
    29fe:	ff 2e       	mov	r15, r31
    2a00:	f0 2d       	mov	r31, r0
    2a02:	6b 89       	ldd	r22, Y+19	; 0x13
    2a04:	7c 89       	ldd	r23, Y+20	; 0x14
    2a06:	8d 89       	ldd	r24, Y+21	; 0x15
    2a08:	9e 89       	ldd	r25, Y+22	; 0x16
    2a0a:	0e 94 24 1e 	call	0x3c48	; 0x3c48 <__floatunsisf>
    2a0e:	20 e0       	ldi	r18, 0x00	; 0
    2a10:	3c e7       	ldi	r19, 0x7C	; 124
    2a12:	42 e1       	ldi	r20, 0x12	; 18
    2a14:	59 e4       	ldi	r21, 0x49	; 73
    2a16:	0e 94 8b 1d 	call	0x3b16	; 0x3b16 <__divsf3>
    2a1a:	2b 01       	movw	r4, r22
    2a1c:	3c 01       	movw	r6, r24
    2a1e:	2f 89       	ldd	r18, Y+23	; 0x17
    2a20:	38 8d       	ldd	r19, Y+24	; 0x18
    2a22:	b9 01       	movw	r22, r18
    2a24:	80 e0       	ldi	r24, 0x00	; 0
    2a26:	90 e0       	ldi	r25, 0x00	; 0
    2a28:	0e 94 24 1e 	call	0x3c48	; 0x3c48 <__floatunsisf>
    2a2c:	9b 01       	movw	r18, r22
    2a2e:	ac 01       	movw	r20, r24
    2a30:	c3 01       	movw	r24, r6
    2a32:	b2 01       	movw	r22, r4
    2a34:	0e 94 27 1d 	call	0x3a4e	; 0x3a4e <__addsf3>
    2a38:	2b 2d       	mov	r18, r11
    2a3a:	3c 2d       	mov	r19, r12
    2a3c:	4e 2d       	mov	r20, r14
    2a3e:	5f 2d       	mov	r21, r15
    2a40:	0e 94 f7 1e 	call	0x3dee	; 0x3dee <__mulsf3>
    2a44:	69 8f       	std	Y+25, r22	; 0x19
    2a46:	7a 8f       	std	Y+26, r23	; 0x1a
    2a48:	8b 8f       	std	Y+27, r24	; 0x1b
    2a4a:	9c 8f       	std	Y+28, r25	; 0x1c
    2a4c:	7f c0       	rjmp	.+254    	; 0x2b4c <getGPSDatafromNMEA+0x4c8>
				}
				else if(countcommas == 4)
				{
					GPSData.londecimal = 0.0;
				}
				else if (countcommas == 6)
    2a4e:	36 e0       	ldi	r19, 0x06	; 6
    2a50:	d3 12       	cpse	r13, r19
    2a52:	06 c0       	rjmp	.+12     	; 0x2a60 <getGPSDatafromNMEA+0x3dc>
				{
					GPSData.fix_status = NMEA_sentence[a + 1] - '0';
    2a54:	a8 a1       	ldd	r26, Y+32	; 0x20
    2a56:	b9 a1       	ldd	r27, Y+33	; 0x21
    2a58:	8c 91       	ld	r24, X
    2a5a:	80 53       	subi	r24, 0x30	; 48
    2a5c:	8d 8f       	std	Y+29, r24	; 0x1d
    2a5e:	76 c0       	rjmp	.+236    	; 0x2b4c <getGPSDatafromNMEA+0x4c8>
				}
				else if (countcommas == 9)
    2a60:	b9 e0       	ldi	r27, 0x09	; 9
    2a62:	db 12       	cpse	r13, r27
    2a64:	73 c0       	rjmp	.+230    	; 0x2b4c <getGPSDatafromNMEA+0x4c8>
				{
					uint8_t period_reached = 0;
					uint8_t period_counter;
					float altitude = 0;
					uint8_t inc = 0;
					while (NMEA_sentence[a + inc + 1] != ',')
    2a66:	e8 a1       	ldd	r30, Y+32	; 0x20
    2a68:	f9 a1       	ldd	r31, Y+33	; 0x21
    2a6a:	c0 80       	ld	r12, Z
    2a6c:	fc e2       	ldi	r31, 0x2C	; 44
    2a6e:	cf 16       	cp	r12, r31
    2a70:	09 f4       	brne	.+2      	; 0x2a74 <getGPSDatafromNMEA+0x3f0>
    2a72:	68 c0       	rjmp	.+208    	; 0x2b44 <getGPSDatafromNMEA+0x4c0>
    2a74:	b1 2c       	mov	r11, r1
    2a76:	1b 82       	std	Y+3, r1	; 0x03
    2a78:	1c 82       	std	Y+4, r1	; 0x04
    2a7a:	1d 82       	std	Y+5, r1	; 0x05
    2a7c:	1e 82       	std	Y+6, r1	; 0x06
    2a7e:	71 2c       	mov	r7, r1
    2a80:	e9 80       	ldd	r14, Y+1	; 0x01
    2a82:	fa 80       	ldd	r15, Y+2	; 0x02
    2a84:	e0 0e       	add	r14, r16
    2a86:	f1 1e       	adc	r15, r17
    2a88:	0e 8f       	std	Y+30, r16	; 0x1e
    2a8a:	1f 8f       	std	Y+31, r17	; 0x1f
    2a8c:	1c 2d       	mov	r17, r12
    2a8e:	7a a2       	std	Y+34, r7	; 0x22
					{
						if (NMEA_sentence[a + inc + 1] == '.')
    2a90:	1e 32       	cpi	r17, 0x2E	; 46
    2a92:	09 f4       	brne	.+2      	; 0x2a96 <getGPSDatafromNMEA+0x412>
    2a94:	40 c0       	rjmp	.+128    	; 0x2b16 <getGPSDatafromNMEA+0x492>
						{
							period_reached = 1;
							period_counter = 1;
						}
						else if (!period_reached)
    2a96:	5a a0       	ldd	r5, Y+34	; 0x22
    2a98:	51 10       	cpse	r5, r1
    2a9a:	1e c0       	rjmp	.+60     	; 0x2ad8 <getGPSDatafromNMEA+0x454>
						{
							altitude *= 10;
    2a9c:	20 e0       	ldi	r18, 0x00	; 0
    2a9e:	30 e0       	ldi	r19, 0x00	; 0
    2aa0:	40 e2       	ldi	r20, 0x20	; 32
    2aa2:	51 e4       	ldi	r21, 0x41	; 65
    2aa4:	6b 81       	ldd	r22, Y+3	; 0x03
    2aa6:	7c 81       	ldd	r23, Y+4	; 0x04
    2aa8:	8d 81       	ldd	r24, Y+5	; 0x05
    2aaa:	9e 81       	ldd	r25, Y+6	; 0x06
    2aac:	0e 94 f7 1e 	call	0x3dee	; 0x3dee <__mulsf3>
    2ab0:	2b 01       	movw	r4, r22
    2ab2:	3c 01       	movw	r6, r24
							altitude += (float)(NMEA_sentence[a + inc + 1] - '0');
    2ab4:	61 2f       	mov	r22, r17
    2ab6:	70 e0       	ldi	r23, 0x00	; 0
    2ab8:	60 53       	subi	r22, 0x30	; 48
    2aba:	71 09       	sbc	r23, r1
    2abc:	07 2e       	mov	r0, r23
    2abe:	00 0c       	add	r0, r0
    2ac0:	88 0b       	sbc	r24, r24
    2ac2:	99 0b       	sbc	r25, r25
    2ac4:	0e 94 26 1e 	call	0x3c4c	; 0x3c4c <__floatsisf>
    2ac8:	a3 01       	movw	r20, r6
    2aca:	92 01       	movw	r18, r4
    2acc:	c0 d7       	rcall	.+3968   	; 0x3a4e <__addsf3>
    2ace:	6b 83       	std	Y+3, r22	; 0x03
    2ad0:	7c 83       	std	Y+4, r23	; 0x04
    2ad2:	8d 83       	std	Y+5, r24	; 0x05
    2ad4:	9e 83       	std	Y+6, r25	; 0x06
    2ad6:	21 c0       	rjmp	.+66     	; 0x2b1a <getGPSDatafromNMEA+0x496>
    2ad8:	c1 2e       	mov	r12, r17
    2ada:	0e 8d       	ldd	r16, Y+30	; 0x1e
    2adc:	1f 8d       	ldd	r17, Y+31	; 0x1f
						}
						else if (period_reached && period_counter == 1)
						{
							altitude += ((float)(NMEA_sentence[a + inc + 1] - '0')) / 10.0;
    2ade:	6c 2d       	mov	r22, r12
    2ae0:	70 e0       	ldi	r23, 0x00	; 0
    2ae2:	60 53       	subi	r22, 0x30	; 48
    2ae4:	71 09       	sbc	r23, r1
    2ae6:	07 2e       	mov	r0, r23
    2ae8:	00 0c       	add	r0, r0
    2aea:	88 0b       	sbc	r24, r24
    2aec:	99 0b       	sbc	r25, r25
    2aee:	0e 94 26 1e 	call	0x3c4c	; 0x3c4c <__floatsisf>
    2af2:	20 e0       	ldi	r18, 0x00	; 0
    2af4:	30 e0       	ldi	r19, 0x00	; 0
    2af6:	40 e2       	ldi	r20, 0x20	; 32
    2af8:	51 e4       	ldi	r21, 0x41	; 65
    2afa:	0e 94 8b 1d 	call	0x3b16	; 0x3b16 <__divsf3>
    2afe:	9b 01       	movw	r18, r22
    2b00:	ac 01       	movw	r20, r24
    2b02:	6b 81       	ldd	r22, Y+3	; 0x03
    2b04:	7c 81       	ldd	r23, Y+4	; 0x04
    2b06:	8d 81       	ldd	r24, Y+5	; 0x05
    2b08:	9e 81       	ldd	r25, Y+6	; 0x06
    2b0a:	a1 d7       	rcall	.+3906   	; 0x3a4e <__addsf3>
    2b0c:	6b 83       	std	Y+3, r22	; 0x03
    2b0e:	7c 83       	std	Y+4, r23	; 0x04
    2b10:	8d 83       	std	Y+5, r24	; 0x05
    2b12:	9e 83       	std	Y+6, r25	; 0x06
							break;
    2b14:	1b c0       	rjmp	.+54     	; 0x2b4c <getGPSDatafromNMEA+0x4c8>
					uint8_t inc = 0;
					while (NMEA_sentence[a + inc + 1] != ',')
					{
						if (NMEA_sentence[a + inc + 1] == '.')
						{
							period_reached = 1;
    2b16:	21 e0       	ldi	r18, 0x01	; 1
    2b18:	2a a3       	std	Y+34, r18	; 0x22
						{
							altitude += ((float)(NMEA_sentence[a + inc + 1] - '0')) / 10.0;
							break;
						}
						
						inc++;
    2b1a:	b3 94       	inc	r11
				{
					uint8_t period_reached = 0;
					uint8_t period_counter;
					float altitude = 0;
					uint8_t inc = 0;
					while (NMEA_sentence[a + inc + 1] != ',')
    2b1c:	f7 01       	movw	r30, r14
    2b1e:	eb 0d       	add	r30, r11
    2b20:	f1 1d       	adc	r31, r1
    2b22:	11 81       	ldd	r17, Z+1	; 0x01
    2b24:	1c 32       	cpi	r17, 0x2C	; 44
    2b26:	09 f0       	breq	.+2      	; 0x2b2a <getGPSDatafromNMEA+0x4a6>
    2b28:	b3 cf       	rjmp	.-154    	; 0x2a90 <getGPSDatafromNMEA+0x40c>
    2b2a:	0e 8d       	ldd	r16, Y+30	; 0x1e
    2b2c:	1f 8d       	ldd	r17, Y+31	; 0x1f
    2b2e:	0e c0       	rjmp	.+28     	; 0x2b4c <getGPSDatafromNMEA+0x4c8>

					//printf("%f\n",GPSData.latdecimal);
				}
				else if (countcommas == 2)
				{
					GPSData.latdecimal = 0.0;
    2b30:	1f 86       	std	Y+15, r1	; 0x0f
    2b32:	18 8a       	std	Y+16, r1	; 0x10
    2b34:	19 8a       	std	Y+17, r1	; 0x11
    2b36:	1a 8a       	std	Y+18, r1	; 0x12
    2b38:	09 c0       	rjmp	.+18     	; 0x2b4c <getGPSDatafromNMEA+0x4c8>
					GPSData.londecimal = (NMEA_sentence[a+12] == 'E' ? 1.0 : -1.0) * ((double)GPSData.londegrees + ((double)GPSData.lonminutes/(60.0*10000.0)));
					//printf("%f\n",GPSData.londecimal);
				}
				else if(countcommas == 4)
				{
					GPSData.londecimal = 0.0;
    2b3a:	19 8e       	std	Y+25, r1	; 0x19
    2b3c:	1a 8e       	std	Y+26, r1	; 0x1a
    2b3e:	1b 8e       	std	Y+27, r1	; 0x1b
    2b40:	1c 8e       	std	Y+28, r1	; 0x1c
    2b42:	04 c0       	rjmp	.+8      	; 0x2b4c <getGPSDatafromNMEA+0x4c8>
				{
					uint8_t period_reached = 0;
					uint8_t period_counter;
					float altitude = 0;
					uint8_t inc = 0;
					while (NMEA_sentence[a + inc + 1] != ',')
    2b44:	1b 82       	std	Y+3, r1	; 0x03
    2b46:	1c 82       	std	Y+4, r1	; 0x04
    2b48:	1d 82       	std	Y+5, r1	; 0x05
    2b4a:	1e 82       	std	Y+6, r1	; 0x06
	uint8_t comma_position=0;
	int a=0;
	if (startswith(NMEA_sentence, "$GPGGA"))
	{
		//printf("Parsing GPGGA with len %u\n", sentencelength);
		for (a=0;a<sentencelength; a++)
    2b4c:	0f 5f       	subi	r16, 0xFF	; 255
    2b4e:	1f 4f       	sbci	r17, 0xFF	; 255
    2b50:	02 15       	cp	r16, r2
    2b52:	13 05       	cpc	r17, r3
    2b54:	09 f0       	breq	.+2      	; 0x2b58 <getGPSDatafromNMEA+0x4d4>
    2b56:	c6 cd       	rjmp	.-1140   	; 0x26e4 <getGPSDatafromNMEA+0x60>
	
	
	
//printf("GPSDATA altitude test %s \n ", GPSData.altitude);
//printf("GPS no of satellites test= %s \n", GPSData.noofsatellites);
return GPSData;
    2b58:	4b 84       	ldd	r4, Y+11	; 0x0b
    2b5a:	5c 84       	ldd	r5, Y+12	; 0x0c
    2b5c:	d4 01       	movw	r26, r8
    2b5e:	4d 92       	st	X+, r4
    2b60:	5c 92       	st	X, r5
    2b62:	11 97       	sbiw	r26, 0x01	; 1
    2b64:	4f 80       	ldd	r4, Y+7	; 0x07
    2b66:	58 84       	ldd	r5, Y+8	; 0x08
    2b68:	69 84       	ldd	r6, Y+9	; 0x09
    2b6a:	7a 84       	ldd	r7, Y+10	; 0x0a
    2b6c:	12 96       	adiw	r26, 0x02	; 2
    2b6e:	4d 92       	st	X+, r4
    2b70:	5d 92       	st	X+, r5
    2b72:	6d 92       	st	X+, r6
    2b74:	7c 92       	st	X, r7
    2b76:	15 97       	sbiw	r26, 0x05	; 5
    2b78:	8f 85       	ldd	r24, Y+15	; 0x0f
    2b7a:	98 89       	ldd	r25, Y+16	; 0x10
    2b7c:	a9 89       	ldd	r26, Y+17	; 0x11
    2b7e:	ba 89       	ldd	r27, Y+18	; 0x12
    2b80:	f4 01       	movw	r30, r8
    2b82:	87 83       	std	Z+7, r24	; 0x07
    2b84:	90 87       	std	Z+8, r25	; 0x08
    2b86:	a1 87       	std	Z+9, r26	; 0x09
    2b88:	b2 87       	std	Z+10, r27	; 0x0a
    2b8a:	4f 88       	ldd	r4, Y+23	; 0x17
    2b8c:	58 8c       	ldd	r5, Y+24	; 0x18
    2b8e:	43 86       	std	Z+11, r4	; 0x0b
    2b90:	54 86       	std	Z+12, r5	; 0x0c
    2b92:	4b 88       	ldd	r4, Y+19	; 0x13
    2b94:	5c 88       	ldd	r5, Y+20	; 0x14
    2b96:	6d 88       	ldd	r6, Y+21	; 0x15
    2b98:	7e 88       	ldd	r7, Y+22	; 0x16
    2b9a:	45 86       	std	Z+13, r4	; 0x0d
    2b9c:	56 86       	std	Z+14, r5	; 0x0e
    2b9e:	67 86       	std	Z+15, r6	; 0x0f
    2ba0:	70 8a       	std	Z+16, r7	; 0x10
    2ba2:	89 8d       	ldd	r24, Y+25	; 0x19
    2ba4:	9a 8d       	ldd	r25, Y+26	; 0x1a
    2ba6:	ab 8d       	ldd	r26, Y+27	; 0x1b
    2ba8:	bc 8d       	ldd	r27, Y+28	; 0x1c
    2baa:	82 8b       	std	Z+18, r24	; 0x12
    2bac:	93 8b       	std	Z+19, r25	; 0x13
    2bae:	a4 8b       	std	Z+20, r26	; 0x14
    2bb0:	b5 8b       	std	Z+21, r27	; 0x15
    2bb2:	8b 81       	ldd	r24, Y+3	; 0x03
    2bb4:	9c 81       	ldd	r25, Y+4	; 0x04
    2bb6:	ad 81       	ldd	r26, Y+5	; 0x05
    2bb8:	be 81       	ldd	r27, Y+6	; 0x06
    2bba:	86 8b       	std	Z+22, r24	; 0x16
    2bbc:	97 8b       	std	Z+23, r25	; 0x17
    2bbe:	a0 8f       	std	Z+24, r26	; 0x18
    2bc0:	b1 8f       	std	Z+25, r27	; 0x19
    2bc2:	4d 84       	ldd	r4, Y+13	; 0x0d
    2bc4:	42 8e       	std	Z+26, r4	; 0x1a
    2bc6:	5e 84       	ldd	r5, Y+14	; 0x0e
    2bc8:	53 8e       	std	Z+27, r5	; 0x1b
    2bca:	a4 8e       	std	Z+28, r10	; 0x1c
    2bcc:	6d 8c       	ldd	r6, Y+29	; 0x1d
    2bce:	65 8e       	std	Z+29, r6	; 0x1d


}
    2bd0:	c4 01       	movw	r24, r8
    2bd2:	a2 96       	adiw	r28, 0x22	; 34
    2bd4:	cd bf       	out	0x3d, r28	; 61
    2bd6:	de bf       	out	0x3e, r29	; 62
    2bd8:	df 91       	pop	r29
    2bda:	cf 91       	pop	r28
    2bdc:	1f 91       	pop	r17
    2bde:	0f 91       	pop	r16
    2be0:	ff 90       	pop	r15
    2be2:	ef 90       	pop	r14
    2be4:	df 90       	pop	r13
    2be6:	cf 90       	pop	r12
    2be8:	bf 90       	pop	r11
    2bea:	af 90       	pop	r10
    2bec:	9f 90       	pop	r9
    2bee:	8f 90       	pop	r8
    2bf0:	7f 90       	pop	r7
    2bf2:	6f 90       	pop	r6
    2bf4:	5f 90       	pop	r5
    2bf6:	4f 90       	pop	r4
    2bf8:	3f 90       	pop	r3
    2bfa:	2f 90       	pop	r2
    2bfc:	08 95       	ret

00002bfe <__portable_avr_delay_cycles>:
	PORTE.OUTSET = 0b00000001;
}*/

void heatshield_solenoid(PORT_t* port){
	(*port).DIRSET = 0b10000000;
	(*port).OUTSET = 0b10000000;
    2bfe:	04 c0       	rjmp	.+8      	; 0x2c08 <__portable_avr_delay_cycles+0xa>
    2c00:	61 50       	subi	r22, 0x01	; 1
    2c02:	71 09       	sbc	r23, r1
    2c04:	81 09       	sbc	r24, r1
    2c06:	91 09       	sbc	r25, r1
    2c08:	61 15       	cp	r22, r1
    2c0a:	71 05       	cpc	r23, r1
    2c0c:	81 05       	cpc	r24, r1
    2c0e:	91 05       	cpc	r25, r1
    2c10:	b9 f7       	brne	.-18     	; 0x2c00 <__portable_avr_delay_cycles+0x2>
    2c12:	08 95       	ret

00002c14 <heatshield_hotwire>:
}

void heatshield_hotwire (void){
    2c14:	cf 93       	push	r28
    2c16:	df 93       	push	r29
	PORTD.DIR |= 0b00000010;
    2c18:	c0 e6       	ldi	r28, 0x60	; 96
    2c1a:	d6 e0       	ldi	r29, 0x06	; 6
    2c1c:	88 81       	ld	r24, Y
    2c1e:	82 60       	ori	r24, 0x02	; 2
    2c20:	88 83       	st	Y, r24
	PORTD.OUT |= 0b00000010; //TODO: fix these port addresses
    2c22:	8c 81       	ldd	r24, Y+4	; 0x04
    2c24:	82 60       	ori	r24, 0x02	; 2
    2c26:	8c 83       	std	Y+4, r24	; 0x04
	delay_ms(4000);
    2c28:	66 e5       	ldi	r22, 0x56	; 86
    2c2a:	75 e8       	ldi	r23, 0x85	; 133
    2c2c:	85 e4       	ldi	r24, 0x45	; 69
    2c2e:	91 e0       	ldi	r25, 0x01	; 1
    2c30:	e6 df       	rcall	.-52     	; 0x2bfe <__portable_avr_delay_cycles>
	PORTD.OUT &= 0b11111101;
    2c32:	8c 81       	ldd	r24, Y+4	; 0x04
    2c34:	8d 7f       	andi	r24, 0xFD	; 253
    2c36:	8c 83       	std	Y+4, r24	; 0x04
}
    2c38:	df 91       	pop	r29
    2c3a:	cf 91       	pop	r28
    2c3c:	08 95       	ret

00002c3e <parachute_hotwire>:

void parachute_hotwire (void) {
    2c3e:	cf 93       	push	r28
    2c40:	df 93       	push	r29
	PORTD.DIR |= 0b00000010;
    2c42:	c0 e6       	ldi	r28, 0x60	; 96
    2c44:	d6 e0       	ldi	r29, 0x06	; 6
    2c46:	88 81       	ld	r24, Y
    2c48:	82 60       	ori	r24, 0x02	; 2
    2c4a:	88 83       	st	Y, r24
	PORTD.OUT |= 0b00000010; //TODO: fix these port addresses
    2c4c:	8c 81       	ldd	r24, Y+4	; 0x04
    2c4e:	82 60       	ori	r24, 0x02	; 2
    2c50:	8c 83       	std	Y+4, r24	; 0x04
	delay_ms(4000);
    2c52:	66 e5       	ldi	r22, 0x56	; 86
    2c54:	75 e8       	ldi	r23, 0x85	; 133
    2c56:	85 e4       	ldi	r24, 0x45	; 69
    2c58:	91 e0       	ldi	r25, 0x01	; 1
    2c5a:	d1 df       	rcall	.-94     	; 0x2bfe <__portable_avr_delay_cycles>
	PORTD.OUT &= 0b11111101;
    2c5c:	8c 81       	ldd	r24, Y+4	; 0x04
    2c5e:	8d 7f       	andi	r24, 0xFD	; 253
    2c60:	8c 83       	std	Y+4, r24	; 0x04
}
    2c62:	df 91       	pop	r29
    2c64:	cf 91       	pop	r28
    2c66:	08 95       	ret

00002c68 <heatshield_detatch_hotwire>:

void heatshield_detatch_hotwire(void){
    2c68:	cf 93       	push	r28
    2c6a:	df 93       	push	r29
	PORTD.DIR |= 0b00000010;
    2c6c:	c0 e6       	ldi	r28, 0x60	; 96
    2c6e:	d6 e0       	ldi	r29, 0x06	; 6
    2c70:	88 81       	ld	r24, Y
    2c72:	82 60       	ori	r24, 0x02	; 2
    2c74:	88 83       	st	Y, r24
	PORTD.OUT |= 0b00000010; //TODO: fix these port addresses
    2c76:	8c 81       	ldd	r24, Y+4	; 0x04
    2c78:	82 60       	ori	r24, 0x02	; 2
    2c7a:	8c 83       	std	Y+4, r24	; 0x04
	delay_ms(4000);
    2c7c:	66 e5       	ldi	r22, 0x56	; 86
    2c7e:	75 e8       	ldi	r23, 0x85	; 133
    2c80:	85 e4       	ldi	r24, 0x45	; 69
    2c82:	91 e0       	ldi	r25, 0x01	; 1
    2c84:	bc df       	rcall	.-136    	; 0x2bfe <__portable_avr_delay_cycles>
	PORTD.OUT &= 0b11111101;	
    2c86:	8c 81       	ldd	r24, Y+4	; 0x04
    2c88:	8d 7f       	andi	r24, 0xFD	; 253
    2c8a:	8c 83       	std	Y+4, r24	; 0x04
}
    2c8c:	df 91       	pop	r29
    2c8e:	cf 91       	pop	r28
    2c90:	08 95       	ret

00002c92 <buzzer_on>:

void buzzer_on(void){
	PORTB.DIR |= 0b00000001; 
    2c92:	e0 e2       	ldi	r30, 0x20	; 32
    2c94:	f6 e0       	ldi	r31, 0x06	; 6
    2c96:	80 81       	ld	r24, Z
    2c98:	81 60       	ori	r24, 0x01	; 1
    2c9a:	80 83       	st	Z, r24
	PORTB.OUT |= 0b00000001;
    2c9c:	84 81       	ldd	r24, Z+4	; 0x04
    2c9e:	81 60       	ori	r24, 0x01	; 1
    2ca0:	84 83       	std	Z+4, r24	; 0x04
    2ca2:	08 95       	ret

00002ca4 <buzzer_off>:
	
}
void buzzer_off(void){
	PORTB.DIR |= 0b00000001;  
    2ca4:	e0 e2       	ldi	r30, 0x20	; 32
    2ca6:	f6 e0       	ldi	r31, 0x06	; 6
    2ca8:	80 81       	ld	r24, Z
    2caa:	81 60       	ori	r24, 0x01	; 1
    2cac:	80 83       	st	Z, r24
	PORTB.OUT &= 0b11111110;
    2cae:	84 81       	ldd	r24, Z+4	; 0x04
    2cb0:	8e 7f       	andi	r24, 0xFE	; 254
    2cb2:	84 83       	std	Z+4, r24	; 0x04
    2cb4:	08 95       	ret

00002cb6 <camera_on>:
	
}
void camera_on(void){
	PORTE.DIR |= 0b01000000;
    2cb6:	e0 e8       	ldi	r30, 0x80	; 128
    2cb8:	f6 e0       	ldi	r31, 0x06	; 6
    2cba:	80 81       	ld	r24, Z
    2cbc:	80 64       	ori	r24, 0x40	; 64
    2cbe:	80 83       	st	Z, r24
	PORTE.OUT |= 0b01000000;
    2cc0:	84 81       	ldd	r24, Z+4	; 0x04
    2cc2:	80 64       	ori	r24, 0x40	; 64
    2cc4:	84 83       	std	Z+4, r24	; 0x04
    2cc6:	08 95       	ret

00002cc8 <__vector_2>:
		return 0;
	}
}

ISR(MPU9250_INT_vect)
{
    2cc8:	1f 92       	push	r1
    2cca:	0f 92       	push	r0
    2ccc:	0f b6       	in	r0, 0x3f	; 63
    2cce:	0f 92       	push	r0
    2cd0:	11 24       	eor	r1, r1
    2cd2:	08 b6       	in	r0, 0x38	; 56
    2cd4:	0f 92       	push	r0
    2cd6:	18 be       	out	0x38, r1	; 56
    2cd8:	09 b6       	in	r0, 0x39	; 57
    2cda:	0f 92       	push	r0
    2cdc:	19 be       	out	0x39, r1	; 57
    2cde:	8f 93       	push	r24
    2ce0:	9f 93       	push	r25
    2ce2:	af 93       	push	r26
    2ce4:	bf 93       	push	r27
	data_rdy_flag = 1;
    2ce6:	81 e0       	ldi	r24, 0x01	; 1
    2ce8:	80 93 de 20 	sts	0x20DE, r24	; 0x8020de <data_rdy_flag>
	timerflag = 1;
    2cec:	80 93 dd 20 	sts	0x20DD, r24	; 0x8020dd <timerflag>
	time++;
    2cf0:	80 91 d9 20 	lds	r24, 0x20D9	; 0x8020d9 <time>
    2cf4:	90 91 da 20 	lds	r25, 0x20DA	; 0x8020da <time+0x1>
    2cf8:	a0 91 db 20 	lds	r26, 0x20DB	; 0x8020db <time+0x2>
    2cfc:	b0 91 dc 20 	lds	r27, 0x20DC	; 0x8020dc <time+0x3>
    2d00:	01 96       	adiw	r24, 0x01	; 1
    2d02:	a1 1d       	adc	r26, r1
    2d04:	b1 1d       	adc	r27, r1
    2d06:	80 93 d9 20 	sts	0x20D9, r24	; 0x8020d9 <time>
    2d0a:	90 93 da 20 	sts	0x20DA, r25	; 0x8020da <time+0x1>
    2d0e:	a0 93 db 20 	sts	0x20DB, r26	; 0x8020db <time+0x2>
    2d12:	b0 93 dc 20 	sts	0x20DC, r27	; 0x8020dc <time+0x3>
}
    2d16:	bf 91       	pop	r27
    2d18:	af 91       	pop	r26
    2d1a:	9f 91       	pop	r25
    2d1c:	8f 91       	pop	r24
    2d1e:	0f 90       	pop	r0
    2d20:	09 be       	out	0x39, r0	; 57
    2d22:	0f 90       	pop	r0
    2d24:	08 be       	out	0x38, r0	; 56
    2d26:	0f 90       	pop	r0
    2d28:	0f be       	out	0x3f, r0	; 63
    2d2a:	0f 90       	pop	r0
    2d2c:	1f 90       	pop	r1
    2d2e:	18 95       	reti

00002d30 <__portable_avr_delay_cycles>:
 *
 * @{
 */
__always_optimize
static inline void __portable_avr_delay_cycles(unsigned long n)
{
    2d30:	04 c0       	rjmp	.+8      	; 0x2d3a <__portable_avr_delay_cycles+0xa>
	while (n) {
		barrier();
		n--;
    2d32:	61 50       	subi	r22, 0x01	; 1
    2d34:	71 09       	sbc	r23, r1
    2d36:	81 09       	sbc	r24, r1
    2d38:	91 09       	sbc	r25, r1
 * @{
 */
__always_optimize
static inline void __portable_avr_delay_cycles(unsigned long n)
{
	while (n) {
    2d3a:	61 15       	cp	r22, r1
    2d3c:	71 05       	cpc	r23, r1
    2d3e:	81 05       	cpc	r24, r1
    2d40:	91 05       	cpc	r25, r1
    2d42:	b9 f7       	brne	.-18     	; 0x2d32 <__portable_avr_delay_cycles+0x2>
    2d44:	08 95       	ret

00002d46 <spi_init>:
uint16_t C4; // Temperature coefficient of pressure offset; TCO
uint16_t C5; // Reference temperature; Tref
uint16_t C6; // Temperature coefficient of the pressure; TEMPSENS

void spi_init(void){
	PORTC.DIRSET = 0b10110000; //Open the output pins for the SPI
    2d46:	e0 e4       	ldi	r30, 0x40	; 64
    2d48:	f6 e0       	ldi	r31, 0x06	; 6
    2d4a:	80 eb       	ldi	r24, 0xB0	; 176
    2d4c:	81 83       	std	Z+1, r24	; 0x01
	PORTC.DIRCLR = 0b01000000; //Open the input pins for the SPI
    2d4e:	90 e4       	ldi	r25, 0x40	; 64
    2d50:	92 83       	std	Z+2, r25	; 0x02
	PORTC.OUT = 0b10110000;
    2d52:	84 83       	std	Z+4, r24	; 0x04
	SPIC.CTRL = 0b01010011;
    2d54:	83 e5       	ldi	r24, 0x53	; 83
    2d56:	80 93 c0 08 	sts	0x08C0, r24	; 0x8008c0 <__TEXT_REGION_LENGTH__+0x7008c0>
	PORTD.DIRSET = 0b00000010;
    2d5a:	82 e0       	ldi	r24, 0x02	; 2
    2d5c:	80 93 61 06 	sts	0x0661, r24	; 0x800661 <__TEXT_REGION_LENGTH__+0x700661>
    2d60:	08 95       	ret

00002d62 <spi_write>:
}

void spi_write(uint8_t command){
	SPIC.DATA = command;
    2d62:	80 93 c3 08 	sts	0x08C3, r24	; 0x8008c3 <__TEXT_REGION_LENGTH__+0x7008c3>
	while(!(SPIC.STATUS>>7)); //waits until the status register changes
    2d66:	e0 ec       	ldi	r30, 0xC0	; 192
    2d68:	f8 e0       	ldi	r31, 0x08	; 8
    2d6a:	82 81       	ldd	r24, Z+2	; 0x02
    2d6c:	88 23       	and	r24, r24
    2d6e:	ec f7       	brge	.-6      	; 0x2d6a <spi_write+0x8>
}
    2d70:	08 95       	ret

00002d72 <spi_read>:

uint8_t spi_read(void){
	spi_write(0xFF); //writes a max byte 
    2d72:	8f ef       	ldi	r24, 0xFF	; 255
    2d74:	f6 df       	rcall	.-20     	; 0x2d62 <spi_write>
	return SPIC.DATA; //gets the data and returns value
    2d76:	80 91 c3 08 	lds	r24, 0x08C3	; 0x8008c3 <__TEXT_REGION_LENGTH__+0x7008c3>
}
    2d7a:	08 95       	ret

00002d7c <prom_read>:
	C4 = prom_read(0xA8);
	C5 = prom_read(0xAA);
	C6 = prom_read(0xAC);
}

uint16_t prom_read(uint8_t command){ // reads the specified data value stored in the sensor.
    2d7c:	1f 93       	push	r17
    2d7e:	cf 93       	push	r28
    2d80:	df 93       	push	r29
	//int32_t P = 0;
	return P;
}

void pres_select(void){
	PORTD_OUTCLR = 0b0000010;
    2d82:	12 e0       	ldi	r17, 0x02	; 2
    2d84:	10 93 66 06 	sts	0x0666, r17	; 0x800666 <__TEXT_REGION_LENGTH__+0x700666>

uint16_t prom_read(uint8_t command){ // reads the specified data value stored in the sensor.
	uint16_t data;
	pres_select();
	spi_write(command);
	data = ((uint16_t)spi_read())<<8;
    2d88:	ec df       	rcall	.-40     	; 0x2d62 <spi_write>
    2d8a:	f3 df       	rcall	.-26     	; 0x2d72 <spi_read>
    2d8c:	c8 2f       	mov	r28, r24
    2d8e:	d0 e0       	ldi	r29, 0x00	; 0
	data += spi_read();
    2d90:	dc 2f       	mov	r29, r28
    2d92:	cc 27       	eor	r28, r28
    2d94:	ee df       	rcall	.-36     	; 0x2d72 <spi_read>
    2d96:	c8 0f       	add	r28, r24
void pres_select(void){
	PORTD_OUTCLR = 0b0000010;
}

void pres_deselect(void){
	PORTD_OUTSET = 0b00000010;
    2d98:	d1 1d       	adc	r29, r1
    2d9a:	10 93 65 06 	sts	0x0665, r17	; 0x800665 <__TEXT_REGION_LENGTH__+0x700665>
	pres_select();
	spi_write(command);
	data = ((uint16_t)spi_read())<<8;
	data += spi_read();
	pres_deselect();
	delay_ms(1);
    2d9e:	66 ed       	ldi	r22, 0xD6	; 214
    2da0:	74 e1       	ldi	r23, 0x14	; 20
    2da2:	80 e0       	ldi	r24, 0x00	; 0
    2da4:	90 e0       	ldi	r25, 0x00	; 0
	return data;
}
    2da6:	c4 df       	rcall	.-120    	; 0x2d30 <__portable_avr_delay_cycles>
    2da8:	ce 01       	movw	r24, r28
    2daa:	df 91       	pop	r29
    2dac:	cf 91       	pop	r28
    2dae:	1f 91       	pop	r17
    2db0:	08 95       	ret

00002db2 <ms5607init>:
uint8_t spi_read(void){
	spi_write(0xFF); //writes a max byte 
	return SPIC.DATA; //gets the data and returns value
}

void ms5607init(void){
    2db2:	cf 93       	push	r28
	//int32_t P = 0;
	return P;
}

void pres_select(void){
	PORTD_OUTCLR = 0b0000010;
    2db4:	c2 e0       	ldi	r28, 0x02	; 2
    2db6:	c0 93 66 06 	sts	0x0666, r28	; 0x800666 <__TEXT_REGION_LENGTH__+0x700666>
	return SPIC.DATA; //gets the data and returns value
}

void ms5607init(void){
	pres_select(); // Turn on output pin for port 4. 
	spi_write(0x1E);
    2dba:	8e e1       	ldi	r24, 0x1E	; 30
    2dbc:	d2 df       	rcall	.-92     	; 0x2d62 <spi_write>
void pres_select(void){
	PORTD_OUTCLR = 0b0000010;
}

void pres_deselect(void){
	PORTD_OUTSET = 0b00000010;
    2dbe:	c0 93 65 06 	sts	0x0665, r28	; 0x800665 <__TEXT_REGION_LENGTH__+0x700665>

void ms5607init(void){
	pres_select(); // Turn on output pin for port 4. 
	spi_write(0x1E);
	pres_deselect(); //reset command for the sensor; refer to datasheet for more.
	delay_ms(10);
    2dc2:	66 e5       	ldi	r22, 0x56	; 86
    2dc4:	70 ed       	ldi	r23, 0xD0	; 208
    2dc6:	80 e0       	ldi	r24, 0x00	; 0
    2dc8:	90 e0       	ldi	r25, 0x00	; 0
	
	
	
	//Get the programmatical settings from the sensor for future calculations.
	C1 = prom_read(0xA2);
    2dca:	b2 df       	rcall	.-156    	; 0x2d30 <__portable_avr_delay_cycles>
    2dcc:	82 ea       	ldi	r24, 0xA2	; 162
    2dce:	d6 df       	rcall	.-84     	; 0x2d7c <prom_read>
    2dd0:	80 93 98 23 	sts	0x2398, r24	; 0x802398 <C1>
    2dd4:	90 93 99 23 	sts	0x2399, r25	; 0x802399 <C1+0x1>
	C2 = prom_read(0xA4);
    2dd8:	84 ea       	ldi	r24, 0xA4	; 164
    2dda:	d0 df       	rcall	.-96     	; 0x2d7c <prom_read>
    2ddc:	80 93 9c 23 	sts	0x239C, r24	; 0x80239c <C2>
    2de0:	90 93 9d 23 	sts	0x239D, r25	; 0x80239d <C2+0x1>
	C3 = prom_read(0xA6);
    2de4:	86 ea       	ldi	r24, 0xA6	; 166
    2de6:	ca df       	rcall	.-108    	; 0x2d7c <prom_read>
    2de8:	80 93 9a 23 	sts	0x239A, r24	; 0x80239a <C3>
    2dec:	90 93 9b 23 	sts	0x239B, r25	; 0x80239b <C3+0x1>
	C4 = prom_read(0xA8);
    2df0:	88 ea       	ldi	r24, 0xA8	; 168
    2df2:	c4 df       	rcall	.-120    	; 0x2d7c <prom_read>
    2df4:	80 93 a2 23 	sts	0x23A2, r24	; 0x8023a2 <C4>
    2df8:	90 93 a3 23 	sts	0x23A3, r25	; 0x8023a3 <C4+0x1>
	C5 = prom_read(0xAA);
    2dfc:	8a ea       	ldi	r24, 0xAA	; 170
    2dfe:	be df       	rcall	.-132    	; 0x2d7c <prom_read>
    2e00:	80 93 a0 23 	sts	0x23A0, r24	; 0x8023a0 <C5>
    2e04:	90 93 a1 23 	sts	0x23A1, r25	; 0x8023a1 <C5+0x1>
	C6 = prom_read(0xAC);
    2e08:	8c ea       	ldi	r24, 0xAC	; 172
    2e0a:	b8 df       	rcall	.-144    	; 0x2d7c <prom_read>
    2e0c:	80 93 9e 23 	sts	0x239E, r24	; 0x80239e <C6>
    2e10:	90 93 9f 23 	sts	0x239F, r25	; 0x80239f <C6+0x1>
}
    2e14:	cf 91       	pop	r28
    2e16:	08 95       	ret

00002e18 <data_read>:
	pres_deselect();
	delay_ms(1);
	return data;
}

uint32_t data_read(uint8_t command){
    2e18:	8f 92       	push	r8
    2e1a:	9f 92       	push	r9
    2e1c:	af 92       	push	r10
    2e1e:	bf 92       	push	r11
    2e20:	cf 92       	push	r12
    2e22:	df 92       	push	r13
    2e24:	ef 92       	push	r14
    2e26:	ff 92       	push	r15
    2e28:	1f 93       	push	r17
    2e2a:	cf 93       	push	r28
    2e2c:	df 93       	push	r29
	//int32_t P = 0;
	return P;
}

void pres_select(void){
	PORTD_OUTCLR = 0b0000010;
    2e2e:	0f 2e       	mov	r0, r31
    2e30:	f6 e6       	ldi	r31, 0x66	; 102
    2e32:	ef 2e       	mov	r14, r31
    2e34:	f6 e0       	ldi	r31, 0x06	; 6
    2e36:	ff 2e       	mov	r15, r31
    2e38:	f0 2d       	mov	r31, r0
    2e3a:	12 e0       	ldi	r17, 0x02	; 2
    2e3c:	f7 01       	movw	r30, r14
}

uint32_t data_read(uint8_t command){
	uint32_t data;
	pres_select();
	spi_write(command);
    2e3e:	10 83       	st	Z, r17
void pres_select(void){
	PORTD_OUTCLR = 0b0000010;
}

void pres_deselect(void){
	PORTD_OUTSET = 0b00000010;
    2e40:	90 df       	rcall	.-224    	; 0x2d62 <spi_write>
    2e42:	c5 e6       	ldi	r28, 0x65	; 101
    2e44:	d6 e0       	ldi	r29, 0x06	; 6
uint32_t data_read(uint8_t command){
	uint32_t data;
	pres_select();
	spi_write(command);
	pres_deselect();
	delay_ms(10); //delay to wait for the data output
    2e46:	18 83       	st	Y, r17
    2e48:	66 e5       	ldi	r22, 0x56	; 86
    2e4a:	70 ed       	ldi	r23, 0xD0	; 208
    2e4c:	80 e0       	ldi	r24, 0x00	; 0
    2e4e:	90 e0       	ldi	r25, 0x00	; 0
	pres_select();
	spi_write(0x00);
    2e50:	6f df       	rcall	.-290    	; 0x2d30 <__portable_avr_delay_cycles>
    2e52:	f7 01       	movw	r30, r14
	data = ((uint32_t)spi_read())<<16; //gets the first 16 bits of the sensor reading, shunts it to the front of the integer.
    2e54:	10 83       	st	Z, r17
    2e56:	80 e0       	ldi	r24, 0x00	; 0
    2e58:	84 df       	rcall	.-248    	; 0x2d62 <spi_write>
    2e5a:	8b df       	rcall	.-234    	; 0x2d72 <spi_read>
    2e5c:	c8 2e       	mov	r12, r24
    2e5e:	d1 2c       	mov	r13, r1
    2e60:	e1 2c       	mov	r14, r1
    2e62:	f1 2c       	mov	r15, r1
	data += ((uint32_t)spi_read())<<8; // gets another 8 bits of the reading, shunts it in as well.
    2e64:	56 01       	movw	r10, r12
    2e66:	99 24       	eor	r9, r9
    2e68:	88 24       	eor	r8, r8
    2e6a:	83 df       	rcall	.-250    	; 0x2d72 <spi_read>
    2e6c:	c8 2e       	mov	r12, r24
    2e6e:	d1 2c       	mov	r13, r1
    2e70:	e1 2c       	mov	r14, r1
    2e72:	f1 2c       	mov	r15, r1
    2e74:	fe 2c       	mov	r15, r14
    2e76:	ed 2c       	mov	r14, r13
    2e78:	dc 2c       	mov	r13, r12
    2e7a:	cc 24       	eor	r12, r12
    2e7c:	c8 0c       	add	r12, r8
	data += (uint32_t)spi_read(); // gets the final 8 bits from the sensor.
    2e7e:	d9 1c       	adc	r13, r9
    2e80:	ea 1c       	adc	r14, r10
void pres_select(void){
	PORTD_OUTCLR = 0b0000010;
}

void pres_deselect(void){
	PORTD_OUTSET = 0b00000010;
    2e82:	fb 1c       	adc	r15, r11
	data = ((uint32_t)spi_read())<<16; //gets the first 16 bits of the sensor reading, shunts it to the front of the integer.
	data += ((uint32_t)spi_read())<<8; // gets another 8 bits of the reading, shunts it in as well.
	data += (uint32_t)spi_read(); // gets the final 8 bits from the sensor.
	pres_deselect();
	//delay_ms(10);
	return data;
    2e84:	76 df       	rcall	.-276    	; 0x2d72 <spi_read>
    2e86:	18 83       	st	Y, r17
    2e88:	a7 01       	movw	r20, r14
    2e8a:	96 01       	movw	r18, r12
    2e8c:	28 0f       	add	r18, r24
    2e8e:	31 1d       	adc	r19, r1
    2e90:	41 1d       	adc	r20, r1
    2e92:	51 1d       	adc	r21, r1
}
    2e94:	ca 01       	movw	r24, r20
    2e96:	b9 01       	movw	r22, r18
    2e98:	df 91       	pop	r29
    2e9a:	cf 91       	pop	r28
    2e9c:	1f 91       	pop	r17
    2e9e:	ff 90       	pop	r15
    2ea0:	ef 90       	pop	r14
    2ea2:	df 90       	pop	r13
    2ea4:	cf 90       	pop	r12
    2ea6:	bf 90       	pop	r11
    2ea8:	af 90       	pop	r10
    2eaa:	9f 90       	pop	r9
    2eac:	8f 90       	pop	r8
    2eae:	08 95       	ret

00002eb0 <get_pressure>:

uint32_t get_pressure(void){ //refer to the datasheet for these calculations.
    2eb0:	2f 92       	push	r2
    2eb2:	3f 92       	push	r3
    2eb4:	4f 92       	push	r4
    2eb6:	5f 92       	push	r5
    2eb8:	6f 92       	push	r6
    2eba:	7f 92       	push	r7
    2ebc:	8f 92       	push	r8
    2ebe:	9f 92       	push	r9
    2ec0:	af 92       	push	r10
    2ec2:	bf 92       	push	r11
    2ec4:	cf 92       	push	r12
    2ec6:	df 92       	push	r13
    2ec8:	ef 92       	push	r14
    2eca:	ff 92       	push	r15
    2ecc:	0f 93       	push	r16
    2ece:	1f 93       	push	r17
    2ed0:	cf 93       	push	r28
    2ed2:	df 93       	push	r29
    2ed4:	cd b7       	in	r28, 0x3d	; 61
    2ed6:	de b7       	in	r29, 0x3e	; 62
    2ed8:	64 97       	sbiw	r28, 0x14	; 20
    2eda:	cd bf       	out	0x3d, r28	; 61
    2edc:	de bf       	out	0x3e, r29	; 62
	
	uint32_t D1 = data_read(0x48); // Gets digital pressure value
    2ede:	88 e4       	ldi	r24, 0x48	; 72
    2ee0:	9b df       	rcall	.-202    	; 0x2e18 <data_read>
    2ee2:	2b 01       	movw	r4, r22
	uint32_t D2 = data_read(0x58); // Gets temperature value
    2ee4:	3c 01       	movw	r6, r24
    2ee6:	88 e5       	ldi	r24, 0x58	; 88
	
	//printf("D1: %lu, D2: %lu", D1, D2);
	
	int32_t dT = (int64_t)D2 - (int64_t)C5 * 256; // Runs calculations to get dT
	int32_t TEMP = 2000 + (int64_t)dT * (int64_t)C6 / 8388608; // Finds actual temp
    2ee8:	97 df       	rcall	.-210    	; 0x2e18 <data_read>
    2eea:	20 91 a0 23 	lds	r18, 0x23A0	; 0x8023a0 <C5>
    2eee:	30 91 a1 23 	lds	r19, 0x23A1	; 0x8023a1 <C5+0x1>
    2ef2:	89 01       	movw	r16, r18
    2ef4:	20 e0       	ldi	r18, 0x00	; 0
    2ef6:	30 e0       	ldi	r19, 0x00	; 0
    2ef8:	32 2f       	mov	r19, r18
    2efa:	21 2f       	mov	r18, r17
    2efc:	10 2f       	mov	r17, r16
    2efe:	00 27       	eor	r16, r16
    2f00:	6b 01       	movw	r12, r22
    2f02:	7c 01       	movw	r14, r24
    2f04:	c0 1a       	sub	r12, r16
    2f06:	d1 0a       	sbc	r13, r17
    2f08:	e2 0a       	sbc	r14, r18
    2f0a:	f3 0a       	sbc	r15, r19
    2f0c:	c9 82       	std	Y+1, r12	; 0x01
    2f0e:	da 82       	std	Y+2, r13	; 0x02
    2f10:	eb 82       	std	Y+3, r14	; 0x03
    2f12:	fc 82       	std	Y+4, r15	; 0x04
    2f14:	ff 0c       	add	r15, r15
    2f16:	cc 08       	sbc	r12, r12
    2f18:	dc 2c       	mov	r13, r12
    2f1a:	76 01       	movw	r14, r12
    2f1c:	cd 82       	std	Y+5, r12	; 0x05
    2f1e:	de 82       	std	Y+6, r13	; 0x06
    2f20:	ef 82       	std	Y+7, r14	; 0x07
	int64_t OFF =	(int64_t)C2 * 131072 + ((int64_t)C4 * (int64_t)dT) / 64;
	int64_t SENS = (int64_t)C1 * 65536 + ((int64_t)C3 * (int64_t)dT) / 128; 
	int32_t P = ((int64_t)D1 * (int64_t)SENS / 2097152 - (int64_t)OFF) / 32768; // Gets the actual temperature and type casts it.
	//printf("Test: %lld\n", test);
	//int32_t P = 0;
	return P;
    2f22:	f8 86       	std	Y+8, r15	; 0x08
    2f24:	80 91 9a 23 	lds	r24, 0x239A	; 0x80239a <C3>
    2f28:	90 91 9b 23 	lds	r25, 0x239B	; 0x80239b <C3+0x1>
    2f2c:	7c 01       	movw	r14, r24
    2f2e:	00 e0       	ldi	r16, 0x00	; 0
    2f30:	10 e0       	ldi	r17, 0x00	; 0
    2f32:	20 e0       	ldi	r18, 0x00	; 0
    2f34:	30 e0       	ldi	r19, 0x00	; 0
    2f36:	a9 01       	movw	r20, r18
    2f38:	8d 87       	std	Y+13, r24	; 0x0d
    2f3a:	fe 86       	std	Y+14, r15	; 0x0e
    2f3c:	0f 87       	std	Y+15, r16	; 0x0f
    2f3e:	18 8b       	std	Y+16, r17	; 0x10
    2f40:	29 8b       	std	Y+17, r18	; 0x11
    2f42:	3a 8b       	std	Y+18, r19	; 0x12
    2f44:	4b 8b       	std	Y+19, r20	; 0x13
    2f46:	5c 8b       	std	Y+20, r21	; 0x14
    2f48:	a9 80       	ldd	r10, Y+1	; 0x01
    2f4a:	ba 80       	ldd	r11, Y+2	; 0x02
    2f4c:	cb 80       	ldd	r12, Y+3	; 0x03
    2f4e:	dc 80       	ldd	r13, Y+4	; 0x04
    2f50:	ed 80       	ldd	r14, Y+5	; 0x05
    2f52:	fe 2c       	mov	r15, r14
    2f54:	0e 2d       	mov	r16, r14
    2f56:	1e 2d       	mov	r17, r14
    2f58:	2d 85       	ldd	r18, Y+13	; 0x0d
    2f5a:	3e 85       	ldd	r19, Y+14	; 0x0e
    2f5c:	40 e0       	ldi	r20, 0x00	; 0
    2f5e:	50 e0       	ldi	r21, 0x00	; 0
    2f60:	60 e0       	ldi	r22, 0x00	; 0
    2f62:	70 e0       	ldi	r23, 0x00	; 0
    2f64:	80 e0       	ldi	r24, 0x00	; 0
    2f66:	90 e0       	ldi	r25, 0x00	; 0
    2f68:	0e 94 64 24 	call	0x48c8	; 0x48c8 <__muldi3>
    2f6c:	b2 2f       	mov	r27, r18
    2f6e:	f3 2f       	mov	r31, r19
    2f70:	e4 2f       	mov	r30, r20
    2f72:	95 2e       	mov	r9, r21
    2f74:	86 2e       	mov	r8, r22
    2f76:	37 2e       	mov	r3, r23
    2f78:	a8 2e       	mov	r10, r24
    2f7a:	b9 2e       	mov	r11, r25
    2f7c:	a0 e0       	ldi	r26, 0x00	; 0
    2f7e:	0e 94 0a 25 	call	0x4a14	; 0x4a14 <__cmpdi2_s8>
    2f82:	5c f4       	brge	.+22     	; 0x2f9a <get_pressure+0xea>
    2f84:	af e7       	ldi	r26, 0x7F	; 127
    2f86:	0e 94 f5 24 	call	0x49ea	; 0x49ea <__adddi3_s8>
    2f8a:	b2 2f       	mov	r27, r18
    2f8c:	f3 2f       	mov	r31, r19
    2f8e:	e4 2f       	mov	r30, r20
    2f90:	95 2e       	mov	r9, r21
    2f92:	86 2e       	mov	r8, r22
    2f94:	37 2e       	mov	r3, r23
    2f96:	a8 2e       	mov	r10, r24
    2f98:	b9 2e       	mov	r11, r25
    2f9a:	2b 2f       	mov	r18, r27
    2f9c:	3f 2f       	mov	r19, r31
    2f9e:	4e 2f       	mov	r20, r30
    2fa0:	59 2d       	mov	r21, r9
    2fa2:	68 2d       	mov	r22, r8
    2fa4:	73 2d       	mov	r23, r3
    2fa6:	8a 2d       	mov	r24, r10
    2fa8:	9b 2d       	mov	r25, r11
    2faa:	07 e0       	ldi	r16, 0x07	; 7
    2fac:	0e 94 ce 24 	call	0x499c	; 0x499c <__ashrdi3>
    2fb0:	82 2e       	mov	r8, r18
    2fb2:	93 2e       	mov	r9, r19
    2fb4:	4a 87       	std	Y+10, r20	; 0x0a
    2fb6:	59 87       	std	Y+9, r21	; 0x09
    2fb8:	b6 2f       	mov	r27, r22
    2fba:	a7 2f       	mov	r26, r23
    2fbc:	f8 2f       	mov	r31, r24
    2fbe:	e9 2f       	mov	r30, r25
    2fc0:	a0 90 98 23 	lds	r10, 0x2398	; 0x802398 <C1>
    2fc4:	b0 90 99 23 	lds	r11, 0x2399	; 0x802399 <C1+0x1>
    2fc8:	2a 2d       	mov	r18, r10
    2fca:	3b 2d       	mov	r19, r11
    2fcc:	40 e0       	ldi	r20, 0x00	; 0
    2fce:	50 e0       	ldi	r21, 0x00	; 0
    2fd0:	60 e0       	ldi	r22, 0x00	; 0
    2fd2:	70 e0       	ldi	r23, 0x00	; 0
    2fd4:	80 e0       	ldi	r24, 0x00	; 0
    2fd6:	90 e0       	ldi	r25, 0x00	; 0
    2fd8:	00 e1       	ldi	r16, 0x10	; 16
    2fda:	0e 94 b5 24 	call	0x496a	; 0x496a <__ashldi3>
    2fde:	a2 2e       	mov	r10, r18
    2fe0:	b3 2e       	mov	r11, r19
    2fe2:	c4 2e       	mov	r12, r20
    2fe4:	d5 2e       	mov	r13, r21
    2fe6:	e6 2e       	mov	r14, r22
    2fe8:	f7 2e       	mov	r15, r23
    2fea:	08 2f       	mov	r16, r24
    2fec:	19 2f       	mov	r17, r25
    2fee:	28 2d       	mov	r18, r8
    2ff0:	39 2d       	mov	r19, r9
    2ff2:	4a 85       	ldd	r20, Y+10	; 0x0a
    2ff4:	59 85       	ldd	r21, Y+9	; 0x09
    2ff6:	6b 2f       	mov	r22, r27
    2ff8:	7a 2f       	mov	r23, r26
    2ffa:	8f 2f       	mov	r24, r31
    2ffc:	9e 2f       	mov	r25, r30
    2ffe:	0e 94 ec 24 	call	0x49d8	; 0x49d8 <__adddi3>
    3002:	12 01       	movw	r2, r4
    3004:	23 01       	movw	r4, r6
    3006:	a2 2c       	mov	r10, r2
    3008:	b3 2c       	mov	r11, r3
    300a:	c4 2c       	mov	r12, r4
    300c:	d5 2c       	mov	r13, r5
    300e:	e1 2c       	mov	r14, r1
    3010:	f1 2c       	mov	r15, r1
    3012:	00 e0       	ldi	r16, 0x00	; 0
    3014:	10 e0       	ldi	r17, 0x00	; 0
    3016:	0e 94 64 24 	call	0x48c8	; 0x48c8 <__muldi3>
    301a:	12 2f       	mov	r17, r18
    301c:	3a 87       	std	Y+10, r19	; 0x0a
    301e:	49 87       	std	Y+9, r20	; 0x09
    3020:	b5 2f       	mov	r27, r21
    3022:	f6 2f       	mov	r31, r22
    3024:	e7 2f       	mov	r30, r23
    3026:	78 2e       	mov	r7, r24
    3028:	89 2e       	mov	r8, r25
    302a:	a0 e0       	ldi	r26, 0x00	; 0
    302c:	0e 94 0a 25 	call	0x4a14	; 0x4a14 <__cmpdi2_s8>
    3030:	84 f4       	brge	.+32     	; 0x3052 <get_pressure+0x1a2>
    3032:	21 50       	subi	r18, 0x01	; 1
    3034:	31 09       	sbc	r19, r1
    3036:	40 4e       	sbci	r20, 0xE0	; 224
    3038:	5f 4f       	sbci	r21, 0xFF	; 255
    303a:	6f 4f       	sbci	r22, 0xFF	; 255
    303c:	7f 4f       	sbci	r23, 0xFF	; 255
    303e:	8f 4f       	sbci	r24, 0xFF	; 255
    3040:	9f 4f       	sbci	r25, 0xFF	; 255
    3042:	12 2f       	mov	r17, r18
    3044:	3a 87       	std	Y+10, r19	; 0x0a
    3046:	49 87       	std	Y+9, r20	; 0x09
    3048:	b5 2f       	mov	r27, r21
    304a:	f6 2f       	mov	r31, r22
    304c:	e7 2f       	mov	r30, r23
    304e:	78 2e       	mov	r7, r24
    3050:	89 2e       	mov	r8, r25
    3052:	21 2f       	mov	r18, r17
    3054:	3a 85       	ldd	r19, Y+10	; 0x0a
    3056:	49 85       	ldd	r20, Y+9	; 0x09
    3058:	5b 2f       	mov	r21, r27
    305a:	6f 2f       	mov	r22, r31
    305c:	7e 2f       	mov	r23, r30
    305e:	87 2d       	mov	r24, r7
    3060:	98 2d       	mov	r25, r8
    3062:	05 e1       	ldi	r16, 0x15	; 21
    3064:	0e 94 ce 24 	call	0x499c	; 0x499c <__ashrdi3>
    3068:	62 2e       	mov	r6, r18
    306a:	73 2e       	mov	r7, r19
    306c:	84 2e       	mov	r8, r20
    306e:	95 2e       	mov	r9, r21
    3070:	69 87       	std	Y+9, r22	; 0x09
    3072:	7a 87       	std	Y+10, r23	; 0x0a
    3074:	8b 87       	std	Y+11, r24	; 0x0b
    3076:	9c 87       	std	Y+12, r25	; 0x0c
    3078:	40 91 a2 23 	lds	r20, 0x23A2	; 0x8023a2 <C4>
    307c:	50 91 a3 23 	lds	r21, 0x23A3	; 0x8023a3 <C4+0x1>
    3080:	6a 01       	movw	r12, r20
    3082:	e1 2c       	mov	r14, r1
    3084:	f1 2c       	mov	r15, r1
    3086:	00 e0       	ldi	r16, 0x00	; 0
    3088:	10 e0       	ldi	r17, 0x00	; 0
    308a:	98 01       	movw	r18, r16
    308c:	4d 87       	std	Y+13, r20	; 0x0d
    308e:	de 86       	std	Y+14, r13	; 0x0e
    3090:	ef 86       	std	Y+15, r14	; 0x0f
    3092:	f8 8a       	std	Y+16, r15	; 0x10
    3094:	09 8b       	std	Y+17, r16	; 0x11
    3096:	1a 8b       	std	Y+18, r17	; 0x12
    3098:	2b 8b       	std	Y+19, r18	; 0x13
    309a:	3c 8b       	std	Y+20, r19	; 0x14
    309c:	a9 80       	ldd	r10, Y+1	; 0x01
    309e:	ba 80       	ldd	r11, Y+2	; 0x02
    30a0:	cb 80       	ldd	r12, Y+3	; 0x03
    30a2:	dc 80       	ldd	r13, Y+4	; 0x04
    30a4:	ed 80       	ldd	r14, Y+5	; 0x05
    30a6:	fe 2c       	mov	r15, r14
    30a8:	0e 2d       	mov	r16, r14
    30aa:	1e 2d       	mov	r17, r14
    30ac:	2d 85       	ldd	r18, Y+13	; 0x0d
    30ae:	3e 85       	ldd	r19, Y+14	; 0x0e
    30b0:	40 e0       	ldi	r20, 0x00	; 0
    30b2:	50 e0       	ldi	r21, 0x00	; 0
    30b4:	60 e0       	ldi	r22, 0x00	; 0
    30b6:	70 e0       	ldi	r23, 0x00	; 0
    30b8:	80 e0       	ldi	r24, 0x00	; 0
    30ba:	90 e0       	ldi	r25, 0x00	; 0
    30bc:	0e 94 64 24 	call	0x48c8	; 0x48c8 <__muldi3>
    30c0:	b2 2f       	mov	r27, r18
    30c2:	f3 2f       	mov	r31, r19
    30c4:	e4 2f       	mov	r30, r20
    30c6:	35 2e       	mov	r3, r21
    30c8:	26 2e       	mov	r2, r22
    30ca:	79 83       	std	Y+1, r23	; 0x01
    30cc:	48 2e       	mov	r4, r24
    30ce:	59 2e       	mov	r5, r25
    30d0:	a0 e0       	ldi	r26, 0x00	; 0
    30d2:	0e 94 0a 25 	call	0x4a14	; 0x4a14 <__cmpdi2_s8>
    30d6:	5c f4       	brge	.+22     	; 0x30ee <get_pressure+0x23e>
    30d8:	af e3       	ldi	r26, 0x3F	; 63
    30da:	0e 94 f5 24 	call	0x49ea	; 0x49ea <__adddi3_s8>
    30de:	b2 2f       	mov	r27, r18
    30e0:	f3 2f       	mov	r31, r19
    30e2:	e4 2f       	mov	r30, r20
    30e4:	35 2e       	mov	r3, r21
    30e6:	26 2e       	mov	r2, r22
    30e8:	79 83       	std	Y+1, r23	; 0x01
    30ea:	48 2e       	mov	r4, r24
    30ec:	59 2e       	mov	r5, r25
    30ee:	2b 2f       	mov	r18, r27
    30f0:	3f 2f       	mov	r19, r31
    30f2:	4e 2f       	mov	r20, r30
    30f4:	53 2d       	mov	r21, r3
    30f6:	62 2d       	mov	r22, r2
    30f8:	79 81       	ldd	r23, Y+1	; 0x01
    30fa:	84 2d       	mov	r24, r4
    30fc:	95 2d       	mov	r25, r5
    30fe:	06 e0       	ldi	r16, 0x06	; 6
    3100:	0e 94 ce 24 	call	0x499c	; 0x499c <__ashrdi3>
    3104:	22 2e       	mov	r2, r18
    3106:	33 2e       	mov	r3, r19
    3108:	44 2e       	mov	r4, r20
    310a:	55 2e       	mov	r5, r21
    310c:	b6 2f       	mov	r27, r22
    310e:	a7 2f       	mov	r26, r23
    3110:	f8 2f       	mov	r31, r24
    3112:	e9 2f       	mov	r30, r25
    3114:	20 91 9c 23 	lds	r18, 0x239C	; 0x80239c <C2>
    3118:	30 91 9d 23 	lds	r19, 0x239D	; 0x80239d <C2+0x1>
    311c:	59 01       	movw	r10, r18
    311e:	3b 2d       	mov	r19, r11
    3120:	40 e0       	ldi	r20, 0x00	; 0
    3122:	50 e0       	ldi	r21, 0x00	; 0
    3124:	60 e0       	ldi	r22, 0x00	; 0
    3126:	70 e0       	ldi	r23, 0x00	; 0
    3128:	80 e0       	ldi	r24, 0x00	; 0
    312a:	90 e0       	ldi	r25, 0x00	; 0
    312c:	01 e1       	ldi	r16, 0x11	; 17
    312e:	0e 94 b5 24 	call	0x496a	; 0x496a <__ashldi3>
    3132:	a2 2e       	mov	r10, r18
    3134:	b3 2e       	mov	r11, r19
    3136:	c4 2e       	mov	r12, r20
    3138:	d5 2e       	mov	r13, r21
    313a:	e6 2e       	mov	r14, r22
    313c:	f7 2e       	mov	r15, r23
    313e:	08 2f       	mov	r16, r24
    3140:	19 2f       	mov	r17, r25
    3142:	22 2d       	mov	r18, r2
    3144:	33 2d       	mov	r19, r3
    3146:	44 2d       	mov	r20, r4
    3148:	55 2d       	mov	r21, r5
    314a:	6b 2f       	mov	r22, r27
    314c:	7a 2f       	mov	r23, r26
    314e:	8f 2f       	mov	r24, r31
    3150:	9e 2f       	mov	r25, r30
    3152:	0e 94 ec 24 	call	0x49d8	; 0x49d8 <__adddi3>
    3156:	a2 2e       	mov	r10, r18
    3158:	b3 2e       	mov	r11, r19
    315a:	c4 2e       	mov	r12, r20
    315c:	d5 2e       	mov	r13, r21
    315e:	e6 2e       	mov	r14, r22
    3160:	f7 2e       	mov	r15, r23
    3162:	08 2f       	mov	r16, r24
    3164:	19 2f       	mov	r17, r25
    3166:	26 2d       	mov	r18, r6
    3168:	37 2d       	mov	r19, r7
    316a:	48 2d       	mov	r20, r8
    316c:	59 2d       	mov	r21, r9
    316e:	69 85       	ldd	r22, Y+9	; 0x09
    3170:	7a 85       	ldd	r23, Y+10	; 0x0a
    3172:	8b 85       	ldd	r24, Y+11	; 0x0b
    3174:	9c 85       	ldd	r25, Y+12	; 0x0c
    3176:	0e 94 01 25 	call	0x4a02	; 0x4a02 <__subdi3>
    317a:	12 2f       	mov	r17, r18
    317c:	3d 83       	std	Y+5, r19	; 0x05
    317e:	49 83       	std	Y+1, r20	; 0x01
    3180:	b5 2f       	mov	r27, r21
    3182:	f6 2f       	mov	r31, r22
    3184:	e7 2f       	mov	r30, r23
    3186:	78 2e       	mov	r7, r24
    3188:	89 2e       	mov	r8, r25
    318a:	a0 e0       	ldi	r26, 0x00	; 0
    318c:	0e 94 0a 25 	call	0x4a14	; 0x4a14 <__cmpdi2_s8>
    3190:	84 f4       	brge	.+32     	; 0x31b2 <get_pressure+0x302>
    3192:	21 50       	subi	r18, 0x01	; 1
    3194:	30 48       	sbci	r19, 0x80	; 128
    3196:	4f 4f       	sbci	r20, 0xFF	; 255
    3198:	5f 4f       	sbci	r21, 0xFF	; 255
    319a:	6f 4f       	sbci	r22, 0xFF	; 255
    319c:	7f 4f       	sbci	r23, 0xFF	; 255
    319e:	8f 4f       	sbci	r24, 0xFF	; 255
    31a0:	9f 4f       	sbci	r25, 0xFF	; 255
    31a2:	12 2f       	mov	r17, r18
    31a4:	3d 83       	std	Y+5, r19	; 0x05
    31a6:	49 83       	std	Y+1, r20	; 0x01
    31a8:	b5 2f       	mov	r27, r21
    31aa:	f6 2f       	mov	r31, r22
    31ac:	e7 2f       	mov	r30, r23
    31ae:	78 2e       	mov	r7, r24
    31b0:	89 2e       	mov	r8, r25
    31b2:	21 2f       	mov	r18, r17
    31b4:	3d 81       	ldd	r19, Y+5	; 0x05
    31b6:	49 81       	ldd	r20, Y+1	; 0x01
    31b8:	5b 2f       	mov	r21, r27
    31ba:	6f 2f       	mov	r22, r31
    31bc:	7e 2f       	mov	r23, r30
    31be:	87 2d       	mov	r24, r7
    31c0:	98 2d       	mov	r25, r8
    31c2:	0f e0       	ldi	r16, 0x0F	; 15
    31c4:	0e 94 ce 24 	call	0x499c	; 0x499c <__ashrdi3>
    31c8:	62 2f       	mov	r22, r18
    31ca:	73 2f       	mov	r23, r19
    31cc:	84 2f       	mov	r24, r20
}
    31ce:	95 2f       	mov	r25, r21
    31d0:	64 96       	adiw	r28, 0x14	; 20
    31d2:	cd bf       	out	0x3d, r28	; 61
    31d4:	de bf       	out	0x3e, r29	; 62
    31d6:	df 91       	pop	r29
    31d8:	cf 91       	pop	r28
    31da:	1f 91       	pop	r17
    31dc:	0f 91       	pop	r16
    31de:	ff 90       	pop	r15
    31e0:	ef 90       	pop	r14
    31e2:	df 90       	pop	r13
    31e4:	cf 90       	pop	r12
    31e6:	bf 90       	pop	r11
    31e8:	af 90       	pop	r10
    31ea:	9f 90       	pop	r9
    31ec:	8f 90       	pop	r8
    31ee:	7f 90       	pop	r7
    31f0:	6f 90       	pop	r6
    31f2:	5f 90       	pop	r5
    31f4:	4f 90       	pop	r4
    31f6:	3f 90       	pop	r3
    31f8:	2f 90       	pop	r2
    31fa:	08 95       	ret

000031fc <adc_init>:
#include <asf.h>
#include <math.h>
#include "thermistor.h"


void adc_init(void){	//This is for PA6... mostly
    31fc:	ff 92       	push	r15
    31fe:	0f 93       	push	r16
    3200:	1f 93       	push	r17
    3202:	cf 93       	push	r28
    3204:	df 93       	push	r29
	PORTA.DIRCLR = 0b01000000;
    3206:	e0 e0       	ldi	r30, 0x00	; 0
    3208:	f6 e0       	ldi	r31, 0x06	; 6
    320a:	80 e4       	ldi	r24, 0x40	; 64
    320c:	82 83       	std	Z+2, r24	; 0x02
	PORTA.DIR = 0b10111111;
    320e:	8f eb       	ldi	r24, 0xBF	; 191
    3210:	80 83       	st	Z, r24
	ADCA.CTRLA = 0b00000001;
    3212:	c0 e0       	ldi	r28, 0x00	; 0
    3214:	d2 e0       	ldi	r29, 0x02	; 2
    3216:	ff 24       	eor	r15, r15
    3218:	f3 94       	inc	r15
    321a:	f8 82       	st	Y, r15
	ADCA.CTRLB = 0b00000000;
    321c:	19 82       	std	Y+1, r1	; 0x01
	ADCA.REFCTRL = 0b00010000;
    321e:	80 e1       	ldi	r24, 0x10	; 16
    3220:	8a 83       	std	Y+2, r24	; 0x02
	ADCA.PRESCALER = 0b00000101;
    3222:	85 e0       	ldi	r24, 0x05	; 5
    3224:	8c 83       	std	Y+4, r24	; 0x04
 *
 * \param address Byte offset into the signature row
 */
static inline uint8_t nvm_read_production_signature_row(uint8_t address)
{
	return nvm_read_byte(NVM_CMD_READ_CALIB_ROW_gc, address);
    3226:	61 e2       	ldi	r22, 0x21	; 33
    3228:	70 e0       	ldi	r23, 0x00	; 0
    322a:	82 e0       	ldi	r24, 0x02	; 2
    322c:	0e 94 3a 07 	call	0xe74	; 0xe74 <nvm_read_byte>
	uint16_t data;

	switch (cal) {
#ifdef ADCA
	case ADC_CAL_ADCA:
		data = nvm_read_production_signature_row(ADCACAL1);
    3230:	08 2f       	mov	r16, r24
    3232:	10 e0       	ldi	r17, 0x00	; 0
		data <<= 8;
    3234:	10 2f       	mov	r17, r16
    3236:	00 27       	eor	r16, r16
    3238:	60 e2       	ldi	r22, 0x20	; 32
    323a:	70 e0       	ldi	r23, 0x00	; 0
    323c:	82 e0       	ldi	r24, 0x02	; 2
    323e:	0e 94 3a 07 	call	0xe74	; 0xe74 <nvm_read_byte>
		data |= nvm_read_production_signature_row(ADCACAL0);
    3242:	08 2b       	or	r16, r24
	ADCA.CAL = adc_get_calibration_data(ADC_CAL_ADCA);
    3244:	0c 87       	std	Y+12, r16	; 0x0c
    3246:	1d 87       	std	Y+13, r17	; 0x0d
	
	ADCA.CH0.CTRL = 0b00000001;
    3248:	f8 a2       	std	Y+32, r15	; 0x20
	ADCA.CH0.MUXCTRL = 0b00000110;
    324a:	86 e0       	ldi	r24, 0x06	; 6
    324c:	89 a3       	std	Y+33, r24	; 0x21
}
    324e:	df 91       	pop	r29
    3250:	cf 91       	pop	r28
    3252:	1f 91       	pop	r17
    3254:	0f 91       	pop	r16
    3256:	ff 90       	pop	r15
    3258:	08 95       	ret

0000325a <getVoltage>:


float getVoltage(void){
	ADCA.CH0.CTRL  |= 0b10000000;
    325a:	e0 e0       	ldi	r30, 0x00	; 0
    325c:	f2 e0       	ldi	r31, 0x02	; 2
    325e:	80 a1       	ldd	r24, Z+32	; 0x20
    3260:	80 68       	ori	r24, 0x80	; 128
    3262:	80 a3       	std	Z+32, r24	; 0x20
	//printf("one");
	while(ADCA.CH0.INTFLAGS == 0);
    3264:	83 a1       	ldd	r24, Z+35	; 0x23
    3266:	88 23       	and	r24, r24
    3268:	e9 f3       	breq	.-6      	; 0x3264 <getVoltage+0xa>
	//printf("two");
	ADCA.CH0.INTFLAGS = 0;
    326a:	e0 e0       	ldi	r30, 0x00	; 0
    326c:	f2 e0       	ldi	r31, 0x02	; 2
    326e:	13 a2       	std	Z+35, r1	; 0x23
	//printf("three");
	uint16_t adcReading = ADCA.CH0.RES;
    3270:	64 a1       	ldd	r22, Z+36	; 0x24
    3272:	75 a1       	ldd	r23, Z+37	; 0x25
	//printf("ADC reading = %u\n", adcReading);
	float voltage = 0.0004899 * (float)(adcReading) - 0.0856326;	//We have to find these numbers by applying differing voltage, printing ADC readings, and solve equation
	//printf("voltage: %f \n", voltage);
	return voltage;
    3274:	80 e0       	ldi	r24, 0x00	; 0
    3276:	90 e0       	ldi	r25, 0x00	; 0
    3278:	e7 d4       	rcall	.+2510   	; 0x3c48 <__floatunsisf>
    327a:	22 ea       	ldi	r18, 0xA2	; 162
    327c:	3c e6       	ldi	r19, 0x6C	; 108
    327e:	40 e0       	ldi	r20, 0x00	; 0
    3280:	5a e3       	ldi	r21, 0x3A	; 58
    3282:	b5 d5       	rcall	.+2922   	; 0x3dee <__mulsf3>
    3284:	25 e2       	ldi	r18, 0x25	; 37
    3286:	30 e6       	ldi	r19, 0x60	; 96
    3288:	4f ea       	ldi	r20, 0xAF	; 175
    328a:	5d e3       	ldi	r21, 0x3D	; 61
	
}
    328c:	df c3       	rjmp	.+1982   	; 0x3a4c <__subsf3>

0000328e <getTemperature>:
	uint16_t voltage = getVoltage();
	uint16_t current = (voltage/10000);
	return current;
}
*/
float getTemperature(void){
    328e:	8f 92       	push	r8
    3290:	9f 92       	push	r9
    3292:	af 92       	push	r10
    3294:	bf 92       	push	r11
    3296:	cf 92       	push	r12
    3298:	df 92       	push	r13
    329a:	ef 92       	push	r14
	float voltage = getVoltage();
    329c:	ff 92       	push	r15
    329e:	dd df       	rcall	.-70     	; 0x325a <getVoltage>
    32a0:	6b 01       	movw	r12, r22
	//uint16_t current = getCurrent();
	//uint16_t resistance = voltage/current;
	float resistance = (voltage*10000)/(voltage-3.3);
	//printf("resistance = %f \n", resistance);
	uint32_t temperature = 3977.0/(log(resistance/(10000.0*pow(2.71828,(-3977.0/298.15)))));
    32a2:	7c 01       	movw	r14, r24
    32a4:	20 e0       	ldi	r18, 0x00	; 0
    32a6:	30 e4       	ldi	r19, 0x40	; 64
    32a8:	4c e1       	ldi	r20, 0x1C	; 28
    32aa:	56 e4       	ldi	r21, 0x46	; 70
    32ac:	a0 d5       	rcall	.+2880   	; 0x3dee <__mulsf3>
    32ae:	4b 01       	movw	r8, r22
    32b0:	5c 01       	movw	r10, r24
    32b2:	23 e3       	ldi	r18, 0x33	; 51
    32b4:	33 e3       	ldi	r19, 0x33	; 51
    32b6:	43 e5       	ldi	r20, 0x53	; 83
    32b8:	50 e4       	ldi	r21, 0x40	; 64
    32ba:	c7 01       	movw	r24, r14
    32bc:	b6 01       	movw	r22, r12
    32be:	c6 d3       	rcall	.+1932   	; 0x3a4c <__subsf3>
    32c0:	9b 01       	movw	r18, r22
    32c2:	ac 01       	movw	r20, r24
    32c4:	c5 01       	movw	r24, r10
    32c6:	b4 01       	movw	r22, r8
    32c8:	26 d4       	rcall	.+2124   	; 0x3b16 <__divsf3>
    32ca:	2b e5       	ldi	r18, 0x5B	; 91
    32cc:	30 ef       	ldi	r19, 0xF0	; 240
    32ce:	43 e8       	ldi	r20, 0x83	; 131
    32d0:	5c e3       	ldi	r21, 0x3C	; 60
	//float temperature = pow((.003351016+.0002569850*log(resistance/10000)+.000002620131*pow(log(resistance/10000),2)),-1);
	return temperature;
    32d2:	21 d4       	rcall	.+2114   	; 0x3b16 <__divsf3>
    32d4:	4c d5       	rcall	.+2712   	; 0x3d6e <log>
    32d6:	9b 01       	movw	r18, r22
    32d8:	ac 01       	movw	r20, r24
    32da:	60 e0       	ldi	r22, 0x00	; 0
    32dc:	70 e9       	ldi	r23, 0x90	; 144
    32de:	88 e7       	ldi	r24, 0x78	; 120
    32e0:	95 e4       	ldi	r25, 0x45	; 69
    32e2:	19 d4       	rcall	.+2098   	; 0x3b16 <__divsf3>
	
	
	
    32e4:	85 d4       	rcall	.+2314   	; 0x3bf0 <__fixunssfsi>
    32e6:	b0 d4       	rcall	.+2400   	; 0x3c48 <__floatunsisf>
    32e8:	ff 90       	pop	r15
    32ea:	ef 90       	pop	r14
    32ec:	df 90       	pop	r13
    32ee:	cf 90       	pop	r12
    32f0:	bf 90       	pop	r11
    32f2:	af 90       	pop	r10
    32f4:	9f 90       	pop	r9
    32f6:	8f 90       	pop	r8
    32f8:	08 95       	ret

000032fa <usart_serial_getchar>:
		read_buffer[loc] = usart_getchar(usart_channel);
		loc++;
		
	}
	return read_buffer;
}
    32fa:	cf 93       	push	r28
    32fc:	df 93       	push	r29
    32fe:	eb 01       	movw	r28, r22
    3300:	0e 94 0c 10 	call	0x2018	; 0x2018 <usart_getchar>
    3304:	88 83       	st	Y, r24
    3306:	df 91       	pop	r29
    3308:	cf 91       	pop	r28
    330a:	08 95       	ret

0000330c <usart_serial_putchar>:
    330c:	0c 94 04 10 	jmp	0x2008	; 0x2008 <usart_putchar>
    3310:	08 95       	ret

00003312 <usart_init>:
    3312:	cf 93       	push	r28
    3314:	df 93       	push	r29
    3316:	cd b7       	in	r28, 0x3d	; 61
    3318:	de b7       	in	r29, 0x3e	; 62
    331a:	27 97       	sbiw	r28, 0x07	; 7
    331c:	cd bf       	out	0x3d, r28	; 61
    331e:	de bf       	out	0x3e, r29	; 62
    3320:	e0 e6       	ldi	r30, 0x60	; 96
    3322:	f6 e0       	ldi	r31, 0x06	; 6
    3324:	88 e0       	ldi	r24, 0x08	; 8
    3326:	81 83       	std	Z+1, r24	; 0x01
    3328:	85 83       	std	Z+5, r24	; 0x05
    332a:	e0 e4       	ldi	r30, 0x40	; 64
    332c:	f6 e0       	ldi	r31, 0x06	; 6
    332e:	81 83       	std	Z+1, r24	; 0x01
    3330:	85 83       	std	Z+5, r24	; 0x05
    3332:	80 ea       	ldi	r24, 0xA0	; 160
    3334:	99 e0       	ldi	r25, 0x09	; 9
    3336:	80 93 8e 23 	sts	0x238E, r24	; 0x80238e <stdio_base>
    333a:	90 93 8f 23 	sts	0x238F, r25	; 0x80238f <stdio_base+0x1>
    333e:	86 e8       	ldi	r24, 0x86	; 134
    3340:	99 e1       	ldi	r25, 0x19	; 25
    3342:	80 93 8c 23 	sts	0x238C, r24	; 0x80238c <ptr_put>
    3346:	90 93 8d 23 	sts	0x238D, r25	; 0x80238d <ptr_put+0x1>
    334a:	8d e7       	ldi	r24, 0x7D	; 125
    334c:	99 e1       	ldi	r25, 0x19	; 25
    334e:	80 93 8a 23 	sts	0x238A, r24	; 0x80238a <ptr_get>
    3352:	90 93 8b 23 	sts	0x238B, r25	; 0x80238b <ptr_get+0x1>
    3356:	ed e0       	ldi	r30, 0x0D	; 13
    3358:	f0 e2       	ldi	r31, 0x20	; 32
    335a:	84 81       	ldd	r24, Z+4	; 0x04
    335c:	8d 83       	std	Y+5, r24	; 0x05
    335e:	85 81       	ldd	r24, Z+5	; 0x05
    3360:	8e 83       	std	Y+6, r24	; 0x06
    3362:	86 81       	ldd	r24, Z+6	; 0x06
    3364:	8f 83       	std	Y+7, r24	; 0x07
    3366:	80 81       	ld	r24, Z
    3368:	91 81       	ldd	r25, Z+1	; 0x01
    336a:	a2 81       	ldd	r26, Z+2	; 0x02
    336c:	b3 81       	ldd	r27, Z+3	; 0x03
    336e:	89 83       	std	Y+1, r24	; 0x01
    3370:	9a 83       	std	Y+2, r25	; 0x02
    3372:	ab 83       	std	Y+3, r26	; 0x03
    3374:	bc 83       	std	Y+4, r27	; 0x04
    3376:	60 e1       	ldi	r22, 0x10	; 16
    3378:	84 e0       	ldi	r24, 0x04	; 4
    337a:	0e 94 0b 05 	call	0xa16	; 0xa16 <sysclk_enable_module>
    337e:	be 01       	movw	r22, r28
    3380:	6f 5f       	subi	r22, 0xFF	; 255
    3382:	7f 4f       	sbci	r23, 0xFF	; 255
    3384:	80 ea       	ldi	r24, 0xA0	; 160
    3386:	99 e0       	ldi	r25, 0x09	; 9
    3388:	0e 94 25 11 	call	0x224a	; 0x224a <usart_init_rs232>
    338c:	61 e2       	ldi	r22, 0x21	; 33
    338e:	75 e0       	ldi	r23, 0x05	; 5
    3390:	8a e3       	ldi	r24, 0x3A	; 58
    3392:	95 e0       	ldi	r25, 0x05	; 5
    3394:	0e 94 1d 26 	call	0x4c3a	; 0x4c3a <fdevopen>
    3398:	e6 e0       	ldi	r30, 0x06	; 6
    339a:	f0 e2       	ldi	r31, 0x20	; 32
    339c:	84 81       	ldd	r24, Z+4	; 0x04
    339e:	8d 83       	std	Y+5, r24	; 0x05
    33a0:	85 81       	ldd	r24, Z+5	; 0x05
    33a2:	8e 83       	std	Y+6, r24	; 0x06
    33a4:	86 81       	ldd	r24, Z+6	; 0x06
    33a6:	8f 83       	std	Y+7, r24	; 0x07
    33a8:	80 81       	ld	r24, Z
    33aa:	91 81       	ldd	r25, Z+1	; 0x01
    33ac:	a2 81       	ldd	r26, Z+2	; 0x02
    33ae:	b3 81       	ldd	r27, Z+3	; 0x03
    33b0:	89 83       	std	Y+1, r24	; 0x01
    33b2:	9a 83       	std	Y+2, r25	; 0x02
    33b4:	ab 83       	std	Y+3, r26	; 0x03
    33b6:	bc 83       	std	Y+4, r27	; 0x04
    33b8:	60 e1       	ldi	r22, 0x10	; 16
    33ba:	83 e0       	ldi	r24, 0x03	; 3
    33bc:	0e 94 0b 05 	call	0xa16	; 0xa16 <sysclk_enable_module>
    33c0:	be 01       	movw	r22, r28
    33c2:	6f 5f       	subi	r22, 0xFF	; 255
    33c4:	7f 4f       	sbci	r23, 0xFF	; 255
    33c6:	80 ea       	ldi	r24, 0xA0	; 160
    33c8:	98 e0       	ldi	r25, 0x08	; 8
    33ca:	0e 94 25 11 	call	0x224a	; 0x224a <usart_init_rs232>
    33ce:	27 96       	adiw	r28, 0x07	; 7
    33d0:	cd bf       	out	0x3d, r28	; 61
    33d2:	de bf       	out	0x3e, r29	; 62
    33d4:	df 91       	pop	r29
    33d6:	cf 91       	pop	r28
    33d8:	08 95       	ret

000033da <__vector_88>:
	
ISR(USARTD0_RXC_vect){
    33da:	1f 92       	push	r1
    33dc:	0f 92       	push	r0
    33de:	0f b6       	in	r0, 0x3f	; 63
    33e0:	0f 92       	push	r0
    33e2:	11 24       	eor	r1, r1
    33e4:	08 b6       	in	r0, 0x38	; 56
    33e6:	0f 92       	push	r0
    33e8:	18 be       	out	0x38, r1	; 56
    33ea:	09 b6       	in	r0, 0x39	; 57
    33ec:	0f 92       	push	r0
    33ee:	19 be       	out	0x39, r1	; 57
    33f0:	0b b6       	in	r0, 0x3b	; 59
    33f2:	0f 92       	push	r0
    33f4:	1b be       	out	0x3b, r1	; 59
    33f6:	2f 93       	push	r18
    33f8:	3f 93       	push	r19
    33fa:	4f 93       	push	r20
    33fc:	5f 93       	push	r21
    33fe:	6f 93       	push	r22
    3400:	7f 93       	push	r23
    3402:	8f 93       	push	r24
    3404:	9f 93       	push	r25
    3406:	af 93       	push	r26
    3408:	bf 93       	push	r27
    340a:	ef 93       	push	r30
    340c:	ff 93       	push	r31
	//If we send reset things to the board
	xbee_rx_temporary = usart_getchar(&USARTD0);
    340e:	80 ea       	ldi	r24, 0xA0	; 160
    3410:	99 e0       	ldi	r25, 0x09	; 9
    3412:	0e 94 0c 10 	call	0x2018	; 0x2018 <usart_getchar>
    3416:	80 93 a4 23 	sts	0x23A4, r24	; 0x8023a4 <xbee_rx_temporary>
	
	switch(xbee_rx_temporary){
    341a:	e0 91 a4 23 	lds	r30, 0x23A4	; 0x8023a4 <xbee_rx_temporary>
    341e:	8e 2f       	mov	r24, r30
    3420:	ee 0f       	add	r30, r30
    3422:	99 0b       	sbc	r25, r25
    3424:	aa 0b       	sbc	r26, r26
    3426:	bb 0b       	sbc	r27, r27
    3428:	fc 01       	movw	r30, r24
    342a:	b1 97       	sbiw	r30, 0x21	; 33
    342c:	ef 33       	cpi	r30, 0x3F	; 63
    342e:	f1 05       	cpc	r31, r1
    3430:	a0 f4       	brcc	.+40     	; 0x345a <__vector_88+0x80>
    3432:	88 27       	eor	r24, r24
    3434:	e2 50       	subi	r30, 0x02	; 2
    3436:	ff 4f       	sbci	r31, 0xFF	; 255
    3438:	8f 4f       	sbci	r24, 0xFF	; 255
    343a:	0c 94 4f 24 	jmp	0x489e	; 0x489e <__tablejump2__>
		case '!':						//reset MCU 
			wdt_reset_mcu();
    343e:	0e 94 85 03 	call	0x70a	; 0x70a <wdt_reset_mcu>
			break;
		case '^':						//deploy heatshield
			heatshield_hotwire();
			break;
		case '&':						//deploy parachute
			parachute_hotwire();
    3442:	0b c0       	rjmp	.+22     	; 0x345a <__vector_88+0x80>
			break;
		case '*':						//detatching heatshield
			heatshield_detatch_hotwire();
			break;
		case '(':						//buzzer on
			buzzer_on();
    3444:	e7 db       	rcall	.-2098   	; 0x2c14 <heatshield_hotwire>
			break;
    3446:	09 c0       	rjmp	.+18     	; 0x345a <__vector_88+0x80>
		case ')':						//buzzer off
			buzzer_off();
    3448:	fa db       	rcall	.-2060   	; 0x2c3e <parachute_hotwire>
    344a:	07 c0       	rjmp	.+14     	; 0x345a <__vector_88+0x80>
			break;
    344c:	0d dc       	rcall	.-2022   	; 0x2c68 <heatshield_detatch_hotwire>
		case '_':						//camera on
			camera_on();
    344e:	05 c0       	rjmp	.+10     	; 0x345a <__vector_88+0x80>
    3450:	20 dc       	rcall	.-1984   	; 0x2c92 <buzzer_on>
			break;
	}
	
}
    3452:	03 c0       	rjmp	.+6      	; 0x345a <__vector_88+0x80>
    3454:	27 dc       	rcall	.-1970   	; 0x2ca4 <buzzer_off>
    3456:	01 c0       	rjmp	.+2      	; 0x345a <__vector_88+0x80>
    3458:	2e dc       	rcall	.-1956   	; 0x2cb6 <camera_on>
    345a:	ff 91       	pop	r31
    345c:	ef 91       	pop	r30
    345e:	bf 91       	pop	r27
    3460:	af 91       	pop	r26
    3462:	9f 91       	pop	r25
    3464:	8f 91       	pop	r24
    3466:	7f 91       	pop	r23
    3468:	6f 91       	pop	r22
    346a:	5f 91       	pop	r21
    346c:	4f 91       	pop	r20
    346e:	3f 91       	pop	r19
    3470:	2f 91       	pop	r18
    3472:	0f 90       	pop	r0
    3474:	0b be       	out	0x3b, r0	; 59
    3476:	0f 90       	pop	r0
    3478:	09 be       	out	0x39, r0	; 57
    347a:	0f 90       	pop	r0
    347c:	08 be       	out	0x38, r0	; 56
    347e:	0f 90       	pop	r0
    3480:	0f be       	out	0x3f, r0	; 63
    3482:	0f 90       	pop	r0
    3484:	1f 90       	pop	r1
    3486:	18 95       	reti

00003488 <__portable_avr_delay_cycles>:
 *
 * @{
 */
__always_optimize
static inline void __portable_avr_delay_cycles(unsigned long n)
{
    3488:	04 c0       	rjmp	.+8      	; 0x3492 <__portable_avr_delay_cycles+0xa>
	while (n) {
		barrier();
		n--;
    348a:	61 50       	subi	r22, 0x01	; 1
    348c:	71 09       	sbc	r23, r1
    348e:	81 09       	sbc	r24, r1
    3490:	91 09       	sbc	r25, r1
 * @{
 */
__always_optimize
static inline void __portable_avr_delay_cycles(unsigned long n)
{
	while (n) {
    3492:	61 15       	cp	r22, r1
    3494:	71 05       	cpc	r23, r1
    3496:	81 05       	cpc	r24, r1
    3498:	91 05       	cpc	r25, r1
    349a:	b9 f7       	brne	.-18     	; 0x348a <__portable_avr_delay_cycles+0x2>
    349c:	08 95       	ret

0000349e <sysclk_enable_peripheral_clock>:
 *
 * \param module Pointer to the module's base address.
 */
static inline void sysclk_enable_peripheral_clock(const volatile void *module)
{
	if (module == NULL) {
    349e:	00 97       	sbiw	r24, 0x00	; 0
    34a0:	09 f4       	brne	.+2      	; 0x34a4 <sysclk_enable_peripheral_clock+0x6>
    34a2:	5c c1       	rjmp	.+696    	; 0x375c <sysclk_enable_peripheral_clock+0x2be>
		Assert(false);
	}
#ifdef AES
	else if (module == &AES) {
    34a4:	80 3c       	cpi	r24, 0xC0	; 192
    34a6:	91 05       	cpc	r25, r1
    34a8:	29 f4       	brne	.+10     	; 0x34b4 <sysclk_enable_peripheral_clock+0x16>
		sysclk_enable_module(SYSCLK_PORT_GEN, SYSCLK_AES);
    34aa:	60 e1       	ldi	r22, 0x10	; 16
    34ac:	80 e0       	ldi	r24, 0x00	; 0
    34ae:	0c 94 0b 05 	jmp	0xa16	; 0xa16 <sysclk_enable_module>
    34b2:	08 95       	ret
	}
#endif
#ifdef EBI
	else if (module == &EBI) {
    34b4:	80 34       	cpi	r24, 0x40	; 64
    34b6:	24 e0       	ldi	r18, 0x04	; 4
    34b8:	92 07       	cpc	r25, r18
    34ba:	29 f4       	brne	.+10     	; 0x34c6 <sysclk_enable_peripheral_clock+0x28>
		sysclk_enable_module(SYSCLK_PORT_GEN, SYSCLK_EBI);
    34bc:	68 e0       	ldi	r22, 0x08	; 8
    34be:	80 e0       	ldi	r24, 0x00	; 0
    34c0:	0c 94 0b 05 	jmp	0xa16	; 0xa16 <sysclk_enable_module>
    34c4:	08 95       	ret
	}
#endif
#ifdef RTC
	else if (module == &RTC) {
    34c6:	81 15       	cp	r24, r1
    34c8:	24 e0       	ldi	r18, 0x04	; 4
    34ca:	92 07       	cpc	r25, r18
    34cc:	29 f4       	brne	.+10     	; 0x34d8 <sysclk_enable_peripheral_clock+0x3a>
		sysclk_enable_module(SYSCLK_PORT_GEN, SYSCLK_RTC);
    34ce:	64 e0       	ldi	r22, 0x04	; 4
    34d0:	80 e0       	ldi	r24, 0x00	; 0
    34d2:	0c 94 0b 05 	jmp	0xa16	; 0xa16 <sysclk_enable_module>
    34d6:	08 95       	ret
	}
#endif
#ifdef EVSYS
	else if (module == &EVSYS) {
    34d8:	80 38       	cpi	r24, 0x80	; 128
    34da:	21 e0       	ldi	r18, 0x01	; 1
    34dc:	92 07       	cpc	r25, r18
    34de:	29 f4       	brne	.+10     	; 0x34ea <sysclk_enable_peripheral_clock+0x4c>
		sysclk_enable_module(SYSCLK_PORT_GEN, SYSCLK_EVSYS);
    34e0:	62 e0       	ldi	r22, 0x02	; 2
    34e2:	80 e0       	ldi	r24, 0x00	; 0
    34e4:	0c 94 0b 05 	jmp	0xa16	; 0xa16 <sysclk_enable_module>
    34e8:	08 95       	ret
	}
#endif
#ifdef DMA
	else if (module == &DMA) {
    34ea:	81 15       	cp	r24, r1
    34ec:	21 e0       	ldi	r18, 0x01	; 1
    34ee:	92 07       	cpc	r25, r18
    34f0:	29 f4       	brne	.+10     	; 0x34fc <sysclk_enable_peripheral_clock+0x5e>
		sysclk_enable_module(SYSCLK_PORT_GEN, SYSCLK_DMA);
    34f2:	61 e0       	ldi	r22, 0x01	; 1
    34f4:	80 e0       	ldi	r24, 0x00	; 0
    34f6:	0c 94 0b 05 	jmp	0xa16	; 0xa16 <sysclk_enable_module>
    34fa:	08 95       	ret
	else if (module == &EDMA) {
		sysclk_enable_module(SYSCLK_PORT_GEN, SYSCLK_EDMA);
	}
#endif
#ifdef ACA
	else if (module == &ACA) {
    34fc:	80 38       	cpi	r24, 0x80	; 128
    34fe:	23 e0       	ldi	r18, 0x03	; 3
    3500:	92 07       	cpc	r25, r18
    3502:	29 f4       	brne	.+10     	; 0x350e <sysclk_enable_peripheral_clock+0x70>
		sysclk_enable_module(SYSCLK_PORT_A, SYSCLK_AC);
    3504:	61 e0       	ldi	r22, 0x01	; 1
    3506:	81 e0       	ldi	r24, 0x01	; 1
    3508:	0c 94 0b 05 	jmp	0xa16	; 0xa16 <sysclk_enable_module>
    350c:	08 95       	ret
	}
#endif
#ifdef ACB
	else if (module == &ACB) {
    350e:	80 39       	cpi	r24, 0x90	; 144
    3510:	23 e0       	ldi	r18, 0x03	; 3
    3512:	92 07       	cpc	r25, r18
    3514:	29 f4       	brne	.+10     	; 0x3520 <sysclk_enable_peripheral_clock+0x82>
		sysclk_enable_module(SYSCLK_PORT_B, SYSCLK_AC);
    3516:	61 e0       	ldi	r22, 0x01	; 1
    3518:	82 e0       	ldi	r24, 0x02	; 2
    351a:	0c 94 0b 05 	jmp	0xa16	; 0xa16 <sysclk_enable_module>
    351e:	08 95       	ret
	}
#endif
#ifdef ADCA
	else if (module == &ADCA) {
    3520:	81 15       	cp	r24, r1
    3522:	22 e0       	ldi	r18, 0x02	; 2
    3524:	92 07       	cpc	r25, r18
    3526:	29 f4       	brne	.+10     	; 0x3532 <sysclk_enable_peripheral_clock+0x94>
		sysclk_enable_module(SYSCLK_PORT_A, SYSCLK_ADC);
    3528:	62 e0       	ldi	r22, 0x02	; 2
    352a:	81 e0       	ldi	r24, 0x01	; 1
    352c:	0c 94 0b 05 	jmp	0xa16	; 0xa16 <sysclk_enable_module>
    3530:	08 95       	ret
	}
#endif
#ifdef ADCB
	else if (module == &ADCB) {
    3532:	80 34       	cpi	r24, 0x40	; 64
    3534:	22 e0       	ldi	r18, 0x02	; 2
    3536:	92 07       	cpc	r25, r18
    3538:	29 f4       	brne	.+10     	; 0x3544 <sysclk_enable_peripheral_clock+0xa6>
		sysclk_enable_module(SYSCLK_PORT_B, SYSCLK_ADC);
    353a:	62 e0       	ldi	r22, 0x02	; 2
    353c:	82 e0       	ldi	r24, 0x02	; 2
    353e:	0c 94 0b 05 	jmp	0xa16	; 0xa16 <sysclk_enable_module>
    3542:	08 95       	ret
	}
#endif
#ifdef DACA
	else if (module == &DACA) {
    3544:	81 15       	cp	r24, r1
    3546:	23 e0       	ldi	r18, 0x03	; 3
    3548:	92 07       	cpc	r25, r18
    354a:	29 f4       	brne	.+10     	; 0x3556 <sysclk_enable_peripheral_clock+0xb8>
		sysclk_enable_module(SYSCLK_PORT_A, SYSCLK_DAC);
    354c:	64 e0       	ldi	r22, 0x04	; 4
    354e:	81 e0       	ldi	r24, 0x01	; 1
    3550:	0c 94 0b 05 	jmp	0xa16	; 0xa16 <sysclk_enable_module>
    3554:	08 95       	ret
	}
#endif
// Workaround for bad XMEGA D header file
#if !XMEGA_D
#ifdef DACB
	else if (module == &DACB) {
    3556:	80 32       	cpi	r24, 0x20	; 32
    3558:	23 e0       	ldi	r18, 0x03	; 3
    355a:	92 07       	cpc	r25, r18
    355c:	29 f4       	brne	.+10     	; 0x3568 <sysclk_enable_peripheral_clock+0xca>
		sysclk_enable_module(SYSCLK_PORT_B, SYSCLK_DAC);
    355e:	64 e0       	ldi	r22, 0x04	; 4
    3560:	82 e0       	ldi	r24, 0x02	; 2
    3562:	0c 94 0b 05 	jmp	0xa16	; 0xa16 <sysclk_enable_module>
    3566:	08 95       	ret
	}
#endif
#endif // Workaround end
#ifdef TCC0
	else if (module == &TCC0) {
    3568:	81 15       	cp	r24, r1
    356a:	28 e0       	ldi	r18, 0x08	; 8
    356c:	92 07       	cpc	r25, r18
    356e:	29 f4       	brne	.+10     	; 0x357a <sysclk_enable_peripheral_clock+0xdc>
		sysclk_enable_module(SYSCLK_PORT_C, SYSCLK_TC0);
    3570:	61 e0       	ldi	r22, 0x01	; 1
    3572:	83 e0       	ldi	r24, 0x03	; 3
    3574:	0c 94 0b 05 	jmp	0xa16	; 0xa16 <sysclk_enable_module>
    3578:	08 95       	ret
	}
#endif
#ifdef TCD0
	else if (module == &TCD0) {
    357a:	81 15       	cp	r24, r1
    357c:	29 e0       	ldi	r18, 0x09	; 9
    357e:	92 07       	cpc	r25, r18
    3580:	29 f4       	brne	.+10     	; 0x358c <sysclk_enable_peripheral_clock+0xee>
		sysclk_enable_module(SYSCLK_PORT_D, SYSCLK_TC0);
    3582:	61 e0       	ldi	r22, 0x01	; 1
    3584:	84 e0       	ldi	r24, 0x04	; 4
    3586:	0c 94 0b 05 	jmp	0xa16	; 0xa16 <sysclk_enable_module>
    358a:	08 95       	ret
	}
#endif
#ifdef TCE0
	else if (module == &TCE0) {
    358c:	81 15       	cp	r24, r1
    358e:	2a e0       	ldi	r18, 0x0A	; 10
    3590:	92 07       	cpc	r25, r18
    3592:	29 f4       	brne	.+10     	; 0x359e <sysclk_enable_peripheral_clock+0x100>
		sysclk_enable_module(SYSCLK_PORT_E, SYSCLK_TC0);
    3594:	61 e0       	ldi	r22, 0x01	; 1
    3596:	85 e0       	ldi	r24, 0x05	; 5
    3598:	0c 94 0b 05 	jmp	0xa16	; 0xa16 <sysclk_enable_module>
    359c:	08 95       	ret
	}
#endif
#ifdef TCF0
	else if (module == &TCF0) {
    359e:	81 15       	cp	r24, r1
    35a0:	2b e0       	ldi	r18, 0x0B	; 11
    35a2:	92 07       	cpc	r25, r18
    35a4:	29 f4       	brne	.+10     	; 0x35b0 <sysclk_enable_peripheral_clock+0x112>
		sysclk_enable_module(SYSCLK_PORT_F, SYSCLK_TC0);
    35a6:	61 e0       	ldi	r22, 0x01	; 1
    35a8:	86 e0       	ldi	r24, 0x06	; 6
    35aa:	0c 94 0b 05 	jmp	0xa16	; 0xa16 <sysclk_enable_module>
    35ae:	08 95       	ret
	}
#endif
#ifdef TCC1
	else if (module == &TCC1) {
    35b0:	80 34       	cpi	r24, 0x40	; 64
    35b2:	28 e0       	ldi	r18, 0x08	; 8
    35b4:	92 07       	cpc	r25, r18
    35b6:	29 f4       	brne	.+10     	; 0x35c2 <sysclk_enable_peripheral_clock+0x124>
		sysclk_enable_module(SYSCLK_PORT_C, SYSCLK_TC1);
    35b8:	62 e0       	ldi	r22, 0x02	; 2
    35ba:	83 e0       	ldi	r24, 0x03	; 3
    35bc:	0c 94 0b 05 	jmp	0xa16	; 0xa16 <sysclk_enable_module>
    35c0:	08 95       	ret
	}
#endif
#ifdef TCD1
	else if (module == &TCD1) {
    35c2:	80 34       	cpi	r24, 0x40	; 64
    35c4:	29 e0       	ldi	r18, 0x09	; 9
    35c6:	92 07       	cpc	r25, r18
    35c8:	29 f4       	brne	.+10     	; 0x35d4 <sysclk_enable_peripheral_clock+0x136>
		sysclk_enable_module(SYSCLK_PORT_D, SYSCLK_TC1);
    35ca:	62 e0       	ldi	r22, 0x02	; 2
    35cc:	84 e0       	ldi	r24, 0x04	; 4
    35ce:	0c 94 0b 05 	jmp	0xa16	; 0xa16 <sysclk_enable_module>
    35d2:	08 95       	ret
	}
#endif
#ifdef TCE1
	else if (module == &TCE1) {
    35d4:	80 34       	cpi	r24, 0x40	; 64
    35d6:	2a e0       	ldi	r18, 0x0A	; 10
    35d8:	92 07       	cpc	r25, r18
    35da:	29 f4       	brne	.+10     	; 0x35e6 <sysclk_enable_peripheral_clock+0x148>
		sysclk_enable_module(SYSCLK_PORT_E, SYSCLK_TC1);
    35dc:	62 e0       	ldi	r22, 0x02	; 2
    35de:	85 e0       	ldi	r24, 0x05	; 5
    35e0:	0c 94 0b 05 	jmp	0xa16	; 0xa16 <sysclk_enable_module>
    35e4:	08 95       	ret
	}
#endif
#ifdef TCF1
	else if (module == &TCF1) {
    35e6:	80 34       	cpi	r24, 0x40	; 64
    35e8:	2b e0       	ldi	r18, 0x0B	; 11
    35ea:	92 07       	cpc	r25, r18
    35ec:	29 f4       	brne	.+10     	; 0x35f8 <sysclk_enable_peripheral_clock+0x15a>
		sysclk_enable_module(SYSCLK_PORT_F, SYSCLK_TC1);
    35ee:	62 e0       	ldi	r22, 0x02	; 2
    35f0:	86 e0       	ldi	r24, 0x06	; 6
    35f2:	0c 94 0b 05 	jmp	0xa16	; 0xa16 <sysclk_enable_module>
    35f6:	08 95       	ret
	else if (module == &TCD5) {
		sysclk_enable_module(SYSCLK_PORT_D, SYSCLK_TC5);
	}
#endif
#ifdef HIRESC
	else if (module == &HIRESC) {
    35f8:	80 39       	cpi	r24, 0x90	; 144
    35fa:	28 e0       	ldi	r18, 0x08	; 8
    35fc:	92 07       	cpc	r25, r18
    35fe:	29 f4       	brne	.+10     	; 0x360a <sysclk_enable_peripheral_clock+0x16c>
			sysclk_enable_module(SYSCLK_PORT_C, SYSCLK_HIRES);
    3600:	64 e0       	ldi	r22, 0x04	; 4
    3602:	83 e0       	ldi	r24, 0x03	; 3
    3604:	0c 94 0b 05 	jmp	0xa16	; 0xa16 <sysclk_enable_module>
    3608:	08 95       	ret
	}
#endif
#ifdef HIRESD
	else if (module == &HIRESD) {
    360a:	80 39       	cpi	r24, 0x90	; 144
    360c:	29 e0       	ldi	r18, 0x09	; 9
    360e:	92 07       	cpc	r25, r18
    3610:	29 f4       	brne	.+10     	; 0x361c <sysclk_enable_peripheral_clock+0x17e>
		sysclk_enable_module(SYSCLK_PORT_D, SYSCLK_HIRES);
    3612:	64 e0       	ldi	r22, 0x04	; 4
    3614:	84 e0       	ldi	r24, 0x04	; 4
    3616:	0c 94 0b 05 	jmp	0xa16	; 0xa16 <sysclk_enable_module>
    361a:	08 95       	ret
	}
#endif
#ifdef HIRESE
	else if (module == &HIRESE) {
    361c:	80 39       	cpi	r24, 0x90	; 144
    361e:	2a e0       	ldi	r18, 0x0A	; 10
    3620:	92 07       	cpc	r25, r18
    3622:	29 f4       	brne	.+10     	; 0x362e <sysclk_enable_peripheral_clock+0x190>
		sysclk_enable_module(SYSCLK_PORT_E, SYSCLK_HIRES);
    3624:	64 e0       	ldi	r22, 0x04	; 4
    3626:	85 e0       	ldi	r24, 0x05	; 5
    3628:	0c 94 0b 05 	jmp	0xa16	; 0xa16 <sysclk_enable_module>
    362c:	08 95       	ret
	}
#endif
#ifdef HIRESF
	else if (module == &HIRESF) {
    362e:	80 39       	cpi	r24, 0x90	; 144
    3630:	2b e0       	ldi	r18, 0x0B	; 11
    3632:	92 07       	cpc	r25, r18
    3634:	29 f4       	brne	.+10     	; 0x3640 <sysclk_enable_peripheral_clock+0x1a2>
		sysclk_enable_module(SYSCLK_PORT_F, SYSCLK_HIRES);
    3636:	64 e0       	ldi	r22, 0x04	; 4
    3638:	86 e0       	ldi	r24, 0x06	; 6
    363a:	0c 94 0b 05 	jmp	0xa16	; 0xa16 <sysclk_enable_module>
    363e:	08 95       	ret
	}
#endif
#ifdef SPIC
	else if (module == &SPIC) {
    3640:	80 3c       	cpi	r24, 0xC0	; 192
    3642:	28 e0       	ldi	r18, 0x08	; 8
    3644:	92 07       	cpc	r25, r18
    3646:	29 f4       	brne	.+10     	; 0x3652 <sysclk_enable_peripheral_clock+0x1b4>
		sysclk_enable_module(SYSCLK_PORT_C, SYSCLK_SPI);
    3648:	68 e0       	ldi	r22, 0x08	; 8
    364a:	83 e0       	ldi	r24, 0x03	; 3
    364c:	0c 94 0b 05 	jmp	0xa16	; 0xa16 <sysclk_enable_module>
    3650:	08 95       	ret
	}
#endif
#ifdef SPID
	else if (module == &SPID) {
    3652:	80 3c       	cpi	r24, 0xC0	; 192
    3654:	29 e0       	ldi	r18, 0x09	; 9
    3656:	92 07       	cpc	r25, r18
    3658:	29 f4       	brne	.+10     	; 0x3664 <sysclk_enable_peripheral_clock+0x1c6>
		sysclk_enable_module(SYSCLK_PORT_D, SYSCLK_SPI);
    365a:	68 e0       	ldi	r22, 0x08	; 8
    365c:	84 e0       	ldi	r24, 0x04	; 4
    365e:	0c 94 0b 05 	jmp	0xa16	; 0xa16 <sysclk_enable_module>
    3662:	08 95       	ret
	}
#endif
#ifdef SPIE
	else if (module == &SPIE) {
    3664:	80 3c       	cpi	r24, 0xC0	; 192
    3666:	2a e0       	ldi	r18, 0x0A	; 10
    3668:	92 07       	cpc	r25, r18
    366a:	29 f4       	brne	.+10     	; 0x3676 <sysclk_enable_peripheral_clock+0x1d8>
		sysclk_enable_module(SYSCLK_PORT_E, SYSCLK_SPI);
    366c:	68 e0       	ldi	r22, 0x08	; 8
    366e:	85 e0       	ldi	r24, 0x05	; 5
    3670:	0c 94 0b 05 	jmp	0xa16	; 0xa16 <sysclk_enable_module>
    3674:	08 95       	ret
	}
#endif
#ifdef SPIF
	else if (module == &SPIF) {
    3676:	80 3c       	cpi	r24, 0xC0	; 192
    3678:	2b e0       	ldi	r18, 0x0B	; 11
    367a:	92 07       	cpc	r25, r18
    367c:	29 f4       	brne	.+10     	; 0x3688 <sysclk_enable_peripheral_clock+0x1ea>
		sysclk_enable_module(SYSCLK_PORT_F, SYSCLK_SPI);
    367e:	68 e0       	ldi	r22, 0x08	; 8
    3680:	86 e0       	ldi	r24, 0x06	; 6
    3682:	0c 94 0b 05 	jmp	0xa16	; 0xa16 <sysclk_enable_module>
    3686:	08 95       	ret
	}
#endif
#ifdef USARTC0
	else if (module == &USARTC0) {
    3688:	80 3a       	cpi	r24, 0xA0	; 160
    368a:	28 e0       	ldi	r18, 0x08	; 8
    368c:	92 07       	cpc	r25, r18
    368e:	29 f4       	brne	.+10     	; 0x369a <sysclk_enable_peripheral_clock+0x1fc>
		sysclk_enable_module(SYSCLK_PORT_C, SYSCLK_USART0);
    3690:	60 e1       	ldi	r22, 0x10	; 16
    3692:	83 e0       	ldi	r24, 0x03	; 3
    3694:	0c 94 0b 05 	jmp	0xa16	; 0xa16 <sysclk_enable_module>
    3698:	08 95       	ret
	}
#endif
#ifdef USARTD0
	else if (module == &USARTD0) {
    369a:	80 3a       	cpi	r24, 0xA0	; 160
    369c:	29 e0       	ldi	r18, 0x09	; 9
    369e:	92 07       	cpc	r25, r18
    36a0:	29 f4       	brne	.+10     	; 0x36ac <sysclk_enable_peripheral_clock+0x20e>
		sysclk_enable_module(SYSCLK_PORT_D, SYSCLK_USART0);
    36a2:	60 e1       	ldi	r22, 0x10	; 16
    36a4:	84 e0       	ldi	r24, 0x04	; 4
    36a6:	0c 94 0b 05 	jmp	0xa16	; 0xa16 <sysclk_enable_module>
    36aa:	08 95       	ret
	}
#endif
#ifdef USARTE0
	else if (module == &USARTE0) {
    36ac:	80 3a       	cpi	r24, 0xA0	; 160
    36ae:	2a e0       	ldi	r18, 0x0A	; 10
    36b0:	92 07       	cpc	r25, r18
    36b2:	29 f4       	brne	.+10     	; 0x36be <sysclk_enable_peripheral_clock+0x220>
		sysclk_enable_module(SYSCLK_PORT_E, SYSCLK_USART0);
    36b4:	60 e1       	ldi	r22, 0x10	; 16
    36b6:	85 e0       	ldi	r24, 0x05	; 5
    36b8:	0c 94 0b 05 	jmp	0xa16	; 0xa16 <sysclk_enable_module>
    36bc:	08 95       	ret
	}
#endif
#ifdef USARTF0
	else if (module == &USARTF0) {
    36be:	80 3a       	cpi	r24, 0xA0	; 160
    36c0:	2b e0       	ldi	r18, 0x0B	; 11
    36c2:	92 07       	cpc	r25, r18
    36c4:	29 f4       	brne	.+10     	; 0x36d0 <sysclk_enable_peripheral_clock+0x232>
		sysclk_enable_module(SYSCLK_PORT_F, SYSCLK_USART0);
    36c6:	60 e1       	ldi	r22, 0x10	; 16
    36c8:	86 e0       	ldi	r24, 0x06	; 6
    36ca:	0c 94 0b 05 	jmp	0xa16	; 0xa16 <sysclk_enable_module>
    36ce:	08 95       	ret
	}
#endif
#ifdef USARTC1
	else if (module == &USARTC1) {
    36d0:	80 3b       	cpi	r24, 0xB0	; 176
    36d2:	28 e0       	ldi	r18, 0x08	; 8
    36d4:	92 07       	cpc	r25, r18
    36d6:	29 f4       	brne	.+10     	; 0x36e2 <sysclk_enable_peripheral_clock+0x244>
		sysclk_enable_module(SYSCLK_PORT_C, SYSCLK_USART1);
    36d8:	60 e2       	ldi	r22, 0x20	; 32
    36da:	83 e0       	ldi	r24, 0x03	; 3
    36dc:	0c 94 0b 05 	jmp	0xa16	; 0xa16 <sysclk_enable_module>
    36e0:	08 95       	ret
	}
#endif
#ifdef USARTD1
	else if (module == &USARTD1) {
    36e2:	80 3b       	cpi	r24, 0xB0	; 176
    36e4:	29 e0       	ldi	r18, 0x09	; 9
    36e6:	92 07       	cpc	r25, r18
    36e8:	29 f4       	brne	.+10     	; 0x36f4 <sysclk_enable_peripheral_clock+0x256>
		sysclk_enable_module(SYSCLK_PORT_D, SYSCLK_USART1);
    36ea:	60 e2       	ldi	r22, 0x20	; 32
    36ec:	84 e0       	ldi	r24, 0x04	; 4
    36ee:	0c 94 0b 05 	jmp	0xa16	; 0xa16 <sysclk_enable_module>
    36f2:	08 95       	ret
	}
#endif
#ifdef USARTE1
	else if (module == &USARTE1) {
    36f4:	80 3b       	cpi	r24, 0xB0	; 176
    36f6:	2a e0       	ldi	r18, 0x0A	; 10
    36f8:	92 07       	cpc	r25, r18
    36fa:	29 f4       	brne	.+10     	; 0x3706 <sysclk_enable_peripheral_clock+0x268>
		sysclk_enable_module(SYSCLK_PORT_E, SYSCLK_USART1);
    36fc:	60 e2       	ldi	r22, 0x20	; 32
    36fe:	85 e0       	ldi	r24, 0x05	; 5
    3700:	0c 94 0b 05 	jmp	0xa16	; 0xa16 <sysclk_enable_module>
    3704:	08 95       	ret
	}
#endif
#ifdef USARTF1
	else if (module == &USARTF1) {
    3706:	80 3b       	cpi	r24, 0xB0	; 176
    3708:	2b e0       	ldi	r18, 0x0B	; 11
    370a:	92 07       	cpc	r25, r18
    370c:	29 f4       	brne	.+10     	; 0x3718 <sysclk_enable_peripheral_clock+0x27a>
		sysclk_enable_module(SYSCLK_PORT_F, SYSCLK_USART1);
    370e:	60 e2       	ldi	r22, 0x20	; 32
    3710:	86 e0       	ldi	r24, 0x06	; 6
    3712:	0c 94 0b 05 	jmp	0xa16	; 0xa16 <sysclk_enable_module>
    3716:	08 95       	ret
	}
#endif
#ifdef TWIC
	else if (module == &TWIC) {
    3718:	80 38       	cpi	r24, 0x80	; 128
    371a:	24 e0       	ldi	r18, 0x04	; 4
    371c:	92 07       	cpc	r25, r18
    371e:	29 f4       	brne	.+10     	; 0x372a <sysclk_enable_peripheral_clock+0x28c>
		sysclk_enable_module(SYSCLK_PORT_C, SYSCLK_TWI);
    3720:	60 e4       	ldi	r22, 0x40	; 64
    3722:	83 e0       	ldi	r24, 0x03	; 3
    3724:	0c 94 0b 05 	jmp	0xa16	; 0xa16 <sysclk_enable_module>
    3728:	08 95       	ret
	}
#endif
#ifdef TWID
	else if (module == &TWID) {
    372a:	80 39       	cpi	r24, 0x90	; 144
    372c:	24 e0       	ldi	r18, 0x04	; 4
    372e:	92 07       	cpc	r25, r18
    3730:	29 f4       	brne	.+10     	; 0x373c <sysclk_enable_peripheral_clock+0x29e>
		sysclk_enable_module(SYSCLK_PORT_D, SYSCLK_TWI);
    3732:	60 e4       	ldi	r22, 0x40	; 64
    3734:	84 e0       	ldi	r24, 0x04	; 4
    3736:	0c 94 0b 05 	jmp	0xa16	; 0xa16 <sysclk_enable_module>
    373a:	08 95       	ret
	}
#endif
#ifdef TWIE
	else if (module == &TWIE) {
    373c:	80 3a       	cpi	r24, 0xA0	; 160
    373e:	24 e0       	ldi	r18, 0x04	; 4
    3740:	92 07       	cpc	r25, r18
    3742:	29 f4       	brne	.+10     	; 0x374e <sysclk_enable_peripheral_clock+0x2b0>
		sysclk_enable_module(SYSCLK_PORT_E, SYSCLK_TWI);
    3744:	60 e4       	ldi	r22, 0x40	; 64
    3746:	85 e0       	ldi	r24, 0x05	; 5
    3748:	0c 94 0b 05 	jmp	0xa16	; 0xa16 <sysclk_enable_module>
    374c:	08 95       	ret
	}
#endif
#ifdef TWIF
	else if (module == &TWIF) {
    374e:	80 3b       	cpi	r24, 0xB0	; 176
    3750:	94 40       	sbci	r25, 0x04	; 4
    3752:	21 f4       	brne	.+8      	; 0x375c <sysclk_enable_peripheral_clock+0x2be>
		sysclk_enable_module(SYSCLK_PORT_F, SYSCLK_TWI);
    3754:	60 e4       	ldi	r22, 0x40	; 64
    3756:	86 e0       	ldi	r24, 0x06	; 6
    3758:	0c 94 0b 05 	jmp	0xa16	; 0xa16 <sysclk_enable_module>
    375c:	08 95       	ret

0000375e <main>:

extern uint8_t state;
//void blink (int, int);

int main (void)
{
    375e:	cf 93       	push	r28
    3760:	df 93       	push	r29
    3762:	cd b7       	in	r28, 0x3d	; 61
    3764:	de b7       	in	r29, 0x3e	; 62
    3766:	cb 57       	subi	r28, 0x7B	; 123
    3768:	d1 09       	sbc	r29, r1
    376a:	cd bf       	out	0x3d, r28	; 61
    376c:	de bf       	out	0x3e, r29	; 62
	
	sysclk_init();
    376e:	0e 94 d6 04 	call	0x9ac	; 0x9ac <sysclk_init>
	sysclk_enable_peripheral_clock(&TCF0);
    3772:	80 e0       	ldi	r24, 0x00	; 0
    3774:	9b e0       	ldi	r25, 0x0B	; 11
    3776:	93 de       	rcall	.-730    	; 0x349e <sysclk_enable_peripheral_clock>
	sysclk_enable_peripheral_clock(&TCD0);
    3778:	80 e0       	ldi	r24, 0x00	; 0
    377a:	99 e0       	ldi	r25, 0x09	; 9
    377c:	90 de       	rcall	.-736    	; 0x349e <sysclk_enable_peripheral_clock>
	sysclk_enable_module(SYSCLK_PORT_F, SYSCLK_HIRES);
    377e:	64 e0       	ldi	r22, 0x04	; 4
    3780:	86 e0       	ldi	r24, 0x06	; 6
    3782:	0e 94 0b 05 	call	0xa16	; 0xa16 <sysclk_enable_module>
	sysclk_enable_module(SYSCLK_PORT_D, SYSCLK_HIRES);
    3786:	64 e0       	ldi	r22, 0x04	; 4
    3788:	84 e0       	ldi	r24, 0x04	; 4
    378a:	0e 94 0b 05 	call	0xa16	; 0xa16 <sysclk_enable_module>
	sysclk_enable_module(SYSCLK_PORT_C, PR_SPI_bm);
    378e:	68 e0       	ldi	r22, 0x08	; 8
    3790:	83 e0       	ldi	r24, 0x03	; 3
    3792:	0e 94 0b 05 	call	0xa16	; 0xa16 <sysclk_enable_module>
// 	PORTD.OUTCLR = 0b00001000;
//	timer_founter_init(3124, 10);
		
		
	sysclk_enable_peripheral_clock(&USARTC0);
	usart_init();
    3796:	80 ea       	ldi	r24, 0xA0	; 160
    3798:	98 e0       	ldi	r25, 0x08	; 8
    379a:	81 de       	rcall	.-766    	; 0x349e <sysclk_enable_peripheral_clock>
    379c:	ba dd       	rcall	.-1164   	; 0x3312 <usart_init>
    379e:	80 ec       	ldi	r24, 0xC0	; 192
    37a0:	98 e0       	ldi	r25, 0x08	; 8
    37a2:	7d de       	rcall	.-774    	; 0x349e <sysclk_enable_peripheral_clock>
    37a4:	d0 da       	rcall	.-2656   	; 0x2d46 <spi_init>
    37a6:	05 db       	rcall	.-2550   	; 0x2db2 <ms5607init>
    37a8:	80 e0       	ldi	r24, 0x00	; 0
    37aa:	92 e0       	ldi	r25, 0x02	; 2
    37ac:	78 de       	rcall	.-784    	; 0x349e <sysclk_enable_peripheral_clock>
    37ae:	26 dd       	rcall	.-1460   	; 0x31fc <adc_init>
    37b0:	7f db       	rcall	.-2306   	; 0x2eb0 <get_pressure>
    37b2:	ec 96       	adiw	r28, 0x3c	; 60
    37b4:	6c af       	std	Y+60, r22	; 0x3c
    37b6:	7d af       	std	Y+61, r23	; 0x3d
    37b8:	8e af       	std	Y+62, r24	; 0x3e
    37ba:	9f af       	std	Y+63, r25	; 0x3f
    37bc:	ec 97       	sbiw	r28, 0x3c	; 60
    37be:	71 2c       	mov	r7, r1
    37c0:	c1 2c       	mov	r12, r1
    37c2:	d1 2c       	mov	r13, r1
    37c4:	76 01       	movw	r14, r12
    37c6:	0f 2e       	mov	r0, r31
    37c8:	fe e1       	ldi	r31, 0x1E	; 30
    37ca:	6f 2e       	mov	r6, r31
    37cc:	f0 2d       	mov	r31, r0
    37ce:	0f 2e       	mov	r0, r31
    37d0:	f4 e0       	ldi	r31, 0x04	; 4
    37d2:	4f 2e       	mov	r4, r31
    37d4:	f6 e0       	ldi	r31, 0x06	; 6
    37d6:	5f 2e       	mov	r5, r31
    37d8:	f0 2d       	mov	r31, r0
    37da:	8e 01       	movw	r16, r28
    37dc:	0f 5f       	subi	r16, 0xFF	; 255
    37de:	1f 4f       	sbci	r17, 0xFF	; 255
    37e0:	21 2c       	mov	r2, r1
    37e2:	0a c0       	rjmp	.+20     	; 0x37f8 <main+0x9a>
    37e4:	77 24       	eor	r7, r7
    37e6:	73 94       	inc	r7
    37e8:	07 c0       	rjmp	.+14     	; 0x37f8 <main+0x9a>
    37ea:	68 94       	set
    37ec:	77 24       	eor	r7, r7
    37ee:	71 f8       	bld	r7, 1
    37f0:	03 c0       	rjmp	.+6      	; 0x37f8 <main+0x9a>
    37f2:	68 94       	set
    37f4:	77 24       	eor	r7, r7
    37f6:	71 f8       	bld	r7, 1
    37f8:	4c da       	rcall	.-2920   	; 0x2c92 <buzzer_on>
    37fa:	e0 e0       	ldi	r30, 0x00	; 0
    37fc:	f6 e0       	ldi	r31, 0x06	; 6
    37fe:	60 82       	st	Z, r6
    3800:	f2 01       	movw	r30, r4
    3802:	60 82       	st	Z, r6
    3804:	66 e5       	ldi	r22, 0x56	; 86
    3806:	78 e5       	ldi	r23, 0x58	; 88
    3808:	84 e1       	ldi	r24, 0x14	; 20
    380a:	90 e0       	ldi	r25, 0x00	; 0
    380c:	3d de       	rcall	.-902    	; 0x3488 <__portable_avr_delay_cycles>
    380e:	f2 01       	movw	r30, r4
    3810:	10 82       	st	Z, r1
    3812:	66 e5       	ldi	r22, 0x56	; 86
    3814:	78 e5       	ldi	r23, 0x58	; 88
    3816:	84 e1       	ldi	r24, 0x14	; 20
    3818:	90 e0       	ldi	r25, 0x00	; 0
    381a:	36 de       	rcall	.-916    	; 0x3488 <__portable_avr_delay_cycles>
    381c:	49 db       	rcall	.-2414   	; 0x2eb0 <get_pressure>
    381e:	86 2e       	mov	r8, r22
    3820:	97 2e       	mov	r9, r23
    3822:	a8 2e       	mov	r10, r24
    3824:	b9 2e       	mov	r11, r25
    3826:	33 dd       	rcall	.-1434   	; 0x328e <getTemperature>
    3828:	bf 92       	push	r11
    382a:	af 92       	push	r10
    382c:	9f 92       	push	r9
    382e:	8f 92       	push	r8
    3830:	8d e2       	ldi	r24, 0x2D	; 45
    3832:	90 e2       	ldi	r25, 0x20	; 32
    3834:	9f 93       	push	r25
    3836:	8f 93       	push	r24
    3838:	0e 94 a3 26 	call	0x4d46	; 0x4d46 <printf>
    383c:	28 2d       	mov	r18, r8
    383e:	39 2d       	mov	r19, r9
    3840:	4a 2d       	mov	r20, r10
    3842:	5b 2d       	mov	r21, r11
    3844:	ec 96       	adiw	r28, 0x3c	; 60
    3846:	6c ad       	ldd	r22, Y+60	; 0x3c
    3848:	7d ad       	ldd	r23, Y+61	; 0x3d
    384a:	8e ad       	ldd	r24, Y+62	; 0x3e
    384c:	9f ad       	ldd	r25, Y+63	; 0x3f
    384e:	ec 97       	sbiw	r28, 0x3c	; 60
    3850:	0e 94 ad 12 	call	0x255a	; 0x255a <Get_altitude>
    3854:	c8 d1       	rcall	.+912    	; 0x3be6 <__fixsfsi>
    3856:	4b 01       	movw	r8, r22
    3858:	5c 01       	movw	r10, r24
    385a:	f8 d1       	rcall	.+1008   	; 0x3c4c <__floatsisf>
    385c:	26 e6       	ldi	r18, 0x66	; 102
    385e:	36 e6       	ldi	r19, 0x66	; 102
    3860:	46 e6       	ldi	r20, 0x66	; 102
    3862:	5f e3       	ldi	r21, 0x3F	; 63
    3864:	c4 d2       	rcall	.+1416   	; 0x3dee <__mulsf3>
    3866:	e8 96       	adiw	r28, 0x38	; 56
    3868:	6c af       	std	Y+60, r22	; 0x3c
    386a:	7d af       	std	Y+61, r23	; 0x3d
    386c:	8e af       	std	Y+62, r24	; 0x3e
    386e:	9f af       	std	Y+63, r25	; 0x3f
    3870:	e8 97       	sbiw	r28, 0x38	; 56
    3872:	c7 01       	movw	r24, r14
    3874:	b6 01       	movw	r22, r12
    3876:	ea d1       	rcall	.+980    	; 0x3c4c <__floatsisf>
    3878:	20 ed       	ldi	r18, 0xD0	; 208
    387a:	3c ec       	ldi	r19, 0xCC	; 204
    387c:	4c ec       	ldi	r20, 0xCC	; 204
    387e:	5d e3       	ldi	r21, 0x3D	; 61
    3880:	b6 d2       	rcall	.+1388   	; 0x3dee <__mulsf3>
    3882:	9b 01       	movw	r18, r22
    3884:	ac 01       	movw	r20, r24
    3886:	e8 96       	adiw	r28, 0x38	; 56
    3888:	6c ad       	ldd	r22, Y+60	; 0x3c
    388a:	7d ad       	ldd	r23, Y+61	; 0x3d
    388c:	8e ad       	ldd	r24, Y+62	; 0x3e
    388e:	9f ad       	ldd	r25, Y+63	; 0x3f
    3890:	e8 97       	sbiw	r28, 0x38	; 56
    3892:	dd d0       	rcall	.+442    	; 0x3a4e <__addsf3>
    3894:	a8 d1       	rcall	.+848    	; 0x3be6 <__fixsfsi>
    3896:	6b 01       	movw	r12, r22
    3898:	7c 01       	movw	r14, r24
    389a:	68 94       	set
    389c:	33 24       	eor	r3, r3
    389e:	35 f8       	bld	r3, 5
    38a0:	e1 e6       	ldi	r30, 0x61	; 97
    38a2:	f6 e0       	ldi	r31, 0x06	; 6
    38a4:	30 82       	st	Z, r3
    38a6:	e6 e6       	ldi	r30, 0x66	; 102
    38a8:	f6 e0       	ldi	r31, 0x06	; 6
    38aa:	30 82       	st	Z, r3
    38ac:	66 e5       	ldi	r22, 0x56	; 86
    38ae:	70 ed       	ldi	r23, 0xD0	; 208
    38b0:	80 e0       	ldi	r24, 0x00	; 0
    38b2:	90 e0       	ldi	r25, 0x00	; 0
    38b4:	e9 dd       	rcall	.-1070   	; 0x3488 <__portable_avr_delay_cycles>
    38b6:	e5 e6       	ldi	r30, 0x65	; 101
    38b8:	f6 e0       	ldi	r31, 0x06	; 6
    38ba:	30 82       	st	Z, r3
    38bc:	66 e5       	ldi	r22, 0x56	; 86
    38be:	73 e2       	ldi	r23, 0x23	; 35
    38c0:	88 e0       	ldi	r24, 0x08	; 8
    38c2:	90 e0       	ldi	r25, 0x00	; 0
    38c4:	e1 dd       	rcall	.-1086   	; 0x3488 <__portable_avr_delay_cycles>
    38c6:	e6 e6       	ldi	r30, 0x66	; 102
    38c8:	f6 e0       	ldi	r31, 0x06	; 6
    38ca:	30 82       	st	Z, r3
    38cc:	8d e3       	ldi	r24, 0x3D	; 61
    38ce:	90 e2       	ldi	r25, 0x20	; 32
    38d0:	9f 93       	push	r25
    38d2:	8f 93       	push	r24
    38d4:	0e 94 a3 26 	call	0x4d46	; 0x4d46 <printf>
    38d8:	cd bf       	out	0x3d, r28	; 61
    38da:	de bf       	out	0x3e, r29	; 62
    38dc:	80 91 93 21 	lds	r24, 0x2193	; 0x802193 <last_finished>
    38e0:	88 23       	and	r24, r24
    38e2:	09 f4       	brne	.+2      	; 0x38e6 <main+0x188>
    38e4:	4c c0       	rjmp	.+152    	; 0x397e <main+0x220>
    38e6:	ec e4       	ldi	r30, 0x4C	; 76
    38e8:	f0 e2       	ldi	r31, 0x20	; 32
    38ea:	ff 93       	push	r31
    38ec:	ef 93       	push	r30
    38ee:	0e 94 a3 26 	call	0x4d46	; 0x4d46 <printf>
    38f2:	0f 90       	pop	r0
    38f4:	0f 90       	pop	r0
    38f6:	80 91 93 21 	lds	r24, 0x2193	; 0x802193 <last_finished>
    38fa:	81 30       	cpi	r24, 0x01	; 1
    38fc:	09 f0       	breq	.+2      	; 0x3900 <main+0x1a2>
    38fe:	3f c0       	rjmp	.+126    	; 0x397e <main+0x220>
    3900:	87 e5       	ldi	r24, 0x57	; 87
    3902:	90 e2       	ldi	r25, 0x20	; 32
    3904:	0e 94 bb 26 	call	0x4d76	; 0x4d76 <puts>
    3908:	9f b7       	in	r25, 0x3f	; 63
    390a:	f8 94       	cli
    390c:	85 e5       	ldi	r24, 0x55	; 85
    390e:	e3 e3       	ldi	r30, 0x33	; 51
    3910:	f3 e2       	ldi	r31, 0x23	; 35
    3912:	d8 01       	movw	r26, r16
    3914:	01 90       	ld	r0, Z+
    3916:	0d 92       	st	X+, r0
    3918:	8a 95       	dec	r24
    391a:	e1 f7       	brne	.-8      	; 0x3914 <main+0x1b6>
    391c:	9f bf       	out	0x3f, r25	; 63
    391e:	89 81       	ldd	r24, Y+1	; 0x01
    3920:	8a 30       	cpi	r24, 0x0A	; 10
    3922:	79 f0       	breq	.+30     	; 0x3942 <main+0x1e4>
    3924:	fe 01       	movw	r30, r28
    3926:	32 96       	adiw	r30, 0x02	; 2
    3928:	81 e0       	ldi	r24, 0x01	; 1
    392a:	90 e0       	ldi	r25, 0x00	; 0
    392c:	21 91       	ld	r18, Z+
    392e:	2a 30       	cpi	r18, 0x0A	; 10
    3930:	51 f0       	breq	.+20     	; 0x3946 <main+0x1e8>
    3932:	01 96       	adiw	r24, 0x01	; 1
    3934:	81 15       	cp	r24, r1
    3936:	24 e0       	ldi	r18, 0x04	; 4
    3938:	92 07       	cpc	r25, r18
    393a:	c1 f7       	brne	.-16     	; 0x392c <main+0x1ce>
    393c:	82 2d       	mov	r24, r2
    393e:	94 e0       	ldi	r25, 0x04	; 4
    3940:	02 c0       	rjmp	.+4      	; 0x3946 <main+0x1e8>
    3942:	80 e0       	ldi	r24, 0x00	; 0
    3944:	90 e0       	ldi	r25, 0x00	; 0
    3946:	f8 01       	movw	r30, r16
    3948:	e8 0f       	add	r30, r24
    394a:	f9 1f       	adc	r31, r25
    394c:	10 82       	st	Z, r1
    394e:	f8 01       	movw	r30, r16
    3950:	01 90       	ld	r0, Z+
    3952:	00 20       	and	r0, r0
    3954:	e9 f7       	brne	.-6      	; 0x3950 <main+0x1f2>
    3956:	31 97       	sbiw	r30, 0x01	; 1
    3958:	af 01       	movw	r20, r30
    395a:	40 1b       	sub	r20, r16
    395c:	51 0b       	sbc	r21, r17
    395e:	b8 01       	movw	r22, r16
    3960:	ce 01       	movw	r24, r28
    3962:	8a 5a       	subi	r24, 0xAA	; 170
    3964:	9f 4f       	sbci	r25, 0xFF	; 255
    3966:	0e 94 42 13 	call	0x2684	; 0x2684 <getGPSDatafromNMEA>
    396a:	10 92 93 21 	sts	0x2193, r1	; 0x802193 <last_finished>
    396e:	e4 96       	adiw	r28, 0x34	; 52
    3970:	8f ad       	ldd	r24, Y+63	; 0x3f
    3972:	e4 97       	sbiw	r28, 0x34	; 52
    3974:	88 23       	and	r24, r24
    3976:	19 f0       	breq	.+6      	; 0x397e <main+0x220>
    3978:	8f b7       	in	r24, 0x3f	; 63
    397a:	f8 94       	cli
    397c:	8f bf       	out	0x3f, r24	; 63
    397e:	66 e5       	ldi	r22, 0x56	; 86
    3980:	71 e6       	ldi	r23, 0x61	; 97
    3982:	81 e5       	ldi	r24, 0x51	; 81
    3984:	90 e0       	ldi	r25, 0x00	; 0
    3986:	80 dd       	rcall	.-1280   	; 0x3488 <__portable_avr_delay_cycles>
    3988:	71 10       	cpse	r7, r1
    398a:	22 c0       	rjmp	.+68     	; 0x39d0 <main+0x272>
    398c:	85 e5       	ldi	r24, 0x55	; 85
    398e:	80 93 81 06 	sts	0x0681, r24	; 0x800681 <__TEXT_REGION_LENGTH__+0x700681>
    3992:	80 93 85 06 	sts	0x0685, r24	; 0x800685 <__TEXT_REGION_LENGTH__+0x700685>
    3996:	88 e0       	ldi	r24, 0x08	; 8
    3998:	80 93 04 06 	sts	0x0604, r24	; 0x800604 <__TEXT_REGION_LENGTH__+0x700604>
    399c:	d7 01       	movw	r26, r14
    399e:	c6 01       	movw	r24, r12
    39a0:	88 19       	sub	r24, r8
    39a2:	99 09       	sbc	r25, r9
    39a4:	aa 09       	sbc	r26, r10
    39a6:	bb 09       	sbc	r27, r11
    39a8:	0a f0       	brmi	.+2      	; 0x39ac <main+0x24e>
    39aa:	26 cf       	rjmp	.-436    	; 0x37f8 <main+0x9a>
    39ac:	d7 01       	movw	r26, r14
    39ae:	c6 01       	movw	r24, r12
    39b0:	89 55       	subi	r24, 0x59	; 89
    39b2:	92 40       	sbci	r25, 0x02	; 2
    39b4:	a1 09       	sbc	r26, r1
    39b6:	b1 09       	sbc	r27, r1
    39b8:	87 3c       	cpi	r24, 0xC7	; 199
    39ba:	91 05       	cpc	r25, r1
    39bc:	a1 05       	cpc	r26, r1
    39be:	b1 05       	cpc	r27, r1
    39c0:	08 f0       	brcs	.+2      	; 0x39c4 <main+0x266>
    39c2:	1a cf       	rjmp	.-460    	; 0x37f8 <main+0x9a>
    39c4:	81 e0       	ldi	r24, 0x01	; 1
    39c6:	80 93 81 06 	sts	0x0681, r24	; 0x800681 <__TEXT_REGION_LENGTH__+0x700681>
    39ca:	80 93 85 06 	sts	0x0685, r24	; 0x800685 <__TEXT_REGION_LENGTH__+0x700685>
    39ce:	03 c0       	rjmp	.+6      	; 0x39d6 <main+0x278>
    39d0:	81 e0       	ldi	r24, 0x01	; 1
    39d2:	78 12       	cpse	r7, r24
    39d4:	17 c0       	rjmp	.+46     	; 0x3a04 <main+0x2a6>
    39d6:	8e e5       	ldi	r24, 0x5E	; 94
    39d8:	90 e2       	ldi	r25, 0x20	; 32
    39da:	0e 94 bb 26 	call	0x4d76	; 0x4d76 <puts>
    39de:	9c e2       	ldi	r25, 0x2C	; 44
    39e0:	c9 16       	cp	r12, r25
    39e2:	91 e0       	ldi	r25, 0x01	; 1
    39e4:	d9 06       	cpc	r13, r25
    39e6:	e1 04       	cpc	r14, r1
    39e8:	f1 04       	cpc	r15, r1
    39ea:	0c f0       	brlt	.+2      	; 0x39ee <main+0x290>
    39ec:	fb ce       	rjmp	.-522    	; 0x37e4 <main+0x86>
    39ee:	82 e0       	ldi	r24, 0x02	; 2
    39f0:	80 93 81 06 	sts	0x0681, r24	; 0x800681 <__TEXT_REGION_LENGTH__+0x700681>
    39f4:	80 93 85 06 	sts	0x0685, r24	; 0x800685 <__TEXT_REGION_LENGTH__+0x700685>
    39f8:	80 e8       	ldi	r24, 0x80	; 128
    39fa:	80 93 01 06 	sts	0x0601, r24	; 0x800601 <__TEXT_REGION_LENGTH__+0x700601>
    39fe:	80 93 05 06 	sts	0x0605, r24	; 0x800605 <__TEXT_REGION_LENGTH__+0x700605>
    3a02:	03 c0       	rjmp	.+6      	; 0x3a0a <main+0x2ac>
    3a04:	e2 e0       	ldi	r30, 0x02	; 2
    3a06:	7e 12       	cpse	r7, r30
    3a08:	f7 ce       	rjmp	.-530    	; 0x37f8 <main+0x9a>
    3a0a:	8e e6       	ldi	r24, 0x6E	; 110
    3a0c:	90 e2       	ldi	r25, 0x20	; 32
    3a0e:	0e 94 bb 26 	call	0x4d76	; 0x4d76 <puts>
    3a12:	d7 01       	movw	r26, r14
    3a14:	c6 01       	movw	r24, r12
    3a16:	88 19       	sub	r24, r8
    3a18:	99 09       	sbc	r25, r9
    3a1a:	aa 09       	sbc	r26, r10
    3a1c:	bb 09       	sbc	r27, r11
    3a1e:	18 16       	cp	r1, r24
    3a20:	19 06       	cpc	r1, r25
    3a22:	1a 06       	cpc	r1, r26
    3a24:	1b 06       	cpc	r1, r27
    3a26:	0c f4       	brge	.+2      	; 0x3a2a <main+0x2cc>
    3a28:	e0 ce       	rjmp	.-576    	; 0x37ea <main+0x8c>
    3a2a:	f4 e6       	ldi	r31, 0x64	; 100
    3a2c:	8f 16       	cp	r8, r31
    3a2e:	91 04       	cpc	r9, r1
    3a30:	a1 04       	cpc	r10, r1
    3a32:	b1 04       	cpc	r11, r1
    3a34:	0c f0       	brlt	.+2      	; 0x3a38 <main+0x2da>
    3a36:	dd ce       	rjmp	.-582    	; 0x37f2 <main+0x94>
    3a38:	88 e0       	ldi	r24, 0x08	; 8
    3a3a:	80 93 01 06 	sts	0x0601, r24	; 0x800601 <__TEXT_REGION_LENGTH__+0x700601>
    3a3e:	80 93 05 06 	sts	0x0605, r24	; 0x800605 <__TEXT_REGION_LENGTH__+0x700605>
    3a42:	0f 2e       	mov	r0, r31
    3a44:	f3 e0       	ldi	r31, 0x03	; 3
    3a46:	7f 2e       	mov	r7, r31
    3a48:	f0 2d       	mov	r31, r0
    3a4a:	d6 ce       	rjmp	.-596    	; 0x37f8 <main+0x9a>

00003a4c <__subsf3>:
    3a4c:	50 58       	subi	r21, 0x80	; 128

00003a4e <__addsf3>:
    3a4e:	bb 27       	eor	r27, r27
    3a50:	aa 27       	eor	r26, r26
    3a52:	0e d0       	rcall	.+28     	; 0x3a70 <__addsf3x>
    3a54:	4d c1       	rjmp	.+666    	; 0x3cf0 <__fp_round>
    3a56:	3e d1       	rcall	.+636    	; 0x3cd4 <__fp_pscA>
    3a58:	30 f0       	brcs	.+12     	; 0x3a66 <__addsf3+0x18>
    3a5a:	43 d1       	rcall	.+646    	; 0x3ce2 <__fp_pscB>
    3a5c:	20 f0       	brcs	.+8      	; 0x3a66 <__addsf3+0x18>
    3a5e:	31 f4       	brne	.+12     	; 0x3a6c <__addsf3+0x1e>
    3a60:	9f 3f       	cpi	r25, 0xFF	; 255
    3a62:	11 f4       	brne	.+4      	; 0x3a68 <__addsf3+0x1a>
    3a64:	1e f4       	brtc	.+6      	; 0x3a6c <__addsf3+0x1e>
    3a66:	33 c1       	rjmp	.+614    	; 0x3cce <__fp_nan>
    3a68:	0e f4       	brtc	.+2      	; 0x3a6c <__addsf3+0x1e>
    3a6a:	e0 95       	com	r30
    3a6c:	e7 fb       	bst	r30, 7
    3a6e:	29 c1       	rjmp	.+594    	; 0x3cc2 <__fp_inf>

00003a70 <__addsf3x>:
    3a70:	e9 2f       	mov	r30, r25
    3a72:	4f d1       	rcall	.+670    	; 0x3d12 <__fp_split3>
    3a74:	80 f3       	brcs	.-32     	; 0x3a56 <__addsf3+0x8>
    3a76:	ba 17       	cp	r27, r26
    3a78:	62 07       	cpc	r22, r18
    3a7a:	73 07       	cpc	r23, r19
    3a7c:	84 07       	cpc	r24, r20
    3a7e:	95 07       	cpc	r25, r21
    3a80:	18 f0       	brcs	.+6      	; 0x3a88 <__addsf3x+0x18>
    3a82:	71 f4       	brne	.+28     	; 0x3aa0 <__addsf3x+0x30>
    3a84:	9e f5       	brtc	.+102    	; 0x3aec <__addsf3x+0x7c>
    3a86:	67 c1       	rjmp	.+718    	; 0x3d56 <__fp_zero>
    3a88:	0e f4       	brtc	.+2      	; 0x3a8c <__addsf3x+0x1c>
    3a8a:	e0 95       	com	r30
    3a8c:	0b 2e       	mov	r0, r27
    3a8e:	ba 2f       	mov	r27, r26
    3a90:	a0 2d       	mov	r26, r0
    3a92:	0b 01       	movw	r0, r22
    3a94:	b9 01       	movw	r22, r18
    3a96:	90 01       	movw	r18, r0
    3a98:	0c 01       	movw	r0, r24
    3a9a:	ca 01       	movw	r24, r20
    3a9c:	a0 01       	movw	r20, r0
    3a9e:	11 24       	eor	r1, r1
    3aa0:	ff 27       	eor	r31, r31
    3aa2:	59 1b       	sub	r21, r25
    3aa4:	99 f0       	breq	.+38     	; 0x3acc <__addsf3x+0x5c>
    3aa6:	59 3f       	cpi	r21, 0xF9	; 249
    3aa8:	50 f4       	brcc	.+20     	; 0x3abe <__addsf3x+0x4e>
    3aaa:	50 3e       	cpi	r21, 0xE0	; 224
    3aac:	68 f1       	brcs	.+90     	; 0x3b08 <__addsf3x+0x98>
    3aae:	1a 16       	cp	r1, r26
    3ab0:	f0 40       	sbci	r31, 0x00	; 0
    3ab2:	a2 2f       	mov	r26, r18
    3ab4:	23 2f       	mov	r18, r19
    3ab6:	34 2f       	mov	r19, r20
    3ab8:	44 27       	eor	r20, r20
    3aba:	58 5f       	subi	r21, 0xF8	; 248
    3abc:	f3 cf       	rjmp	.-26     	; 0x3aa4 <__addsf3x+0x34>
    3abe:	46 95       	lsr	r20
    3ac0:	37 95       	ror	r19
    3ac2:	27 95       	ror	r18
    3ac4:	a7 95       	ror	r26
    3ac6:	f0 40       	sbci	r31, 0x00	; 0
    3ac8:	53 95       	inc	r21
    3aca:	c9 f7       	brne	.-14     	; 0x3abe <__addsf3x+0x4e>
    3acc:	7e f4       	brtc	.+30     	; 0x3aec <__addsf3x+0x7c>
    3ace:	1f 16       	cp	r1, r31
    3ad0:	ba 0b       	sbc	r27, r26
    3ad2:	62 0b       	sbc	r22, r18
    3ad4:	73 0b       	sbc	r23, r19
    3ad6:	84 0b       	sbc	r24, r20
    3ad8:	ba f0       	brmi	.+46     	; 0x3b08 <__addsf3x+0x98>
    3ada:	91 50       	subi	r25, 0x01	; 1
    3adc:	a1 f0       	breq	.+40     	; 0x3b06 <__addsf3x+0x96>
    3ade:	ff 0f       	add	r31, r31
    3ae0:	bb 1f       	adc	r27, r27
    3ae2:	66 1f       	adc	r22, r22
    3ae4:	77 1f       	adc	r23, r23
    3ae6:	88 1f       	adc	r24, r24
    3ae8:	c2 f7       	brpl	.-16     	; 0x3ada <__addsf3x+0x6a>
    3aea:	0e c0       	rjmp	.+28     	; 0x3b08 <__addsf3x+0x98>
    3aec:	ba 0f       	add	r27, r26
    3aee:	62 1f       	adc	r22, r18
    3af0:	73 1f       	adc	r23, r19
    3af2:	84 1f       	adc	r24, r20
    3af4:	48 f4       	brcc	.+18     	; 0x3b08 <__addsf3x+0x98>
    3af6:	87 95       	ror	r24
    3af8:	77 95       	ror	r23
    3afa:	67 95       	ror	r22
    3afc:	b7 95       	ror	r27
    3afe:	f7 95       	ror	r31
    3b00:	9e 3f       	cpi	r25, 0xFE	; 254
    3b02:	08 f0       	brcs	.+2      	; 0x3b06 <__addsf3x+0x96>
    3b04:	b3 cf       	rjmp	.-154    	; 0x3a6c <__addsf3+0x1e>
    3b06:	93 95       	inc	r25
    3b08:	88 0f       	add	r24, r24
    3b0a:	08 f0       	brcs	.+2      	; 0x3b0e <__addsf3x+0x9e>
    3b0c:	99 27       	eor	r25, r25
    3b0e:	ee 0f       	add	r30, r30
    3b10:	97 95       	ror	r25
    3b12:	87 95       	ror	r24
    3b14:	08 95       	ret

00003b16 <__divsf3>:
    3b16:	0c d0       	rcall	.+24     	; 0x3b30 <__divsf3x>
    3b18:	eb c0       	rjmp	.+470    	; 0x3cf0 <__fp_round>
    3b1a:	e3 d0       	rcall	.+454    	; 0x3ce2 <__fp_pscB>
    3b1c:	40 f0       	brcs	.+16     	; 0x3b2e <__divsf3+0x18>
    3b1e:	da d0       	rcall	.+436    	; 0x3cd4 <__fp_pscA>
    3b20:	30 f0       	brcs	.+12     	; 0x3b2e <__divsf3+0x18>
    3b22:	21 f4       	brne	.+8      	; 0x3b2c <__divsf3+0x16>
    3b24:	5f 3f       	cpi	r21, 0xFF	; 255
    3b26:	19 f0       	breq	.+6      	; 0x3b2e <__divsf3+0x18>
    3b28:	cc c0       	rjmp	.+408    	; 0x3cc2 <__fp_inf>
    3b2a:	51 11       	cpse	r21, r1
    3b2c:	15 c1       	rjmp	.+554    	; 0x3d58 <__fp_szero>
    3b2e:	cf c0       	rjmp	.+414    	; 0x3cce <__fp_nan>

00003b30 <__divsf3x>:
    3b30:	f0 d0       	rcall	.+480    	; 0x3d12 <__fp_split3>
    3b32:	98 f3       	brcs	.-26     	; 0x3b1a <__divsf3+0x4>

00003b34 <__divsf3_pse>:
    3b34:	99 23       	and	r25, r25
    3b36:	c9 f3       	breq	.-14     	; 0x3b2a <__divsf3+0x14>
    3b38:	55 23       	and	r21, r21
    3b3a:	b1 f3       	breq	.-20     	; 0x3b28 <__divsf3+0x12>
    3b3c:	95 1b       	sub	r25, r21
    3b3e:	55 0b       	sbc	r21, r21
    3b40:	bb 27       	eor	r27, r27
    3b42:	aa 27       	eor	r26, r26
    3b44:	62 17       	cp	r22, r18
    3b46:	73 07       	cpc	r23, r19
    3b48:	84 07       	cpc	r24, r20
    3b4a:	38 f0       	brcs	.+14     	; 0x3b5a <__divsf3_pse+0x26>
    3b4c:	9f 5f       	subi	r25, 0xFF	; 255
    3b4e:	5f 4f       	sbci	r21, 0xFF	; 255
    3b50:	22 0f       	add	r18, r18
    3b52:	33 1f       	adc	r19, r19
    3b54:	44 1f       	adc	r20, r20
    3b56:	aa 1f       	adc	r26, r26
    3b58:	a9 f3       	breq	.-22     	; 0x3b44 <__divsf3_pse+0x10>
    3b5a:	33 d0       	rcall	.+102    	; 0x3bc2 <__divsf3_pse+0x8e>
    3b5c:	0e 2e       	mov	r0, r30
    3b5e:	3a f0       	brmi	.+14     	; 0x3b6e <__divsf3_pse+0x3a>
    3b60:	e0 e8       	ldi	r30, 0x80	; 128
    3b62:	30 d0       	rcall	.+96     	; 0x3bc4 <__divsf3_pse+0x90>
    3b64:	91 50       	subi	r25, 0x01	; 1
    3b66:	50 40       	sbci	r21, 0x00	; 0
    3b68:	e6 95       	lsr	r30
    3b6a:	00 1c       	adc	r0, r0
    3b6c:	ca f7       	brpl	.-14     	; 0x3b60 <__divsf3_pse+0x2c>
    3b6e:	29 d0       	rcall	.+82     	; 0x3bc2 <__divsf3_pse+0x8e>
    3b70:	fe 2f       	mov	r31, r30
    3b72:	27 d0       	rcall	.+78     	; 0x3bc2 <__divsf3_pse+0x8e>
    3b74:	66 0f       	add	r22, r22
    3b76:	77 1f       	adc	r23, r23
    3b78:	88 1f       	adc	r24, r24
    3b7a:	bb 1f       	adc	r27, r27
    3b7c:	26 17       	cp	r18, r22
    3b7e:	37 07       	cpc	r19, r23
    3b80:	48 07       	cpc	r20, r24
    3b82:	ab 07       	cpc	r26, r27
    3b84:	b0 e8       	ldi	r27, 0x80	; 128
    3b86:	09 f0       	breq	.+2      	; 0x3b8a <__divsf3_pse+0x56>
    3b88:	bb 0b       	sbc	r27, r27
    3b8a:	80 2d       	mov	r24, r0
    3b8c:	bf 01       	movw	r22, r30
    3b8e:	ff 27       	eor	r31, r31
    3b90:	93 58       	subi	r25, 0x83	; 131
    3b92:	5f 4f       	sbci	r21, 0xFF	; 255
    3b94:	2a f0       	brmi	.+10     	; 0x3ba0 <__divsf3_pse+0x6c>
    3b96:	9e 3f       	cpi	r25, 0xFE	; 254
    3b98:	51 05       	cpc	r21, r1
    3b9a:	68 f0       	brcs	.+26     	; 0x3bb6 <__divsf3_pse+0x82>
    3b9c:	92 c0       	rjmp	.+292    	; 0x3cc2 <__fp_inf>
    3b9e:	dc c0       	rjmp	.+440    	; 0x3d58 <__fp_szero>
    3ba0:	5f 3f       	cpi	r21, 0xFF	; 255
    3ba2:	ec f3       	brlt	.-6      	; 0x3b9e <__divsf3_pse+0x6a>
    3ba4:	98 3e       	cpi	r25, 0xE8	; 232
    3ba6:	dc f3       	brlt	.-10     	; 0x3b9e <__divsf3_pse+0x6a>
    3ba8:	86 95       	lsr	r24
    3baa:	77 95       	ror	r23
    3bac:	67 95       	ror	r22
    3bae:	b7 95       	ror	r27
    3bb0:	f7 95       	ror	r31
    3bb2:	9f 5f       	subi	r25, 0xFF	; 255
    3bb4:	c9 f7       	brne	.-14     	; 0x3ba8 <__divsf3_pse+0x74>
    3bb6:	88 0f       	add	r24, r24
    3bb8:	91 1d       	adc	r25, r1
    3bba:	96 95       	lsr	r25
    3bbc:	87 95       	ror	r24
    3bbe:	97 f9       	bld	r25, 7
    3bc0:	08 95       	ret
    3bc2:	e1 e0       	ldi	r30, 0x01	; 1
    3bc4:	66 0f       	add	r22, r22
    3bc6:	77 1f       	adc	r23, r23
    3bc8:	88 1f       	adc	r24, r24
    3bca:	bb 1f       	adc	r27, r27
    3bcc:	62 17       	cp	r22, r18
    3bce:	73 07       	cpc	r23, r19
    3bd0:	84 07       	cpc	r24, r20
    3bd2:	ba 07       	cpc	r27, r26
    3bd4:	20 f0       	brcs	.+8      	; 0x3bde <__divsf3_pse+0xaa>
    3bd6:	62 1b       	sub	r22, r18
    3bd8:	73 0b       	sbc	r23, r19
    3bda:	84 0b       	sbc	r24, r20
    3bdc:	ba 0b       	sbc	r27, r26
    3bde:	ee 1f       	adc	r30, r30
    3be0:	88 f7       	brcc	.-30     	; 0x3bc4 <__divsf3_pse+0x90>
    3be2:	e0 95       	com	r30
    3be4:	08 95       	ret

00003be6 <__fixsfsi>:
    3be6:	04 d0       	rcall	.+8      	; 0x3bf0 <__fixunssfsi>
    3be8:	68 94       	set
    3bea:	b1 11       	cpse	r27, r1
    3bec:	b5 c0       	rjmp	.+362    	; 0x3d58 <__fp_szero>
    3bee:	08 95       	ret

00003bf0 <__fixunssfsi>:
    3bf0:	98 d0       	rcall	.+304    	; 0x3d22 <__fp_splitA>
    3bf2:	88 f0       	brcs	.+34     	; 0x3c16 <__fixunssfsi+0x26>
    3bf4:	9f 57       	subi	r25, 0x7F	; 127
    3bf6:	90 f0       	brcs	.+36     	; 0x3c1c <__fixunssfsi+0x2c>
    3bf8:	b9 2f       	mov	r27, r25
    3bfa:	99 27       	eor	r25, r25
    3bfc:	b7 51       	subi	r27, 0x17	; 23
    3bfe:	a0 f0       	brcs	.+40     	; 0x3c28 <__fixunssfsi+0x38>
    3c00:	d1 f0       	breq	.+52     	; 0x3c36 <__fixunssfsi+0x46>
    3c02:	66 0f       	add	r22, r22
    3c04:	77 1f       	adc	r23, r23
    3c06:	88 1f       	adc	r24, r24
    3c08:	99 1f       	adc	r25, r25
    3c0a:	1a f0       	brmi	.+6      	; 0x3c12 <__fixunssfsi+0x22>
    3c0c:	ba 95       	dec	r27
    3c0e:	c9 f7       	brne	.-14     	; 0x3c02 <__fixunssfsi+0x12>
    3c10:	12 c0       	rjmp	.+36     	; 0x3c36 <__fixunssfsi+0x46>
    3c12:	b1 30       	cpi	r27, 0x01	; 1
    3c14:	81 f0       	breq	.+32     	; 0x3c36 <__fixunssfsi+0x46>
    3c16:	9f d0       	rcall	.+318    	; 0x3d56 <__fp_zero>
    3c18:	b1 e0       	ldi	r27, 0x01	; 1
    3c1a:	08 95       	ret
    3c1c:	9c c0       	rjmp	.+312    	; 0x3d56 <__fp_zero>
    3c1e:	67 2f       	mov	r22, r23
    3c20:	78 2f       	mov	r23, r24
    3c22:	88 27       	eor	r24, r24
    3c24:	b8 5f       	subi	r27, 0xF8	; 248
    3c26:	39 f0       	breq	.+14     	; 0x3c36 <__fixunssfsi+0x46>
    3c28:	b9 3f       	cpi	r27, 0xF9	; 249
    3c2a:	cc f3       	brlt	.-14     	; 0x3c1e <__fixunssfsi+0x2e>
    3c2c:	86 95       	lsr	r24
    3c2e:	77 95       	ror	r23
    3c30:	67 95       	ror	r22
    3c32:	b3 95       	inc	r27
    3c34:	d9 f7       	brne	.-10     	; 0x3c2c <__fixunssfsi+0x3c>
    3c36:	3e f4       	brtc	.+14     	; 0x3c46 <__fixunssfsi+0x56>
    3c38:	90 95       	com	r25
    3c3a:	80 95       	com	r24
    3c3c:	70 95       	com	r23
    3c3e:	61 95       	neg	r22
    3c40:	7f 4f       	sbci	r23, 0xFF	; 255
    3c42:	8f 4f       	sbci	r24, 0xFF	; 255
    3c44:	9f 4f       	sbci	r25, 0xFF	; 255
    3c46:	08 95       	ret

00003c48 <__floatunsisf>:
    3c48:	e8 94       	clt
    3c4a:	09 c0       	rjmp	.+18     	; 0x3c5e <__floatsisf+0x12>

00003c4c <__floatsisf>:
    3c4c:	97 fb       	bst	r25, 7
    3c4e:	3e f4       	brtc	.+14     	; 0x3c5e <__floatsisf+0x12>
    3c50:	90 95       	com	r25
    3c52:	80 95       	com	r24
    3c54:	70 95       	com	r23
    3c56:	61 95       	neg	r22
    3c58:	7f 4f       	sbci	r23, 0xFF	; 255
    3c5a:	8f 4f       	sbci	r24, 0xFF	; 255
    3c5c:	9f 4f       	sbci	r25, 0xFF	; 255
    3c5e:	99 23       	and	r25, r25
    3c60:	a9 f0       	breq	.+42     	; 0x3c8c <__floatsisf+0x40>
    3c62:	f9 2f       	mov	r31, r25
    3c64:	96 e9       	ldi	r25, 0x96	; 150
    3c66:	bb 27       	eor	r27, r27
    3c68:	93 95       	inc	r25
    3c6a:	f6 95       	lsr	r31
    3c6c:	87 95       	ror	r24
    3c6e:	77 95       	ror	r23
    3c70:	67 95       	ror	r22
    3c72:	b7 95       	ror	r27
    3c74:	f1 11       	cpse	r31, r1
    3c76:	f8 cf       	rjmp	.-16     	; 0x3c68 <__floatsisf+0x1c>
    3c78:	fa f4       	brpl	.+62     	; 0x3cb8 <__floatsisf+0x6c>
    3c7a:	bb 0f       	add	r27, r27
    3c7c:	11 f4       	brne	.+4      	; 0x3c82 <__floatsisf+0x36>
    3c7e:	60 ff       	sbrs	r22, 0
    3c80:	1b c0       	rjmp	.+54     	; 0x3cb8 <__floatsisf+0x6c>
    3c82:	6f 5f       	subi	r22, 0xFF	; 255
    3c84:	7f 4f       	sbci	r23, 0xFF	; 255
    3c86:	8f 4f       	sbci	r24, 0xFF	; 255
    3c88:	9f 4f       	sbci	r25, 0xFF	; 255
    3c8a:	16 c0       	rjmp	.+44     	; 0x3cb8 <__floatsisf+0x6c>
    3c8c:	88 23       	and	r24, r24
    3c8e:	11 f0       	breq	.+4      	; 0x3c94 <__floatsisf+0x48>
    3c90:	96 e9       	ldi	r25, 0x96	; 150
    3c92:	11 c0       	rjmp	.+34     	; 0x3cb6 <__floatsisf+0x6a>
    3c94:	77 23       	and	r23, r23
    3c96:	21 f0       	breq	.+8      	; 0x3ca0 <__floatsisf+0x54>
    3c98:	9e e8       	ldi	r25, 0x8E	; 142
    3c9a:	87 2f       	mov	r24, r23
    3c9c:	76 2f       	mov	r23, r22
    3c9e:	05 c0       	rjmp	.+10     	; 0x3caa <__floatsisf+0x5e>
    3ca0:	66 23       	and	r22, r22
    3ca2:	71 f0       	breq	.+28     	; 0x3cc0 <__floatsisf+0x74>
    3ca4:	96 e8       	ldi	r25, 0x86	; 134
    3ca6:	86 2f       	mov	r24, r22
    3ca8:	70 e0       	ldi	r23, 0x00	; 0
    3caa:	60 e0       	ldi	r22, 0x00	; 0
    3cac:	2a f0       	brmi	.+10     	; 0x3cb8 <__floatsisf+0x6c>
    3cae:	9a 95       	dec	r25
    3cb0:	66 0f       	add	r22, r22
    3cb2:	77 1f       	adc	r23, r23
    3cb4:	88 1f       	adc	r24, r24
    3cb6:	da f7       	brpl	.-10     	; 0x3cae <__floatsisf+0x62>
    3cb8:	88 0f       	add	r24, r24
    3cba:	96 95       	lsr	r25
    3cbc:	87 95       	ror	r24
    3cbe:	97 f9       	bld	r25, 7
    3cc0:	08 95       	ret

00003cc2 <__fp_inf>:
    3cc2:	97 f9       	bld	r25, 7
    3cc4:	9f 67       	ori	r25, 0x7F	; 127
    3cc6:	80 e8       	ldi	r24, 0x80	; 128
    3cc8:	70 e0       	ldi	r23, 0x00	; 0
    3cca:	60 e0       	ldi	r22, 0x00	; 0
    3ccc:	08 95       	ret

00003cce <__fp_nan>:
    3cce:	9f ef       	ldi	r25, 0xFF	; 255
    3cd0:	80 ec       	ldi	r24, 0xC0	; 192
    3cd2:	08 95       	ret

00003cd4 <__fp_pscA>:
    3cd4:	00 24       	eor	r0, r0
    3cd6:	0a 94       	dec	r0
    3cd8:	16 16       	cp	r1, r22
    3cda:	17 06       	cpc	r1, r23
    3cdc:	18 06       	cpc	r1, r24
    3cde:	09 06       	cpc	r0, r25
    3ce0:	08 95       	ret

00003ce2 <__fp_pscB>:
    3ce2:	00 24       	eor	r0, r0
    3ce4:	0a 94       	dec	r0
    3ce6:	12 16       	cp	r1, r18
    3ce8:	13 06       	cpc	r1, r19
    3cea:	14 06       	cpc	r1, r20
    3cec:	05 06       	cpc	r0, r21
    3cee:	08 95       	ret

00003cf0 <__fp_round>:
    3cf0:	09 2e       	mov	r0, r25
    3cf2:	03 94       	inc	r0
    3cf4:	00 0c       	add	r0, r0
    3cf6:	11 f4       	brne	.+4      	; 0x3cfc <__fp_round+0xc>
    3cf8:	88 23       	and	r24, r24
    3cfa:	52 f0       	brmi	.+20     	; 0x3d10 <__fp_round+0x20>
    3cfc:	bb 0f       	add	r27, r27
    3cfe:	40 f4       	brcc	.+16     	; 0x3d10 <__fp_round+0x20>
    3d00:	bf 2b       	or	r27, r31
    3d02:	11 f4       	brne	.+4      	; 0x3d08 <__fp_round+0x18>
    3d04:	60 ff       	sbrs	r22, 0
    3d06:	04 c0       	rjmp	.+8      	; 0x3d10 <__fp_round+0x20>
    3d08:	6f 5f       	subi	r22, 0xFF	; 255
    3d0a:	7f 4f       	sbci	r23, 0xFF	; 255
    3d0c:	8f 4f       	sbci	r24, 0xFF	; 255
    3d0e:	9f 4f       	sbci	r25, 0xFF	; 255
    3d10:	08 95       	ret

00003d12 <__fp_split3>:
    3d12:	57 fd       	sbrc	r21, 7
    3d14:	90 58       	subi	r25, 0x80	; 128
    3d16:	44 0f       	add	r20, r20
    3d18:	55 1f       	adc	r21, r21
    3d1a:	59 f0       	breq	.+22     	; 0x3d32 <__fp_splitA+0x10>
    3d1c:	5f 3f       	cpi	r21, 0xFF	; 255
    3d1e:	71 f0       	breq	.+28     	; 0x3d3c <__fp_splitA+0x1a>
    3d20:	47 95       	ror	r20

00003d22 <__fp_splitA>:
    3d22:	88 0f       	add	r24, r24
    3d24:	97 fb       	bst	r25, 7
    3d26:	99 1f       	adc	r25, r25
    3d28:	61 f0       	breq	.+24     	; 0x3d42 <__fp_splitA+0x20>
    3d2a:	9f 3f       	cpi	r25, 0xFF	; 255
    3d2c:	79 f0       	breq	.+30     	; 0x3d4c <__fp_splitA+0x2a>
    3d2e:	87 95       	ror	r24
    3d30:	08 95       	ret
    3d32:	12 16       	cp	r1, r18
    3d34:	13 06       	cpc	r1, r19
    3d36:	14 06       	cpc	r1, r20
    3d38:	55 1f       	adc	r21, r21
    3d3a:	f2 cf       	rjmp	.-28     	; 0x3d20 <__fp_split3+0xe>
    3d3c:	46 95       	lsr	r20
    3d3e:	f1 df       	rcall	.-30     	; 0x3d22 <__fp_splitA>
    3d40:	08 c0       	rjmp	.+16     	; 0x3d52 <__fp_splitA+0x30>
    3d42:	16 16       	cp	r1, r22
    3d44:	17 06       	cpc	r1, r23
    3d46:	18 06       	cpc	r1, r24
    3d48:	99 1f       	adc	r25, r25
    3d4a:	f1 cf       	rjmp	.-30     	; 0x3d2e <__fp_splitA+0xc>
    3d4c:	86 95       	lsr	r24
    3d4e:	71 05       	cpc	r23, r1
    3d50:	61 05       	cpc	r22, r1
    3d52:	08 94       	sec
    3d54:	08 95       	ret

00003d56 <__fp_zero>:
    3d56:	e8 94       	clt

00003d58 <__fp_szero>:
    3d58:	bb 27       	eor	r27, r27
    3d5a:	66 27       	eor	r22, r22
    3d5c:	77 27       	eor	r23, r23
    3d5e:	cb 01       	movw	r24, r22
    3d60:	97 f9       	bld	r25, 7
    3d62:	08 95       	ret
    3d64:	0e f0       	brts	.+2      	; 0x3d68 <__fp_szero+0x10>
    3d66:	23 c1       	rjmp	.+582    	; 0x3fae <__fp_mpack>
    3d68:	b2 cf       	rjmp	.-156    	; 0x3cce <__fp_nan>
    3d6a:	68 94       	set
    3d6c:	aa cf       	rjmp	.-172    	; 0x3cc2 <__fp_inf>

00003d6e <log>:
    3d6e:	d9 df       	rcall	.-78     	; 0x3d22 <__fp_splitA>
    3d70:	c8 f3       	brcs	.-14     	; 0x3d64 <__fp_szero+0xc>
    3d72:	99 23       	and	r25, r25
    3d74:	d1 f3       	breq	.-12     	; 0x3d6a <__fp_szero+0x12>
    3d76:	c6 f3       	brts	.-16     	; 0x3d68 <__fp_szero+0x10>
    3d78:	df 93       	push	r29
    3d7a:	cf 93       	push	r28
    3d7c:	1f 93       	push	r17
    3d7e:	0f 93       	push	r16
    3d80:	ff 92       	push	r15
    3d82:	c9 2f       	mov	r28, r25
    3d84:	dd 27       	eor	r29, r29
    3d86:	88 23       	and	r24, r24
    3d88:	2a f0       	brmi	.+10     	; 0x3d94 <log+0x26>
    3d8a:	21 97       	sbiw	r28, 0x01	; 1
    3d8c:	66 0f       	add	r22, r22
    3d8e:	77 1f       	adc	r23, r23
    3d90:	88 1f       	adc	r24, r24
    3d92:	da f7       	brpl	.-10     	; 0x3d8a <log+0x1c>
    3d94:	20 e0       	ldi	r18, 0x00	; 0
    3d96:	30 e0       	ldi	r19, 0x00	; 0
    3d98:	40 e8       	ldi	r20, 0x80	; 128
    3d9a:	5f eb       	ldi	r21, 0xBF	; 191
    3d9c:	9f e3       	ldi	r25, 0x3F	; 63
    3d9e:	88 39       	cpi	r24, 0x98	; 152
    3da0:	20 f0       	brcs	.+8      	; 0x3daa <log+0x3c>
    3da2:	80 3e       	cpi	r24, 0xE0	; 224
    3da4:	30 f0       	brcs	.+12     	; 0x3db2 <log+0x44>
    3da6:	21 96       	adiw	r28, 0x01	; 1
    3da8:	8f 77       	andi	r24, 0x7F	; 127
    3daa:	51 de       	rcall	.-862    	; 0x3a4e <__addsf3>
    3dac:	ea e7       	ldi	r30, 0x7A	; 122
    3dae:	f2 e0       	ldi	r31, 0x02	; 2
    3db0:	03 c0       	rjmp	.+6      	; 0x3db8 <log+0x4a>
    3db2:	4d de       	rcall	.-870    	; 0x3a4e <__addsf3>
    3db4:	e7 ea       	ldi	r30, 0xA7	; 167
    3db6:	f2 e0       	ldi	r31, 0x02	; 2
    3db8:	08 d1       	rcall	.+528    	; 0x3fca <__fp_powser>
    3dba:	8b 01       	movw	r16, r22
    3dbc:	be 01       	movw	r22, r28
    3dbe:	ec 01       	movw	r28, r24
    3dc0:	fb 2e       	mov	r15, r27
    3dc2:	6f 57       	subi	r22, 0x7F	; 127
    3dc4:	71 09       	sbc	r23, r1
    3dc6:	75 95       	asr	r23
    3dc8:	77 1f       	adc	r23, r23
    3dca:	88 0b       	sbc	r24, r24
    3dcc:	99 0b       	sbc	r25, r25
    3dce:	3e df       	rcall	.-388    	; 0x3c4c <__floatsisf>
    3dd0:	28 e1       	ldi	r18, 0x18	; 24
    3dd2:	32 e7       	ldi	r19, 0x72	; 114
    3dd4:	41 e3       	ldi	r20, 0x31	; 49
    3dd6:	5f e3       	ldi	r21, 0x3F	; 63
    3dd8:	16 d0       	rcall	.+44     	; 0x3e06 <__mulsf3x>
    3dda:	af 2d       	mov	r26, r15
    3ddc:	98 01       	movw	r18, r16
    3dde:	ae 01       	movw	r20, r28
    3de0:	ff 90       	pop	r15
    3de2:	0f 91       	pop	r16
    3de4:	1f 91       	pop	r17
    3de6:	cf 91       	pop	r28
    3de8:	df 91       	pop	r29
    3dea:	42 de       	rcall	.-892    	; 0x3a70 <__addsf3x>
    3dec:	81 cf       	rjmp	.-254    	; 0x3cf0 <__fp_round>

00003dee <__mulsf3>:
    3dee:	0b d0       	rcall	.+22     	; 0x3e06 <__mulsf3x>
    3df0:	7f cf       	rjmp	.-258    	; 0x3cf0 <__fp_round>
    3df2:	70 df       	rcall	.-288    	; 0x3cd4 <__fp_pscA>
    3df4:	28 f0       	brcs	.+10     	; 0x3e00 <__mulsf3+0x12>
    3df6:	75 df       	rcall	.-278    	; 0x3ce2 <__fp_pscB>
    3df8:	18 f0       	brcs	.+6      	; 0x3e00 <__mulsf3+0x12>
    3dfa:	95 23       	and	r25, r21
    3dfc:	09 f0       	breq	.+2      	; 0x3e00 <__mulsf3+0x12>
    3dfe:	61 cf       	rjmp	.-318    	; 0x3cc2 <__fp_inf>
    3e00:	66 cf       	rjmp	.-308    	; 0x3cce <__fp_nan>
    3e02:	11 24       	eor	r1, r1
    3e04:	a9 cf       	rjmp	.-174    	; 0x3d58 <__fp_szero>

00003e06 <__mulsf3x>:
    3e06:	85 df       	rcall	.-246    	; 0x3d12 <__fp_split3>
    3e08:	a0 f3       	brcs	.-24     	; 0x3df2 <__mulsf3+0x4>

00003e0a <__mulsf3_pse>:
    3e0a:	95 9f       	mul	r25, r21
    3e0c:	d1 f3       	breq	.-12     	; 0x3e02 <__mulsf3+0x14>
    3e0e:	95 0f       	add	r25, r21
    3e10:	50 e0       	ldi	r21, 0x00	; 0
    3e12:	55 1f       	adc	r21, r21
    3e14:	62 9f       	mul	r22, r18
    3e16:	f0 01       	movw	r30, r0
    3e18:	72 9f       	mul	r23, r18
    3e1a:	bb 27       	eor	r27, r27
    3e1c:	f0 0d       	add	r31, r0
    3e1e:	b1 1d       	adc	r27, r1
    3e20:	63 9f       	mul	r22, r19
    3e22:	aa 27       	eor	r26, r26
    3e24:	f0 0d       	add	r31, r0
    3e26:	b1 1d       	adc	r27, r1
    3e28:	aa 1f       	adc	r26, r26
    3e2a:	64 9f       	mul	r22, r20
    3e2c:	66 27       	eor	r22, r22
    3e2e:	b0 0d       	add	r27, r0
    3e30:	a1 1d       	adc	r26, r1
    3e32:	66 1f       	adc	r22, r22
    3e34:	82 9f       	mul	r24, r18
    3e36:	22 27       	eor	r18, r18
    3e38:	b0 0d       	add	r27, r0
    3e3a:	a1 1d       	adc	r26, r1
    3e3c:	62 1f       	adc	r22, r18
    3e3e:	73 9f       	mul	r23, r19
    3e40:	b0 0d       	add	r27, r0
    3e42:	a1 1d       	adc	r26, r1
    3e44:	62 1f       	adc	r22, r18
    3e46:	83 9f       	mul	r24, r19
    3e48:	a0 0d       	add	r26, r0
    3e4a:	61 1d       	adc	r22, r1
    3e4c:	22 1f       	adc	r18, r18
    3e4e:	74 9f       	mul	r23, r20
    3e50:	33 27       	eor	r19, r19
    3e52:	a0 0d       	add	r26, r0
    3e54:	61 1d       	adc	r22, r1
    3e56:	23 1f       	adc	r18, r19
    3e58:	84 9f       	mul	r24, r20
    3e5a:	60 0d       	add	r22, r0
    3e5c:	21 1d       	adc	r18, r1
    3e5e:	82 2f       	mov	r24, r18
    3e60:	76 2f       	mov	r23, r22
    3e62:	6a 2f       	mov	r22, r26
    3e64:	11 24       	eor	r1, r1
    3e66:	9f 57       	subi	r25, 0x7F	; 127
    3e68:	50 40       	sbci	r21, 0x00	; 0
    3e6a:	8a f0       	brmi	.+34     	; 0x3e8e <__mulsf3_pse+0x84>
    3e6c:	e1 f0       	breq	.+56     	; 0x3ea6 <__mulsf3_pse+0x9c>
    3e6e:	88 23       	and	r24, r24
    3e70:	4a f0       	brmi	.+18     	; 0x3e84 <__mulsf3_pse+0x7a>
    3e72:	ee 0f       	add	r30, r30
    3e74:	ff 1f       	adc	r31, r31
    3e76:	bb 1f       	adc	r27, r27
    3e78:	66 1f       	adc	r22, r22
    3e7a:	77 1f       	adc	r23, r23
    3e7c:	88 1f       	adc	r24, r24
    3e7e:	91 50       	subi	r25, 0x01	; 1
    3e80:	50 40       	sbci	r21, 0x00	; 0
    3e82:	a9 f7       	brne	.-22     	; 0x3e6e <__mulsf3_pse+0x64>
    3e84:	9e 3f       	cpi	r25, 0xFE	; 254
    3e86:	51 05       	cpc	r21, r1
    3e88:	70 f0       	brcs	.+28     	; 0x3ea6 <__mulsf3_pse+0x9c>
    3e8a:	1b cf       	rjmp	.-458    	; 0x3cc2 <__fp_inf>
    3e8c:	65 cf       	rjmp	.-310    	; 0x3d58 <__fp_szero>
    3e8e:	5f 3f       	cpi	r21, 0xFF	; 255
    3e90:	ec f3       	brlt	.-6      	; 0x3e8c <__mulsf3_pse+0x82>
    3e92:	98 3e       	cpi	r25, 0xE8	; 232
    3e94:	dc f3       	brlt	.-10     	; 0x3e8c <__mulsf3_pse+0x82>
    3e96:	86 95       	lsr	r24
    3e98:	77 95       	ror	r23
    3e9a:	67 95       	ror	r22
    3e9c:	b7 95       	ror	r27
    3e9e:	f7 95       	ror	r31
    3ea0:	e7 95       	ror	r30
    3ea2:	9f 5f       	subi	r25, 0xFF	; 255
    3ea4:	c1 f7       	brne	.-16     	; 0x3e96 <__mulsf3_pse+0x8c>
    3ea6:	fe 2b       	or	r31, r30
    3ea8:	88 0f       	add	r24, r24
    3eaa:	91 1d       	adc	r25, r1
    3eac:	96 95       	lsr	r25
    3eae:	87 95       	ror	r24
    3eb0:	97 f9       	bld	r25, 7
    3eb2:	08 95       	ret

00003eb4 <pow>:
    3eb4:	fa 01       	movw	r30, r20
    3eb6:	ee 0f       	add	r30, r30
    3eb8:	ff 1f       	adc	r31, r31
    3eba:	30 96       	adiw	r30, 0x00	; 0
    3ebc:	21 05       	cpc	r18, r1
    3ebe:	31 05       	cpc	r19, r1
    3ec0:	99 f1       	breq	.+102    	; 0x3f28 <pow+0x74>
    3ec2:	61 15       	cp	r22, r1
    3ec4:	71 05       	cpc	r23, r1
    3ec6:	61 f4       	brne	.+24     	; 0x3ee0 <pow+0x2c>
    3ec8:	80 38       	cpi	r24, 0x80	; 128
    3eca:	bf e3       	ldi	r27, 0x3F	; 63
    3ecc:	9b 07       	cpc	r25, r27
    3ece:	49 f1       	breq	.+82     	; 0x3f22 <pow+0x6e>
    3ed0:	68 94       	set
    3ed2:	90 38       	cpi	r25, 0x80	; 128
    3ed4:	81 05       	cpc	r24, r1
    3ed6:	61 f0       	breq	.+24     	; 0x3ef0 <pow+0x3c>
    3ed8:	80 38       	cpi	r24, 0x80	; 128
    3eda:	bf ef       	ldi	r27, 0xFF	; 255
    3edc:	9b 07       	cpc	r25, r27
    3ede:	41 f0       	breq	.+16     	; 0x3ef0 <pow+0x3c>
    3ee0:	99 23       	and	r25, r25
    3ee2:	42 f5       	brpl	.+80     	; 0x3f34 <pow+0x80>
    3ee4:	ff 3f       	cpi	r31, 0xFF	; 255
    3ee6:	e1 05       	cpc	r30, r1
    3ee8:	31 05       	cpc	r19, r1
    3eea:	21 05       	cpc	r18, r1
    3eec:	11 f1       	breq	.+68     	; 0x3f32 <pow+0x7e>
    3eee:	e8 94       	clt
    3ef0:	08 94       	sec
    3ef2:	e7 95       	ror	r30
    3ef4:	d9 01       	movw	r26, r18
    3ef6:	aa 23       	and	r26, r26
    3ef8:	29 f4       	brne	.+10     	; 0x3f04 <pow+0x50>
    3efa:	ab 2f       	mov	r26, r27
    3efc:	be 2f       	mov	r27, r30
    3efe:	f8 5f       	subi	r31, 0xF8	; 248
    3f00:	d0 f3       	brcs	.-12     	; 0x3ef6 <pow+0x42>
    3f02:	10 c0       	rjmp	.+32     	; 0x3f24 <pow+0x70>
    3f04:	ff 5f       	subi	r31, 0xFF	; 255
    3f06:	70 f4       	brcc	.+28     	; 0x3f24 <pow+0x70>
    3f08:	a6 95       	lsr	r26
    3f0a:	e0 f7       	brcc	.-8      	; 0x3f04 <pow+0x50>
    3f0c:	f7 39       	cpi	r31, 0x97	; 151
    3f0e:	50 f0       	brcs	.+20     	; 0x3f24 <pow+0x70>
    3f10:	19 f0       	breq	.+6      	; 0x3f18 <pow+0x64>
    3f12:	ff 3a       	cpi	r31, 0xAF	; 175
    3f14:	38 f4       	brcc	.+14     	; 0x3f24 <pow+0x70>
    3f16:	9f 77       	andi	r25, 0x7F	; 127
    3f18:	9f 93       	push	r25
    3f1a:	0c d0       	rcall	.+24     	; 0x3f34 <pow+0x80>
    3f1c:	0f 90       	pop	r0
    3f1e:	07 fc       	sbrc	r0, 7
    3f20:	90 58       	subi	r25, 0x80	; 128
    3f22:	08 95       	ret
    3f24:	3e f0       	brts	.+14     	; 0x3f34 <pow+0x80>
    3f26:	d3 ce       	rjmp	.-602    	; 0x3cce <__fp_nan>
    3f28:	60 e0       	ldi	r22, 0x00	; 0
    3f2a:	70 e0       	ldi	r23, 0x00	; 0
    3f2c:	80 e8       	ldi	r24, 0x80	; 128
    3f2e:	9f e3       	ldi	r25, 0x3F	; 63
    3f30:	08 95       	ret
    3f32:	4f e7       	ldi	r20, 0x7F	; 127
    3f34:	9f 77       	andi	r25, 0x7F	; 127
    3f36:	5f 93       	push	r21
    3f38:	4f 93       	push	r20
    3f3a:	3f 93       	push	r19
    3f3c:	2f 93       	push	r18
    3f3e:	17 df       	rcall	.-466    	; 0x3d6e <log>
    3f40:	2f 91       	pop	r18
    3f42:	3f 91       	pop	r19
    3f44:	4f 91       	pop	r20
    3f46:	5f 91       	pop	r21
    3f48:	52 df       	rcall	.-348    	; 0x3dee <__mulsf3>
    3f4a:	05 c0       	rjmp	.+10     	; 0x3f56 <exp>
    3f4c:	19 f4       	brne	.+6      	; 0x3f54 <pow+0xa0>
    3f4e:	0e f0       	brts	.+2      	; 0x3f52 <pow+0x9e>
    3f50:	b8 ce       	rjmp	.-656    	; 0x3cc2 <__fp_inf>
    3f52:	01 cf       	rjmp	.-510    	; 0x3d56 <__fp_zero>
    3f54:	bc ce       	rjmp	.-648    	; 0x3cce <__fp_nan>

00003f56 <exp>:
    3f56:	e5 de       	rcall	.-566    	; 0x3d22 <__fp_splitA>
    3f58:	c8 f3       	brcs	.-14     	; 0x3f4c <pow+0x98>
    3f5a:	96 38       	cpi	r25, 0x86	; 134
    3f5c:	c0 f7       	brcc	.-16     	; 0x3f4e <pow+0x9a>
    3f5e:	07 f8       	bld	r0, 7
    3f60:	0f 92       	push	r0
    3f62:	e8 94       	clt
    3f64:	2b e3       	ldi	r18, 0x3B	; 59
    3f66:	3a ea       	ldi	r19, 0xAA	; 170
    3f68:	48 eb       	ldi	r20, 0xB8	; 184
    3f6a:	5f e7       	ldi	r21, 0x7F	; 127
    3f6c:	4e df       	rcall	.-356    	; 0x3e0a <__mulsf3_pse>
    3f6e:	0f 92       	push	r0
    3f70:	0f 92       	push	r0
    3f72:	0f 92       	push	r0
    3f74:	4d b7       	in	r20, 0x3d	; 61
    3f76:	5e b7       	in	r21, 0x3e	; 62
    3f78:	0f 92       	push	r0
    3f7a:	89 d0       	rcall	.+274    	; 0x408e <modf>
    3f7c:	e4 ed       	ldi	r30, 0xD4	; 212
    3f7e:	f2 e0       	ldi	r31, 0x02	; 2
    3f80:	24 d0       	rcall	.+72     	; 0x3fca <__fp_powser>
    3f82:	4f 91       	pop	r20
    3f84:	5f 91       	pop	r21
    3f86:	ef 91       	pop	r30
    3f88:	ff 91       	pop	r31
    3f8a:	e5 95       	asr	r30
    3f8c:	ee 1f       	adc	r30, r30
    3f8e:	ff 1f       	adc	r31, r31
    3f90:	49 f0       	breq	.+18     	; 0x3fa4 <exp+0x4e>
    3f92:	fe 57       	subi	r31, 0x7E	; 126
    3f94:	e0 68       	ori	r30, 0x80	; 128
    3f96:	44 27       	eor	r20, r20
    3f98:	ee 0f       	add	r30, r30
    3f9a:	44 1f       	adc	r20, r20
    3f9c:	fa 95       	dec	r31
    3f9e:	e1 f7       	brne	.-8      	; 0x3f98 <exp+0x42>
    3fa0:	41 95       	neg	r20
    3fa2:	55 0b       	sbc	r21, r21
    3fa4:	40 d0       	rcall	.+128    	; 0x4026 <ldexp>
    3fa6:	0f 90       	pop	r0
    3fa8:	07 fe       	sbrs	r0, 7
    3faa:	34 c0       	rjmp	.+104    	; 0x4014 <inverse>
    3fac:	08 95       	ret

00003fae <__fp_mpack>:
    3fae:	9f 3f       	cpi	r25, 0xFF	; 255
    3fb0:	31 f0       	breq	.+12     	; 0x3fbe <__fp_mpack_finite+0xc>

00003fb2 <__fp_mpack_finite>:
    3fb2:	91 50       	subi	r25, 0x01	; 1
    3fb4:	20 f4       	brcc	.+8      	; 0x3fbe <__fp_mpack_finite+0xc>
    3fb6:	87 95       	ror	r24
    3fb8:	77 95       	ror	r23
    3fba:	67 95       	ror	r22
    3fbc:	b7 95       	ror	r27
    3fbe:	88 0f       	add	r24, r24
    3fc0:	91 1d       	adc	r25, r1
    3fc2:	96 95       	lsr	r25
    3fc4:	87 95       	ror	r24
    3fc6:	97 f9       	bld	r25, 7
    3fc8:	08 95       	ret

00003fca <__fp_powser>:
    3fca:	df 93       	push	r29
    3fcc:	cf 93       	push	r28
    3fce:	1f 93       	push	r17
    3fd0:	0f 93       	push	r16
    3fd2:	ff 92       	push	r15
    3fd4:	ef 92       	push	r14
    3fd6:	df 92       	push	r13
    3fd8:	7b 01       	movw	r14, r22
    3fda:	8c 01       	movw	r16, r24
    3fdc:	68 94       	set
    3fde:	05 c0       	rjmp	.+10     	; 0x3fea <__fp_powser+0x20>
    3fe0:	da 2e       	mov	r13, r26
    3fe2:	ef 01       	movw	r28, r30
    3fe4:	10 df       	rcall	.-480    	; 0x3e06 <__mulsf3x>
    3fe6:	fe 01       	movw	r30, r28
    3fe8:	e8 94       	clt
    3fea:	a5 91       	lpm	r26, Z+
    3fec:	25 91       	lpm	r18, Z+
    3fee:	35 91       	lpm	r19, Z+
    3ff0:	45 91       	lpm	r20, Z+
    3ff2:	55 91       	lpm	r21, Z+
    3ff4:	ae f3       	brts	.-22     	; 0x3fe0 <__fp_powser+0x16>
    3ff6:	ef 01       	movw	r28, r30
    3ff8:	3b dd       	rcall	.-1418   	; 0x3a70 <__addsf3x>
    3ffa:	fe 01       	movw	r30, r28
    3ffc:	97 01       	movw	r18, r14
    3ffe:	a8 01       	movw	r20, r16
    4000:	da 94       	dec	r13
    4002:	79 f7       	brne	.-34     	; 0x3fe2 <__fp_powser+0x18>
    4004:	df 90       	pop	r13
    4006:	ef 90       	pop	r14
    4008:	ff 90       	pop	r15
    400a:	0f 91       	pop	r16
    400c:	1f 91       	pop	r17
    400e:	cf 91       	pop	r28
    4010:	df 91       	pop	r29
    4012:	08 95       	ret

00004014 <inverse>:
    4014:	9b 01       	movw	r18, r22
    4016:	ac 01       	movw	r20, r24
    4018:	60 e0       	ldi	r22, 0x00	; 0
    401a:	70 e0       	ldi	r23, 0x00	; 0
    401c:	80 e8       	ldi	r24, 0x80	; 128
    401e:	9f e3       	ldi	r25, 0x3F	; 63
    4020:	7a cd       	rjmp	.-1292   	; 0x3b16 <__divsf3>
    4022:	4f ce       	rjmp	.-866    	; 0x3cc2 <__fp_inf>
    4024:	c4 cf       	rjmp	.-120    	; 0x3fae <__fp_mpack>

00004026 <ldexp>:
    4026:	7d de       	rcall	.-774    	; 0x3d22 <__fp_splitA>
    4028:	e8 f3       	brcs	.-6      	; 0x4024 <inverse+0x10>
    402a:	99 23       	and	r25, r25
    402c:	d9 f3       	breq	.-10     	; 0x4024 <inverse+0x10>
    402e:	94 0f       	add	r25, r20
    4030:	51 1d       	adc	r21, r1
    4032:	bb f3       	brvs	.-18     	; 0x4022 <inverse+0xe>
    4034:	91 50       	subi	r25, 0x01	; 1
    4036:	50 40       	sbci	r21, 0x00	; 0
    4038:	94 f0       	brlt	.+36     	; 0x405e <ldexp+0x38>
    403a:	59 f0       	breq	.+22     	; 0x4052 <ldexp+0x2c>
    403c:	88 23       	and	r24, r24
    403e:	32 f0       	brmi	.+12     	; 0x404c <ldexp+0x26>
    4040:	66 0f       	add	r22, r22
    4042:	77 1f       	adc	r23, r23
    4044:	88 1f       	adc	r24, r24
    4046:	91 50       	subi	r25, 0x01	; 1
    4048:	50 40       	sbci	r21, 0x00	; 0
    404a:	c1 f7       	brne	.-16     	; 0x403c <ldexp+0x16>
    404c:	9e 3f       	cpi	r25, 0xFE	; 254
    404e:	51 05       	cpc	r21, r1
    4050:	44 f7       	brge	.-48     	; 0x4022 <inverse+0xe>
    4052:	88 0f       	add	r24, r24
    4054:	91 1d       	adc	r25, r1
    4056:	96 95       	lsr	r25
    4058:	87 95       	ror	r24
    405a:	97 f9       	bld	r25, 7
    405c:	08 95       	ret
    405e:	5f 3f       	cpi	r21, 0xFF	; 255
    4060:	ac f0       	brlt	.+42     	; 0x408c <ldexp+0x66>
    4062:	98 3e       	cpi	r25, 0xE8	; 232
    4064:	9c f0       	brlt	.+38     	; 0x408c <ldexp+0x66>
    4066:	bb 27       	eor	r27, r27
    4068:	86 95       	lsr	r24
    406a:	77 95       	ror	r23
    406c:	67 95       	ror	r22
    406e:	b7 95       	ror	r27
    4070:	08 f4       	brcc	.+2      	; 0x4074 <ldexp+0x4e>
    4072:	b1 60       	ori	r27, 0x01	; 1
    4074:	93 95       	inc	r25
    4076:	c1 f7       	brne	.-16     	; 0x4068 <ldexp+0x42>
    4078:	bb 0f       	add	r27, r27
    407a:	58 f7       	brcc	.-42     	; 0x4052 <ldexp+0x2c>
    407c:	11 f4       	brne	.+4      	; 0x4082 <ldexp+0x5c>
    407e:	60 ff       	sbrs	r22, 0
    4080:	e8 cf       	rjmp	.-48     	; 0x4052 <ldexp+0x2c>
    4082:	6f 5f       	subi	r22, 0xFF	; 255
    4084:	7f 4f       	sbci	r23, 0xFF	; 255
    4086:	8f 4f       	sbci	r24, 0xFF	; 255
    4088:	9f 4f       	sbci	r25, 0xFF	; 255
    408a:	e3 cf       	rjmp	.-58     	; 0x4052 <ldexp+0x2c>
    408c:	65 ce       	rjmp	.-822    	; 0x3d58 <__fp_szero>

0000408e <modf>:
    408e:	fa 01       	movw	r30, r20
    4090:	dc 01       	movw	r26, r24
    4092:	aa 0f       	add	r26, r26
    4094:	bb 1f       	adc	r27, r27
    4096:	9b 01       	movw	r18, r22
    4098:	ac 01       	movw	r20, r24
    409a:	bf 57       	subi	r27, 0x7F	; 127
    409c:	28 f4       	brcc	.+10     	; 0x40a8 <modf+0x1a>
    409e:	22 27       	eor	r18, r18
    40a0:	33 27       	eor	r19, r19
    40a2:	44 27       	eor	r20, r20
    40a4:	50 78       	andi	r21, 0x80	; 128
    40a6:	1f c0       	rjmp	.+62     	; 0x40e6 <modf+0x58>
    40a8:	b7 51       	subi	r27, 0x17	; 23
    40aa:	88 f4       	brcc	.+34     	; 0x40ce <modf+0x40>
    40ac:	ab 2f       	mov	r26, r27
    40ae:	00 24       	eor	r0, r0
    40b0:	46 95       	lsr	r20
    40b2:	37 95       	ror	r19
    40b4:	27 95       	ror	r18
    40b6:	01 1c       	adc	r0, r1
    40b8:	a3 95       	inc	r26
    40ba:	d2 f3       	brmi	.-12     	; 0x40b0 <modf+0x22>
    40bc:	00 20       	and	r0, r0
    40be:	69 f0       	breq	.+26     	; 0x40da <modf+0x4c>
    40c0:	22 0f       	add	r18, r18
    40c2:	33 1f       	adc	r19, r19
    40c4:	44 1f       	adc	r20, r20
    40c6:	b3 95       	inc	r27
    40c8:	da f3       	brmi	.-10     	; 0x40c0 <modf+0x32>
    40ca:	0d d0       	rcall	.+26     	; 0x40e6 <modf+0x58>
    40cc:	bf cc       	rjmp	.-1666   	; 0x3a4c <__subsf3>
    40ce:	61 30       	cpi	r22, 0x01	; 1
    40d0:	71 05       	cpc	r23, r1
    40d2:	a0 e8       	ldi	r26, 0x80	; 128
    40d4:	8a 07       	cpc	r24, r26
    40d6:	b9 46       	sbci	r27, 0x69	; 105
    40d8:	30 f4       	brcc	.+12     	; 0x40e6 <modf+0x58>
    40da:	9b 01       	movw	r18, r22
    40dc:	ac 01       	movw	r20, r24
    40de:	66 27       	eor	r22, r22
    40e0:	77 27       	eor	r23, r23
    40e2:	88 27       	eor	r24, r24
    40e4:	90 78       	andi	r25, 0x80	; 128
    40e6:	30 96       	adiw	r30, 0x00	; 0
    40e8:	21 f0       	breq	.+8      	; 0x40f2 <modf+0x64>
    40ea:	20 83       	st	Z, r18
    40ec:	31 83       	std	Z+1, r19	; 0x01
    40ee:	42 83       	std	Z+2, r20	; 0x02
    40f0:	53 83       	std	Z+3, r21	; 0x03
    40f2:	08 95       	ret

000040f4 <vfprintf>:
    40f4:	2f 92       	push	r2
    40f6:	3f 92       	push	r3
    40f8:	4f 92       	push	r4
    40fa:	5f 92       	push	r5
    40fc:	6f 92       	push	r6
    40fe:	7f 92       	push	r7
    4100:	8f 92       	push	r8
    4102:	9f 92       	push	r9
    4104:	af 92       	push	r10
    4106:	bf 92       	push	r11
    4108:	cf 92       	push	r12
    410a:	df 92       	push	r13
    410c:	ef 92       	push	r14
    410e:	ff 92       	push	r15
    4110:	0f 93       	push	r16
    4112:	1f 93       	push	r17
    4114:	cf 93       	push	r28
    4116:	df 93       	push	r29
    4118:	cd b7       	in	r28, 0x3d	; 61
    411a:	de b7       	in	r29, 0x3e	; 62
    411c:	60 97       	sbiw	r28, 0x10	; 16
    411e:	cd bf       	out	0x3d, r28	; 61
    4120:	de bf       	out	0x3e, r29	; 62
    4122:	7c 01       	movw	r14, r24
    4124:	1b 01       	movw	r2, r22
    4126:	6a 01       	movw	r12, r20
    4128:	fc 01       	movw	r30, r24
    412a:	16 82       	std	Z+6, r1	; 0x06
    412c:	17 82       	std	Z+7, r1	; 0x07
    412e:	83 81       	ldd	r24, Z+3	; 0x03
    4130:	81 ff       	sbrs	r24, 1
    4132:	2a c3       	rjmp	.+1620   	; 0x4788 <vfprintf+0x694>
    4134:	9e 01       	movw	r18, r28
    4136:	2f 5f       	subi	r18, 0xFF	; 255
    4138:	3f 4f       	sbci	r19, 0xFF	; 255
    413a:	39 01       	movw	r6, r18
    413c:	f7 01       	movw	r30, r14
    413e:	93 81       	ldd	r25, Z+3	; 0x03
    4140:	f1 01       	movw	r30, r2
    4142:	93 fd       	sbrc	r25, 3
    4144:	85 91       	lpm	r24, Z+
    4146:	93 ff       	sbrs	r25, 3
    4148:	81 91       	ld	r24, Z+
    414a:	1f 01       	movw	r2, r30
    414c:	88 23       	and	r24, r24
    414e:	09 f4       	brne	.+2      	; 0x4152 <vfprintf+0x5e>
    4150:	17 c3       	rjmp	.+1582   	; 0x4780 <vfprintf+0x68c>
    4152:	85 32       	cpi	r24, 0x25	; 37
    4154:	39 f4       	brne	.+14     	; 0x4164 <vfprintf+0x70>
    4156:	93 fd       	sbrc	r25, 3
    4158:	85 91       	lpm	r24, Z+
    415a:	93 ff       	sbrs	r25, 3
    415c:	81 91       	ld	r24, Z+
    415e:	1f 01       	movw	r2, r30
    4160:	85 32       	cpi	r24, 0x25	; 37
    4162:	31 f4       	brne	.+12     	; 0x4170 <vfprintf+0x7c>
    4164:	b7 01       	movw	r22, r14
    4166:	90 e0       	ldi	r25, 0x00	; 0
    4168:	b2 d5       	rcall	.+2916   	; 0x4cce <fputc>
    416a:	56 01       	movw	r10, r12
    416c:	65 01       	movw	r12, r10
    416e:	e6 cf       	rjmp	.-52     	; 0x413c <vfprintf+0x48>
    4170:	10 e0       	ldi	r17, 0x00	; 0
    4172:	51 2c       	mov	r5, r1
    4174:	91 2c       	mov	r9, r1
    4176:	ff e1       	ldi	r31, 0x1F	; 31
    4178:	f9 15       	cp	r31, r9
    417a:	d8 f0       	brcs	.+54     	; 0x41b2 <vfprintf+0xbe>
    417c:	8b 32       	cpi	r24, 0x2B	; 43
    417e:	79 f0       	breq	.+30     	; 0x419e <vfprintf+0xaa>
    4180:	38 f4       	brcc	.+14     	; 0x4190 <vfprintf+0x9c>
    4182:	80 32       	cpi	r24, 0x20	; 32
    4184:	79 f0       	breq	.+30     	; 0x41a4 <vfprintf+0xb0>
    4186:	83 32       	cpi	r24, 0x23	; 35
    4188:	a1 f4       	brne	.+40     	; 0x41b2 <vfprintf+0xbe>
    418a:	f9 2d       	mov	r31, r9
    418c:	f0 61       	ori	r31, 0x10	; 16
    418e:	2e c0       	rjmp	.+92     	; 0x41ec <vfprintf+0xf8>
    4190:	8d 32       	cpi	r24, 0x2D	; 45
    4192:	61 f0       	breq	.+24     	; 0x41ac <vfprintf+0xb8>
    4194:	80 33       	cpi	r24, 0x30	; 48
    4196:	69 f4       	brne	.+26     	; 0x41b2 <vfprintf+0xbe>
    4198:	29 2d       	mov	r18, r9
    419a:	21 60       	ori	r18, 0x01	; 1
    419c:	2d c0       	rjmp	.+90     	; 0x41f8 <vfprintf+0x104>
    419e:	39 2d       	mov	r19, r9
    41a0:	32 60       	ori	r19, 0x02	; 2
    41a2:	93 2e       	mov	r9, r19
    41a4:	89 2d       	mov	r24, r9
    41a6:	84 60       	ori	r24, 0x04	; 4
    41a8:	98 2e       	mov	r9, r24
    41aa:	2a c0       	rjmp	.+84     	; 0x4200 <vfprintf+0x10c>
    41ac:	e9 2d       	mov	r30, r9
    41ae:	e8 60       	ori	r30, 0x08	; 8
    41b0:	15 c0       	rjmp	.+42     	; 0x41dc <vfprintf+0xe8>
    41b2:	97 fc       	sbrc	r9, 7
    41b4:	2d c0       	rjmp	.+90     	; 0x4210 <vfprintf+0x11c>
    41b6:	20 ed       	ldi	r18, 0xD0	; 208
    41b8:	28 0f       	add	r18, r24
    41ba:	2a 30       	cpi	r18, 0x0A	; 10
    41bc:	88 f4       	brcc	.+34     	; 0x41e0 <vfprintf+0xec>
    41be:	96 fe       	sbrs	r9, 6
    41c0:	06 c0       	rjmp	.+12     	; 0x41ce <vfprintf+0xda>
    41c2:	3a e0       	ldi	r19, 0x0A	; 10
    41c4:	13 9f       	mul	r17, r19
    41c6:	20 0d       	add	r18, r0
    41c8:	11 24       	eor	r1, r1
    41ca:	12 2f       	mov	r17, r18
    41cc:	19 c0       	rjmp	.+50     	; 0x4200 <vfprintf+0x10c>
    41ce:	8a e0       	ldi	r24, 0x0A	; 10
    41d0:	58 9e       	mul	r5, r24
    41d2:	20 0d       	add	r18, r0
    41d4:	11 24       	eor	r1, r1
    41d6:	52 2e       	mov	r5, r18
    41d8:	e9 2d       	mov	r30, r9
    41da:	e0 62       	ori	r30, 0x20	; 32
    41dc:	9e 2e       	mov	r9, r30
    41de:	10 c0       	rjmp	.+32     	; 0x4200 <vfprintf+0x10c>
    41e0:	8e 32       	cpi	r24, 0x2E	; 46
    41e2:	31 f4       	brne	.+12     	; 0x41f0 <vfprintf+0xfc>
    41e4:	96 fc       	sbrc	r9, 6
    41e6:	cc c2       	rjmp	.+1432   	; 0x4780 <vfprintf+0x68c>
    41e8:	f9 2d       	mov	r31, r9
    41ea:	f0 64       	ori	r31, 0x40	; 64
    41ec:	9f 2e       	mov	r9, r31
    41ee:	08 c0       	rjmp	.+16     	; 0x4200 <vfprintf+0x10c>
    41f0:	8c 36       	cpi	r24, 0x6C	; 108
    41f2:	21 f4       	brne	.+8      	; 0x41fc <vfprintf+0x108>
    41f4:	29 2d       	mov	r18, r9
    41f6:	20 68       	ori	r18, 0x80	; 128
    41f8:	92 2e       	mov	r9, r18
    41fa:	02 c0       	rjmp	.+4      	; 0x4200 <vfprintf+0x10c>
    41fc:	88 36       	cpi	r24, 0x68	; 104
    41fe:	41 f4       	brne	.+16     	; 0x4210 <vfprintf+0x11c>
    4200:	f1 01       	movw	r30, r2
    4202:	93 fd       	sbrc	r25, 3
    4204:	85 91       	lpm	r24, Z+
    4206:	93 ff       	sbrs	r25, 3
    4208:	81 91       	ld	r24, Z+
    420a:	1f 01       	movw	r2, r30
    420c:	81 11       	cpse	r24, r1
    420e:	b3 cf       	rjmp	.-154    	; 0x4176 <vfprintf+0x82>
    4210:	9b eb       	ldi	r25, 0xBB	; 187
    4212:	98 0f       	add	r25, r24
    4214:	93 30       	cpi	r25, 0x03	; 3
    4216:	20 f4       	brcc	.+8      	; 0x4220 <vfprintf+0x12c>
    4218:	99 2d       	mov	r25, r9
    421a:	90 61       	ori	r25, 0x10	; 16
    421c:	80 5e       	subi	r24, 0xE0	; 224
    421e:	07 c0       	rjmp	.+14     	; 0x422e <vfprintf+0x13a>
    4220:	9b e9       	ldi	r25, 0x9B	; 155
    4222:	98 0f       	add	r25, r24
    4224:	93 30       	cpi	r25, 0x03	; 3
    4226:	08 f0       	brcs	.+2      	; 0x422a <vfprintf+0x136>
    4228:	59 c1       	rjmp	.+690    	; 0x44dc <vfprintf+0x3e8>
    422a:	99 2d       	mov	r25, r9
    422c:	9f 7e       	andi	r25, 0xEF	; 239
    422e:	96 ff       	sbrs	r25, 6
    4230:	16 e0       	ldi	r17, 0x06	; 6
    4232:	9f 73       	andi	r25, 0x3F	; 63
    4234:	99 2e       	mov	r9, r25
    4236:	85 36       	cpi	r24, 0x65	; 101
    4238:	19 f4       	brne	.+6      	; 0x4240 <vfprintf+0x14c>
    423a:	90 64       	ori	r25, 0x40	; 64
    423c:	99 2e       	mov	r9, r25
    423e:	08 c0       	rjmp	.+16     	; 0x4250 <vfprintf+0x15c>
    4240:	86 36       	cpi	r24, 0x66	; 102
    4242:	21 f4       	brne	.+8      	; 0x424c <vfprintf+0x158>
    4244:	39 2f       	mov	r19, r25
    4246:	30 68       	ori	r19, 0x80	; 128
    4248:	93 2e       	mov	r9, r19
    424a:	02 c0       	rjmp	.+4      	; 0x4250 <vfprintf+0x15c>
    424c:	11 11       	cpse	r17, r1
    424e:	11 50       	subi	r17, 0x01	; 1
    4250:	97 fe       	sbrs	r9, 7
    4252:	07 c0       	rjmp	.+14     	; 0x4262 <vfprintf+0x16e>
    4254:	1c 33       	cpi	r17, 0x3C	; 60
    4256:	50 f4       	brcc	.+20     	; 0x426c <vfprintf+0x178>
    4258:	44 24       	eor	r4, r4
    425a:	43 94       	inc	r4
    425c:	41 0e       	add	r4, r17
    425e:	27 e0       	ldi	r18, 0x07	; 7
    4260:	0b c0       	rjmp	.+22     	; 0x4278 <vfprintf+0x184>
    4262:	18 30       	cpi	r17, 0x08	; 8
    4264:	38 f0       	brcs	.+14     	; 0x4274 <vfprintf+0x180>
    4266:	27 e0       	ldi	r18, 0x07	; 7
    4268:	17 e0       	ldi	r17, 0x07	; 7
    426a:	05 c0       	rjmp	.+10     	; 0x4276 <vfprintf+0x182>
    426c:	27 e0       	ldi	r18, 0x07	; 7
    426e:	9c e3       	ldi	r25, 0x3C	; 60
    4270:	49 2e       	mov	r4, r25
    4272:	02 c0       	rjmp	.+4      	; 0x4278 <vfprintf+0x184>
    4274:	21 2f       	mov	r18, r17
    4276:	41 2c       	mov	r4, r1
    4278:	56 01       	movw	r10, r12
    427a:	84 e0       	ldi	r24, 0x04	; 4
    427c:	a8 0e       	add	r10, r24
    427e:	b1 1c       	adc	r11, r1
    4280:	f6 01       	movw	r30, r12
    4282:	60 81       	ld	r22, Z
    4284:	71 81       	ldd	r23, Z+1	; 0x01
    4286:	82 81       	ldd	r24, Z+2	; 0x02
    4288:	93 81       	ldd	r25, Z+3	; 0x03
    428a:	04 2d       	mov	r16, r4
    428c:	a3 01       	movw	r20, r6
    428e:	e7 d3       	rcall	.+1998   	; 0x4a5e <__ftoa_engine>
    4290:	6c 01       	movw	r12, r24
    4292:	f9 81       	ldd	r31, Y+1	; 0x01
    4294:	fc 87       	std	Y+12, r31	; 0x0c
    4296:	f0 ff       	sbrs	r31, 0
    4298:	02 c0       	rjmp	.+4      	; 0x429e <vfprintf+0x1aa>
    429a:	f3 ff       	sbrs	r31, 3
    429c:	06 c0       	rjmp	.+12     	; 0x42aa <vfprintf+0x1b6>
    429e:	91 fc       	sbrc	r9, 1
    42a0:	06 c0       	rjmp	.+12     	; 0x42ae <vfprintf+0x1ba>
    42a2:	92 fe       	sbrs	r9, 2
    42a4:	06 c0       	rjmp	.+12     	; 0x42b2 <vfprintf+0x1be>
    42a6:	00 e2       	ldi	r16, 0x20	; 32
    42a8:	05 c0       	rjmp	.+10     	; 0x42b4 <vfprintf+0x1c0>
    42aa:	0d e2       	ldi	r16, 0x2D	; 45
    42ac:	03 c0       	rjmp	.+6      	; 0x42b4 <vfprintf+0x1c0>
    42ae:	0b e2       	ldi	r16, 0x2B	; 43
    42b0:	01 c0       	rjmp	.+2      	; 0x42b4 <vfprintf+0x1c0>
    42b2:	00 e0       	ldi	r16, 0x00	; 0
    42b4:	8c 85       	ldd	r24, Y+12	; 0x0c
    42b6:	8c 70       	andi	r24, 0x0C	; 12
    42b8:	19 f0       	breq	.+6      	; 0x42c0 <vfprintf+0x1cc>
    42ba:	01 11       	cpse	r16, r1
    42bc:	43 c2       	rjmp	.+1158   	; 0x4744 <vfprintf+0x650>
    42be:	80 c2       	rjmp	.+1280   	; 0x47c0 <vfprintf+0x6cc>
    42c0:	97 fe       	sbrs	r9, 7
    42c2:	10 c0       	rjmp	.+32     	; 0x42e4 <vfprintf+0x1f0>
    42c4:	4c 0c       	add	r4, r12
    42c6:	fc 85       	ldd	r31, Y+12	; 0x0c
    42c8:	f4 ff       	sbrs	r31, 4
    42ca:	04 c0       	rjmp	.+8      	; 0x42d4 <vfprintf+0x1e0>
    42cc:	8a 81       	ldd	r24, Y+2	; 0x02
    42ce:	81 33       	cpi	r24, 0x31	; 49
    42d0:	09 f4       	brne	.+2      	; 0x42d4 <vfprintf+0x1e0>
    42d2:	4a 94       	dec	r4
    42d4:	14 14       	cp	r1, r4
    42d6:	74 f5       	brge	.+92     	; 0x4334 <vfprintf+0x240>
    42d8:	28 e0       	ldi	r18, 0x08	; 8
    42da:	24 15       	cp	r18, r4
    42dc:	78 f5       	brcc	.+94     	; 0x433c <vfprintf+0x248>
    42de:	88 e0       	ldi	r24, 0x08	; 8
    42e0:	48 2e       	mov	r4, r24
    42e2:	2c c0       	rjmp	.+88     	; 0x433c <vfprintf+0x248>
    42e4:	96 fc       	sbrc	r9, 6
    42e6:	2a c0       	rjmp	.+84     	; 0x433c <vfprintf+0x248>
    42e8:	81 2f       	mov	r24, r17
    42ea:	90 e0       	ldi	r25, 0x00	; 0
    42ec:	8c 15       	cp	r24, r12
    42ee:	9d 05       	cpc	r25, r13
    42f0:	9c f0       	brlt	.+38     	; 0x4318 <vfprintf+0x224>
    42f2:	3c ef       	ldi	r19, 0xFC	; 252
    42f4:	c3 16       	cp	r12, r19
    42f6:	3f ef       	ldi	r19, 0xFF	; 255
    42f8:	d3 06       	cpc	r13, r19
    42fa:	74 f0       	brlt	.+28     	; 0x4318 <vfprintf+0x224>
    42fc:	89 2d       	mov	r24, r9
    42fe:	80 68       	ori	r24, 0x80	; 128
    4300:	98 2e       	mov	r9, r24
    4302:	0a c0       	rjmp	.+20     	; 0x4318 <vfprintf+0x224>
    4304:	e2 e0       	ldi	r30, 0x02	; 2
    4306:	f0 e0       	ldi	r31, 0x00	; 0
    4308:	ec 0f       	add	r30, r28
    430a:	fd 1f       	adc	r31, r29
    430c:	e1 0f       	add	r30, r17
    430e:	f1 1d       	adc	r31, r1
    4310:	80 81       	ld	r24, Z
    4312:	80 33       	cpi	r24, 0x30	; 48
    4314:	19 f4       	brne	.+6      	; 0x431c <vfprintf+0x228>
    4316:	11 50       	subi	r17, 0x01	; 1
    4318:	11 11       	cpse	r17, r1
    431a:	f4 cf       	rjmp	.-24     	; 0x4304 <vfprintf+0x210>
    431c:	97 fe       	sbrs	r9, 7
    431e:	0e c0       	rjmp	.+28     	; 0x433c <vfprintf+0x248>
    4320:	44 24       	eor	r4, r4
    4322:	43 94       	inc	r4
    4324:	41 0e       	add	r4, r17
    4326:	81 2f       	mov	r24, r17
    4328:	90 e0       	ldi	r25, 0x00	; 0
    432a:	c8 16       	cp	r12, r24
    432c:	d9 06       	cpc	r13, r25
    432e:	2c f4       	brge	.+10     	; 0x433a <vfprintf+0x246>
    4330:	1c 19       	sub	r17, r12
    4332:	04 c0       	rjmp	.+8      	; 0x433c <vfprintf+0x248>
    4334:	44 24       	eor	r4, r4
    4336:	43 94       	inc	r4
    4338:	01 c0       	rjmp	.+2      	; 0x433c <vfprintf+0x248>
    433a:	10 e0       	ldi	r17, 0x00	; 0
    433c:	97 fe       	sbrs	r9, 7
    433e:	06 c0       	rjmp	.+12     	; 0x434c <vfprintf+0x258>
    4340:	1c 14       	cp	r1, r12
    4342:	1d 04       	cpc	r1, r13
    4344:	34 f4       	brge	.+12     	; 0x4352 <vfprintf+0x25e>
    4346:	c6 01       	movw	r24, r12
    4348:	01 96       	adiw	r24, 0x01	; 1
    434a:	05 c0       	rjmp	.+10     	; 0x4356 <vfprintf+0x262>
    434c:	85 e0       	ldi	r24, 0x05	; 5
    434e:	90 e0       	ldi	r25, 0x00	; 0
    4350:	02 c0       	rjmp	.+4      	; 0x4356 <vfprintf+0x262>
    4352:	81 e0       	ldi	r24, 0x01	; 1
    4354:	90 e0       	ldi	r25, 0x00	; 0
    4356:	01 11       	cpse	r16, r1
    4358:	01 96       	adiw	r24, 0x01	; 1
    435a:	11 23       	and	r17, r17
    435c:	31 f0       	breq	.+12     	; 0x436a <vfprintf+0x276>
    435e:	21 2f       	mov	r18, r17
    4360:	30 e0       	ldi	r19, 0x00	; 0
    4362:	2f 5f       	subi	r18, 0xFF	; 255
    4364:	3f 4f       	sbci	r19, 0xFF	; 255
    4366:	82 0f       	add	r24, r18
    4368:	93 1f       	adc	r25, r19
    436a:	25 2d       	mov	r18, r5
    436c:	30 e0       	ldi	r19, 0x00	; 0
    436e:	82 17       	cp	r24, r18
    4370:	93 07       	cpc	r25, r19
    4372:	14 f4       	brge	.+4      	; 0x4378 <vfprintf+0x284>
    4374:	58 1a       	sub	r5, r24
    4376:	01 c0       	rjmp	.+2      	; 0x437a <vfprintf+0x286>
    4378:	51 2c       	mov	r5, r1
    437a:	89 2d       	mov	r24, r9
    437c:	89 70       	andi	r24, 0x09	; 9
    437e:	41 f4       	brne	.+16     	; 0x4390 <vfprintf+0x29c>
    4380:	55 20       	and	r5, r5
    4382:	31 f0       	breq	.+12     	; 0x4390 <vfprintf+0x29c>
    4384:	b7 01       	movw	r22, r14
    4386:	80 e2       	ldi	r24, 0x20	; 32
    4388:	90 e0       	ldi	r25, 0x00	; 0
    438a:	a1 d4       	rcall	.+2370   	; 0x4cce <fputc>
    438c:	5a 94       	dec	r5
    438e:	f8 cf       	rjmp	.-16     	; 0x4380 <vfprintf+0x28c>
    4390:	00 23       	and	r16, r16
    4392:	21 f0       	breq	.+8      	; 0x439c <vfprintf+0x2a8>
    4394:	b7 01       	movw	r22, r14
    4396:	80 2f       	mov	r24, r16
    4398:	90 e0       	ldi	r25, 0x00	; 0
    439a:	99 d4       	rcall	.+2354   	; 0x4cce <fputc>
    439c:	93 fc       	sbrc	r9, 3
    439e:	08 c0       	rjmp	.+16     	; 0x43b0 <vfprintf+0x2bc>
    43a0:	55 20       	and	r5, r5
    43a2:	31 f0       	breq	.+12     	; 0x43b0 <vfprintf+0x2bc>
    43a4:	b7 01       	movw	r22, r14
    43a6:	80 e3       	ldi	r24, 0x30	; 48
    43a8:	90 e0       	ldi	r25, 0x00	; 0
    43aa:	91 d4       	rcall	.+2338   	; 0x4cce <fputc>
    43ac:	5a 94       	dec	r5
    43ae:	f8 cf       	rjmp	.-16     	; 0x43a0 <vfprintf+0x2ac>
    43b0:	97 fe       	sbrs	r9, 7
    43b2:	4a c0       	rjmp	.+148    	; 0x4448 <vfprintf+0x354>
    43b4:	46 01       	movw	r8, r12
    43b6:	d7 fe       	sbrs	r13, 7
    43b8:	02 c0       	rjmp	.+4      	; 0x43be <vfprintf+0x2ca>
    43ba:	81 2c       	mov	r8, r1
    43bc:	91 2c       	mov	r9, r1
    43be:	c6 01       	movw	r24, r12
    43c0:	88 19       	sub	r24, r8
    43c2:	99 09       	sbc	r25, r9
    43c4:	f3 01       	movw	r30, r6
    43c6:	e8 0f       	add	r30, r24
    43c8:	f9 1f       	adc	r31, r25
    43ca:	ed 87       	std	Y+13, r30	; 0x0d
    43cc:	fe 87       	std	Y+14, r31	; 0x0e
    43ce:	96 01       	movw	r18, r12
    43d0:	24 19       	sub	r18, r4
    43d2:	31 09       	sbc	r19, r1
    43d4:	2f 87       	std	Y+15, r18	; 0x0f
    43d6:	38 8b       	std	Y+16, r19	; 0x10
    43d8:	01 2f       	mov	r16, r17
    43da:	10 e0       	ldi	r17, 0x00	; 0
    43dc:	11 95       	neg	r17
    43de:	01 95       	neg	r16
    43e0:	11 09       	sbc	r17, r1
    43e2:	3f ef       	ldi	r19, 0xFF	; 255
    43e4:	83 16       	cp	r8, r19
    43e6:	93 06       	cpc	r9, r19
    43e8:	21 f4       	brne	.+8      	; 0x43f2 <vfprintf+0x2fe>
    43ea:	b7 01       	movw	r22, r14
    43ec:	8e e2       	ldi	r24, 0x2E	; 46
    43ee:	90 e0       	ldi	r25, 0x00	; 0
    43f0:	6e d4       	rcall	.+2268   	; 0x4cce <fputc>
    43f2:	c8 14       	cp	r12, r8
    43f4:	d9 04       	cpc	r13, r9
    43f6:	4c f0       	brlt	.+18     	; 0x440a <vfprintf+0x316>
    43f8:	8f 85       	ldd	r24, Y+15	; 0x0f
    43fa:	98 89       	ldd	r25, Y+16	; 0x10
    43fc:	88 15       	cp	r24, r8
    43fe:	99 05       	cpc	r25, r9
    4400:	24 f4       	brge	.+8      	; 0x440a <vfprintf+0x316>
    4402:	ed 85       	ldd	r30, Y+13	; 0x0d
    4404:	fe 85       	ldd	r31, Y+14	; 0x0e
    4406:	81 81       	ldd	r24, Z+1	; 0x01
    4408:	01 c0       	rjmp	.+2      	; 0x440c <vfprintf+0x318>
    440a:	80 e3       	ldi	r24, 0x30	; 48
    440c:	f1 e0       	ldi	r31, 0x01	; 1
    440e:	8f 1a       	sub	r8, r31
    4410:	91 08       	sbc	r9, r1
    4412:	2d 85       	ldd	r18, Y+13	; 0x0d
    4414:	3e 85       	ldd	r19, Y+14	; 0x0e
    4416:	2f 5f       	subi	r18, 0xFF	; 255
    4418:	3f 4f       	sbci	r19, 0xFF	; 255
    441a:	2d 87       	std	Y+13, r18	; 0x0d
    441c:	3e 87       	std	Y+14, r19	; 0x0e
    441e:	80 16       	cp	r8, r16
    4420:	91 06       	cpc	r9, r17
    4422:	24 f0       	brlt	.+8      	; 0x442c <vfprintf+0x338>
    4424:	b7 01       	movw	r22, r14
    4426:	90 e0       	ldi	r25, 0x00	; 0
    4428:	52 d4       	rcall	.+2212   	; 0x4cce <fputc>
    442a:	db cf       	rjmp	.-74     	; 0x43e2 <vfprintf+0x2ee>
    442c:	c8 14       	cp	r12, r8
    442e:	d9 04       	cpc	r13, r9
    4430:	41 f4       	brne	.+16     	; 0x4442 <vfprintf+0x34e>
    4432:	9a 81       	ldd	r25, Y+2	; 0x02
    4434:	96 33       	cpi	r25, 0x36	; 54
    4436:	20 f4       	brcc	.+8      	; 0x4440 <vfprintf+0x34c>
    4438:	95 33       	cpi	r25, 0x35	; 53
    443a:	19 f4       	brne	.+6      	; 0x4442 <vfprintf+0x34e>
    443c:	3c 85       	ldd	r19, Y+12	; 0x0c
    443e:	34 ff       	sbrs	r19, 4
    4440:	81 e3       	ldi	r24, 0x31	; 49
    4442:	b7 01       	movw	r22, r14
    4444:	90 e0       	ldi	r25, 0x00	; 0
    4446:	48 c0       	rjmp	.+144    	; 0x44d8 <vfprintf+0x3e4>
    4448:	8a 81       	ldd	r24, Y+2	; 0x02
    444a:	81 33       	cpi	r24, 0x31	; 49
    444c:	19 f0       	breq	.+6      	; 0x4454 <vfprintf+0x360>
    444e:	9c 85       	ldd	r25, Y+12	; 0x0c
    4450:	9f 7e       	andi	r25, 0xEF	; 239
    4452:	9c 87       	std	Y+12, r25	; 0x0c
    4454:	b7 01       	movw	r22, r14
    4456:	90 e0       	ldi	r25, 0x00	; 0
    4458:	3a d4       	rcall	.+2164   	; 0x4cce <fputc>
    445a:	11 11       	cpse	r17, r1
    445c:	05 c0       	rjmp	.+10     	; 0x4468 <vfprintf+0x374>
    445e:	94 fc       	sbrc	r9, 4
    4460:	16 c0       	rjmp	.+44     	; 0x448e <vfprintf+0x39a>
    4462:	85 e6       	ldi	r24, 0x65	; 101
    4464:	90 e0       	ldi	r25, 0x00	; 0
    4466:	15 c0       	rjmp	.+42     	; 0x4492 <vfprintf+0x39e>
    4468:	b7 01       	movw	r22, r14
    446a:	8e e2       	ldi	r24, 0x2E	; 46
    446c:	90 e0       	ldi	r25, 0x00	; 0
    446e:	2f d4       	rcall	.+2142   	; 0x4cce <fputc>
    4470:	1e 5f       	subi	r17, 0xFE	; 254
    4472:	82 e0       	ldi	r24, 0x02	; 2
    4474:	01 e0       	ldi	r16, 0x01	; 1
    4476:	08 0f       	add	r16, r24
    4478:	f3 01       	movw	r30, r6
    447a:	e8 0f       	add	r30, r24
    447c:	f1 1d       	adc	r31, r1
    447e:	80 81       	ld	r24, Z
    4480:	b7 01       	movw	r22, r14
    4482:	90 e0       	ldi	r25, 0x00	; 0
    4484:	24 d4       	rcall	.+2120   	; 0x4cce <fputc>
    4486:	80 2f       	mov	r24, r16
    4488:	01 13       	cpse	r16, r17
    448a:	f4 cf       	rjmp	.-24     	; 0x4474 <vfprintf+0x380>
    448c:	e8 cf       	rjmp	.-48     	; 0x445e <vfprintf+0x36a>
    448e:	85 e4       	ldi	r24, 0x45	; 69
    4490:	90 e0       	ldi	r25, 0x00	; 0
    4492:	b7 01       	movw	r22, r14
    4494:	1c d4       	rcall	.+2104   	; 0x4cce <fputc>
    4496:	d7 fc       	sbrc	r13, 7
    4498:	06 c0       	rjmp	.+12     	; 0x44a6 <vfprintf+0x3b2>
    449a:	c1 14       	cp	r12, r1
    449c:	d1 04       	cpc	r13, r1
    449e:	41 f4       	brne	.+16     	; 0x44b0 <vfprintf+0x3bc>
    44a0:	ec 85       	ldd	r30, Y+12	; 0x0c
    44a2:	e4 ff       	sbrs	r30, 4
    44a4:	05 c0       	rjmp	.+10     	; 0x44b0 <vfprintf+0x3bc>
    44a6:	d1 94       	neg	r13
    44a8:	c1 94       	neg	r12
    44aa:	d1 08       	sbc	r13, r1
    44ac:	8d e2       	ldi	r24, 0x2D	; 45
    44ae:	01 c0       	rjmp	.+2      	; 0x44b2 <vfprintf+0x3be>
    44b0:	8b e2       	ldi	r24, 0x2B	; 43
    44b2:	b7 01       	movw	r22, r14
    44b4:	90 e0       	ldi	r25, 0x00	; 0
    44b6:	0b d4       	rcall	.+2070   	; 0x4cce <fputc>
    44b8:	80 e3       	ldi	r24, 0x30	; 48
    44ba:	2a e0       	ldi	r18, 0x0A	; 10
    44bc:	c2 16       	cp	r12, r18
    44be:	d1 04       	cpc	r13, r1
    44c0:	2c f0       	brlt	.+10     	; 0x44cc <vfprintf+0x3d8>
    44c2:	8f 5f       	subi	r24, 0xFF	; 255
    44c4:	fa e0       	ldi	r31, 0x0A	; 10
    44c6:	cf 1a       	sub	r12, r31
    44c8:	d1 08       	sbc	r13, r1
    44ca:	f7 cf       	rjmp	.-18     	; 0x44ba <vfprintf+0x3c6>
    44cc:	b7 01       	movw	r22, r14
    44ce:	90 e0       	ldi	r25, 0x00	; 0
    44d0:	fe d3       	rcall	.+2044   	; 0x4cce <fputc>
    44d2:	b7 01       	movw	r22, r14
    44d4:	c6 01       	movw	r24, r12
    44d6:	c0 96       	adiw	r24, 0x30	; 48
    44d8:	fa d3       	rcall	.+2036   	; 0x4cce <fputc>
    44da:	49 c1       	rjmp	.+658    	; 0x476e <vfprintf+0x67a>
    44dc:	83 36       	cpi	r24, 0x63	; 99
    44de:	31 f0       	breq	.+12     	; 0x44ec <vfprintf+0x3f8>
    44e0:	83 37       	cpi	r24, 0x73	; 115
    44e2:	79 f0       	breq	.+30     	; 0x4502 <vfprintf+0x40e>
    44e4:	83 35       	cpi	r24, 0x53	; 83
    44e6:	09 f0       	breq	.+2      	; 0x44ea <vfprintf+0x3f6>
    44e8:	52 c0       	rjmp	.+164    	; 0x458e <vfprintf+0x49a>
    44ea:	1f c0       	rjmp	.+62     	; 0x452a <vfprintf+0x436>
    44ec:	56 01       	movw	r10, r12
    44ee:	32 e0       	ldi	r19, 0x02	; 2
    44f0:	a3 0e       	add	r10, r19
    44f2:	b1 1c       	adc	r11, r1
    44f4:	f6 01       	movw	r30, r12
    44f6:	80 81       	ld	r24, Z
    44f8:	89 83       	std	Y+1, r24	; 0x01
    44fa:	01 e0       	ldi	r16, 0x01	; 1
    44fc:	10 e0       	ldi	r17, 0x00	; 0
    44fe:	63 01       	movw	r12, r6
    4500:	11 c0       	rjmp	.+34     	; 0x4524 <vfprintf+0x430>
    4502:	56 01       	movw	r10, r12
    4504:	f2 e0       	ldi	r31, 0x02	; 2
    4506:	af 0e       	add	r10, r31
    4508:	b1 1c       	adc	r11, r1
    450a:	f6 01       	movw	r30, r12
    450c:	c0 80       	ld	r12, Z
    450e:	d1 80       	ldd	r13, Z+1	; 0x01
    4510:	96 fe       	sbrs	r9, 6
    4512:	03 c0       	rjmp	.+6      	; 0x451a <vfprintf+0x426>
    4514:	61 2f       	mov	r22, r17
    4516:	70 e0       	ldi	r23, 0x00	; 0
    4518:	02 c0       	rjmp	.+4      	; 0x451e <vfprintf+0x42a>
    451a:	6f ef       	ldi	r22, 0xFF	; 255
    451c:	7f ef       	ldi	r23, 0xFF	; 255
    451e:	c6 01       	movw	r24, r12
    4520:	81 d3       	rcall	.+1794   	; 0x4c24 <strnlen>
    4522:	8c 01       	movw	r16, r24
    4524:	f9 2d       	mov	r31, r9
    4526:	ff 77       	andi	r31, 0x7F	; 127
    4528:	13 c0       	rjmp	.+38     	; 0x4550 <vfprintf+0x45c>
    452a:	56 01       	movw	r10, r12
    452c:	22 e0       	ldi	r18, 0x02	; 2
    452e:	a2 0e       	add	r10, r18
    4530:	b1 1c       	adc	r11, r1
    4532:	f6 01       	movw	r30, r12
    4534:	c0 80       	ld	r12, Z
    4536:	d1 80       	ldd	r13, Z+1	; 0x01
    4538:	96 fe       	sbrs	r9, 6
    453a:	03 c0       	rjmp	.+6      	; 0x4542 <vfprintf+0x44e>
    453c:	61 2f       	mov	r22, r17
    453e:	70 e0       	ldi	r23, 0x00	; 0
    4540:	02 c0       	rjmp	.+4      	; 0x4546 <vfprintf+0x452>
    4542:	6f ef       	ldi	r22, 0xFF	; 255
    4544:	7f ef       	ldi	r23, 0xFF	; 255
    4546:	c6 01       	movw	r24, r12
    4548:	62 d3       	rcall	.+1732   	; 0x4c0e <strnlen_P>
    454a:	8c 01       	movw	r16, r24
    454c:	f9 2d       	mov	r31, r9
    454e:	f0 68       	ori	r31, 0x80	; 128
    4550:	9f 2e       	mov	r9, r31
    4552:	f3 fd       	sbrc	r31, 3
    4554:	18 c0       	rjmp	.+48     	; 0x4586 <vfprintf+0x492>
    4556:	85 2d       	mov	r24, r5
    4558:	90 e0       	ldi	r25, 0x00	; 0
    455a:	08 17       	cp	r16, r24
    455c:	19 07       	cpc	r17, r25
    455e:	98 f4       	brcc	.+38     	; 0x4586 <vfprintf+0x492>
    4560:	b7 01       	movw	r22, r14
    4562:	80 e2       	ldi	r24, 0x20	; 32
    4564:	90 e0       	ldi	r25, 0x00	; 0
    4566:	b3 d3       	rcall	.+1894   	; 0x4cce <fputc>
    4568:	5a 94       	dec	r5
    456a:	f5 cf       	rjmp	.-22     	; 0x4556 <vfprintf+0x462>
    456c:	f6 01       	movw	r30, r12
    456e:	97 fc       	sbrc	r9, 7
    4570:	85 91       	lpm	r24, Z+
    4572:	97 fe       	sbrs	r9, 7
    4574:	81 91       	ld	r24, Z+
    4576:	6f 01       	movw	r12, r30
    4578:	b7 01       	movw	r22, r14
    457a:	90 e0       	ldi	r25, 0x00	; 0
    457c:	a8 d3       	rcall	.+1872   	; 0x4cce <fputc>
    457e:	51 10       	cpse	r5, r1
    4580:	5a 94       	dec	r5
    4582:	01 50       	subi	r16, 0x01	; 1
    4584:	11 09       	sbc	r17, r1
    4586:	01 15       	cp	r16, r1
    4588:	11 05       	cpc	r17, r1
    458a:	81 f7       	brne	.-32     	; 0x456c <vfprintf+0x478>
    458c:	f0 c0       	rjmp	.+480    	; 0x476e <vfprintf+0x67a>
    458e:	84 36       	cpi	r24, 0x64	; 100
    4590:	11 f0       	breq	.+4      	; 0x4596 <vfprintf+0x4a2>
    4592:	89 36       	cpi	r24, 0x69	; 105
    4594:	59 f5       	brne	.+86     	; 0x45ec <vfprintf+0x4f8>
    4596:	56 01       	movw	r10, r12
    4598:	97 fe       	sbrs	r9, 7
    459a:	09 c0       	rjmp	.+18     	; 0x45ae <vfprintf+0x4ba>
    459c:	24 e0       	ldi	r18, 0x04	; 4
    459e:	a2 0e       	add	r10, r18
    45a0:	b1 1c       	adc	r11, r1
    45a2:	f6 01       	movw	r30, r12
    45a4:	60 81       	ld	r22, Z
    45a6:	71 81       	ldd	r23, Z+1	; 0x01
    45a8:	82 81       	ldd	r24, Z+2	; 0x02
    45aa:	93 81       	ldd	r25, Z+3	; 0x03
    45ac:	0a c0       	rjmp	.+20     	; 0x45c2 <vfprintf+0x4ce>
    45ae:	f2 e0       	ldi	r31, 0x02	; 2
    45b0:	af 0e       	add	r10, r31
    45b2:	b1 1c       	adc	r11, r1
    45b4:	f6 01       	movw	r30, r12
    45b6:	60 81       	ld	r22, Z
    45b8:	71 81       	ldd	r23, Z+1	; 0x01
    45ba:	07 2e       	mov	r0, r23
    45bc:	00 0c       	add	r0, r0
    45be:	88 0b       	sbc	r24, r24
    45c0:	99 0b       	sbc	r25, r25
    45c2:	f9 2d       	mov	r31, r9
    45c4:	ff 76       	andi	r31, 0x6F	; 111
    45c6:	9f 2e       	mov	r9, r31
    45c8:	97 ff       	sbrs	r25, 7
    45ca:	09 c0       	rjmp	.+18     	; 0x45de <vfprintf+0x4ea>
    45cc:	90 95       	com	r25
    45ce:	80 95       	com	r24
    45d0:	70 95       	com	r23
    45d2:	61 95       	neg	r22
    45d4:	7f 4f       	sbci	r23, 0xFF	; 255
    45d6:	8f 4f       	sbci	r24, 0xFF	; 255
    45d8:	9f 4f       	sbci	r25, 0xFF	; 255
    45da:	f0 68       	ori	r31, 0x80	; 128
    45dc:	9f 2e       	mov	r9, r31
    45de:	2a e0       	ldi	r18, 0x0A	; 10
    45e0:	30 e0       	ldi	r19, 0x00	; 0
    45e2:	a3 01       	movw	r20, r6
    45e4:	f8 d3       	rcall	.+2032   	; 0x4dd6 <__ultoa_invert>
    45e6:	c8 2e       	mov	r12, r24
    45e8:	c6 18       	sub	r12, r6
    45ea:	3e c0       	rjmp	.+124    	; 0x4668 <vfprintf+0x574>
    45ec:	09 2d       	mov	r16, r9
    45ee:	85 37       	cpi	r24, 0x75	; 117
    45f0:	21 f4       	brne	.+8      	; 0x45fa <vfprintf+0x506>
    45f2:	0f 7e       	andi	r16, 0xEF	; 239
    45f4:	2a e0       	ldi	r18, 0x0A	; 10
    45f6:	30 e0       	ldi	r19, 0x00	; 0
    45f8:	1d c0       	rjmp	.+58     	; 0x4634 <vfprintf+0x540>
    45fa:	09 7f       	andi	r16, 0xF9	; 249
    45fc:	8f 36       	cpi	r24, 0x6F	; 111
    45fe:	91 f0       	breq	.+36     	; 0x4624 <vfprintf+0x530>
    4600:	18 f4       	brcc	.+6      	; 0x4608 <vfprintf+0x514>
    4602:	88 35       	cpi	r24, 0x58	; 88
    4604:	59 f0       	breq	.+22     	; 0x461c <vfprintf+0x528>
    4606:	bc c0       	rjmp	.+376    	; 0x4780 <vfprintf+0x68c>
    4608:	80 37       	cpi	r24, 0x70	; 112
    460a:	19 f0       	breq	.+6      	; 0x4612 <vfprintf+0x51e>
    460c:	88 37       	cpi	r24, 0x78	; 120
    460e:	11 f0       	breq	.+4      	; 0x4614 <vfprintf+0x520>
    4610:	b7 c0       	rjmp	.+366    	; 0x4780 <vfprintf+0x68c>
    4612:	00 61       	ori	r16, 0x10	; 16
    4614:	04 ff       	sbrs	r16, 4
    4616:	09 c0       	rjmp	.+18     	; 0x462a <vfprintf+0x536>
    4618:	04 60       	ori	r16, 0x04	; 4
    461a:	07 c0       	rjmp	.+14     	; 0x462a <vfprintf+0x536>
    461c:	94 fe       	sbrs	r9, 4
    461e:	08 c0       	rjmp	.+16     	; 0x4630 <vfprintf+0x53c>
    4620:	06 60       	ori	r16, 0x06	; 6
    4622:	06 c0       	rjmp	.+12     	; 0x4630 <vfprintf+0x53c>
    4624:	28 e0       	ldi	r18, 0x08	; 8
    4626:	30 e0       	ldi	r19, 0x00	; 0
    4628:	05 c0       	rjmp	.+10     	; 0x4634 <vfprintf+0x540>
    462a:	20 e1       	ldi	r18, 0x10	; 16
    462c:	30 e0       	ldi	r19, 0x00	; 0
    462e:	02 c0       	rjmp	.+4      	; 0x4634 <vfprintf+0x540>
    4630:	20 e1       	ldi	r18, 0x10	; 16
    4632:	32 e0       	ldi	r19, 0x02	; 2
    4634:	56 01       	movw	r10, r12
    4636:	07 ff       	sbrs	r16, 7
    4638:	09 c0       	rjmp	.+18     	; 0x464c <vfprintf+0x558>
    463a:	84 e0       	ldi	r24, 0x04	; 4
    463c:	a8 0e       	add	r10, r24
    463e:	b1 1c       	adc	r11, r1
    4640:	f6 01       	movw	r30, r12
    4642:	60 81       	ld	r22, Z
    4644:	71 81       	ldd	r23, Z+1	; 0x01
    4646:	82 81       	ldd	r24, Z+2	; 0x02
    4648:	93 81       	ldd	r25, Z+3	; 0x03
    464a:	08 c0       	rjmp	.+16     	; 0x465c <vfprintf+0x568>
    464c:	f2 e0       	ldi	r31, 0x02	; 2
    464e:	af 0e       	add	r10, r31
    4650:	b1 1c       	adc	r11, r1
    4652:	f6 01       	movw	r30, r12
    4654:	60 81       	ld	r22, Z
    4656:	71 81       	ldd	r23, Z+1	; 0x01
    4658:	80 e0       	ldi	r24, 0x00	; 0
    465a:	90 e0       	ldi	r25, 0x00	; 0
    465c:	a3 01       	movw	r20, r6
    465e:	bb d3       	rcall	.+1910   	; 0x4dd6 <__ultoa_invert>
    4660:	c8 2e       	mov	r12, r24
    4662:	c6 18       	sub	r12, r6
    4664:	0f 77       	andi	r16, 0x7F	; 127
    4666:	90 2e       	mov	r9, r16
    4668:	96 fe       	sbrs	r9, 6
    466a:	0b c0       	rjmp	.+22     	; 0x4682 <vfprintf+0x58e>
    466c:	09 2d       	mov	r16, r9
    466e:	0e 7f       	andi	r16, 0xFE	; 254
    4670:	c1 16       	cp	r12, r17
    4672:	50 f4       	brcc	.+20     	; 0x4688 <vfprintf+0x594>
    4674:	94 fe       	sbrs	r9, 4
    4676:	0a c0       	rjmp	.+20     	; 0x468c <vfprintf+0x598>
    4678:	92 fc       	sbrc	r9, 2
    467a:	08 c0       	rjmp	.+16     	; 0x468c <vfprintf+0x598>
    467c:	09 2d       	mov	r16, r9
    467e:	0e 7e       	andi	r16, 0xEE	; 238
    4680:	05 c0       	rjmp	.+10     	; 0x468c <vfprintf+0x598>
    4682:	dc 2c       	mov	r13, r12
    4684:	09 2d       	mov	r16, r9
    4686:	03 c0       	rjmp	.+6      	; 0x468e <vfprintf+0x59a>
    4688:	dc 2c       	mov	r13, r12
    468a:	01 c0       	rjmp	.+2      	; 0x468e <vfprintf+0x59a>
    468c:	d1 2e       	mov	r13, r17
    468e:	04 ff       	sbrs	r16, 4
    4690:	0d c0       	rjmp	.+26     	; 0x46ac <vfprintf+0x5b8>
    4692:	fe 01       	movw	r30, r28
    4694:	ec 0d       	add	r30, r12
    4696:	f1 1d       	adc	r31, r1
    4698:	80 81       	ld	r24, Z
    469a:	80 33       	cpi	r24, 0x30	; 48
    469c:	11 f4       	brne	.+4      	; 0x46a2 <vfprintf+0x5ae>
    469e:	09 7e       	andi	r16, 0xE9	; 233
    46a0:	09 c0       	rjmp	.+18     	; 0x46b4 <vfprintf+0x5c0>
    46a2:	02 ff       	sbrs	r16, 2
    46a4:	06 c0       	rjmp	.+12     	; 0x46b2 <vfprintf+0x5be>
    46a6:	d3 94       	inc	r13
    46a8:	d3 94       	inc	r13
    46aa:	04 c0       	rjmp	.+8      	; 0x46b4 <vfprintf+0x5c0>
    46ac:	80 2f       	mov	r24, r16
    46ae:	86 78       	andi	r24, 0x86	; 134
    46b0:	09 f0       	breq	.+2      	; 0x46b4 <vfprintf+0x5c0>
    46b2:	d3 94       	inc	r13
    46b4:	03 fd       	sbrc	r16, 3
    46b6:	10 c0       	rjmp	.+32     	; 0x46d8 <vfprintf+0x5e4>
    46b8:	00 ff       	sbrs	r16, 0
    46ba:	06 c0       	rjmp	.+12     	; 0x46c8 <vfprintf+0x5d4>
    46bc:	1c 2d       	mov	r17, r12
    46be:	d5 14       	cp	r13, r5
    46c0:	78 f4       	brcc	.+30     	; 0x46e0 <vfprintf+0x5ec>
    46c2:	15 0d       	add	r17, r5
    46c4:	1d 19       	sub	r17, r13
    46c6:	0c c0       	rjmp	.+24     	; 0x46e0 <vfprintf+0x5ec>
    46c8:	d5 14       	cp	r13, r5
    46ca:	50 f4       	brcc	.+20     	; 0x46e0 <vfprintf+0x5ec>
    46cc:	b7 01       	movw	r22, r14
    46ce:	80 e2       	ldi	r24, 0x20	; 32
    46d0:	90 e0       	ldi	r25, 0x00	; 0
    46d2:	fd d2       	rcall	.+1530   	; 0x4cce <fputc>
    46d4:	d3 94       	inc	r13
    46d6:	f8 cf       	rjmp	.-16     	; 0x46c8 <vfprintf+0x5d4>
    46d8:	d5 14       	cp	r13, r5
    46da:	10 f4       	brcc	.+4      	; 0x46e0 <vfprintf+0x5ec>
    46dc:	5d 18       	sub	r5, r13
    46de:	01 c0       	rjmp	.+2      	; 0x46e2 <vfprintf+0x5ee>
    46e0:	51 2c       	mov	r5, r1
    46e2:	04 ff       	sbrs	r16, 4
    46e4:	0f c0       	rjmp	.+30     	; 0x4704 <vfprintf+0x610>
    46e6:	b7 01       	movw	r22, r14
    46e8:	80 e3       	ldi	r24, 0x30	; 48
    46ea:	90 e0       	ldi	r25, 0x00	; 0
    46ec:	f0 d2       	rcall	.+1504   	; 0x4cce <fputc>
    46ee:	02 ff       	sbrs	r16, 2
    46f0:	16 c0       	rjmp	.+44     	; 0x471e <vfprintf+0x62a>
    46f2:	01 fd       	sbrc	r16, 1
    46f4:	03 c0       	rjmp	.+6      	; 0x46fc <vfprintf+0x608>
    46f6:	88 e7       	ldi	r24, 0x78	; 120
    46f8:	90 e0       	ldi	r25, 0x00	; 0
    46fa:	02 c0       	rjmp	.+4      	; 0x4700 <vfprintf+0x60c>
    46fc:	88 e5       	ldi	r24, 0x58	; 88
    46fe:	90 e0       	ldi	r25, 0x00	; 0
    4700:	b7 01       	movw	r22, r14
    4702:	0c c0       	rjmp	.+24     	; 0x471c <vfprintf+0x628>
    4704:	80 2f       	mov	r24, r16
    4706:	86 78       	andi	r24, 0x86	; 134
    4708:	51 f0       	breq	.+20     	; 0x471e <vfprintf+0x62a>
    470a:	01 ff       	sbrs	r16, 1
    470c:	02 c0       	rjmp	.+4      	; 0x4712 <vfprintf+0x61e>
    470e:	8b e2       	ldi	r24, 0x2B	; 43
    4710:	01 c0       	rjmp	.+2      	; 0x4714 <vfprintf+0x620>
    4712:	80 e2       	ldi	r24, 0x20	; 32
    4714:	07 fd       	sbrc	r16, 7
    4716:	8d e2       	ldi	r24, 0x2D	; 45
    4718:	b7 01       	movw	r22, r14
    471a:	90 e0       	ldi	r25, 0x00	; 0
    471c:	d8 d2       	rcall	.+1456   	; 0x4cce <fputc>
    471e:	c1 16       	cp	r12, r17
    4720:	30 f4       	brcc	.+12     	; 0x472e <vfprintf+0x63a>
    4722:	b7 01       	movw	r22, r14
    4724:	80 e3       	ldi	r24, 0x30	; 48
    4726:	90 e0       	ldi	r25, 0x00	; 0
    4728:	d2 d2       	rcall	.+1444   	; 0x4cce <fputc>
    472a:	11 50       	subi	r17, 0x01	; 1
    472c:	f8 cf       	rjmp	.-16     	; 0x471e <vfprintf+0x62a>
    472e:	ca 94       	dec	r12
    4730:	f3 01       	movw	r30, r6
    4732:	ec 0d       	add	r30, r12
    4734:	f1 1d       	adc	r31, r1
    4736:	80 81       	ld	r24, Z
    4738:	b7 01       	movw	r22, r14
    473a:	90 e0       	ldi	r25, 0x00	; 0
    473c:	c8 d2       	rcall	.+1424   	; 0x4cce <fputc>
    473e:	c1 10       	cpse	r12, r1
    4740:	f6 cf       	rjmp	.-20     	; 0x472e <vfprintf+0x63a>
    4742:	15 c0       	rjmp	.+42     	; 0x476e <vfprintf+0x67a>
    4744:	f4 e0       	ldi	r31, 0x04	; 4
    4746:	f5 15       	cp	r31, r5
    4748:	50 f5       	brcc	.+84     	; 0x479e <vfprintf+0x6aa>
    474a:	84 e0       	ldi	r24, 0x04	; 4
    474c:	58 1a       	sub	r5, r24
    474e:	93 fe       	sbrs	r9, 3
    4750:	1e c0       	rjmp	.+60     	; 0x478e <vfprintf+0x69a>
    4752:	01 11       	cpse	r16, r1
    4754:	25 c0       	rjmp	.+74     	; 0x47a0 <vfprintf+0x6ac>
    4756:	2c 85       	ldd	r18, Y+12	; 0x0c
    4758:	23 ff       	sbrs	r18, 3
    475a:	27 c0       	rjmp	.+78     	; 0x47aa <vfprintf+0x6b6>
    475c:	0c ef       	ldi	r16, 0xFC	; 252
    475e:	12 e0       	ldi	r17, 0x02	; 2
    4760:	39 2d       	mov	r19, r9
    4762:	30 71       	andi	r19, 0x10	; 16
    4764:	93 2e       	mov	r9, r19
    4766:	f8 01       	movw	r30, r16
    4768:	84 91       	lpm	r24, Z
    476a:	81 11       	cpse	r24, r1
    476c:	21 c0       	rjmp	.+66     	; 0x47b0 <vfprintf+0x6bc>
    476e:	55 20       	and	r5, r5
    4770:	09 f4       	brne	.+2      	; 0x4774 <vfprintf+0x680>
    4772:	fc cc       	rjmp	.-1544   	; 0x416c <vfprintf+0x78>
    4774:	b7 01       	movw	r22, r14
    4776:	80 e2       	ldi	r24, 0x20	; 32
    4778:	90 e0       	ldi	r25, 0x00	; 0
    477a:	a9 d2       	rcall	.+1362   	; 0x4cce <fputc>
    477c:	5a 94       	dec	r5
    477e:	f7 cf       	rjmp	.-18     	; 0x476e <vfprintf+0x67a>
    4780:	f7 01       	movw	r30, r14
    4782:	86 81       	ldd	r24, Z+6	; 0x06
    4784:	97 81       	ldd	r25, Z+7	; 0x07
    4786:	23 c0       	rjmp	.+70     	; 0x47ce <vfprintf+0x6da>
    4788:	8f ef       	ldi	r24, 0xFF	; 255
    478a:	9f ef       	ldi	r25, 0xFF	; 255
    478c:	20 c0       	rjmp	.+64     	; 0x47ce <vfprintf+0x6da>
    478e:	b7 01       	movw	r22, r14
    4790:	80 e2       	ldi	r24, 0x20	; 32
    4792:	90 e0       	ldi	r25, 0x00	; 0
    4794:	9c d2       	rcall	.+1336   	; 0x4cce <fputc>
    4796:	5a 94       	dec	r5
    4798:	51 10       	cpse	r5, r1
    479a:	f9 cf       	rjmp	.-14     	; 0x478e <vfprintf+0x69a>
    479c:	da cf       	rjmp	.-76     	; 0x4752 <vfprintf+0x65e>
    479e:	51 2c       	mov	r5, r1
    47a0:	b7 01       	movw	r22, r14
    47a2:	80 2f       	mov	r24, r16
    47a4:	90 e0       	ldi	r25, 0x00	; 0
    47a6:	93 d2       	rcall	.+1318   	; 0x4cce <fputc>
    47a8:	d6 cf       	rjmp	.-84     	; 0x4756 <vfprintf+0x662>
    47aa:	00 e0       	ldi	r16, 0x00	; 0
    47ac:	13 e0       	ldi	r17, 0x03	; 3
    47ae:	d8 cf       	rjmp	.-80     	; 0x4760 <vfprintf+0x66c>
    47b0:	91 10       	cpse	r9, r1
    47b2:	80 52       	subi	r24, 0x20	; 32
    47b4:	b7 01       	movw	r22, r14
    47b6:	90 e0       	ldi	r25, 0x00	; 0
    47b8:	8a d2       	rcall	.+1300   	; 0x4cce <fputc>
    47ba:	0f 5f       	subi	r16, 0xFF	; 255
    47bc:	1f 4f       	sbci	r17, 0xFF	; 255
    47be:	d3 cf       	rjmp	.-90     	; 0x4766 <vfprintf+0x672>
    47c0:	23 e0       	ldi	r18, 0x03	; 3
    47c2:	25 15       	cp	r18, r5
    47c4:	10 f4       	brcc	.+4      	; 0x47ca <vfprintf+0x6d6>
    47c6:	83 e0       	ldi	r24, 0x03	; 3
    47c8:	c1 cf       	rjmp	.-126    	; 0x474c <vfprintf+0x658>
    47ca:	51 2c       	mov	r5, r1
    47cc:	c4 cf       	rjmp	.-120    	; 0x4756 <vfprintf+0x662>
    47ce:	60 96       	adiw	r28, 0x10	; 16
    47d0:	cd bf       	out	0x3d, r28	; 61
    47d2:	de bf       	out	0x3e, r29	; 62
    47d4:	df 91       	pop	r29
    47d6:	cf 91       	pop	r28
    47d8:	1f 91       	pop	r17
    47da:	0f 91       	pop	r16
    47dc:	ff 90       	pop	r15
    47de:	ef 90       	pop	r14
    47e0:	df 90       	pop	r13
    47e2:	cf 90       	pop	r12
    47e4:	bf 90       	pop	r11
    47e6:	af 90       	pop	r10
    47e8:	9f 90       	pop	r9
    47ea:	8f 90       	pop	r8
    47ec:	7f 90       	pop	r7
    47ee:	6f 90       	pop	r6
    47f0:	5f 90       	pop	r5
    47f2:	4f 90       	pop	r4
    47f4:	3f 90       	pop	r3
    47f6:	2f 90       	pop	r2
    47f8:	08 95       	ret

000047fa <__udivmodhi4>:
    47fa:	aa 1b       	sub	r26, r26
    47fc:	bb 1b       	sub	r27, r27
    47fe:	51 e1       	ldi	r21, 0x11	; 17
    4800:	07 c0       	rjmp	.+14     	; 0x4810 <__udivmodhi4_ep>

00004802 <__udivmodhi4_loop>:
    4802:	aa 1f       	adc	r26, r26
    4804:	bb 1f       	adc	r27, r27
    4806:	a6 17       	cp	r26, r22
    4808:	b7 07       	cpc	r27, r23
    480a:	10 f0       	brcs	.+4      	; 0x4810 <__udivmodhi4_ep>
    480c:	a6 1b       	sub	r26, r22
    480e:	b7 0b       	sbc	r27, r23

00004810 <__udivmodhi4_ep>:
    4810:	88 1f       	adc	r24, r24
    4812:	99 1f       	adc	r25, r25
    4814:	5a 95       	dec	r21
    4816:	a9 f7       	brne	.-22     	; 0x4802 <__udivmodhi4_loop>
    4818:	80 95       	com	r24
    481a:	90 95       	com	r25
    481c:	bc 01       	movw	r22, r24
    481e:	cd 01       	movw	r24, r26
    4820:	08 95       	ret

00004822 <__udivmodsi4>:
    4822:	a1 e2       	ldi	r26, 0x21	; 33
    4824:	1a 2e       	mov	r1, r26
    4826:	aa 1b       	sub	r26, r26
    4828:	bb 1b       	sub	r27, r27
    482a:	fd 01       	movw	r30, r26
    482c:	0d c0       	rjmp	.+26     	; 0x4848 <__udivmodsi4_ep>

0000482e <__udivmodsi4_loop>:
    482e:	aa 1f       	adc	r26, r26
    4830:	bb 1f       	adc	r27, r27
    4832:	ee 1f       	adc	r30, r30
    4834:	ff 1f       	adc	r31, r31
    4836:	a2 17       	cp	r26, r18
    4838:	b3 07       	cpc	r27, r19
    483a:	e4 07       	cpc	r30, r20
    483c:	f5 07       	cpc	r31, r21
    483e:	20 f0       	brcs	.+8      	; 0x4848 <__udivmodsi4_ep>
    4840:	a2 1b       	sub	r26, r18
    4842:	b3 0b       	sbc	r27, r19
    4844:	e4 0b       	sbc	r30, r20
    4846:	f5 0b       	sbc	r31, r21

00004848 <__udivmodsi4_ep>:
    4848:	66 1f       	adc	r22, r22
    484a:	77 1f       	adc	r23, r23
    484c:	88 1f       	adc	r24, r24
    484e:	99 1f       	adc	r25, r25
    4850:	1a 94       	dec	r1
    4852:	69 f7       	brne	.-38     	; 0x482e <__udivmodsi4_loop>
    4854:	60 95       	com	r22
    4856:	70 95       	com	r23
    4858:	80 95       	com	r24
    485a:	90 95       	com	r25
    485c:	9b 01       	movw	r18, r22
    485e:	ac 01       	movw	r20, r24
    4860:	bd 01       	movw	r22, r26
    4862:	cf 01       	movw	r24, r30
    4864:	08 95       	ret

00004866 <__divmodsi4>:
    4866:	05 2e       	mov	r0, r21
    4868:	97 fb       	bst	r25, 7
    486a:	16 f4       	brtc	.+4      	; 0x4870 <__divmodsi4+0xa>
    486c:	00 94       	com	r0
    486e:	0f d0       	rcall	.+30     	; 0x488e <__negsi2>
    4870:	57 fd       	sbrc	r21, 7
    4872:	05 d0       	rcall	.+10     	; 0x487e <__divmodsi4_neg2>
    4874:	d6 df       	rcall	.-84     	; 0x4822 <__udivmodsi4>
    4876:	07 fc       	sbrc	r0, 7
    4878:	02 d0       	rcall	.+4      	; 0x487e <__divmodsi4_neg2>
    487a:	46 f4       	brtc	.+16     	; 0x488c <__divmodsi4_exit>
    487c:	08 c0       	rjmp	.+16     	; 0x488e <__negsi2>

0000487e <__divmodsi4_neg2>:
    487e:	50 95       	com	r21
    4880:	40 95       	com	r20
    4882:	30 95       	com	r19
    4884:	21 95       	neg	r18
    4886:	3f 4f       	sbci	r19, 0xFF	; 255
    4888:	4f 4f       	sbci	r20, 0xFF	; 255
    488a:	5f 4f       	sbci	r21, 0xFF	; 255

0000488c <__divmodsi4_exit>:
    488c:	08 95       	ret

0000488e <__negsi2>:
    488e:	90 95       	com	r25
    4890:	80 95       	com	r24
    4892:	70 95       	com	r23
    4894:	61 95       	neg	r22
    4896:	7f 4f       	sbci	r23, 0xFF	; 255
    4898:	8f 4f       	sbci	r24, 0xFF	; 255
    489a:	9f 4f       	sbci	r25, 0xFF	; 255
    489c:	08 95       	ret

0000489e <__tablejump2__>:
    489e:	ee 0f       	add	r30, r30
    48a0:	ff 1f       	adc	r31, r31
    48a2:	88 1f       	adc	r24, r24
    48a4:	8b bf       	out	0x3b, r24	; 59
    48a6:	07 90       	elpm	r0, Z+
    48a8:	f6 91       	elpm	r31, Z
    48aa:	e0 2d       	mov	r30, r0
    48ac:	1b be       	out	0x3b, r1	; 59
    48ae:	19 94       	eijmp

000048b0 <__usmulhisi3>:
    48b0:	bd d0       	rcall	.+378    	; 0x4a2c <__umulhisi3>

000048b2 <__usmulhisi3_tail>:
    48b2:	b7 ff       	sbrs	r27, 7
    48b4:	08 95       	ret
    48b6:	82 1b       	sub	r24, r18
    48b8:	93 0b       	sbc	r25, r19
    48ba:	08 95       	ret

000048bc <__mulshisi3>:
    48bc:	b7 ff       	sbrs	r27, 7
    48be:	c5 c0       	rjmp	.+394    	; 0x4a4a <__muluhisi3>

000048c0 <__mulohisi3>:
    48c0:	c4 d0       	rcall	.+392    	; 0x4a4a <__muluhisi3>
    48c2:	82 1b       	sub	r24, r18
    48c4:	93 0b       	sbc	r25, r19
    48c6:	08 95       	ret

000048c8 <__muldi3>:
    48c8:	df 93       	push	r29
    48ca:	cf 93       	push	r28
    48cc:	1f 93       	push	r17
    48ce:	0f 93       	push	r16
    48d0:	9a 9d       	mul	r25, r10
    48d2:	f0 2d       	mov	r31, r0
    48d4:	21 9f       	mul	r18, r17
    48d6:	f0 0d       	add	r31, r0
    48d8:	8b 9d       	mul	r24, r11
    48da:	f0 0d       	add	r31, r0
    48dc:	8a 9d       	mul	r24, r10
    48de:	e0 2d       	mov	r30, r0
    48e0:	f1 0d       	add	r31, r1
    48e2:	03 9f       	mul	r16, r19
    48e4:	f0 0d       	add	r31, r0
    48e6:	02 9f       	mul	r16, r18
    48e8:	e0 0d       	add	r30, r0
    48ea:	f1 1d       	adc	r31, r1
    48ec:	4e 9d       	mul	r20, r14
    48ee:	e0 0d       	add	r30, r0
    48f0:	f1 1d       	adc	r31, r1
    48f2:	5e 9d       	mul	r21, r14
    48f4:	f0 0d       	add	r31, r0
    48f6:	4f 9d       	mul	r20, r15
    48f8:	f0 0d       	add	r31, r0
    48fa:	7f 93       	push	r23
    48fc:	6f 93       	push	r22
    48fe:	bf 92       	push	r11
    4900:	af 92       	push	r10
    4902:	5f 93       	push	r21
    4904:	4f 93       	push	r20
    4906:	d5 01       	movw	r26, r10
    4908:	91 d0       	rcall	.+290    	; 0x4a2c <__umulhisi3>
    490a:	8b 01       	movw	r16, r22
    490c:	ac 01       	movw	r20, r24
    490e:	d7 01       	movw	r26, r14
    4910:	8d d0       	rcall	.+282    	; 0x4a2c <__umulhisi3>
    4912:	eb 01       	movw	r28, r22
    4914:	e8 0f       	add	r30, r24
    4916:	f9 1f       	adc	r31, r25
    4918:	d6 01       	movw	r26, r12
    491a:	1f d0       	rcall	.+62     	; 0x495a <__muldi3_6>
    491c:	2f 91       	pop	r18
    491e:	3f 91       	pop	r19
    4920:	d6 01       	movw	r26, r12
    4922:	84 d0       	rcall	.+264    	; 0x4a2c <__umulhisi3>
    4924:	c6 0f       	add	r28, r22
    4926:	d7 1f       	adc	r29, r23
    4928:	e8 1f       	adc	r30, r24
    492a:	f9 1f       	adc	r31, r25
    492c:	af 91       	pop	r26
    492e:	bf 91       	pop	r27
    4930:	14 d0       	rcall	.+40     	; 0x495a <__muldi3_6>
    4932:	2f 91       	pop	r18
    4934:	3f 91       	pop	r19
    4936:	7a d0       	rcall	.+244    	; 0x4a2c <__umulhisi3>
    4938:	c6 0f       	add	r28, r22
    493a:	d7 1f       	adc	r29, r23
    493c:	e8 1f       	adc	r30, r24
    493e:	f9 1f       	adc	r31, r25
    4940:	d6 01       	movw	r26, r12
    4942:	74 d0       	rcall	.+232    	; 0x4a2c <__umulhisi3>
    4944:	e6 0f       	add	r30, r22
    4946:	f7 1f       	adc	r31, r23
    4948:	98 01       	movw	r18, r16
    494a:	be 01       	movw	r22, r28
    494c:	cf 01       	movw	r24, r30
    494e:	11 24       	eor	r1, r1
    4950:	0f 91       	pop	r16
    4952:	1f 91       	pop	r17
    4954:	cf 91       	pop	r28
    4956:	df 91       	pop	r29
    4958:	08 95       	ret

0000495a <__muldi3_6>:
    495a:	68 d0       	rcall	.+208    	; 0x4a2c <__umulhisi3>
    495c:	46 0f       	add	r20, r22
    495e:	57 1f       	adc	r21, r23
    4960:	c8 1f       	adc	r28, r24
    4962:	d9 1f       	adc	r29, r25
    4964:	08 f4       	brcc	.+2      	; 0x4968 <__muldi3_6+0xe>
    4966:	31 96       	adiw	r30, 0x01	; 1
    4968:	08 95       	ret

0000496a <__ashldi3>:
    496a:	0f 93       	push	r16
    496c:	08 30       	cpi	r16, 0x08	; 8
    496e:	90 f0       	brcs	.+36     	; 0x4994 <__ashldi3+0x2a>
    4970:	98 2f       	mov	r25, r24
    4972:	87 2f       	mov	r24, r23
    4974:	76 2f       	mov	r23, r22
    4976:	65 2f       	mov	r22, r21
    4978:	54 2f       	mov	r21, r20
    497a:	43 2f       	mov	r20, r19
    497c:	32 2f       	mov	r19, r18
    497e:	22 27       	eor	r18, r18
    4980:	08 50       	subi	r16, 0x08	; 8
    4982:	f4 cf       	rjmp	.-24     	; 0x496c <__ashldi3+0x2>
    4984:	22 0f       	add	r18, r18
    4986:	33 1f       	adc	r19, r19
    4988:	44 1f       	adc	r20, r20
    498a:	55 1f       	adc	r21, r21
    498c:	66 1f       	adc	r22, r22
    498e:	77 1f       	adc	r23, r23
    4990:	88 1f       	adc	r24, r24
    4992:	99 1f       	adc	r25, r25
    4994:	0a 95       	dec	r16
    4996:	b2 f7       	brpl	.-20     	; 0x4984 <__ashldi3+0x1a>
    4998:	0f 91       	pop	r16
    499a:	08 95       	ret

0000499c <__ashrdi3>:
    499c:	97 fb       	bst	r25, 7
    499e:	10 f8       	bld	r1, 0

000049a0 <__lshrdi3>:
    49a0:	16 94       	lsr	r1
    49a2:	00 08       	sbc	r0, r0
    49a4:	0f 93       	push	r16
    49a6:	08 30       	cpi	r16, 0x08	; 8
    49a8:	98 f0       	brcs	.+38     	; 0x49d0 <__lshrdi3+0x30>
    49aa:	08 50       	subi	r16, 0x08	; 8
    49ac:	23 2f       	mov	r18, r19
    49ae:	34 2f       	mov	r19, r20
    49b0:	45 2f       	mov	r20, r21
    49b2:	56 2f       	mov	r21, r22
    49b4:	67 2f       	mov	r22, r23
    49b6:	78 2f       	mov	r23, r24
    49b8:	89 2f       	mov	r24, r25
    49ba:	90 2d       	mov	r25, r0
    49bc:	f4 cf       	rjmp	.-24     	; 0x49a6 <__lshrdi3+0x6>
    49be:	05 94       	asr	r0
    49c0:	97 95       	ror	r25
    49c2:	87 95       	ror	r24
    49c4:	77 95       	ror	r23
    49c6:	67 95       	ror	r22
    49c8:	57 95       	ror	r21
    49ca:	47 95       	ror	r20
    49cc:	37 95       	ror	r19
    49ce:	27 95       	ror	r18
    49d0:	0a 95       	dec	r16
    49d2:	aa f7       	brpl	.-22     	; 0x49be <__lshrdi3+0x1e>
    49d4:	0f 91       	pop	r16
    49d6:	08 95       	ret

000049d8 <__adddi3>:
    49d8:	2a 0d       	add	r18, r10
    49da:	3b 1d       	adc	r19, r11
    49dc:	4c 1d       	adc	r20, r12
    49de:	5d 1d       	adc	r21, r13
    49e0:	6e 1d       	adc	r22, r14
    49e2:	7f 1d       	adc	r23, r15
    49e4:	80 1f       	adc	r24, r16
    49e6:	91 1f       	adc	r25, r17
    49e8:	08 95       	ret

000049ea <__adddi3_s8>:
    49ea:	00 24       	eor	r0, r0
    49ec:	a7 fd       	sbrc	r26, 7
    49ee:	00 94       	com	r0
    49f0:	2a 0f       	add	r18, r26
    49f2:	30 1d       	adc	r19, r0
    49f4:	40 1d       	adc	r20, r0
    49f6:	50 1d       	adc	r21, r0
    49f8:	60 1d       	adc	r22, r0
    49fa:	70 1d       	adc	r23, r0
    49fc:	80 1d       	adc	r24, r0
    49fe:	90 1d       	adc	r25, r0
    4a00:	08 95       	ret

00004a02 <__subdi3>:
    4a02:	2a 19       	sub	r18, r10
    4a04:	3b 09       	sbc	r19, r11
    4a06:	4c 09       	sbc	r20, r12
    4a08:	5d 09       	sbc	r21, r13
    4a0a:	6e 09       	sbc	r22, r14
    4a0c:	7f 09       	sbc	r23, r15
    4a0e:	80 0b       	sbc	r24, r16
    4a10:	91 0b       	sbc	r25, r17
    4a12:	08 95       	ret

00004a14 <__cmpdi2_s8>:
    4a14:	00 24       	eor	r0, r0
    4a16:	a7 fd       	sbrc	r26, 7
    4a18:	00 94       	com	r0
    4a1a:	2a 17       	cp	r18, r26
    4a1c:	30 05       	cpc	r19, r0
    4a1e:	40 05       	cpc	r20, r0
    4a20:	50 05       	cpc	r21, r0
    4a22:	60 05       	cpc	r22, r0
    4a24:	70 05       	cpc	r23, r0
    4a26:	80 05       	cpc	r24, r0
    4a28:	90 05       	cpc	r25, r0
    4a2a:	08 95       	ret

00004a2c <__umulhisi3>:
    4a2c:	a2 9f       	mul	r26, r18
    4a2e:	b0 01       	movw	r22, r0
    4a30:	b3 9f       	mul	r27, r19
    4a32:	c0 01       	movw	r24, r0
    4a34:	a3 9f       	mul	r26, r19
    4a36:	70 0d       	add	r23, r0
    4a38:	81 1d       	adc	r24, r1
    4a3a:	11 24       	eor	r1, r1
    4a3c:	91 1d       	adc	r25, r1
    4a3e:	b2 9f       	mul	r27, r18
    4a40:	70 0d       	add	r23, r0
    4a42:	81 1d       	adc	r24, r1
    4a44:	11 24       	eor	r1, r1
    4a46:	91 1d       	adc	r25, r1
    4a48:	08 95       	ret

00004a4a <__muluhisi3>:
    4a4a:	f0 df       	rcall	.-32     	; 0x4a2c <__umulhisi3>
    4a4c:	a5 9f       	mul	r26, r21
    4a4e:	90 0d       	add	r25, r0
    4a50:	b4 9f       	mul	r27, r20
    4a52:	90 0d       	add	r25, r0
    4a54:	a4 9f       	mul	r26, r20
    4a56:	80 0d       	add	r24, r0
    4a58:	91 1d       	adc	r25, r1
    4a5a:	11 24       	eor	r1, r1
    4a5c:	08 95       	ret

00004a5e <__ftoa_engine>:
    4a5e:	28 30       	cpi	r18, 0x08	; 8
    4a60:	08 f0       	brcs	.+2      	; 0x4a64 <__ftoa_engine+0x6>
    4a62:	27 e0       	ldi	r18, 0x07	; 7
    4a64:	33 27       	eor	r19, r19
    4a66:	da 01       	movw	r26, r20
    4a68:	99 0f       	add	r25, r25
    4a6a:	31 1d       	adc	r19, r1
    4a6c:	87 fd       	sbrc	r24, 7
    4a6e:	91 60       	ori	r25, 0x01	; 1
    4a70:	00 96       	adiw	r24, 0x00	; 0
    4a72:	61 05       	cpc	r22, r1
    4a74:	71 05       	cpc	r23, r1
    4a76:	39 f4       	brne	.+14     	; 0x4a86 <__ftoa_engine+0x28>
    4a78:	32 60       	ori	r19, 0x02	; 2
    4a7a:	2e 5f       	subi	r18, 0xFE	; 254
    4a7c:	3d 93       	st	X+, r19
    4a7e:	30 e3       	ldi	r19, 0x30	; 48
    4a80:	2a 95       	dec	r18
    4a82:	e1 f7       	brne	.-8      	; 0x4a7c <__ftoa_engine+0x1e>
    4a84:	08 95       	ret
    4a86:	9f 3f       	cpi	r25, 0xFF	; 255
    4a88:	30 f0       	brcs	.+12     	; 0x4a96 <__ftoa_engine+0x38>
    4a8a:	80 38       	cpi	r24, 0x80	; 128
    4a8c:	71 05       	cpc	r23, r1
    4a8e:	61 05       	cpc	r22, r1
    4a90:	09 f0       	breq	.+2      	; 0x4a94 <__ftoa_engine+0x36>
    4a92:	3c 5f       	subi	r19, 0xFC	; 252
    4a94:	3c 5f       	subi	r19, 0xFC	; 252
    4a96:	3d 93       	st	X+, r19
    4a98:	91 30       	cpi	r25, 0x01	; 1
    4a9a:	08 f0       	brcs	.+2      	; 0x4a9e <__ftoa_engine+0x40>
    4a9c:	80 68       	ori	r24, 0x80	; 128
    4a9e:	91 1d       	adc	r25, r1
    4aa0:	df 93       	push	r29
    4aa2:	cf 93       	push	r28
    4aa4:	1f 93       	push	r17
    4aa6:	0f 93       	push	r16
    4aa8:	ff 92       	push	r15
    4aaa:	ef 92       	push	r14
    4aac:	19 2f       	mov	r17, r25
    4aae:	98 7f       	andi	r25, 0xF8	; 248
    4ab0:	96 95       	lsr	r25
    4ab2:	e9 2f       	mov	r30, r25
    4ab4:	96 95       	lsr	r25
    4ab6:	96 95       	lsr	r25
    4ab8:	e9 0f       	add	r30, r25
    4aba:	ff 27       	eor	r31, r31
    4abc:	e2 5a       	subi	r30, 0xA2	; 162
    4abe:	fc 4f       	sbci	r31, 0xFC	; 252
    4ac0:	99 27       	eor	r25, r25
    4ac2:	33 27       	eor	r19, r19
    4ac4:	ee 24       	eor	r14, r14
    4ac6:	ff 24       	eor	r15, r15
    4ac8:	a7 01       	movw	r20, r14
    4aca:	e7 01       	movw	r28, r14
    4acc:	05 90       	lpm	r0, Z+
    4ace:	08 94       	sec
    4ad0:	07 94       	ror	r0
    4ad2:	28 f4       	brcc	.+10     	; 0x4ade <__ftoa_engine+0x80>
    4ad4:	36 0f       	add	r19, r22
    4ad6:	e7 1e       	adc	r14, r23
    4ad8:	f8 1e       	adc	r15, r24
    4ada:	49 1f       	adc	r20, r25
    4adc:	51 1d       	adc	r21, r1
    4ade:	66 0f       	add	r22, r22
    4ae0:	77 1f       	adc	r23, r23
    4ae2:	88 1f       	adc	r24, r24
    4ae4:	99 1f       	adc	r25, r25
    4ae6:	06 94       	lsr	r0
    4ae8:	a1 f7       	brne	.-24     	; 0x4ad2 <__ftoa_engine+0x74>
    4aea:	05 90       	lpm	r0, Z+
    4aec:	07 94       	ror	r0
    4aee:	28 f4       	brcc	.+10     	; 0x4afa <__ftoa_engine+0x9c>
    4af0:	e7 0e       	add	r14, r23
    4af2:	f8 1e       	adc	r15, r24
    4af4:	49 1f       	adc	r20, r25
    4af6:	56 1f       	adc	r21, r22
    4af8:	c1 1d       	adc	r28, r1
    4afa:	77 0f       	add	r23, r23
    4afc:	88 1f       	adc	r24, r24
    4afe:	99 1f       	adc	r25, r25
    4b00:	66 1f       	adc	r22, r22
    4b02:	06 94       	lsr	r0
    4b04:	a1 f7       	brne	.-24     	; 0x4aee <__ftoa_engine+0x90>
    4b06:	05 90       	lpm	r0, Z+
    4b08:	07 94       	ror	r0
    4b0a:	28 f4       	brcc	.+10     	; 0x4b16 <__ftoa_engine+0xb8>
    4b0c:	f8 0e       	add	r15, r24
    4b0e:	49 1f       	adc	r20, r25
    4b10:	56 1f       	adc	r21, r22
    4b12:	c7 1f       	adc	r28, r23
    4b14:	d1 1d       	adc	r29, r1
    4b16:	88 0f       	add	r24, r24
    4b18:	99 1f       	adc	r25, r25
    4b1a:	66 1f       	adc	r22, r22
    4b1c:	77 1f       	adc	r23, r23
    4b1e:	06 94       	lsr	r0
    4b20:	a1 f7       	brne	.-24     	; 0x4b0a <__ftoa_engine+0xac>
    4b22:	05 90       	lpm	r0, Z+
    4b24:	07 94       	ror	r0
    4b26:	20 f4       	brcc	.+8      	; 0x4b30 <__ftoa_engine+0xd2>
    4b28:	49 0f       	add	r20, r25
    4b2a:	56 1f       	adc	r21, r22
    4b2c:	c7 1f       	adc	r28, r23
    4b2e:	d8 1f       	adc	r29, r24
    4b30:	99 0f       	add	r25, r25
    4b32:	66 1f       	adc	r22, r22
    4b34:	77 1f       	adc	r23, r23
    4b36:	88 1f       	adc	r24, r24
    4b38:	06 94       	lsr	r0
    4b3a:	a9 f7       	brne	.-22     	; 0x4b26 <__ftoa_engine+0xc8>
    4b3c:	84 91       	lpm	r24, Z
    4b3e:	10 95       	com	r17
    4b40:	17 70       	andi	r17, 0x07	; 7
    4b42:	41 f0       	breq	.+16     	; 0x4b54 <__ftoa_engine+0xf6>
    4b44:	d6 95       	lsr	r29
    4b46:	c7 95       	ror	r28
    4b48:	57 95       	ror	r21
    4b4a:	47 95       	ror	r20
    4b4c:	f7 94       	ror	r15
    4b4e:	e7 94       	ror	r14
    4b50:	1a 95       	dec	r17
    4b52:	c1 f7       	brne	.-16     	; 0x4b44 <__ftoa_engine+0xe6>
    4b54:	e4 e0       	ldi	r30, 0x04	; 4
    4b56:	f3 e0       	ldi	r31, 0x03	; 3
    4b58:	68 94       	set
    4b5a:	15 90       	lpm	r1, Z+
    4b5c:	15 91       	lpm	r17, Z+
    4b5e:	35 91       	lpm	r19, Z+
    4b60:	65 91       	lpm	r22, Z+
    4b62:	95 91       	lpm	r25, Z+
    4b64:	05 90       	lpm	r0, Z+
    4b66:	7f e2       	ldi	r23, 0x2F	; 47
    4b68:	73 95       	inc	r23
    4b6a:	e1 18       	sub	r14, r1
    4b6c:	f1 0a       	sbc	r15, r17
    4b6e:	43 0b       	sbc	r20, r19
    4b70:	56 0b       	sbc	r21, r22
    4b72:	c9 0b       	sbc	r28, r25
    4b74:	d0 09       	sbc	r29, r0
    4b76:	c0 f7       	brcc	.-16     	; 0x4b68 <__ftoa_engine+0x10a>
    4b78:	e1 0c       	add	r14, r1
    4b7a:	f1 1e       	adc	r15, r17
    4b7c:	43 1f       	adc	r20, r19
    4b7e:	56 1f       	adc	r21, r22
    4b80:	c9 1f       	adc	r28, r25
    4b82:	d0 1d       	adc	r29, r0
    4b84:	7e f4       	brtc	.+30     	; 0x4ba4 <__ftoa_engine+0x146>
    4b86:	70 33       	cpi	r23, 0x30	; 48
    4b88:	11 f4       	brne	.+4      	; 0x4b8e <__ftoa_engine+0x130>
    4b8a:	8a 95       	dec	r24
    4b8c:	e6 cf       	rjmp	.-52     	; 0x4b5a <__ftoa_engine+0xfc>
    4b8e:	e8 94       	clt
    4b90:	01 50       	subi	r16, 0x01	; 1
    4b92:	30 f0       	brcs	.+12     	; 0x4ba0 <__ftoa_engine+0x142>
    4b94:	08 0f       	add	r16, r24
    4b96:	0a f4       	brpl	.+2      	; 0x4b9a <__ftoa_engine+0x13c>
    4b98:	00 27       	eor	r16, r16
    4b9a:	02 17       	cp	r16, r18
    4b9c:	08 f4       	brcc	.+2      	; 0x4ba0 <__ftoa_engine+0x142>
    4b9e:	20 2f       	mov	r18, r16
    4ba0:	23 95       	inc	r18
    4ba2:	02 2f       	mov	r16, r18
    4ba4:	7a 33       	cpi	r23, 0x3A	; 58
    4ba6:	28 f0       	brcs	.+10     	; 0x4bb2 <__ftoa_engine+0x154>
    4ba8:	79 e3       	ldi	r23, 0x39	; 57
    4baa:	7d 93       	st	X+, r23
    4bac:	2a 95       	dec	r18
    4bae:	e9 f7       	brne	.-6      	; 0x4baa <__ftoa_engine+0x14c>
    4bb0:	10 c0       	rjmp	.+32     	; 0x4bd2 <__ftoa_engine+0x174>
    4bb2:	7d 93       	st	X+, r23
    4bb4:	2a 95       	dec	r18
    4bb6:	89 f6       	brne	.-94     	; 0x4b5a <__ftoa_engine+0xfc>
    4bb8:	06 94       	lsr	r0
    4bba:	97 95       	ror	r25
    4bbc:	67 95       	ror	r22
    4bbe:	37 95       	ror	r19
    4bc0:	17 95       	ror	r17
    4bc2:	17 94       	ror	r1
    4bc4:	e1 18       	sub	r14, r1
    4bc6:	f1 0a       	sbc	r15, r17
    4bc8:	43 0b       	sbc	r20, r19
    4bca:	56 0b       	sbc	r21, r22
    4bcc:	c9 0b       	sbc	r28, r25
    4bce:	d0 09       	sbc	r29, r0
    4bd0:	98 f0       	brcs	.+38     	; 0x4bf8 <__ftoa_engine+0x19a>
    4bd2:	23 95       	inc	r18
    4bd4:	7e 91       	ld	r23, -X
    4bd6:	73 95       	inc	r23
    4bd8:	7a 33       	cpi	r23, 0x3A	; 58
    4bda:	08 f0       	brcs	.+2      	; 0x4bde <__ftoa_engine+0x180>
    4bdc:	70 e3       	ldi	r23, 0x30	; 48
    4bde:	7c 93       	st	X, r23
    4be0:	20 13       	cpse	r18, r16
    4be2:	b8 f7       	brcc	.-18     	; 0x4bd2 <__ftoa_engine+0x174>
    4be4:	7e 91       	ld	r23, -X
    4be6:	70 61       	ori	r23, 0x10	; 16
    4be8:	7d 93       	st	X+, r23
    4bea:	30 f0       	brcs	.+12     	; 0x4bf8 <__ftoa_engine+0x19a>
    4bec:	83 95       	inc	r24
    4bee:	71 e3       	ldi	r23, 0x31	; 49
    4bf0:	7d 93       	st	X+, r23
    4bf2:	70 e3       	ldi	r23, 0x30	; 48
    4bf4:	2a 95       	dec	r18
    4bf6:	e1 f7       	brne	.-8      	; 0x4bf0 <__ftoa_engine+0x192>
    4bf8:	11 24       	eor	r1, r1
    4bfa:	ef 90       	pop	r14
    4bfc:	ff 90       	pop	r15
    4bfe:	0f 91       	pop	r16
    4c00:	1f 91       	pop	r17
    4c02:	cf 91       	pop	r28
    4c04:	df 91       	pop	r29
    4c06:	99 27       	eor	r25, r25
    4c08:	87 fd       	sbrc	r24, 7
    4c0a:	90 95       	com	r25
    4c0c:	08 95       	ret

00004c0e <strnlen_P>:
    4c0e:	fc 01       	movw	r30, r24
    4c10:	05 90       	lpm	r0, Z+
    4c12:	61 50       	subi	r22, 0x01	; 1
    4c14:	70 40       	sbci	r23, 0x00	; 0
    4c16:	01 10       	cpse	r0, r1
    4c18:	d8 f7       	brcc	.-10     	; 0x4c10 <strnlen_P+0x2>
    4c1a:	80 95       	com	r24
    4c1c:	90 95       	com	r25
    4c1e:	8e 0f       	add	r24, r30
    4c20:	9f 1f       	adc	r25, r31
    4c22:	08 95       	ret

00004c24 <strnlen>:
    4c24:	fc 01       	movw	r30, r24
    4c26:	61 50       	subi	r22, 0x01	; 1
    4c28:	70 40       	sbci	r23, 0x00	; 0
    4c2a:	01 90       	ld	r0, Z+
    4c2c:	01 10       	cpse	r0, r1
    4c2e:	d8 f7       	brcc	.-10     	; 0x4c26 <strnlen+0x2>
    4c30:	80 95       	com	r24
    4c32:	90 95       	com	r25
    4c34:	8e 0f       	add	r24, r30
    4c36:	9f 1f       	adc	r25, r31
    4c38:	08 95       	ret

00004c3a <fdevopen>:
    4c3a:	0f 93       	push	r16
    4c3c:	1f 93       	push	r17
    4c3e:	cf 93       	push	r28
    4c40:	df 93       	push	r29
    4c42:	00 97       	sbiw	r24, 0x00	; 0
    4c44:	31 f4       	brne	.+12     	; 0x4c52 <fdevopen+0x18>
    4c46:	61 15       	cp	r22, r1
    4c48:	71 05       	cpc	r23, r1
    4c4a:	19 f4       	brne	.+6      	; 0x4c52 <fdevopen+0x18>
    4c4c:	80 e0       	ldi	r24, 0x00	; 0
    4c4e:	90 e0       	ldi	r25, 0x00	; 0
    4c50:	39 c0       	rjmp	.+114    	; 0x4cc4 <fdevopen+0x8a>
    4c52:	8b 01       	movw	r16, r22
    4c54:	ec 01       	movw	r28, r24
    4c56:	6e e0       	ldi	r22, 0x0E	; 14
    4c58:	70 e0       	ldi	r23, 0x00	; 0
    4c5a:	81 e0       	ldi	r24, 0x01	; 1
    4c5c:	90 e0       	ldi	r25, 0x00	; 0
    4c5e:	19 d1       	rcall	.+562    	; 0x4e92 <calloc>
    4c60:	fc 01       	movw	r30, r24
    4c62:	89 2b       	or	r24, r25
    4c64:	99 f3       	breq	.-26     	; 0x4c4c <fdevopen+0x12>
    4c66:	80 e8       	ldi	r24, 0x80	; 128
    4c68:	83 83       	std	Z+3, r24	; 0x03
    4c6a:	01 15       	cp	r16, r1
    4c6c:	11 05       	cpc	r17, r1
    4c6e:	71 f0       	breq	.+28     	; 0x4c8c <fdevopen+0x52>
    4c70:	02 87       	std	Z+10, r16	; 0x0a
    4c72:	13 87       	std	Z+11, r17	; 0x0b
    4c74:	81 e8       	ldi	r24, 0x81	; 129
    4c76:	83 83       	std	Z+3, r24	; 0x03
    4c78:	80 91 a5 23 	lds	r24, 0x23A5	; 0x8023a5 <__iob>
    4c7c:	90 91 a6 23 	lds	r25, 0x23A6	; 0x8023a6 <__iob+0x1>
    4c80:	89 2b       	or	r24, r25
    4c82:	21 f4       	brne	.+8      	; 0x4c8c <fdevopen+0x52>
    4c84:	e0 93 a5 23 	sts	0x23A5, r30	; 0x8023a5 <__iob>
    4c88:	f0 93 a6 23 	sts	0x23A6, r31	; 0x8023a6 <__iob+0x1>
    4c8c:	20 97       	sbiw	r28, 0x00	; 0
    4c8e:	c9 f0       	breq	.+50     	; 0x4cc2 <fdevopen+0x88>
    4c90:	c0 87       	std	Z+8, r28	; 0x08
    4c92:	d1 87       	std	Z+9, r29	; 0x09
    4c94:	83 81       	ldd	r24, Z+3	; 0x03
    4c96:	82 60       	ori	r24, 0x02	; 2
    4c98:	83 83       	std	Z+3, r24	; 0x03
    4c9a:	80 91 a7 23 	lds	r24, 0x23A7	; 0x8023a7 <__iob+0x2>
    4c9e:	90 91 a8 23 	lds	r25, 0x23A8	; 0x8023a8 <__iob+0x3>
    4ca2:	89 2b       	or	r24, r25
    4ca4:	71 f4       	brne	.+28     	; 0x4cc2 <fdevopen+0x88>
    4ca6:	e0 93 a7 23 	sts	0x23A7, r30	; 0x8023a7 <__iob+0x2>
    4caa:	f0 93 a8 23 	sts	0x23A8, r31	; 0x8023a8 <__iob+0x3>
    4cae:	80 91 a9 23 	lds	r24, 0x23A9	; 0x8023a9 <__iob+0x4>
    4cb2:	90 91 aa 23 	lds	r25, 0x23AA	; 0x8023aa <__iob+0x5>
    4cb6:	89 2b       	or	r24, r25
    4cb8:	21 f4       	brne	.+8      	; 0x4cc2 <fdevopen+0x88>
    4cba:	e0 93 a9 23 	sts	0x23A9, r30	; 0x8023a9 <__iob+0x4>
    4cbe:	f0 93 aa 23 	sts	0x23AA, r31	; 0x8023aa <__iob+0x5>
    4cc2:	cf 01       	movw	r24, r30
    4cc4:	df 91       	pop	r29
    4cc6:	cf 91       	pop	r28
    4cc8:	1f 91       	pop	r17
    4cca:	0f 91       	pop	r16
    4ccc:	08 95       	ret

00004cce <fputc>:
    4cce:	0f 93       	push	r16
    4cd0:	1f 93       	push	r17
    4cd2:	cf 93       	push	r28
    4cd4:	df 93       	push	r29
    4cd6:	fb 01       	movw	r30, r22
    4cd8:	23 81       	ldd	r18, Z+3	; 0x03
    4cda:	21 fd       	sbrc	r18, 1
    4cdc:	03 c0       	rjmp	.+6      	; 0x4ce4 <fputc+0x16>
    4cde:	8f ef       	ldi	r24, 0xFF	; 255
    4ce0:	9f ef       	ldi	r25, 0xFF	; 255
    4ce2:	2c c0       	rjmp	.+88     	; 0x4d3c <fputc+0x6e>
    4ce4:	22 ff       	sbrs	r18, 2
    4ce6:	16 c0       	rjmp	.+44     	; 0x4d14 <fputc+0x46>
    4ce8:	46 81       	ldd	r20, Z+6	; 0x06
    4cea:	57 81       	ldd	r21, Z+7	; 0x07
    4cec:	24 81       	ldd	r18, Z+4	; 0x04
    4cee:	35 81       	ldd	r19, Z+5	; 0x05
    4cf0:	42 17       	cp	r20, r18
    4cf2:	53 07       	cpc	r21, r19
    4cf4:	44 f4       	brge	.+16     	; 0x4d06 <fputc+0x38>
    4cf6:	a0 81       	ld	r26, Z
    4cf8:	b1 81       	ldd	r27, Z+1	; 0x01
    4cfa:	9d 01       	movw	r18, r26
    4cfc:	2f 5f       	subi	r18, 0xFF	; 255
    4cfe:	3f 4f       	sbci	r19, 0xFF	; 255
    4d00:	20 83       	st	Z, r18
    4d02:	31 83       	std	Z+1, r19	; 0x01
    4d04:	8c 93       	st	X, r24
    4d06:	26 81       	ldd	r18, Z+6	; 0x06
    4d08:	37 81       	ldd	r19, Z+7	; 0x07
    4d0a:	2f 5f       	subi	r18, 0xFF	; 255
    4d0c:	3f 4f       	sbci	r19, 0xFF	; 255
    4d0e:	26 83       	std	Z+6, r18	; 0x06
    4d10:	37 83       	std	Z+7, r19	; 0x07
    4d12:	14 c0       	rjmp	.+40     	; 0x4d3c <fputc+0x6e>
    4d14:	8b 01       	movw	r16, r22
    4d16:	ec 01       	movw	r28, r24
    4d18:	fb 01       	movw	r30, r22
    4d1a:	00 84       	ldd	r0, Z+8	; 0x08
    4d1c:	f1 85       	ldd	r31, Z+9	; 0x09
    4d1e:	e0 2d       	mov	r30, r0
    4d20:	19 95       	eicall
    4d22:	89 2b       	or	r24, r25
    4d24:	e1 f6       	brne	.-72     	; 0x4cde <fputc+0x10>
    4d26:	d8 01       	movw	r26, r16
    4d28:	16 96       	adiw	r26, 0x06	; 6
    4d2a:	8d 91       	ld	r24, X+
    4d2c:	9c 91       	ld	r25, X
    4d2e:	17 97       	sbiw	r26, 0x07	; 7
    4d30:	01 96       	adiw	r24, 0x01	; 1
    4d32:	16 96       	adiw	r26, 0x06	; 6
    4d34:	8d 93       	st	X+, r24
    4d36:	9c 93       	st	X, r25
    4d38:	17 97       	sbiw	r26, 0x07	; 7
    4d3a:	ce 01       	movw	r24, r28
    4d3c:	df 91       	pop	r29
    4d3e:	cf 91       	pop	r28
    4d40:	1f 91       	pop	r17
    4d42:	0f 91       	pop	r16
    4d44:	08 95       	ret

00004d46 <printf>:
    4d46:	cf 93       	push	r28
    4d48:	df 93       	push	r29
    4d4a:	cd b7       	in	r28, 0x3d	; 61
    4d4c:	de b7       	in	r29, 0x3e	; 62
    4d4e:	ae 01       	movw	r20, r28
    4d50:	4a 5f       	subi	r20, 0xFA	; 250
    4d52:	5f 4f       	sbci	r21, 0xFF	; 255
    4d54:	fa 01       	movw	r30, r20
    4d56:	61 91       	ld	r22, Z+
    4d58:	71 91       	ld	r23, Z+
    4d5a:	af 01       	movw	r20, r30
    4d5c:	80 91 a7 23 	lds	r24, 0x23A7	; 0x8023a7 <__iob+0x2>
    4d60:	90 91 a8 23 	lds	r25, 0x23A8	; 0x8023a8 <__iob+0x3>
    4d64:	c7 d9       	rcall	.-3186   	; 0x40f4 <vfprintf>
    4d66:	df 91       	pop	r29
    4d68:	cf 91       	pop	r28
    4d6a:	08 95       	ret

00004d6c <putchar>:
    4d6c:	60 91 a7 23 	lds	r22, 0x23A7	; 0x8023a7 <__iob+0x2>
    4d70:	70 91 a8 23 	lds	r23, 0x23A8	; 0x8023a8 <__iob+0x3>
    4d74:	ac cf       	rjmp	.-168    	; 0x4cce <fputc>

00004d76 <puts>:
    4d76:	0f 93       	push	r16
    4d78:	1f 93       	push	r17
    4d7a:	cf 93       	push	r28
    4d7c:	df 93       	push	r29
    4d7e:	e0 91 a7 23 	lds	r30, 0x23A7	; 0x8023a7 <__iob+0x2>
    4d82:	f0 91 a8 23 	lds	r31, 0x23A8	; 0x8023a8 <__iob+0x3>
    4d86:	23 81       	ldd	r18, Z+3	; 0x03
    4d88:	21 ff       	sbrs	r18, 1
    4d8a:	1b c0       	rjmp	.+54     	; 0x4dc2 <puts+0x4c>
    4d8c:	8c 01       	movw	r16, r24
    4d8e:	d0 e0       	ldi	r29, 0x00	; 0
    4d90:	c0 e0       	ldi	r28, 0x00	; 0
    4d92:	f8 01       	movw	r30, r16
    4d94:	81 91       	ld	r24, Z+
    4d96:	8f 01       	movw	r16, r30
    4d98:	60 91 a7 23 	lds	r22, 0x23A7	; 0x8023a7 <__iob+0x2>
    4d9c:	70 91 a8 23 	lds	r23, 0x23A8	; 0x8023a8 <__iob+0x3>
    4da0:	db 01       	movw	r26, r22
    4da2:	18 96       	adiw	r26, 0x08	; 8
    4da4:	ed 91       	ld	r30, X+
    4da6:	fc 91       	ld	r31, X
    4da8:	19 97       	sbiw	r26, 0x09	; 9
    4daa:	88 23       	and	r24, r24
    4dac:	31 f0       	breq	.+12     	; 0x4dba <puts+0x44>
    4dae:	19 95       	eicall
    4db0:	89 2b       	or	r24, r25
    4db2:	79 f3       	breq	.-34     	; 0x4d92 <puts+0x1c>
    4db4:	df ef       	ldi	r29, 0xFF	; 255
    4db6:	cf ef       	ldi	r28, 0xFF	; 255
    4db8:	ec cf       	rjmp	.-40     	; 0x4d92 <puts+0x1c>
    4dba:	8a e0       	ldi	r24, 0x0A	; 10
    4dbc:	19 95       	eicall
    4dbe:	89 2b       	or	r24, r25
    4dc0:	19 f0       	breq	.+6      	; 0x4dc8 <puts+0x52>
    4dc2:	8f ef       	ldi	r24, 0xFF	; 255
    4dc4:	9f ef       	ldi	r25, 0xFF	; 255
    4dc6:	02 c0       	rjmp	.+4      	; 0x4dcc <puts+0x56>
    4dc8:	8d 2f       	mov	r24, r29
    4dca:	9c 2f       	mov	r25, r28
    4dcc:	df 91       	pop	r29
    4dce:	cf 91       	pop	r28
    4dd0:	1f 91       	pop	r17
    4dd2:	0f 91       	pop	r16
    4dd4:	08 95       	ret

00004dd6 <__ultoa_invert>:
    4dd6:	fa 01       	movw	r30, r20
    4dd8:	aa 27       	eor	r26, r26
    4dda:	28 30       	cpi	r18, 0x08	; 8
    4ddc:	51 f1       	breq	.+84     	; 0x4e32 <__ultoa_invert+0x5c>
    4dde:	20 31       	cpi	r18, 0x10	; 16
    4de0:	81 f1       	breq	.+96     	; 0x4e42 <__ultoa_invert+0x6c>
    4de2:	e8 94       	clt
    4de4:	6f 93       	push	r22
    4de6:	6e 7f       	andi	r22, 0xFE	; 254
    4de8:	6e 5f       	subi	r22, 0xFE	; 254
    4dea:	7f 4f       	sbci	r23, 0xFF	; 255
    4dec:	8f 4f       	sbci	r24, 0xFF	; 255
    4dee:	9f 4f       	sbci	r25, 0xFF	; 255
    4df0:	af 4f       	sbci	r26, 0xFF	; 255
    4df2:	b1 e0       	ldi	r27, 0x01	; 1
    4df4:	3e d0       	rcall	.+124    	; 0x4e72 <__ultoa_invert+0x9c>
    4df6:	b4 e0       	ldi	r27, 0x04	; 4
    4df8:	3c d0       	rcall	.+120    	; 0x4e72 <__ultoa_invert+0x9c>
    4dfa:	67 0f       	add	r22, r23
    4dfc:	78 1f       	adc	r23, r24
    4dfe:	89 1f       	adc	r24, r25
    4e00:	9a 1f       	adc	r25, r26
    4e02:	a1 1d       	adc	r26, r1
    4e04:	68 0f       	add	r22, r24
    4e06:	79 1f       	adc	r23, r25
    4e08:	8a 1f       	adc	r24, r26
    4e0a:	91 1d       	adc	r25, r1
    4e0c:	a1 1d       	adc	r26, r1
    4e0e:	6a 0f       	add	r22, r26
    4e10:	71 1d       	adc	r23, r1
    4e12:	81 1d       	adc	r24, r1
    4e14:	91 1d       	adc	r25, r1
    4e16:	a1 1d       	adc	r26, r1
    4e18:	20 d0       	rcall	.+64     	; 0x4e5a <__ultoa_invert+0x84>
    4e1a:	09 f4       	brne	.+2      	; 0x4e1e <__ultoa_invert+0x48>
    4e1c:	68 94       	set
    4e1e:	3f 91       	pop	r19
    4e20:	2a e0       	ldi	r18, 0x0A	; 10
    4e22:	26 9f       	mul	r18, r22
    4e24:	11 24       	eor	r1, r1
    4e26:	30 19       	sub	r19, r0
    4e28:	30 5d       	subi	r19, 0xD0	; 208
    4e2a:	31 93       	st	Z+, r19
    4e2c:	de f6       	brtc	.-74     	; 0x4de4 <__ultoa_invert+0xe>
    4e2e:	cf 01       	movw	r24, r30
    4e30:	08 95       	ret
    4e32:	46 2f       	mov	r20, r22
    4e34:	47 70       	andi	r20, 0x07	; 7
    4e36:	40 5d       	subi	r20, 0xD0	; 208
    4e38:	41 93       	st	Z+, r20
    4e3a:	b3 e0       	ldi	r27, 0x03	; 3
    4e3c:	0f d0       	rcall	.+30     	; 0x4e5c <__ultoa_invert+0x86>
    4e3e:	c9 f7       	brne	.-14     	; 0x4e32 <__ultoa_invert+0x5c>
    4e40:	f6 cf       	rjmp	.-20     	; 0x4e2e <__ultoa_invert+0x58>
    4e42:	46 2f       	mov	r20, r22
    4e44:	4f 70       	andi	r20, 0x0F	; 15
    4e46:	40 5d       	subi	r20, 0xD0	; 208
    4e48:	4a 33       	cpi	r20, 0x3A	; 58
    4e4a:	18 f0       	brcs	.+6      	; 0x4e52 <__ultoa_invert+0x7c>
    4e4c:	49 5d       	subi	r20, 0xD9	; 217
    4e4e:	31 fd       	sbrc	r19, 1
    4e50:	40 52       	subi	r20, 0x20	; 32
    4e52:	41 93       	st	Z+, r20
    4e54:	02 d0       	rcall	.+4      	; 0x4e5a <__ultoa_invert+0x84>
    4e56:	a9 f7       	brne	.-22     	; 0x4e42 <__ultoa_invert+0x6c>
    4e58:	ea cf       	rjmp	.-44     	; 0x4e2e <__ultoa_invert+0x58>
    4e5a:	b4 e0       	ldi	r27, 0x04	; 4
    4e5c:	a6 95       	lsr	r26
    4e5e:	97 95       	ror	r25
    4e60:	87 95       	ror	r24
    4e62:	77 95       	ror	r23
    4e64:	67 95       	ror	r22
    4e66:	ba 95       	dec	r27
    4e68:	c9 f7       	brne	.-14     	; 0x4e5c <__ultoa_invert+0x86>
    4e6a:	00 97       	sbiw	r24, 0x00	; 0
    4e6c:	61 05       	cpc	r22, r1
    4e6e:	71 05       	cpc	r23, r1
    4e70:	08 95       	ret
    4e72:	9b 01       	movw	r18, r22
    4e74:	ac 01       	movw	r20, r24
    4e76:	0a 2e       	mov	r0, r26
    4e78:	06 94       	lsr	r0
    4e7a:	57 95       	ror	r21
    4e7c:	47 95       	ror	r20
    4e7e:	37 95       	ror	r19
    4e80:	27 95       	ror	r18
    4e82:	ba 95       	dec	r27
    4e84:	c9 f7       	brne	.-14     	; 0x4e78 <__ultoa_invert+0xa2>
    4e86:	62 0f       	add	r22, r18
    4e88:	73 1f       	adc	r23, r19
    4e8a:	84 1f       	adc	r24, r20
    4e8c:	95 1f       	adc	r25, r21
    4e8e:	a0 1d       	adc	r26, r0
    4e90:	08 95       	ret

00004e92 <calloc>:
    4e92:	0f 93       	push	r16
    4e94:	1f 93       	push	r17
    4e96:	cf 93       	push	r28
    4e98:	df 93       	push	r29
    4e9a:	86 9f       	mul	r24, r22
    4e9c:	80 01       	movw	r16, r0
    4e9e:	87 9f       	mul	r24, r23
    4ea0:	10 0d       	add	r17, r0
    4ea2:	96 9f       	mul	r25, r22
    4ea4:	10 0d       	add	r17, r0
    4ea6:	11 24       	eor	r1, r1
    4ea8:	c8 01       	movw	r24, r16
    4eaa:	0d d0       	rcall	.+26     	; 0x4ec6 <malloc>
    4eac:	ec 01       	movw	r28, r24
    4eae:	00 97       	sbiw	r24, 0x00	; 0
    4eb0:	21 f0       	breq	.+8      	; 0x4eba <calloc+0x28>
    4eb2:	a8 01       	movw	r20, r16
    4eb4:	60 e0       	ldi	r22, 0x00	; 0
    4eb6:	70 e0       	ldi	r23, 0x00	; 0
    4eb8:	27 d1       	rcall	.+590    	; 0x5108 <memset>
    4eba:	ce 01       	movw	r24, r28
    4ebc:	df 91       	pop	r29
    4ebe:	cf 91       	pop	r28
    4ec0:	1f 91       	pop	r17
    4ec2:	0f 91       	pop	r16
    4ec4:	08 95       	ret

00004ec6 <malloc>:
    4ec6:	0f 93       	push	r16
    4ec8:	1f 93       	push	r17
    4eca:	cf 93       	push	r28
    4ecc:	df 93       	push	r29
    4ece:	82 30       	cpi	r24, 0x02	; 2
    4ed0:	91 05       	cpc	r25, r1
    4ed2:	10 f4       	brcc	.+4      	; 0x4ed8 <malloc+0x12>
    4ed4:	82 e0       	ldi	r24, 0x02	; 2
    4ed6:	90 e0       	ldi	r25, 0x00	; 0
    4ed8:	e0 91 ad 23 	lds	r30, 0x23AD	; 0x8023ad <__flp>
    4edc:	f0 91 ae 23 	lds	r31, 0x23AE	; 0x8023ae <__flp+0x1>
    4ee0:	20 e0       	ldi	r18, 0x00	; 0
    4ee2:	30 e0       	ldi	r19, 0x00	; 0
    4ee4:	a0 e0       	ldi	r26, 0x00	; 0
    4ee6:	b0 e0       	ldi	r27, 0x00	; 0
    4ee8:	30 97       	sbiw	r30, 0x00	; 0
    4eea:	19 f1       	breq	.+70     	; 0x4f32 <malloc+0x6c>
    4eec:	40 81       	ld	r20, Z
    4eee:	51 81       	ldd	r21, Z+1	; 0x01
    4ef0:	02 81       	ldd	r16, Z+2	; 0x02
    4ef2:	13 81       	ldd	r17, Z+3	; 0x03
    4ef4:	48 17       	cp	r20, r24
    4ef6:	59 07       	cpc	r21, r25
    4ef8:	c8 f0       	brcs	.+50     	; 0x4f2c <malloc+0x66>
    4efa:	84 17       	cp	r24, r20
    4efc:	95 07       	cpc	r25, r21
    4efe:	69 f4       	brne	.+26     	; 0x4f1a <malloc+0x54>
    4f00:	10 97       	sbiw	r26, 0x00	; 0
    4f02:	31 f0       	breq	.+12     	; 0x4f10 <malloc+0x4a>
    4f04:	12 96       	adiw	r26, 0x02	; 2
    4f06:	0c 93       	st	X, r16
    4f08:	12 97       	sbiw	r26, 0x02	; 2
    4f0a:	13 96       	adiw	r26, 0x03	; 3
    4f0c:	1c 93       	st	X, r17
    4f0e:	27 c0       	rjmp	.+78     	; 0x4f5e <malloc+0x98>
    4f10:	00 93 ad 23 	sts	0x23AD, r16	; 0x8023ad <__flp>
    4f14:	10 93 ae 23 	sts	0x23AE, r17	; 0x8023ae <__flp+0x1>
    4f18:	22 c0       	rjmp	.+68     	; 0x4f5e <malloc+0x98>
    4f1a:	21 15       	cp	r18, r1
    4f1c:	31 05       	cpc	r19, r1
    4f1e:	19 f0       	breq	.+6      	; 0x4f26 <malloc+0x60>
    4f20:	42 17       	cp	r20, r18
    4f22:	53 07       	cpc	r21, r19
    4f24:	18 f4       	brcc	.+6      	; 0x4f2c <malloc+0x66>
    4f26:	9a 01       	movw	r18, r20
    4f28:	bd 01       	movw	r22, r26
    4f2a:	ef 01       	movw	r28, r30
    4f2c:	df 01       	movw	r26, r30
    4f2e:	f8 01       	movw	r30, r16
    4f30:	db cf       	rjmp	.-74     	; 0x4ee8 <malloc+0x22>
    4f32:	21 15       	cp	r18, r1
    4f34:	31 05       	cpc	r19, r1
    4f36:	f9 f0       	breq	.+62     	; 0x4f76 <malloc+0xb0>
    4f38:	28 1b       	sub	r18, r24
    4f3a:	39 0b       	sbc	r19, r25
    4f3c:	24 30       	cpi	r18, 0x04	; 4
    4f3e:	31 05       	cpc	r19, r1
    4f40:	80 f4       	brcc	.+32     	; 0x4f62 <malloc+0x9c>
    4f42:	8a 81       	ldd	r24, Y+2	; 0x02
    4f44:	9b 81       	ldd	r25, Y+3	; 0x03
    4f46:	61 15       	cp	r22, r1
    4f48:	71 05       	cpc	r23, r1
    4f4a:	21 f0       	breq	.+8      	; 0x4f54 <malloc+0x8e>
    4f4c:	fb 01       	movw	r30, r22
    4f4e:	82 83       	std	Z+2, r24	; 0x02
    4f50:	93 83       	std	Z+3, r25	; 0x03
    4f52:	04 c0       	rjmp	.+8      	; 0x4f5c <malloc+0x96>
    4f54:	80 93 ad 23 	sts	0x23AD, r24	; 0x8023ad <__flp>
    4f58:	90 93 ae 23 	sts	0x23AE, r25	; 0x8023ae <__flp+0x1>
    4f5c:	fe 01       	movw	r30, r28
    4f5e:	32 96       	adiw	r30, 0x02	; 2
    4f60:	44 c0       	rjmp	.+136    	; 0x4fea <malloc+0x124>
    4f62:	fe 01       	movw	r30, r28
    4f64:	e2 0f       	add	r30, r18
    4f66:	f3 1f       	adc	r31, r19
    4f68:	81 93       	st	Z+, r24
    4f6a:	91 93       	st	Z+, r25
    4f6c:	22 50       	subi	r18, 0x02	; 2
    4f6e:	31 09       	sbc	r19, r1
    4f70:	28 83       	st	Y, r18
    4f72:	39 83       	std	Y+1, r19	; 0x01
    4f74:	3a c0       	rjmp	.+116    	; 0x4fea <malloc+0x124>
    4f76:	20 91 ab 23 	lds	r18, 0x23AB	; 0x8023ab <__brkval>
    4f7a:	30 91 ac 23 	lds	r19, 0x23AC	; 0x8023ac <__brkval+0x1>
    4f7e:	23 2b       	or	r18, r19
    4f80:	41 f4       	brne	.+16     	; 0x4f92 <malloc+0xcc>
    4f82:	20 91 02 20 	lds	r18, 0x2002	; 0x802002 <__malloc_heap_start>
    4f86:	30 91 03 20 	lds	r19, 0x2003	; 0x802003 <__malloc_heap_start+0x1>
    4f8a:	20 93 ab 23 	sts	0x23AB, r18	; 0x8023ab <__brkval>
    4f8e:	30 93 ac 23 	sts	0x23AC, r19	; 0x8023ac <__brkval+0x1>
    4f92:	20 91 00 20 	lds	r18, 0x2000	; 0x802000 <__data_start>
    4f96:	30 91 01 20 	lds	r19, 0x2001	; 0x802001 <__data_start+0x1>
    4f9a:	21 15       	cp	r18, r1
    4f9c:	31 05       	cpc	r19, r1
    4f9e:	41 f4       	brne	.+16     	; 0x4fb0 <malloc+0xea>
    4fa0:	2d b7       	in	r18, 0x3d	; 61
    4fa2:	3e b7       	in	r19, 0x3e	; 62
    4fa4:	40 91 04 20 	lds	r20, 0x2004	; 0x802004 <__malloc_margin>
    4fa8:	50 91 05 20 	lds	r21, 0x2005	; 0x802005 <__malloc_margin+0x1>
    4fac:	24 1b       	sub	r18, r20
    4fae:	35 0b       	sbc	r19, r21
    4fb0:	e0 91 ab 23 	lds	r30, 0x23AB	; 0x8023ab <__brkval>
    4fb4:	f0 91 ac 23 	lds	r31, 0x23AC	; 0x8023ac <__brkval+0x1>
    4fb8:	e2 17       	cp	r30, r18
    4fba:	f3 07       	cpc	r31, r19
    4fbc:	a0 f4       	brcc	.+40     	; 0x4fe6 <malloc+0x120>
    4fbe:	2e 1b       	sub	r18, r30
    4fc0:	3f 0b       	sbc	r19, r31
    4fc2:	28 17       	cp	r18, r24
    4fc4:	39 07       	cpc	r19, r25
    4fc6:	78 f0       	brcs	.+30     	; 0x4fe6 <malloc+0x120>
    4fc8:	ac 01       	movw	r20, r24
    4fca:	4e 5f       	subi	r20, 0xFE	; 254
    4fcc:	5f 4f       	sbci	r21, 0xFF	; 255
    4fce:	24 17       	cp	r18, r20
    4fd0:	35 07       	cpc	r19, r21
    4fd2:	48 f0       	brcs	.+18     	; 0x4fe6 <malloc+0x120>
    4fd4:	4e 0f       	add	r20, r30
    4fd6:	5f 1f       	adc	r21, r31
    4fd8:	40 93 ab 23 	sts	0x23AB, r20	; 0x8023ab <__brkval>
    4fdc:	50 93 ac 23 	sts	0x23AC, r21	; 0x8023ac <__brkval+0x1>
    4fe0:	81 93       	st	Z+, r24
    4fe2:	91 93       	st	Z+, r25
    4fe4:	02 c0       	rjmp	.+4      	; 0x4fea <malloc+0x124>
    4fe6:	e0 e0       	ldi	r30, 0x00	; 0
    4fe8:	f0 e0       	ldi	r31, 0x00	; 0
    4fea:	cf 01       	movw	r24, r30
    4fec:	df 91       	pop	r29
    4fee:	cf 91       	pop	r28
    4ff0:	1f 91       	pop	r17
    4ff2:	0f 91       	pop	r16
    4ff4:	08 95       	ret

00004ff6 <free>:
    4ff6:	cf 93       	push	r28
    4ff8:	df 93       	push	r29
    4ffa:	00 97       	sbiw	r24, 0x00	; 0
    4ffc:	09 f4       	brne	.+2      	; 0x5000 <free+0xa>
    4ffe:	81 c0       	rjmp	.+258    	; 0x5102 <free+0x10c>
    5000:	fc 01       	movw	r30, r24
    5002:	32 97       	sbiw	r30, 0x02	; 2
    5004:	12 82       	std	Z+2, r1	; 0x02
    5006:	13 82       	std	Z+3, r1	; 0x03
    5008:	a0 91 ad 23 	lds	r26, 0x23AD	; 0x8023ad <__flp>
    500c:	b0 91 ae 23 	lds	r27, 0x23AE	; 0x8023ae <__flp+0x1>
    5010:	10 97       	sbiw	r26, 0x00	; 0
    5012:	81 f4       	brne	.+32     	; 0x5034 <free+0x3e>
    5014:	20 81       	ld	r18, Z
    5016:	31 81       	ldd	r19, Z+1	; 0x01
    5018:	82 0f       	add	r24, r18
    501a:	93 1f       	adc	r25, r19
    501c:	20 91 ab 23 	lds	r18, 0x23AB	; 0x8023ab <__brkval>
    5020:	30 91 ac 23 	lds	r19, 0x23AC	; 0x8023ac <__brkval+0x1>
    5024:	28 17       	cp	r18, r24
    5026:	39 07       	cpc	r19, r25
    5028:	51 f5       	brne	.+84     	; 0x507e <free+0x88>
    502a:	e0 93 ab 23 	sts	0x23AB, r30	; 0x8023ab <__brkval>
    502e:	f0 93 ac 23 	sts	0x23AC, r31	; 0x8023ac <__brkval+0x1>
    5032:	67 c0       	rjmp	.+206    	; 0x5102 <free+0x10c>
    5034:	ed 01       	movw	r28, r26
    5036:	20 e0       	ldi	r18, 0x00	; 0
    5038:	30 e0       	ldi	r19, 0x00	; 0
    503a:	ce 17       	cp	r28, r30
    503c:	df 07       	cpc	r29, r31
    503e:	40 f4       	brcc	.+16     	; 0x5050 <free+0x5a>
    5040:	4a 81       	ldd	r20, Y+2	; 0x02
    5042:	5b 81       	ldd	r21, Y+3	; 0x03
    5044:	9e 01       	movw	r18, r28
    5046:	41 15       	cp	r20, r1
    5048:	51 05       	cpc	r21, r1
    504a:	f1 f0       	breq	.+60     	; 0x5088 <free+0x92>
    504c:	ea 01       	movw	r28, r20
    504e:	f5 cf       	rjmp	.-22     	; 0x503a <free+0x44>
    5050:	c2 83       	std	Z+2, r28	; 0x02
    5052:	d3 83       	std	Z+3, r29	; 0x03
    5054:	40 81       	ld	r20, Z
    5056:	51 81       	ldd	r21, Z+1	; 0x01
    5058:	84 0f       	add	r24, r20
    505a:	95 1f       	adc	r25, r21
    505c:	c8 17       	cp	r28, r24
    505e:	d9 07       	cpc	r29, r25
    5060:	59 f4       	brne	.+22     	; 0x5078 <free+0x82>
    5062:	88 81       	ld	r24, Y
    5064:	99 81       	ldd	r25, Y+1	; 0x01
    5066:	84 0f       	add	r24, r20
    5068:	95 1f       	adc	r25, r21
    506a:	02 96       	adiw	r24, 0x02	; 2
    506c:	80 83       	st	Z, r24
    506e:	91 83       	std	Z+1, r25	; 0x01
    5070:	8a 81       	ldd	r24, Y+2	; 0x02
    5072:	9b 81       	ldd	r25, Y+3	; 0x03
    5074:	82 83       	std	Z+2, r24	; 0x02
    5076:	93 83       	std	Z+3, r25	; 0x03
    5078:	21 15       	cp	r18, r1
    507a:	31 05       	cpc	r19, r1
    507c:	29 f4       	brne	.+10     	; 0x5088 <free+0x92>
    507e:	e0 93 ad 23 	sts	0x23AD, r30	; 0x8023ad <__flp>
    5082:	f0 93 ae 23 	sts	0x23AE, r31	; 0x8023ae <__flp+0x1>
    5086:	3d c0       	rjmp	.+122    	; 0x5102 <free+0x10c>
    5088:	e9 01       	movw	r28, r18
    508a:	ea 83       	std	Y+2, r30	; 0x02
    508c:	fb 83       	std	Y+3, r31	; 0x03
    508e:	49 91       	ld	r20, Y+
    5090:	59 91       	ld	r21, Y+
    5092:	c4 0f       	add	r28, r20
    5094:	d5 1f       	adc	r29, r21
    5096:	ec 17       	cp	r30, r28
    5098:	fd 07       	cpc	r31, r29
    509a:	61 f4       	brne	.+24     	; 0x50b4 <free+0xbe>
    509c:	80 81       	ld	r24, Z
    509e:	91 81       	ldd	r25, Z+1	; 0x01
    50a0:	84 0f       	add	r24, r20
    50a2:	95 1f       	adc	r25, r21
    50a4:	02 96       	adiw	r24, 0x02	; 2
    50a6:	e9 01       	movw	r28, r18
    50a8:	88 83       	st	Y, r24
    50aa:	99 83       	std	Y+1, r25	; 0x01
    50ac:	82 81       	ldd	r24, Z+2	; 0x02
    50ae:	93 81       	ldd	r25, Z+3	; 0x03
    50b0:	8a 83       	std	Y+2, r24	; 0x02
    50b2:	9b 83       	std	Y+3, r25	; 0x03
    50b4:	e0 e0       	ldi	r30, 0x00	; 0
    50b6:	f0 e0       	ldi	r31, 0x00	; 0
    50b8:	12 96       	adiw	r26, 0x02	; 2
    50ba:	8d 91       	ld	r24, X+
    50bc:	9c 91       	ld	r25, X
    50be:	13 97       	sbiw	r26, 0x03	; 3
    50c0:	00 97       	sbiw	r24, 0x00	; 0
    50c2:	19 f0       	breq	.+6      	; 0x50ca <free+0xd4>
    50c4:	fd 01       	movw	r30, r26
    50c6:	dc 01       	movw	r26, r24
    50c8:	f7 cf       	rjmp	.-18     	; 0x50b8 <free+0xc2>
    50ca:	8d 91       	ld	r24, X+
    50cc:	9c 91       	ld	r25, X
    50ce:	11 97       	sbiw	r26, 0x01	; 1
    50d0:	9d 01       	movw	r18, r26
    50d2:	2e 5f       	subi	r18, 0xFE	; 254
    50d4:	3f 4f       	sbci	r19, 0xFF	; 255
    50d6:	82 0f       	add	r24, r18
    50d8:	93 1f       	adc	r25, r19
    50da:	20 91 ab 23 	lds	r18, 0x23AB	; 0x8023ab <__brkval>
    50de:	30 91 ac 23 	lds	r19, 0x23AC	; 0x8023ac <__brkval+0x1>
    50e2:	28 17       	cp	r18, r24
    50e4:	39 07       	cpc	r19, r25
    50e6:	69 f4       	brne	.+26     	; 0x5102 <free+0x10c>
    50e8:	30 97       	sbiw	r30, 0x00	; 0
    50ea:	29 f4       	brne	.+10     	; 0x50f6 <free+0x100>
    50ec:	10 92 ad 23 	sts	0x23AD, r1	; 0x8023ad <__flp>
    50f0:	10 92 ae 23 	sts	0x23AE, r1	; 0x8023ae <__flp+0x1>
    50f4:	02 c0       	rjmp	.+4      	; 0x50fa <free+0x104>
    50f6:	12 82       	std	Z+2, r1	; 0x02
    50f8:	13 82       	std	Z+3, r1	; 0x03
    50fa:	a0 93 ab 23 	sts	0x23AB, r26	; 0x8023ab <__brkval>
    50fe:	b0 93 ac 23 	sts	0x23AC, r27	; 0x8023ac <__brkval+0x1>
    5102:	df 91       	pop	r29
    5104:	cf 91       	pop	r28
    5106:	08 95       	ret

00005108 <memset>:
    5108:	dc 01       	movw	r26, r24
    510a:	01 c0       	rjmp	.+2      	; 0x510e <memset+0x6>
    510c:	6d 93       	st	X+, r22
    510e:	41 50       	subi	r20, 0x01	; 1
    5110:	50 40       	sbci	r21, 0x00	; 0
    5112:	e0 f7       	brcc	.-8      	; 0x510c <memset+0x4>
    5114:	08 95       	ret

00005116 <_exit>:
    5116:	f8 94       	cli

00005118 <__stop_program>:
    5118:	ff cf       	rjmp	.-2      	; 0x5118 <__stop_program>
