
CanSat Probe Code.elf:     file format elf32-avr

Sections:
Idx Name          Size      VMA       LMA       File off  Algn
  0 .text         000047e4  00000000  00000000  00000094  2**1
                  CONTENTS, ALLOC, LOAD, READONLY, CODE
  1 .data         00000044  00802000  000047e4  00004878  2**0
                  CONTENTS, ALLOC, LOAD, DATA
  2 .bss          00000080  00802044  00802044  000048bc  2**0
                  ALLOC
  3 .comment      0000005c  00000000  00000000  000048bc  2**0
                  CONTENTS, READONLY
  4 .note.gnu.avr.deviceinfo 00000040  00000000  00000000  00004918  2**2
                  CONTENTS, READONLY
  5 .debug_aranges 00000598  00000000  00000000  00004958  2**3
                  CONTENTS, READONLY, DEBUGGING
  6 .debug_info   00010be4  00000000  00000000  00004ef0  2**0
                  CONTENTS, READONLY, DEBUGGING
  7 .debug_abbrev 00005df1  00000000  00000000  00015ad4  2**0
                  CONTENTS, READONLY, DEBUGGING
  8 .debug_line   00009367  00000000  00000000  0001b8c5  2**0
                  CONTENTS, READONLY, DEBUGGING
  9 .debug_frame  00001c38  00000000  00000000  00024c2c  2**2
                  CONTENTS, READONLY, DEBUGGING
 10 .debug_str    00034bc6  00000000  00000000  00026864  2**0
                  CONTENTS, READONLY, DEBUGGING
 11 .debug_loc    00005eb0  00000000  00000000  0005b42a  2**0
                  CONTENTS, READONLY, DEBUGGING
 12 .debug_ranges 00000500  00000000  00000000  000612e0  2**3
                  CONTENTS, READONLY, DEBUGGING
 13 .debug_macro  0000c262  00000000  00000000  000617e0  2**0
                  CONTENTS, READONLY, DEBUGGING

Disassembly of section .text:

00000000 <__vectors>:
       0:	fe c1       	rjmp	.+1020   	; 0x3fe <__ctors_end>
       2:	00 00       	nop
       4:	22 c2       	rjmp	.+1092   	; 0x44a <__bad_interrupt>
       6:	00 00       	nop
       8:	20 c2       	rjmp	.+1088   	; 0x44a <__bad_interrupt>
       a:	00 00       	nop
       c:	1e c2       	rjmp	.+1084   	; 0x44a <__bad_interrupt>
       e:	00 00       	nop
      10:	1c c2       	rjmp	.+1080   	; 0x44a <__bad_interrupt>
      12:	00 00       	nop
      14:	1a c2       	rjmp	.+1076   	; 0x44a <__bad_interrupt>
      16:	00 00       	nop
      18:	18 c2       	rjmp	.+1072   	; 0x44a <__bad_interrupt>
      1a:	00 00       	nop
      1c:	16 c2       	rjmp	.+1068   	; 0x44a <__bad_interrupt>
      1e:	00 00       	nop
      20:	14 c2       	rjmp	.+1064   	; 0x44a <__bad_interrupt>
      22:	00 00       	nop
      24:	12 c2       	rjmp	.+1060   	; 0x44a <__bad_interrupt>
      26:	00 00       	nop
      28:	10 c2       	rjmp	.+1056   	; 0x44a <__bad_interrupt>
      2a:	00 00       	nop
      2c:	0e c2       	rjmp	.+1052   	; 0x44a <__bad_interrupt>
      2e:	00 00       	nop
      30:	0c c2       	rjmp	.+1048   	; 0x44a <__bad_interrupt>
      32:	00 00       	nop
      34:	a2 c2       	rjmp	.+1348   	; 0x57a <__vector_13>
      36:	00 00       	nop
      38:	ea c5       	rjmp	.+3028   	; 0xc0e <__vector_14>
      3a:	00 00       	nop
      3c:	20 c6       	rjmp	.+3136   	; 0xc7e <__vector_15>
      3e:	00 00       	nop
      40:	56 c6       	rjmp	.+3244   	; 0xcee <__vector_16>
      42:	00 00       	nop
      44:	8c c6       	rjmp	.+3352   	; 0xd5e <__vector_17>
      46:	00 00       	nop
      48:	c2 c6       	rjmp	.+3460   	; 0xdce <__vector_18>
      4a:	00 00       	nop
      4c:	f8 c6       	rjmp	.+3568   	; 0xe3e <__vector_19>
      4e:	00 00       	nop
      50:	2e c7       	rjmp	.+3676   	; 0xeae <__vector_20>
      52:	00 00       	nop
      54:	64 c7       	rjmp	.+3784   	; 0xf1e <__vector_21>
      56:	00 00       	nop
      58:	9a c7       	rjmp	.+3892   	; 0xf8e <__vector_22>
      5a:	00 00       	nop
      5c:	d0 c7       	rjmp	.+4000   	; 0xffe <__vector_23>
      5e:	00 00       	nop
      60:	f4 c1       	rjmp	.+1000   	; 0x44a <__bad_interrupt>
      62:	00 00       	nop
      64:	0c 94 dc 15 	jmp	0x2bb8	; 0x2bb8 <__vector_25>
      68:	f0 c1       	rjmp	.+992    	; 0x44a <__bad_interrupt>
      6a:	00 00       	nop
      6c:	ee c1       	rjmp	.+988    	; 0x44a <__bad_interrupt>
      6e:	00 00       	nop
      70:	ec c1       	rjmp	.+984    	; 0x44a <__bad_interrupt>
      72:	00 00       	nop
      74:	ea c1       	rjmp	.+980    	; 0x44a <__bad_interrupt>
      76:	00 00       	nop
      78:	e8 c1       	rjmp	.+976    	; 0x44a <__bad_interrupt>
      7a:	00 00       	nop
      7c:	e6 c1       	rjmp	.+972    	; 0x44a <__bad_interrupt>
      7e:	00 00       	nop
      80:	e4 c1       	rjmp	.+968    	; 0x44a <__bad_interrupt>
      82:	00 00       	nop
      84:	e2 c1       	rjmp	.+964    	; 0x44a <__bad_interrupt>
      86:	00 00       	nop
      88:	e0 c1       	rjmp	.+960    	; 0x44a <__bad_interrupt>
      8a:	00 00       	nop
      8c:	de c1       	rjmp	.+956    	; 0x44a <__bad_interrupt>
      8e:	00 00       	nop
      90:	dc c1       	rjmp	.+952    	; 0x44a <__bad_interrupt>
      92:	00 00       	nop
      94:	da c1       	rjmp	.+948    	; 0x44a <__bad_interrupt>
      96:	00 00       	nop
      98:	d8 c1       	rjmp	.+944    	; 0x44a <__bad_interrupt>
      9a:	00 00       	nop
      9c:	b4 c4       	rjmp	.+2408   	; 0xa06 <__vector_39>
      9e:	00 00       	nop
      a0:	ef c4       	rjmp	.+2526   	; 0xa80 <__vector_40>
      a2:	00 00       	nop
      a4:	2a c5       	rjmp	.+2644   	; 0xafa <__vector_41>
      a6:	00 00       	nop
      a8:	65 c5       	rjmp	.+2762   	; 0xb74 <__vector_42>
      aa:	00 00       	nop
      ac:	ce c1       	rjmp	.+924    	; 0x44a <__bad_interrupt>
      ae:	00 00       	nop
      b0:	cc c1       	rjmp	.+920    	; 0x44a <__bad_interrupt>
      b2:	00 00       	nop
      b4:	ca c1       	rjmp	.+916    	; 0x44a <__bad_interrupt>
      b6:	00 00       	nop
      b8:	c4 c2       	rjmp	.+1416   	; 0x642 <__vector_46>
      ba:	00 00       	nop
      bc:	0c 94 67 0a 	jmp	0x14ce	; 0x14ce <__vector_47>
      c0:	0c 94 9f 0a 	jmp	0x153e	; 0x153e <__vector_48>
      c4:	0c 94 d7 0a 	jmp	0x15ae	; 0x15ae <__vector_49>
      c8:	0c 94 0f 0b 	jmp	0x161e	; 0x161e <__vector_50>
      cc:	0c 94 47 0b 	jmp	0x168e	; 0x168e <__vector_51>
      d0:	0c 94 7f 0b 	jmp	0x16fe	; 0x16fe <__vector_52>
      d4:	0c 94 b7 0b 	jmp	0x176e	; 0x176e <__vector_53>
      d8:	0c 94 ef 0b 	jmp	0x17de	; 0x17de <__vector_54>
      dc:	0c 94 27 0c 	jmp	0x184e	; 0x184e <__vector_55>
      e0:	0c 94 5f 0c 	jmp	0x18be	; 0x18be <__vector_56>
      e4:	b2 c1       	rjmp	.+868    	; 0x44a <__bad_interrupt>
      e6:	00 00       	nop
      e8:	b0 c1       	rjmp	.+864    	; 0x44a <__bad_interrupt>
      ea:	00 00       	nop
      ec:	ae c1       	rjmp	.+860    	; 0x44a <__bad_interrupt>
      ee:	00 00       	nop
      f0:	ac c1       	rjmp	.+856    	; 0x44a <__bad_interrupt>
      f2:	00 00       	nop
      f4:	aa c1       	rjmp	.+852    	; 0x44a <__bad_interrupt>
      f6:	00 00       	nop
      f8:	a8 c1       	rjmp	.+848    	; 0x44a <__bad_interrupt>
      fa:	00 00       	nop
      fc:	a6 c1       	rjmp	.+844    	; 0x44a <__bad_interrupt>
      fe:	00 00       	nop
     100:	a4 c1       	rjmp	.+840    	; 0x44a <__bad_interrupt>
     102:	00 00       	nop
     104:	a2 c1       	rjmp	.+836    	; 0x44a <__bad_interrupt>
     106:	00 00       	nop
     108:	a0 c1       	rjmp	.+832    	; 0x44a <__bad_interrupt>
     10a:	00 00       	nop
     10c:	9e c1       	rjmp	.+828    	; 0x44a <__bad_interrupt>
     10e:	00 00       	nop
     110:	9c c1       	rjmp	.+824    	; 0x44a <__bad_interrupt>
     112:	00 00       	nop
     114:	9a c1       	rjmp	.+820    	; 0x44a <__bad_interrupt>
     116:	00 00       	nop
     118:	98 c1       	rjmp	.+816    	; 0x44a <__bad_interrupt>
     11a:	00 00       	nop
     11c:	80 c3       	rjmp	.+1792   	; 0x81e <__vector_71>
     11e:	00 00       	nop
     120:	bb c3       	rjmp	.+1910   	; 0x898 <__vector_72>
     122:	00 00       	nop
     124:	f6 c3       	rjmp	.+2028   	; 0x912 <__vector_73>
     126:	00 00       	nop
     128:	31 c4       	rjmp	.+2146   	; 0x98c <__vector_74>
     12a:	00 00       	nop
     12c:	8e c1       	rjmp	.+796    	; 0x44a <__bad_interrupt>
     12e:	00 00       	nop
     130:	56 c2       	rjmp	.+1196   	; 0x5de <__vector_76>
     132:	00 00       	nop
     134:	9c c7       	rjmp	.+3896   	; 0x106e <__vector_77>
     136:	00 00       	nop
     138:	d2 c7       	rjmp	.+4004   	; 0x10de <__vector_78>
     13a:	00 00       	nop
     13c:	0c 94 a7 08 	jmp	0x114e	; 0x114e <__vector_79>
     140:	0c 94 df 08 	jmp	0x11be	; 0x11be <__vector_80>
     144:	0c 94 17 09 	jmp	0x122e	; 0x122e <__vector_81>
     148:	0c 94 4f 09 	jmp	0x129e	; 0x129e <__vector_82>
     14c:	0c 94 87 09 	jmp	0x130e	; 0x130e <__vector_83>
     150:	0c 94 bf 09 	jmp	0x137e	; 0x137e <__vector_84>
     154:	0c 94 f7 09 	jmp	0x13ee	; 0x13ee <__vector_85>
     158:	0c 94 2f 0a 	jmp	0x145e	; 0x145e <__vector_86>
     15c:	76 c1       	rjmp	.+748    	; 0x44a <__bad_interrupt>
     15e:	00 00       	nop
     160:	74 c1       	rjmp	.+744    	; 0x44a <__bad_interrupt>
     162:	00 00       	nop
     164:	72 c1       	rjmp	.+740    	; 0x44a <__bad_interrupt>
     166:	00 00       	nop
     168:	70 c1       	rjmp	.+736    	; 0x44a <__bad_interrupt>
     16a:	00 00       	nop
     16c:	6e c1       	rjmp	.+732    	; 0x44a <__bad_interrupt>
     16e:	00 00       	nop
     170:	6c c1       	rjmp	.+728    	; 0x44a <__bad_interrupt>
     172:	00 00       	nop
     174:	6a c1       	rjmp	.+724    	; 0x44a <__bad_interrupt>
     176:	00 00       	nop
     178:	68 c1       	rjmp	.+720    	; 0x44a <__bad_interrupt>
     17a:	00 00       	nop
     17c:	66 c1       	rjmp	.+716    	; 0x44a <__bad_interrupt>
     17e:	00 00       	nop
     180:	64 c1       	rjmp	.+712    	; 0x44a <__bad_interrupt>
     182:	00 00       	nop
     184:	62 c1       	rjmp	.+708    	; 0x44a <__bad_interrupt>
     186:	00 00       	nop
     188:	60 c1       	rjmp	.+704    	; 0x44a <__bad_interrupt>
     18a:	00 00       	nop
     18c:	5e c1       	rjmp	.+700    	; 0x44a <__bad_interrupt>
     18e:	00 00       	nop
     190:	5c c1       	rjmp	.+696    	; 0x44a <__bad_interrupt>
     192:	00 00       	nop
     194:	5a c1       	rjmp	.+692    	; 0x44a <__bad_interrupt>
     196:	00 00       	nop
     198:	58 c1       	rjmp	.+688    	; 0x44a <__bad_interrupt>
     19a:	00 00       	nop
     19c:	56 c1       	rjmp	.+684    	; 0x44a <__bad_interrupt>
     19e:	00 00       	nop
     1a0:	54 c1       	rjmp	.+680    	; 0x44a <__bad_interrupt>
     1a2:	00 00       	nop
     1a4:	52 c1       	rjmp	.+676    	; 0x44a <__bad_interrupt>
     1a6:	00 00       	nop
     1a8:	50 c1       	rjmp	.+672    	; 0x44a <__bad_interrupt>
     1aa:	00 00       	nop
     1ac:	7c c2       	rjmp	.+1272   	; 0x6a6 <__vector_107>
     1ae:	00 00       	nop
     1b0:	0c 94 97 0c 	jmp	0x192e	; 0x192e <__vector_108>
     1b4:	0c 94 cf 0c 	jmp	0x199e	; 0x199e <__vector_109>
     1b8:	0c 94 07 0d 	jmp	0x1a0e	; 0x1a0e <__vector_110>
     1bc:	0c 94 3f 0d 	jmp	0x1a7e	; 0x1a7e <__vector_111>
     1c0:	0c 94 77 0d 	jmp	0x1aee	; 0x1aee <__vector_112>
     1c4:	0c 94 af 0d 	jmp	0x1b5e	; 0x1b5e <__vector_113>
     1c8:	0c 94 e7 0d 	jmp	0x1bce	; 0x1bce <__vector_114>
     1cc:	0c 94 1f 0e 	jmp	0x1c3e	; 0x1c3e <__vector_115>
     1d0:	0c 94 57 0e 	jmp	0x1cae	; 0x1cae <__vector_116>
     1d4:	0c 94 8f 0e 	jmp	0x1d1e	; 0x1d1e <__vector_117>
     1d8:	38 c1       	rjmp	.+624    	; 0x44a <__bad_interrupt>
     1da:	00 00       	nop
     1dc:	36 c1       	rjmp	.+620    	; 0x44a <__bad_interrupt>
     1de:	00 00       	nop
     1e0:	34 c1       	rjmp	.+616    	; 0x44a <__bad_interrupt>
     1e2:	00 00       	nop
     1e4:	32 c1       	rjmp	.+612    	; 0x44a <__bad_interrupt>
     1e6:	00 00       	nop
     1e8:	30 c1       	rjmp	.+608    	; 0x44a <__bad_interrupt>
     1ea:	00 00       	nop
     1ec:	2e c1       	rjmp	.+604    	; 0x44a <__bad_interrupt>
     1ee:	00 00       	nop
     1f0:	2c c1       	rjmp	.+600    	; 0x44a <__bad_interrupt>
     1f2:	00 00       	nop
     1f4:	2a c1       	rjmp	.+596    	; 0x44a <__bad_interrupt>
     1f6:	00 00       	nop
     1f8:	28 c1       	rjmp	.+592    	; 0x44a <__bad_interrupt>
     1fa:	00 00       	nop
     1fc:	0d 16       	cp	r0, r29
     1fe:	1b 16       	cp	r1, r27
     200:	1b 16       	cp	r1, r27
     202:	1b 16       	cp	r1, r27
     204:	1b 16       	cp	r1, r27
     206:	12 16       	cp	r1, r18
     208:	1b 16       	cp	r1, r27
     20a:	16 16       	cp	r1, r22
     20c:	18 16       	cp	r1, r24
     20e:	14 16       	cp	r1, r20
     210:	1b 16       	cp	r1, r27
     212:	1b 16       	cp	r1, r27
     214:	1b 16       	cp	r1, r27
     216:	1b 16       	cp	r1, r27
     218:	1b 16       	cp	r1, r27
     21a:	1b 16       	cp	r1, r27
     21c:	1b 16       	cp	r1, r27
     21e:	1b 16       	cp	r1, r27
     220:	1b 16       	cp	r1, r27
     222:	1b 16       	cp	r1, r27
     224:	1b 16       	cp	r1, r27
     226:	1b 16       	cp	r1, r27
     228:	1b 16       	cp	r1, r27
     22a:	1b 16       	cp	r1, r27
     22c:	1b 16       	cp	r1, r27
     22e:	1b 16       	cp	r1, r27
     230:	1b 16       	cp	r1, r27
     232:	1b 16       	cp	r1, r27
     234:	1b 16       	cp	r1, r27
     236:	1b 16       	cp	r1, r27
     238:	1b 16       	cp	r1, r27
     23a:	1b 16       	cp	r1, r27
     23c:	1b 16       	cp	r1, r27
     23e:	1b 16       	cp	r1, r27
     240:	1b 16       	cp	r1, r27
     242:	1b 16       	cp	r1, r27
     244:	1b 16       	cp	r1, r27
     246:	1b 16       	cp	r1, r27
     248:	1b 16       	cp	r1, r27
     24a:	1b 16       	cp	r1, r27
     24c:	1b 16       	cp	r1, r27
     24e:	1b 16       	cp	r1, r27
     250:	1b 16       	cp	r1, r27
     252:	1b 16       	cp	r1, r27
     254:	1b 16       	cp	r1, r27
     256:	1b 16       	cp	r1, r27
     258:	1b 16       	cp	r1, r27
     25a:	1b 16       	cp	r1, r27
     25c:	1b 16       	cp	r1, r27
     25e:	1b 16       	cp	r1, r27
     260:	1b 16       	cp	r1, r27
     262:	1b 16       	cp	r1, r27
     264:	1b 16       	cp	r1, r27
     266:	1b 16       	cp	r1, r27
     268:	1b 16       	cp	r1, r27
     26a:	1b 16       	cp	r1, r27
     26c:	1b 16       	cp	r1, r27
     26e:	1b 16       	cp	r1, r27
     270:	1b 16       	cp	r1, r27
     272:	1b 16       	cp	r1, r27
     274:	1b 16       	cp	r1, r27
     276:	10 16       	cp	r1, r16
     278:	1a 16       	cp	r1, r26
     27a:	08 00       	.word	0x0008	; ????
     27c:	00 00       	nop
     27e:	be 92       	st	-X, r11
     280:	24 49       	sbci	r18, 0x94	; 148
     282:	12 3e       	cpi	r17, 0xE2	; 226
     284:	ab aa       	std	Y+51, r10	; 0x33
     286:	aa 2a       	or	r10, r26
     288:	be cd       	rjmp	.-1156   	; 0xfffffe06 <__eeprom_end+0xff7efe06>
     28a:	cc cc       	rjmp	.-1640   	; 0xfffffc24 <__eeprom_end+0xff7efc24>
     28c:	4c 3e       	cpi	r20, 0xEC	; 236
     28e:	00 00       	nop
     290:	00 80       	ld	r0, Z
     292:	be ab       	std	Y+54, r27	; 0x36
     294:	aa aa       	std	Y+50, r10	; 0x32
     296:	aa 3e       	cpi	r26, 0xEA	; 234
     298:	00 00       	nop
     29a:	00 00       	nop
     29c:	bf 00       	.word	0x00bf	; ????
     29e:	00 00       	nop
     2a0:	80 3f       	cpi	r24, 0xF0	; 240
     2a2:	00 00       	nop
     2a4:	00 00       	nop
     2a6:	00 08       	sbc	r0, r0
     2a8:	41 78       	andi	r20, 0x81	; 129
     2aa:	d3 bb       	out	0x13, r29	; 19
     2ac:	43 87       	std	Z+11, r20	; 0x0b
     2ae:	d1 13       	cpse	r29, r17
     2b0:	3d 19       	sub	r19, r13
     2b2:	0e 3c       	cpi	r16, 0xCE	; 206
     2b4:	c3 bd       	out	0x23, r28	; 35
     2b6:	42 82       	std	Z+2, r4	; 0x02
     2b8:	ad 2b       	or	r26, r29
     2ba:	3e 68       	ori	r19, 0x8E	; 142
     2bc:	ec 82       	std	Y+4, r14	; 0x04
     2be:	76 be       	out	0x36, r7	; 54
     2c0:	d9 8f       	std	Y+25, r29	; 0x19
     2c2:	e1 a9       	ldd	r30, Z+49	; 0x31
     2c4:	3e 4c       	sbci	r19, 0xCE	; 206
     2c6:	80 ef       	ldi	r24, 0xF0	; 240
     2c8:	ff be       	out	0x3f, r15	; 63
     2ca:	01 c4       	rjmp	.+2050   	; 0xace <__vector_40+0x4e>
     2cc:	ff 7f       	andi	r31, 0xFF	; 255
     2ce:	3f 00       	.word	0x003f	; ????
     2d0:	00 00       	nop
     2d2:	00 00       	nop
     2d4:	07 63       	ori	r16, 0x37	; 55
     2d6:	42 36       	cpi	r20, 0x62	; 98
     2d8:	b7 9b       	sbis	0x16, 7	; 22
     2da:	d8 a7       	std	Y+40, r29	; 0x28
     2dc:	1a 39       	cpi	r17, 0x9A	; 154
     2de:	68 56       	subi	r22, 0x68	; 104
     2e0:	18 ae       	std	Y+56, r1	; 0x38
     2e2:	ba ab       	std	Y+50, r27	; 0x32
     2e4:	55 8c       	ldd	r5, Z+29	; 0x1d
     2e6:	1d 3c       	cpi	r17, 0xCD	; 205
     2e8:	b7 cc       	rjmp	.-1682   	; 0xfffffc58 <__eeprom_end+0xff7efc58>
     2ea:	57 63       	ori	r21, 0x37	; 55
     2ec:	bd 6d       	ori	r27, 0xDD	; 221
     2ee:	ed fd       	.word	0xfded	; ????
     2f0:	75 3e       	cpi	r23, 0xE5	; 229
     2f2:	f6 17       	cp	r31, r22
     2f4:	72 31       	cpi	r23, 0x12	; 18
     2f6:	bf 00       	.word	0x00bf	; ????
     2f8:	00 00       	nop
     2fa:	80 3f       	cpi	r24, 0xF0	; 240

000002fc <__trampolines_end>:
     2fc:	6e 61       	ori	r22, 0x1E	; 30
     2fe:	6e 00       	.word	0x006e	; ????

00000300 <__c.2332>:
     300:	69 6e 66 00 00 40 7a 10 f3 5a 00 a0 72 4e 18 09     inf..@z..Z..rN..
     310:	00 10 a5 d4 e8 00 00 e8 76 48 17 00 00 e4 0b 54     ........vH.....T
     320:	02 00 00 ca 9a 3b 00 00 00 e1 f5 05 00 00 80 96     .....;..........
     330:	98 00 00 00 40 42 0f 00 00 00 a0 86 01 00 00 00     ....@B..........
     340:	10 27 00 00 00 00 e8 03 00 00 00 00 64 00 00 00     .'..........d...
     350:	00 00 0a 00 00 00 00 00 01 00 00 00 00 00 2c 76     ..............,v
     360:	d8 88 dc 67 4f 08 23 df c1 df ae 59 e1 b1 b7 96     ...gO.#....Y....
     370:	e5 e3 e4 53 c6 3a e6 51 99 76 96 e8 e6 c2 84 26     ...S.:.Q.v.....&
     380:	eb 89 8c 9b 62 ed 40 7c 6f fc ef bc 9c 9f 40 f2     ....b.@|o.....@.
     390:	ba a5 6f a5 f4 90 05 5a 2a f7 5c 93 6b 6c f9 67     ..o....Z*.\.kl.g
     3a0:	6d c1 1b fc e0 e4 0d 47 fe f5 20 e6 b5 00 d0 ed     m......G.. .....
     3b0:	90 2e 03 00 94 35 77 05 00 80 84 1e 08 00 00 20     .....5w........ 
     3c0:	4e 0a 00 00 00 c8 0c 33 33 33 33 0f 98 6e 12 83     N......3333..n..
     3d0:	11 41 ef 8d 21 14 89 3b e6 55 16 cf fe e6 db 18     .A..!..;.U......
     3e0:	d1 84 4b 38 1b f7 7c 1d 90 1d a4 bb e4 24 20 32     ..K8..|......$ 2
     3f0:	84 72 5e 22 81 00 c9 f1 24 ec a1 e5 3d 27           .r^"....$...='

000003fe <__ctors_end>:
     3fe:	11 24       	eor	r1, r1
     400:	1f be       	out	0x3f, r1	; 63
     402:	cf ef       	ldi	r28, 0xFF	; 255
     404:	cd bf       	out	0x3d, r28	; 61
     406:	df e3       	ldi	r29, 0x3F	; 63
     408:	de bf       	out	0x3e, r29	; 62
     40a:	00 e0       	ldi	r16, 0x00	; 0
     40c:	0c bf       	out	0x3c, r16	; 60
     40e:	18 be       	out	0x38, r1	; 56
     410:	19 be       	out	0x39, r1	; 57
     412:	1a be       	out	0x3a, r1	; 58
     414:	1b be       	out	0x3b, r1	; 59

00000416 <__do_copy_data>:
     416:	10 e2       	ldi	r17, 0x20	; 32
     418:	a0 e0       	ldi	r26, 0x00	; 0
     41a:	b0 e2       	ldi	r27, 0x20	; 32
     41c:	e4 ee       	ldi	r30, 0xE4	; 228
     41e:	f7 e4       	ldi	r31, 0x47	; 71
     420:	00 e0       	ldi	r16, 0x00	; 0
     422:	0b bf       	out	0x3b, r16	; 59
     424:	02 c0       	rjmp	.+4      	; 0x42a <__do_copy_data+0x14>
     426:	07 90       	elpm	r0, Z+
     428:	0d 92       	st	X+, r0
     42a:	a4 34       	cpi	r26, 0x44	; 68
     42c:	b1 07       	cpc	r27, r17
     42e:	d9 f7       	brne	.-10     	; 0x426 <__do_copy_data+0x10>
     430:	1b be       	out	0x3b, r1	; 59

00000432 <__do_clear_bss>:
     432:	20 e2       	ldi	r18, 0x20	; 32
     434:	a4 e4       	ldi	r26, 0x44	; 68
     436:	b0 e2       	ldi	r27, 0x20	; 32
     438:	01 c0       	rjmp	.+2      	; 0x43c <.do_clear_bss_start>

0000043a <.do_clear_bss_loop>:
     43a:	1d 92       	st	X+, r1

0000043c <.do_clear_bss_start>:
     43c:	a4 3c       	cpi	r26, 0xC4	; 196
     43e:	b2 07       	cpc	r27, r18
     440:	e1 f7       	brne	.-8      	; 0x43a <.do_clear_bss_loop>
     442:	0e 94 9d 17 	call	0x2f3a	; 0x2f3a <main>
     446:	0c 94 f0 23 	jmp	0x47e0	; 0x47e0 <_exit>

0000044a <__bad_interrupt>:
     44a:	da cd       	rjmp	.-1100   	; 0x0 <__vectors>

0000044c <twim_interrupt_handler>:
 * \brief Common TWI master interrupt service routine.
 *
 *  Check current status and calls the appropriate handler.
 */
static void twim_interrupt_handler(void)
{
     44c:	cf 93       	push	r28
     44e:	df 93       	push	r29
	uint8_t const master_status = transfer.bus->MASTER.STATUS;
     450:	e0 91 44 20 	lds	r30, 0x2044	; 0x802044 <__data_end>
     454:	f0 91 45 20 	lds	r31, 0x2045	; 0x802045 <__data_end+0x1>
     458:	84 81       	ldd	r24, Z+4	; 0x04

	if (master_status & TWI_MASTER_ARBLOST_bm) {
     45a:	83 ff       	sbrs	r24, 3
     45c:	08 c0       	rjmp	.+16     	; 0x46e <twim_interrupt_handler+0x22>

		transfer.bus->MASTER.STATUS = master_status | TWI_MASTER_ARBLOST_bm;
     45e:	88 60       	ori	r24, 0x08	; 8
     460:	84 83       	std	Z+4, r24	; 0x04
		transfer.bus->MASTER.CTRLC  = TWI_MASTER_CMD_STOP_gc;
     462:	83 e0       	ldi	r24, 0x03	; 3
     464:	83 83       	std	Z+3, r24	; 0x03
		transfer.status = ERR_BUSY;
     466:	86 ef       	ldi	r24, 0xF6	; 246
     468:	80 93 4e 20 	sts	0x204E, r24	; 0x80204e <__data_end+0xa>
     46c:	83 c0       	rjmp	.+262    	; 0x574 <twim_interrupt_handler+0x128>

	} else if ((master_status & TWI_MASTER_BUSERR_bm) ||
     46e:	98 2f       	mov	r25, r24
     470:	94 71       	andi	r25, 0x14	; 20
     472:	31 f0       	breq	.+12     	; 0x480 <twim_interrupt_handler+0x34>
		(master_status & TWI_MASTER_RXACK_bm)) {

		transfer.bus->MASTER.CTRLC = TWI_MASTER_CMD_STOP_gc;
     474:	83 e0       	ldi	r24, 0x03	; 3
     476:	83 83       	std	Z+3, r24	; 0x03
		transfer.status = ERR_IO_ERROR;
     478:	8f ef       	ldi	r24, 0xFF	; 255
     47a:	80 93 4e 20 	sts	0x204E, r24	; 0x80204e <__data_end+0xa>
     47e:	7a c0       	rjmp	.+244    	; 0x574 <twim_interrupt_handler+0x128>

	} else if (master_status & TWI_MASTER_WIF_bm) {
     480:	86 ff       	sbrs	r24, 6
     482:	43 c0       	rjmp	.+134    	; 0x50a <twim_interrupt_handler+0xbe>
 *  Handles TWI transactions (master write) and responses to (N)ACK.
 */
static inline void twim_write_handler(void)
{
	TWI_t * const         bus = transfer.bus;
	twi_package_t * const pkg = transfer.pkg;
     484:	c4 e4       	ldi	r28, 0x44	; 68
     486:	d0 e2       	ldi	r29, 0x20	; 32
     488:	aa 81       	ldd	r26, Y+2	; 0x02
     48a:	bb 81       	ldd	r27, Y+3	; 0x03

	if (transfer.addr_count < pkg->addr_length) {
     48c:	8c 81       	ldd	r24, Y+4	; 0x04
     48e:	9d 81       	ldd	r25, Y+5	; 0x05
     490:	14 96       	adiw	r26, 0x04	; 4
     492:	2d 91       	ld	r18, X+
     494:	3c 91       	ld	r19, X
     496:	15 97       	sbiw	r26, 0x05	; 5
     498:	82 17       	cp	r24, r18
     49a:	93 07       	cpc	r25, r19
     49c:	6c f4       	brge	.+26     	; 0x4b8 <twim_interrupt_handler+0x6c>

		const uint8_t * const data = pkg->addr;
		bus->MASTER.DATA = data[transfer.addr_count++];
     49e:	9c 01       	movw	r18, r24
     4a0:	2f 5f       	subi	r18, 0xFF	; 255
     4a2:	3f 4f       	sbci	r19, 0xFF	; 255
     4a4:	20 93 48 20 	sts	0x2048, r18	; 0x802048 <__data_end+0x4>
     4a8:	30 93 49 20 	sts	0x2049, r19	; 0x802049 <__data_end+0x5>
     4ac:	a8 0f       	add	r26, r24
     4ae:	b9 1f       	adc	r27, r25
     4b0:	11 96       	adiw	r26, 0x01	; 1
     4b2:	8c 91       	ld	r24, X
     4b4:	87 83       	std	Z+7, r24	; 0x07
     4b6:	5e c0       	rjmp	.+188    	; 0x574 <twim_interrupt_handler+0x128>

	} else if (transfer.data_count < pkg->length) {
     4b8:	80 91 4a 20 	lds	r24, 0x204A	; 0x80204a <__data_end+0x6>
     4bc:	90 91 4b 20 	lds	r25, 0x204B	; 0x80204b <__data_end+0x7>
     4c0:	18 96       	adiw	r26, 0x08	; 8
     4c2:	2d 91       	ld	r18, X+
     4c4:	3c 91       	ld	r19, X
     4c6:	19 97       	sbiw	r26, 0x09	; 9
     4c8:	82 17       	cp	r24, r18
     4ca:	93 07       	cpc	r25, r19
     4cc:	c8 f4       	brcc	.+50     	; 0x500 <twim_interrupt_handler+0xb4>

		if (transfer.read) {
     4ce:	20 91 4c 20 	lds	r18, 0x204C	; 0x80204c <__data_end+0x8>
     4d2:	22 23       	and	r18, r18
     4d4:	21 f0       	breq	.+8      	; 0x4de <twim_interrupt_handler+0x92>

			/* Send repeated START condition (Address|R/W=1). */

			bus->MASTER.ADDR |= 0x01;
     4d6:	86 81       	ldd	r24, Z+6	; 0x06
     4d8:	81 60       	ori	r24, 0x01	; 1
     4da:	86 83       	std	Z+6, r24	; 0x06
     4dc:	4b c0       	rjmp	.+150    	; 0x574 <twim_interrupt_handler+0x128>

		} else {
			const uint8_t * const data = pkg->buffer;
     4de:	16 96       	adiw	r26, 0x06	; 6
     4e0:	2d 91       	ld	r18, X+
     4e2:	3c 91       	ld	r19, X
     4e4:	17 97       	sbiw	r26, 0x07	; 7
			bus->MASTER.DATA = data[transfer.data_count++];
     4e6:	ac 01       	movw	r20, r24
     4e8:	4f 5f       	subi	r20, 0xFF	; 255
     4ea:	5f 4f       	sbci	r21, 0xFF	; 255
     4ec:	40 93 4a 20 	sts	0x204A, r20	; 0x80204a <__data_end+0x6>
     4f0:	50 93 4b 20 	sts	0x204B, r21	; 0x80204b <__data_end+0x7>
     4f4:	d9 01       	movw	r26, r18
     4f6:	a8 0f       	add	r26, r24
     4f8:	b9 1f       	adc	r27, r25
     4fa:	8c 91       	ld	r24, X
     4fc:	87 83       	std	Z+7, r24	; 0x07
     4fe:	3a c0       	rjmp	.+116    	; 0x574 <twim_interrupt_handler+0x128>

	} else {

		/* Send STOP condition to complete the transaction. */

		bus->MASTER.CTRLC = TWI_MASTER_CMD_STOP_gc;
     500:	83 e0       	ldi	r24, 0x03	; 3
     502:	83 83       	std	Z+3, r24	; 0x03
		transfer.status = STATUS_OK;
     504:	10 92 4e 20 	sts	0x204E, r1	; 0x80204e <__data_end+0xa>
     508:	35 c0       	rjmp	.+106    	; 0x574 <twim_interrupt_handler+0x128>

	} else if (master_status & TWI_MASTER_WIF_bm) {

		twim_write_handler();

	} else if (master_status & TWI_MASTER_RIF_bm) {
     50a:	88 23       	and	r24, r24
     50c:	84 f5       	brge	.+96     	; 0x56e <twim_interrupt_handler+0x122>
 *  reading bytes from the TWI slave.
 */
static inline void twim_read_handler(void)
{
	TWI_t * const         bus = transfer.bus;
	twi_package_t * const pkg = transfer.pkg;
     50e:	a4 e4       	ldi	r26, 0x44	; 68
     510:	b0 e2       	ldi	r27, 0x20	; 32
     512:	12 96       	adiw	r26, 0x02	; 2
     514:	cd 91       	ld	r28, X+
     516:	dc 91       	ld	r29, X
     518:	13 97       	sbiw	r26, 0x03	; 3

	if (transfer.data_count < pkg->length) {
     51a:	16 96       	adiw	r26, 0x06	; 6
     51c:	8d 91       	ld	r24, X+
     51e:	9c 91       	ld	r25, X
     520:	17 97       	sbiw	r26, 0x07	; 7
     522:	28 85       	ldd	r18, Y+8	; 0x08
     524:	39 85       	ldd	r19, Y+9	; 0x09
     526:	82 17       	cp	r24, r18
     528:	93 07       	cpc	r25, r19
     52a:	d8 f4       	brcc	.+54     	; 0x562 <twim_interrupt_handler+0x116>

		uint8_t * const data = pkg->buffer;
     52c:	6e 81       	ldd	r22, Y+6	; 0x06
     52e:	7f 81       	ldd	r23, Y+7	; 0x07
		data[transfer.data_count++] = bus->MASTER.DATA;
     530:	9c 01       	movw	r18, r24
     532:	2f 5f       	subi	r18, 0xFF	; 255
     534:	3f 4f       	sbci	r19, 0xFF	; 255
     536:	20 93 4a 20 	sts	0x204A, r18	; 0x80204a <__data_end+0x6>
     53a:	30 93 4b 20 	sts	0x204B, r19	; 0x80204b <__data_end+0x7>
     53e:	47 81       	ldd	r20, Z+7	; 0x07
     540:	db 01       	movw	r26, r22
     542:	a8 0f       	add	r26, r24
     544:	b9 1f       	adc	r27, r25
     546:	4c 93       	st	X, r20

		/* If there is more to read, issue ACK and start a byte read.
		 * Otherwise, issue NACK and STOP to complete the transaction.
		 */
		if (transfer.data_count < pkg->length) {
     548:	88 85       	ldd	r24, Y+8	; 0x08
     54a:	99 85       	ldd	r25, Y+9	; 0x09
     54c:	28 17       	cp	r18, r24
     54e:	39 07       	cpc	r19, r25
     550:	18 f4       	brcc	.+6      	; 0x558 <twim_interrupt_handler+0x10c>

			bus->MASTER.CTRLC = TWI_MASTER_CMD_RECVTRANS_gc;
     552:	82 e0       	ldi	r24, 0x02	; 2
     554:	83 83       	std	Z+3, r24	; 0x03
     556:	0e c0       	rjmp	.+28     	; 0x574 <twim_interrupt_handler+0x128>

		} else {

			bus->MASTER.CTRLC = TWI_MASTER_ACKACT_bm | TWI_MASTER_CMD_STOP_gc;
     558:	87 e0       	ldi	r24, 0x07	; 7
     55a:	83 83       	std	Z+3, r24	; 0x03
			transfer.status = STATUS_OK;
     55c:	10 92 4e 20 	sts	0x204E, r1	; 0x80204e <__data_end+0xa>
     560:	09 c0       	rjmp	.+18     	; 0x574 <twim_interrupt_handler+0x128>

	} else {

		/* Issue STOP and buffer overflow condition. */

		bus->MASTER.CTRLC = TWI_MASTER_CMD_STOP_gc;
     562:	83 e0       	ldi	r24, 0x03	; 3
     564:	83 83       	std	Z+3, r24	; 0x03
		transfer.status = ERR_NO_MEMORY;
     566:	89 ef       	ldi	r24, 0xF9	; 249
     568:	80 93 4e 20 	sts	0x204E, r24	; 0x80204e <__data_end+0xa>
     56c:	03 c0       	rjmp	.+6      	; 0x574 <twim_interrupt_handler+0x128>

		twim_read_handler();

	} else {

		transfer.status = ERR_PROTOCOL;
     56e:	8b ef       	ldi	r24, 0xFB	; 251
     570:	80 93 4e 20 	sts	0x204E, r24	; 0x80204e <__data_end+0xa>
	}
}
     574:	df 91       	pop	r29
     576:	cf 91       	pop	r28
     578:	08 95       	ret

0000057a <__vector_13>:
 * parameters specified in the global \c transfer structure.
 */
static void twim_interrupt_handler(void);

#ifdef TWIC
ISR(TWIC_TWIM_vect) { twim_interrupt_handler(); }
     57a:	1f 92       	push	r1
     57c:	0f 92       	push	r0
     57e:	0f b6       	in	r0, 0x3f	; 63
     580:	0f 92       	push	r0
     582:	11 24       	eor	r1, r1
     584:	08 b6       	in	r0, 0x38	; 56
     586:	0f 92       	push	r0
     588:	18 be       	out	0x38, r1	; 56
     58a:	09 b6       	in	r0, 0x39	; 57
     58c:	0f 92       	push	r0
     58e:	19 be       	out	0x39, r1	; 57
     590:	0b b6       	in	r0, 0x3b	; 59
     592:	0f 92       	push	r0
     594:	1b be       	out	0x3b, r1	; 59
     596:	2f 93       	push	r18
     598:	3f 93       	push	r19
     59a:	4f 93       	push	r20
     59c:	5f 93       	push	r21
     59e:	6f 93       	push	r22
     5a0:	7f 93       	push	r23
     5a2:	8f 93       	push	r24
     5a4:	9f 93       	push	r25
     5a6:	af 93       	push	r26
     5a8:	bf 93       	push	r27
     5aa:	ef 93       	push	r30
     5ac:	ff 93       	push	r31
     5ae:	4e df       	rcall	.-356    	; 0x44c <twim_interrupt_handler>
     5b0:	ff 91       	pop	r31
     5b2:	ef 91       	pop	r30
     5b4:	bf 91       	pop	r27
     5b6:	af 91       	pop	r26
     5b8:	9f 91       	pop	r25
     5ba:	8f 91       	pop	r24
     5bc:	7f 91       	pop	r23
     5be:	6f 91       	pop	r22
     5c0:	5f 91       	pop	r21
     5c2:	4f 91       	pop	r20
     5c4:	3f 91       	pop	r19
     5c6:	2f 91       	pop	r18
     5c8:	0f 90       	pop	r0
     5ca:	0b be       	out	0x3b, r0	; 59
     5cc:	0f 90       	pop	r0
     5ce:	09 be       	out	0x39, r0	; 57
     5d0:	0f 90       	pop	r0
     5d2:	08 be       	out	0x38, r0	; 56
     5d4:	0f 90       	pop	r0
     5d6:	0f be       	out	0x3f, r0	; 63
     5d8:	0f 90       	pop	r0
     5da:	1f 90       	pop	r1
     5dc:	18 95       	reti

000005de <__vector_76>:
#endif
#ifdef TWID
ISR(TWID_TWIM_vect) { twim_interrupt_handler(); }
     5de:	1f 92       	push	r1
     5e0:	0f 92       	push	r0
     5e2:	0f b6       	in	r0, 0x3f	; 63
     5e4:	0f 92       	push	r0
     5e6:	11 24       	eor	r1, r1
     5e8:	08 b6       	in	r0, 0x38	; 56
     5ea:	0f 92       	push	r0
     5ec:	18 be       	out	0x38, r1	; 56
     5ee:	09 b6       	in	r0, 0x39	; 57
     5f0:	0f 92       	push	r0
     5f2:	19 be       	out	0x39, r1	; 57
     5f4:	0b b6       	in	r0, 0x3b	; 59
     5f6:	0f 92       	push	r0
     5f8:	1b be       	out	0x3b, r1	; 59
     5fa:	2f 93       	push	r18
     5fc:	3f 93       	push	r19
     5fe:	4f 93       	push	r20
     600:	5f 93       	push	r21
     602:	6f 93       	push	r22
     604:	7f 93       	push	r23
     606:	8f 93       	push	r24
     608:	9f 93       	push	r25
     60a:	af 93       	push	r26
     60c:	bf 93       	push	r27
     60e:	ef 93       	push	r30
     610:	ff 93       	push	r31
     612:	1c df       	rcall	.-456    	; 0x44c <twim_interrupt_handler>
     614:	ff 91       	pop	r31
     616:	ef 91       	pop	r30
     618:	bf 91       	pop	r27
     61a:	af 91       	pop	r26
     61c:	9f 91       	pop	r25
     61e:	8f 91       	pop	r24
     620:	7f 91       	pop	r23
     622:	6f 91       	pop	r22
     624:	5f 91       	pop	r21
     626:	4f 91       	pop	r20
     628:	3f 91       	pop	r19
     62a:	2f 91       	pop	r18
     62c:	0f 90       	pop	r0
     62e:	0b be       	out	0x3b, r0	; 59
     630:	0f 90       	pop	r0
     632:	09 be       	out	0x39, r0	; 57
     634:	0f 90       	pop	r0
     636:	08 be       	out	0x38, r0	; 56
     638:	0f 90       	pop	r0
     63a:	0f be       	out	0x3f, r0	; 63
     63c:	0f 90       	pop	r0
     63e:	1f 90       	pop	r1
     640:	18 95       	reti

00000642 <__vector_46>:
#endif
#ifdef TWIE
ISR(TWIE_TWIM_vect) { twim_interrupt_handler(); }
     642:	1f 92       	push	r1
     644:	0f 92       	push	r0
     646:	0f b6       	in	r0, 0x3f	; 63
     648:	0f 92       	push	r0
     64a:	11 24       	eor	r1, r1
     64c:	08 b6       	in	r0, 0x38	; 56
     64e:	0f 92       	push	r0
     650:	18 be       	out	0x38, r1	; 56
     652:	09 b6       	in	r0, 0x39	; 57
     654:	0f 92       	push	r0
     656:	19 be       	out	0x39, r1	; 57
     658:	0b b6       	in	r0, 0x3b	; 59
     65a:	0f 92       	push	r0
     65c:	1b be       	out	0x3b, r1	; 59
     65e:	2f 93       	push	r18
     660:	3f 93       	push	r19
     662:	4f 93       	push	r20
     664:	5f 93       	push	r21
     666:	6f 93       	push	r22
     668:	7f 93       	push	r23
     66a:	8f 93       	push	r24
     66c:	9f 93       	push	r25
     66e:	af 93       	push	r26
     670:	bf 93       	push	r27
     672:	ef 93       	push	r30
     674:	ff 93       	push	r31
     676:	ea de       	rcall	.-556    	; 0x44c <twim_interrupt_handler>
     678:	ff 91       	pop	r31
     67a:	ef 91       	pop	r30
     67c:	bf 91       	pop	r27
     67e:	af 91       	pop	r26
     680:	9f 91       	pop	r25
     682:	8f 91       	pop	r24
     684:	7f 91       	pop	r23
     686:	6f 91       	pop	r22
     688:	5f 91       	pop	r21
     68a:	4f 91       	pop	r20
     68c:	3f 91       	pop	r19
     68e:	2f 91       	pop	r18
     690:	0f 90       	pop	r0
     692:	0b be       	out	0x3b, r0	; 59
     694:	0f 90       	pop	r0
     696:	09 be       	out	0x39, r0	; 57
     698:	0f 90       	pop	r0
     69a:	08 be       	out	0x38, r0	; 56
     69c:	0f 90       	pop	r0
     69e:	0f be       	out	0x3f, r0	; 63
     6a0:	0f 90       	pop	r0
     6a2:	1f 90       	pop	r1
     6a4:	18 95       	reti

000006a6 <__vector_107>:
#endif
#ifdef TWIF
ISR(TWIF_TWIM_vect) { twim_interrupt_handler(); }
     6a6:	1f 92       	push	r1
     6a8:	0f 92       	push	r0
     6aa:	0f b6       	in	r0, 0x3f	; 63
     6ac:	0f 92       	push	r0
     6ae:	11 24       	eor	r1, r1
     6b0:	08 b6       	in	r0, 0x38	; 56
     6b2:	0f 92       	push	r0
     6b4:	18 be       	out	0x38, r1	; 56
     6b6:	09 b6       	in	r0, 0x39	; 57
     6b8:	0f 92       	push	r0
     6ba:	19 be       	out	0x39, r1	; 57
     6bc:	0b b6       	in	r0, 0x3b	; 59
     6be:	0f 92       	push	r0
     6c0:	1b be       	out	0x3b, r1	; 59
     6c2:	2f 93       	push	r18
     6c4:	3f 93       	push	r19
     6c6:	4f 93       	push	r20
     6c8:	5f 93       	push	r21
     6ca:	6f 93       	push	r22
     6cc:	7f 93       	push	r23
     6ce:	8f 93       	push	r24
     6d0:	9f 93       	push	r25
     6d2:	af 93       	push	r26
     6d4:	bf 93       	push	r27
     6d6:	ef 93       	push	r30
     6d8:	ff 93       	push	r31
     6da:	b8 de       	rcall	.-656    	; 0x44c <twim_interrupt_handler>
     6dc:	ff 91       	pop	r31
     6de:	ef 91       	pop	r30
     6e0:	bf 91       	pop	r27
     6e2:	af 91       	pop	r26
     6e4:	9f 91       	pop	r25
     6e6:	8f 91       	pop	r24
     6e8:	7f 91       	pop	r23
     6ea:	6f 91       	pop	r22
     6ec:	5f 91       	pop	r21
     6ee:	4f 91       	pop	r20
     6f0:	3f 91       	pop	r19
     6f2:	2f 91       	pop	r18
     6f4:	0f 90       	pop	r0
     6f6:	0b be       	out	0x3b, r0	; 59
     6f8:	0f 90       	pop	r0
     6fa:	09 be       	out	0x39, r0	; 57
     6fc:	0f 90       	pop	r0
     6fe:	08 be       	out	0x38, r0	; 56
     700:	0f 90       	pop	r0
     702:	0f be       	out	0x3f, r0	; 63
     704:	0f 90       	pop	r0
     706:	1f 90       	pop	r1
     708:	18 95       	reti

0000070a <wdt_reset_mcu>:
uint8_t temp;
	/*
	 * WDT enabled (minimum timeout period for max. security)
	 */
	temp = WDT_PER_8CLK_gc | (1 << WDT_ENABLE_bp) | (1 << WDT_CEN_bp);
	ccp_write_io((void *)&WDT.CTRL, temp);
     70a:	63 e0       	ldi	r22, 0x03	; 3
     70c:	80 e8       	ldi	r24, 0x80	; 128
     70e:	90 e0       	ldi	r25, 0x00	; 0
     710:	6e d2       	rcall	.+1244   	; 0xbee <ccp_write_io>
/*! \brief Wait until WD settings are synchronized to the WD clock domain.
 *
 */
static inline void wdt_wait_while_busy(void)
{
	while ((WDT.STATUS & WDT_SYNCBUSY_bm) == WDT_SYNCBUSY_bm) {
     712:	e0 e8       	ldi	r30, 0x80	; 128
     714:	f0 e0       	ldi	r31, 0x00	; 0
     716:	82 81       	ldd	r24, Z+2	; 0x02
     718:	80 fd       	sbrc	r24, 0
     71a:	fd cf       	rjmp	.-6      	; 0x716 <wdt_reset_mcu+0xc>
	wdt_wait_while_busy();
	/*
	 * WDT enabled (maximum window period for max. security)
	 */
	temp = WDT_WPER_8KCLK_gc | (1 << WDT_WEN_bp) | (1 << WDT_WCEN_bp);
	ccp_write_io((void *)&WDT.WINCTRL, temp);
     71c:	6b e2       	ldi	r22, 0x2B	; 43
     71e:	81 e8       	ldi	r24, 0x81	; 129
     720:	90 e0       	ldi	r25, 0x00	; 0
     722:	65 d2       	rcall	.+1226   	; 0xbee <ccp_write_io>
     724:	e0 e8       	ldi	r30, 0x80	; 128
     726:	f0 e0       	ldi	r31, 0x00	; 0
     728:	82 81       	ldd	r24, Z+2	; 0x02
     72a:	80 fd       	sbrc	r24, 0
     72c:	fd cf       	rjmp	.-6      	; 0x728 <wdt_reset_mcu+0x1e>
	wdt_wait_while_busy();
	/*
	 * WDT Reset during window => WDT generates an Hard Reset.
	 */
	wdt_reset();
     72e:	a8 95       	wdr
     730:	ff cf       	rjmp	.-2      	; 0x730 <wdt_reset_mcu+0x26>

00000732 <sysclk_init>:
#  include <nvm.h>
#endif


void sysclk_init(void)
{
     732:	cf 93       	push	r28
     734:	df 93       	push	r29
     736:	1f 92       	push	r1
     738:	1f 92       	push	r1
     73a:	cd b7       	in	r28, 0x3d	; 61
     73c:	de b7       	in	r29, 0x3e	; 62
#endif
	bool need_rc2mhz = false;

	/* Turn off all peripheral clocks that can be turned off. */
	for (i = 0; i <= SYSCLK_PORT_F; i++) {
		*(reg++) = 0xff;
     73e:	8f ef       	ldi	r24, 0xFF	; 255
     740:	80 93 70 00 	sts	0x0070, r24	; 0x800070 <__TEXT_REGION_LENGTH__+0x700070>
     744:	80 93 71 00 	sts	0x0071, r24	; 0x800071 <__TEXT_REGION_LENGTH__+0x700071>
     748:	80 93 72 00 	sts	0x0072, r24	; 0x800072 <__TEXT_REGION_LENGTH__+0x700072>
     74c:	80 93 73 00 	sts	0x0073, r24	; 0x800073 <__TEXT_REGION_LENGTH__+0x700073>
     750:	80 93 74 00 	sts	0x0074, r24	; 0x800074 <__TEXT_REGION_LENGTH__+0x700074>
     754:	80 93 75 00 	sts	0x0075, r24	; 0x800075 <__TEXT_REGION_LENGTH__+0x700075>
     758:	80 93 76 00 	sts	0x0076, r24	; 0x800076 <__TEXT_REGION_LENGTH__+0x700076>

typedef uint8_t irqflags_t;

static inline irqflags_t cpu_irq_save(void)
{
	volatile irqflags_t flags = SREG;
     75c:	8f b7       	in	r24, 0x3f	; 63
     75e:	8a 83       	std	Y+2, r24	; 0x02
	cpu_irq_disable();
     760:	f8 94       	cli
	return flags;
     762:	9a 81       	ldd	r25, Y+2	; 0x02
	irqflags_t flags;

	Assert(id != OSC_ID_USBSOF);

	flags = cpu_irq_save();
	OSC.CTRL |= id;
     764:	e0 e5       	ldi	r30, 0x50	; 80
     766:	f0 e0       	ldi	r31, 0x00	; 0
     768:	80 81       	ld	r24, Z
     76a:	82 60       	ori	r24, 0x02	; 2
     76c:	80 83       	st	Z, r24
}

static inline void cpu_irq_restore(irqflags_t flags)
{
	barrier();
	SREG = flags;
     76e:	9f bf       	out	0x3f, r25	; 63

static inline bool osc_is_ready(uint8_t id)
{
	Assert(id != OSC_ID_USBSOF);

	return OSC.STATUS & id;
     770:	81 81       	ldd	r24, Z+1	; 0x01
 *
 * \param id A number identifying the oscillator to wait for.
 */
static inline void osc_wait_ready(uint8_t id)
{
	while (!osc_is_ready(id)) {
     772:	81 ff       	sbrs	r24, 1
     774:	fd cf       	rjmp	.-6      	; 0x770 <sysclk_init+0x3e>
		default:
			//unhandled_case(CONFIG_SYSCLK_SOURCE);
			return;
		}

		ccp_write_io((uint8_t *)&CLK.CTRL, CONFIG_SYSCLK_SOURCE);
     776:	61 e0       	ldi	r22, 0x01	; 1
     778:	80 e4       	ldi	r24, 0x40	; 64
     77a:	90 e0       	ldi	r25, 0x00	; 0
     77c:	38 d2       	rcall	.+1136   	; 0xbee <ccp_write_io>

typedef uint8_t irqflags_t;

static inline irqflags_t cpu_irq_save(void)
{
	volatile irqflags_t flags = SREG;
     77e:	8f b7       	in	r24, 0x3f	; 63
     780:	89 83       	std	Y+1, r24	; 0x01
	cpu_irq_disable();
     782:	f8 94       	cli
	return flags;
     784:	99 81       	ldd	r25, Y+1	; 0x01
	irqflags_t flags;

	Assert(id != OSC_ID_USBSOF);

	flags = cpu_irq_save();
	OSC.CTRL &= ~id;
     786:	e0 e5       	ldi	r30, 0x50	; 80
     788:	f0 e0       	ldi	r31, 0x00	; 0
     78a:	80 81       	ld	r24, Z
     78c:	8e 7f       	andi	r24, 0xFE	; 254
     78e:	80 83       	st	Z, r24
}

static inline void cpu_irq_restore(irqflags_t flags)
{
	barrier();
	SREG = flags;
     790:	9f bf       	out	0x3f, r25	; 63
	}

#ifdef CONFIG_RTC_SOURCE
	sysclk_rtcsrc_enable(CONFIG_RTC_SOURCE);
#endif
}
     792:	0f 90       	pop	r0
     794:	0f 90       	pop	r0
     796:	df 91       	pop	r29
     798:	cf 91       	pop	r28
     79a:	08 95       	ret

0000079c <sysclk_enable_module>:

void sysclk_enable_module(enum sysclk_port_id port, uint8_t id)
{
     79c:	cf 93       	push	r28
     79e:	df 93       	push	r29
     7a0:	1f 92       	push	r1
     7a2:	cd b7       	in	r28, 0x3d	; 61
     7a4:	de b7       	in	r29, 0x3e	; 62

typedef uint8_t irqflags_t;

static inline irqflags_t cpu_irq_save(void)
{
	volatile irqflags_t flags = SREG;
     7a6:	9f b7       	in	r25, 0x3f	; 63
     7a8:	99 83       	std	Y+1, r25	; 0x01
	cpu_irq_disable();
     7aa:	f8 94       	cli
	return flags;
     7ac:	99 81       	ldd	r25, Y+1	; 0x01
	irqflags_t flags = cpu_irq_save();

	*((uint8_t *)&PR.PRGEN + port) &= ~id;
     7ae:	e8 2f       	mov	r30, r24
     7b0:	f0 e0       	ldi	r31, 0x00	; 0
     7b2:	e0 59       	subi	r30, 0x90	; 144
     7b4:	ff 4f       	sbci	r31, 0xFF	; 255
     7b6:	60 95       	com	r22
     7b8:	80 81       	ld	r24, Z
     7ba:	68 23       	and	r22, r24
     7bc:	60 83       	st	Z, r22
}

static inline void cpu_irq_restore(irqflags_t flags)
{
	barrier();
	SREG = flags;
     7be:	9f bf       	out	0x3f, r25	; 63

	cpu_irq_restore(flags);
}
     7c0:	0f 90       	pop	r0
     7c2:	df 91       	pop	r29
     7c4:	cf 91       	pop	r28
     7c6:	08 95       	ret

000007c8 <_read>:
#elif (defined(__GNUC__) && (XMEGA || MEGA) )

int _read (int *f); // Remove GCC compiler warning

int _read (int *f)
{
     7c8:	cf 93       	push	r28
     7ca:	df 93       	push	r29
     7cc:	1f 92       	push	r1
     7ce:	cd b7       	in	r28, 0x3d	; 61
     7d0:	de b7       	in	r29, 0x3e	; 62
	char c;
	ptr_get(stdio_base,&c);
     7d2:	80 91 a3 20 	lds	r24, 0x20A3	; 0x8020a3 <stdio_base>
     7d6:	90 91 a4 20 	lds	r25, 0x20A4	; 0x8020a4 <stdio_base+0x1>
     7da:	e0 91 9f 20 	lds	r30, 0x209F	; 0x80209f <ptr_get>
     7de:	f0 91 a0 20 	lds	r31, 0x20A0	; 0x8020a0 <ptr_get+0x1>
     7e2:	be 01       	movw	r22, r28
     7e4:	6f 5f       	subi	r22, 0xFF	; 255
     7e6:	7f 4f       	sbci	r23, 0xFF	; 255
     7e8:	19 95       	eicall
	return c;
     7ea:	89 81       	ldd	r24, Y+1	; 0x01
}
     7ec:	08 2e       	mov	r0, r24
     7ee:	00 0c       	add	r0, r0
     7f0:	99 0b       	sbc	r25, r25
     7f2:	0f 90       	pop	r0
     7f4:	df 91       	pop	r29
     7f6:	cf 91       	pop	r28
     7f8:	08 95       	ret

000007fa <_write>:
#elif (defined(__GNUC__) && (XMEGA || MEGA))

int _write (char c, int *f);

int _write (char c, int *f)
{
     7fa:	68 2f       	mov	r22, r24
	if (ptr_put(stdio_base, c) < 0) {
     7fc:	80 91 a3 20 	lds	r24, 0x20A3	; 0x8020a3 <stdio_base>
     800:	90 91 a4 20 	lds	r25, 0x20A4	; 0x8020a4 <stdio_base+0x1>
     804:	e0 91 a1 20 	lds	r30, 0x20A1	; 0x8020a1 <ptr_put>
     808:	f0 91 a2 20 	lds	r31, 0x20A2	; 0x8020a2 <ptr_put+0x1>
     80c:	19 95       	eicall
     80e:	99 23       	and	r25, r25
     810:	1c f0       	brlt	.+6      	; 0x818 <_write+0x1e>
		return -1;
	}
	return 1;
     812:	81 e0       	ldi	r24, 0x01	; 1
     814:	90 e0       	ldi	r25, 0x00	; 0
     816:	08 95       	ret
int _write (char c, int *f);

int _write (char c, int *f)
{
	if (ptr_put(stdio_base, c) < 0) {
		return -1;
     818:	8f ef       	ldi	r24, 0xFF	; 255
     81a:	9f ef       	ldi	r25, 0xFF	; 255
	}
	return 1;
}
     81c:	08 95       	ret

0000081e <__vector_71>:
 *
 * Calls the callback function that has been set for the ADC when the channel's
 * interrupt flag is set, if its interrupt has been enabled.
 */
ISR(ADCA_CH0_vect)
{
     81e:	1f 92       	push	r1
     820:	0f 92       	push	r0
     822:	0f b6       	in	r0, 0x3f	; 63
     824:	0f 92       	push	r0
     826:	11 24       	eor	r1, r1
     828:	08 b6       	in	r0, 0x38	; 56
     82a:	0f 92       	push	r0
     82c:	18 be       	out	0x38, r1	; 56
     82e:	09 b6       	in	r0, 0x39	; 57
     830:	0f 92       	push	r0
     832:	19 be       	out	0x39, r1	; 57
     834:	0b b6       	in	r0, 0x3b	; 59
     836:	0f 92       	push	r0
     838:	1b be       	out	0x3b, r1	; 59
     83a:	2f 93       	push	r18
     83c:	3f 93       	push	r19
     83e:	4f 93       	push	r20
     840:	5f 93       	push	r21
     842:	6f 93       	push	r22
     844:	7f 93       	push	r23
     846:	8f 93       	push	r24
     848:	9f 93       	push	r25
     84a:	af 93       	push	r26
     84c:	bf 93       	push	r27
     84e:	ef 93       	push	r30
     850:	ff 93       	push	r31
	adca_callback(&ADCA, ADC_CH0, adc_get_result(&ADCA, ADC_CH0));
     852:	40 91 24 02 	lds	r20, 0x0224	; 0x800224 <__TEXT_REGION_LENGTH__+0x700224>
     856:	50 91 25 02 	lds	r21, 0x0225	; 0x800225 <__TEXT_REGION_LENGTH__+0x700225>
     85a:	e0 91 a7 20 	lds	r30, 0x20A7	; 0x8020a7 <adca_callback>
     85e:	f0 91 a8 20 	lds	r31, 0x20A8	; 0x8020a8 <adca_callback+0x1>
     862:	61 e0       	ldi	r22, 0x01	; 1
     864:	80 e0       	ldi	r24, 0x00	; 0
     866:	92 e0       	ldi	r25, 0x02	; 2
     868:	19 95       	eicall
}
     86a:	ff 91       	pop	r31
     86c:	ef 91       	pop	r30
     86e:	bf 91       	pop	r27
     870:	af 91       	pop	r26
     872:	9f 91       	pop	r25
     874:	8f 91       	pop	r24
     876:	7f 91       	pop	r23
     878:	6f 91       	pop	r22
     87a:	5f 91       	pop	r21
     87c:	4f 91       	pop	r20
     87e:	3f 91       	pop	r19
     880:	2f 91       	pop	r18
     882:	0f 90       	pop	r0
     884:	0b be       	out	0x3b, r0	; 59
     886:	0f 90       	pop	r0
     888:	09 be       	out	0x39, r0	; 57
     88a:	0f 90       	pop	r0
     88c:	08 be       	out	0x38, r0	; 56
     88e:	0f 90       	pop	r0
     890:	0f be       	out	0x3f, r0	; 63
     892:	0f 90       	pop	r0
     894:	1f 90       	pop	r1
     896:	18 95       	reti

00000898 <__vector_72>:
 *
 * Calls the callback function that has been set for the ADC when the channel's
 * interrupt flag is set, if its interrupt has been enabled.
 */
ISR(ADCA_CH1_vect)
{
     898:	1f 92       	push	r1
     89a:	0f 92       	push	r0
     89c:	0f b6       	in	r0, 0x3f	; 63
     89e:	0f 92       	push	r0
     8a0:	11 24       	eor	r1, r1
     8a2:	08 b6       	in	r0, 0x38	; 56
     8a4:	0f 92       	push	r0
     8a6:	18 be       	out	0x38, r1	; 56
     8a8:	09 b6       	in	r0, 0x39	; 57
     8aa:	0f 92       	push	r0
     8ac:	19 be       	out	0x39, r1	; 57
     8ae:	0b b6       	in	r0, 0x3b	; 59
     8b0:	0f 92       	push	r0
     8b2:	1b be       	out	0x3b, r1	; 59
     8b4:	2f 93       	push	r18
     8b6:	3f 93       	push	r19
     8b8:	4f 93       	push	r20
     8ba:	5f 93       	push	r21
     8bc:	6f 93       	push	r22
     8be:	7f 93       	push	r23
     8c0:	8f 93       	push	r24
     8c2:	9f 93       	push	r25
     8c4:	af 93       	push	r26
     8c6:	bf 93       	push	r27
     8c8:	ef 93       	push	r30
     8ca:	ff 93       	push	r31
	adca_callback(&ADCA, ADC_CH1, adc_get_result(&ADCA, ADC_CH1));
     8cc:	40 91 2c 02 	lds	r20, 0x022C	; 0x80022c <__TEXT_REGION_LENGTH__+0x70022c>
     8d0:	50 91 2d 02 	lds	r21, 0x022D	; 0x80022d <__TEXT_REGION_LENGTH__+0x70022d>
     8d4:	e0 91 a7 20 	lds	r30, 0x20A7	; 0x8020a7 <adca_callback>
     8d8:	f0 91 a8 20 	lds	r31, 0x20A8	; 0x8020a8 <adca_callback+0x1>
     8dc:	62 e0       	ldi	r22, 0x02	; 2
     8de:	80 e0       	ldi	r24, 0x00	; 0
     8e0:	92 e0       	ldi	r25, 0x02	; 2
     8e2:	19 95       	eicall
}
     8e4:	ff 91       	pop	r31
     8e6:	ef 91       	pop	r30
     8e8:	bf 91       	pop	r27
     8ea:	af 91       	pop	r26
     8ec:	9f 91       	pop	r25
     8ee:	8f 91       	pop	r24
     8f0:	7f 91       	pop	r23
     8f2:	6f 91       	pop	r22
     8f4:	5f 91       	pop	r21
     8f6:	4f 91       	pop	r20
     8f8:	3f 91       	pop	r19
     8fa:	2f 91       	pop	r18
     8fc:	0f 90       	pop	r0
     8fe:	0b be       	out	0x3b, r0	; 59
     900:	0f 90       	pop	r0
     902:	09 be       	out	0x39, r0	; 57
     904:	0f 90       	pop	r0
     906:	08 be       	out	0x38, r0	; 56
     908:	0f 90       	pop	r0
     90a:	0f be       	out	0x3f, r0	; 63
     90c:	0f 90       	pop	r0
     90e:	1f 90       	pop	r1
     910:	18 95       	reti

00000912 <__vector_73>:
 *
 * Calls the callback function that has been set for the ADC when the channel's
 * interrupt flag is set, if its interrupt has been enabled.
 */
ISR(ADCA_CH2_vect)
{
     912:	1f 92       	push	r1
     914:	0f 92       	push	r0
     916:	0f b6       	in	r0, 0x3f	; 63
     918:	0f 92       	push	r0
     91a:	11 24       	eor	r1, r1
     91c:	08 b6       	in	r0, 0x38	; 56
     91e:	0f 92       	push	r0
     920:	18 be       	out	0x38, r1	; 56
     922:	09 b6       	in	r0, 0x39	; 57
     924:	0f 92       	push	r0
     926:	19 be       	out	0x39, r1	; 57
     928:	0b b6       	in	r0, 0x3b	; 59
     92a:	0f 92       	push	r0
     92c:	1b be       	out	0x3b, r1	; 59
     92e:	2f 93       	push	r18
     930:	3f 93       	push	r19
     932:	4f 93       	push	r20
     934:	5f 93       	push	r21
     936:	6f 93       	push	r22
     938:	7f 93       	push	r23
     93a:	8f 93       	push	r24
     93c:	9f 93       	push	r25
     93e:	af 93       	push	r26
     940:	bf 93       	push	r27
     942:	ef 93       	push	r30
     944:	ff 93       	push	r31
	adca_callback(&ADCA, ADC_CH2, adc_get_result(&ADCA, ADC_CH2));
     946:	40 91 34 02 	lds	r20, 0x0234	; 0x800234 <__TEXT_REGION_LENGTH__+0x700234>
     94a:	50 91 35 02 	lds	r21, 0x0235	; 0x800235 <__TEXT_REGION_LENGTH__+0x700235>
     94e:	e0 91 a7 20 	lds	r30, 0x20A7	; 0x8020a7 <adca_callback>
     952:	f0 91 a8 20 	lds	r31, 0x20A8	; 0x8020a8 <adca_callback+0x1>
     956:	64 e0       	ldi	r22, 0x04	; 4
     958:	80 e0       	ldi	r24, 0x00	; 0
     95a:	92 e0       	ldi	r25, 0x02	; 2
     95c:	19 95       	eicall
}
     95e:	ff 91       	pop	r31
     960:	ef 91       	pop	r30
     962:	bf 91       	pop	r27
     964:	af 91       	pop	r26
     966:	9f 91       	pop	r25
     968:	8f 91       	pop	r24
     96a:	7f 91       	pop	r23
     96c:	6f 91       	pop	r22
     96e:	5f 91       	pop	r21
     970:	4f 91       	pop	r20
     972:	3f 91       	pop	r19
     974:	2f 91       	pop	r18
     976:	0f 90       	pop	r0
     978:	0b be       	out	0x3b, r0	; 59
     97a:	0f 90       	pop	r0
     97c:	09 be       	out	0x39, r0	; 57
     97e:	0f 90       	pop	r0
     980:	08 be       	out	0x38, r0	; 56
     982:	0f 90       	pop	r0
     984:	0f be       	out	0x3f, r0	; 63
     986:	0f 90       	pop	r0
     988:	1f 90       	pop	r1
     98a:	18 95       	reti

0000098c <__vector_74>:
 *
 * Calls the callback function that has been set for the ADC when the channel's
 * interrupt flag is set, if its interrupt has been enabled.
 */
ISR(ADCA_CH3_vect)
{
     98c:	1f 92       	push	r1
     98e:	0f 92       	push	r0
     990:	0f b6       	in	r0, 0x3f	; 63
     992:	0f 92       	push	r0
     994:	11 24       	eor	r1, r1
     996:	08 b6       	in	r0, 0x38	; 56
     998:	0f 92       	push	r0
     99a:	18 be       	out	0x38, r1	; 56
     99c:	09 b6       	in	r0, 0x39	; 57
     99e:	0f 92       	push	r0
     9a0:	19 be       	out	0x39, r1	; 57
     9a2:	0b b6       	in	r0, 0x3b	; 59
     9a4:	0f 92       	push	r0
     9a6:	1b be       	out	0x3b, r1	; 59
     9a8:	2f 93       	push	r18
     9aa:	3f 93       	push	r19
     9ac:	4f 93       	push	r20
     9ae:	5f 93       	push	r21
     9b0:	6f 93       	push	r22
     9b2:	7f 93       	push	r23
     9b4:	8f 93       	push	r24
     9b6:	9f 93       	push	r25
     9b8:	af 93       	push	r26
     9ba:	bf 93       	push	r27
     9bc:	ef 93       	push	r30
     9be:	ff 93       	push	r31
	adca_callback(&ADCA, ADC_CH3, adc_get_result(&ADCA, ADC_CH3));
     9c0:	40 91 3c 02 	lds	r20, 0x023C	; 0x80023c <__TEXT_REGION_LENGTH__+0x70023c>
     9c4:	50 91 3d 02 	lds	r21, 0x023D	; 0x80023d <__TEXT_REGION_LENGTH__+0x70023d>
     9c8:	e0 91 a7 20 	lds	r30, 0x20A7	; 0x8020a7 <adca_callback>
     9cc:	f0 91 a8 20 	lds	r31, 0x20A8	; 0x8020a8 <adca_callback+0x1>
     9d0:	68 e0       	ldi	r22, 0x08	; 8
     9d2:	80 e0       	ldi	r24, 0x00	; 0
     9d4:	92 e0       	ldi	r25, 0x02	; 2
     9d6:	19 95       	eicall
}
     9d8:	ff 91       	pop	r31
     9da:	ef 91       	pop	r30
     9dc:	bf 91       	pop	r27
     9de:	af 91       	pop	r26
     9e0:	9f 91       	pop	r25
     9e2:	8f 91       	pop	r24
     9e4:	7f 91       	pop	r23
     9e6:	6f 91       	pop	r22
     9e8:	5f 91       	pop	r21
     9ea:	4f 91       	pop	r20
     9ec:	3f 91       	pop	r19
     9ee:	2f 91       	pop	r18
     9f0:	0f 90       	pop	r0
     9f2:	0b be       	out	0x3b, r0	; 59
     9f4:	0f 90       	pop	r0
     9f6:	09 be       	out	0x39, r0	; 57
     9f8:	0f 90       	pop	r0
     9fa:	08 be       	out	0x38, r0	; 56
     9fc:	0f 90       	pop	r0
     9fe:	0f be       	out	0x3f, r0	; 63
     a00:	0f 90       	pop	r0
     a02:	1f 90       	pop	r1
     a04:	18 95       	reti

00000a06 <__vector_39>:
 *
 * Calls the callback function that has been set for the ADC when the channel's
 * interrupt flag is set, if its interrupt has been enabled.
 */
ISR(ADCB_CH0_vect)
{
     a06:	1f 92       	push	r1
     a08:	0f 92       	push	r0
     a0a:	0f b6       	in	r0, 0x3f	; 63
     a0c:	0f 92       	push	r0
     a0e:	11 24       	eor	r1, r1
     a10:	08 b6       	in	r0, 0x38	; 56
     a12:	0f 92       	push	r0
     a14:	18 be       	out	0x38, r1	; 56
     a16:	09 b6       	in	r0, 0x39	; 57
     a18:	0f 92       	push	r0
     a1a:	19 be       	out	0x39, r1	; 57
     a1c:	0b b6       	in	r0, 0x3b	; 59
     a1e:	0f 92       	push	r0
     a20:	1b be       	out	0x3b, r1	; 59
     a22:	2f 93       	push	r18
     a24:	3f 93       	push	r19
     a26:	4f 93       	push	r20
     a28:	5f 93       	push	r21
     a2a:	6f 93       	push	r22
     a2c:	7f 93       	push	r23
     a2e:	8f 93       	push	r24
     a30:	9f 93       	push	r25
     a32:	af 93       	push	r26
     a34:	bf 93       	push	r27
     a36:	ef 93       	push	r30
     a38:	ff 93       	push	r31
	adcb_callback(&ADCB, ADC_CH0, adc_get_result(&ADCB, ADC_CH0));
     a3a:	40 91 64 02 	lds	r20, 0x0264	; 0x800264 <__TEXT_REGION_LENGTH__+0x700264>
     a3e:	50 91 65 02 	lds	r21, 0x0265	; 0x800265 <__TEXT_REGION_LENGTH__+0x700265>
     a42:	e0 91 a5 20 	lds	r30, 0x20A5	; 0x8020a5 <adcb_callback>
     a46:	f0 91 a6 20 	lds	r31, 0x20A6	; 0x8020a6 <adcb_callback+0x1>
     a4a:	61 e0       	ldi	r22, 0x01	; 1
     a4c:	80 e4       	ldi	r24, 0x40	; 64
     a4e:	92 e0       	ldi	r25, 0x02	; 2
     a50:	19 95       	eicall
}
     a52:	ff 91       	pop	r31
     a54:	ef 91       	pop	r30
     a56:	bf 91       	pop	r27
     a58:	af 91       	pop	r26
     a5a:	9f 91       	pop	r25
     a5c:	8f 91       	pop	r24
     a5e:	7f 91       	pop	r23
     a60:	6f 91       	pop	r22
     a62:	5f 91       	pop	r21
     a64:	4f 91       	pop	r20
     a66:	3f 91       	pop	r19
     a68:	2f 91       	pop	r18
     a6a:	0f 90       	pop	r0
     a6c:	0b be       	out	0x3b, r0	; 59
     a6e:	0f 90       	pop	r0
     a70:	09 be       	out	0x39, r0	; 57
     a72:	0f 90       	pop	r0
     a74:	08 be       	out	0x38, r0	; 56
     a76:	0f 90       	pop	r0
     a78:	0f be       	out	0x3f, r0	; 63
     a7a:	0f 90       	pop	r0
     a7c:	1f 90       	pop	r1
     a7e:	18 95       	reti

00000a80 <__vector_40>:
 *
 * Calls the callback function that has been set for the ADC when the channel's
 * interrupt flag is set, if its interrupt has been enabled.
 */
ISR(ADCB_CH1_vect)
{
     a80:	1f 92       	push	r1
     a82:	0f 92       	push	r0
     a84:	0f b6       	in	r0, 0x3f	; 63
     a86:	0f 92       	push	r0
     a88:	11 24       	eor	r1, r1
     a8a:	08 b6       	in	r0, 0x38	; 56
     a8c:	0f 92       	push	r0
     a8e:	18 be       	out	0x38, r1	; 56
     a90:	09 b6       	in	r0, 0x39	; 57
     a92:	0f 92       	push	r0
     a94:	19 be       	out	0x39, r1	; 57
     a96:	0b b6       	in	r0, 0x3b	; 59
     a98:	0f 92       	push	r0
     a9a:	1b be       	out	0x3b, r1	; 59
     a9c:	2f 93       	push	r18
     a9e:	3f 93       	push	r19
     aa0:	4f 93       	push	r20
     aa2:	5f 93       	push	r21
     aa4:	6f 93       	push	r22
     aa6:	7f 93       	push	r23
     aa8:	8f 93       	push	r24
     aaa:	9f 93       	push	r25
     aac:	af 93       	push	r26
     aae:	bf 93       	push	r27
     ab0:	ef 93       	push	r30
     ab2:	ff 93       	push	r31
	adcb_callback(&ADCB, ADC_CH1, adc_get_result(&ADCB, ADC_CH1));
     ab4:	40 91 6c 02 	lds	r20, 0x026C	; 0x80026c <__TEXT_REGION_LENGTH__+0x70026c>
     ab8:	50 91 6d 02 	lds	r21, 0x026D	; 0x80026d <__TEXT_REGION_LENGTH__+0x70026d>
     abc:	e0 91 a5 20 	lds	r30, 0x20A5	; 0x8020a5 <adcb_callback>
     ac0:	f0 91 a6 20 	lds	r31, 0x20A6	; 0x8020a6 <adcb_callback+0x1>
     ac4:	62 e0       	ldi	r22, 0x02	; 2
     ac6:	80 e4       	ldi	r24, 0x40	; 64
     ac8:	92 e0       	ldi	r25, 0x02	; 2
     aca:	19 95       	eicall
}
     acc:	ff 91       	pop	r31
     ace:	ef 91       	pop	r30
     ad0:	bf 91       	pop	r27
     ad2:	af 91       	pop	r26
     ad4:	9f 91       	pop	r25
     ad6:	8f 91       	pop	r24
     ad8:	7f 91       	pop	r23
     ada:	6f 91       	pop	r22
     adc:	5f 91       	pop	r21
     ade:	4f 91       	pop	r20
     ae0:	3f 91       	pop	r19
     ae2:	2f 91       	pop	r18
     ae4:	0f 90       	pop	r0
     ae6:	0b be       	out	0x3b, r0	; 59
     ae8:	0f 90       	pop	r0
     aea:	09 be       	out	0x39, r0	; 57
     aec:	0f 90       	pop	r0
     aee:	08 be       	out	0x38, r0	; 56
     af0:	0f 90       	pop	r0
     af2:	0f be       	out	0x3f, r0	; 63
     af4:	0f 90       	pop	r0
     af6:	1f 90       	pop	r1
     af8:	18 95       	reti

00000afa <__vector_41>:
 *
 * Calls the callback function that has been set for the ADC when the channel's
 * interrupt flag is set, if its interrupt has been enabled.
 */
ISR(ADCB_CH2_vect)
{
     afa:	1f 92       	push	r1
     afc:	0f 92       	push	r0
     afe:	0f b6       	in	r0, 0x3f	; 63
     b00:	0f 92       	push	r0
     b02:	11 24       	eor	r1, r1
     b04:	08 b6       	in	r0, 0x38	; 56
     b06:	0f 92       	push	r0
     b08:	18 be       	out	0x38, r1	; 56
     b0a:	09 b6       	in	r0, 0x39	; 57
     b0c:	0f 92       	push	r0
     b0e:	19 be       	out	0x39, r1	; 57
     b10:	0b b6       	in	r0, 0x3b	; 59
     b12:	0f 92       	push	r0
     b14:	1b be       	out	0x3b, r1	; 59
     b16:	2f 93       	push	r18
     b18:	3f 93       	push	r19
     b1a:	4f 93       	push	r20
     b1c:	5f 93       	push	r21
     b1e:	6f 93       	push	r22
     b20:	7f 93       	push	r23
     b22:	8f 93       	push	r24
     b24:	9f 93       	push	r25
     b26:	af 93       	push	r26
     b28:	bf 93       	push	r27
     b2a:	ef 93       	push	r30
     b2c:	ff 93       	push	r31
	adcb_callback(&ADCB, ADC_CH2, adc_get_result(&ADCB, ADC_CH2));
     b2e:	40 91 74 02 	lds	r20, 0x0274	; 0x800274 <__TEXT_REGION_LENGTH__+0x700274>
     b32:	50 91 75 02 	lds	r21, 0x0275	; 0x800275 <__TEXT_REGION_LENGTH__+0x700275>
     b36:	e0 91 a5 20 	lds	r30, 0x20A5	; 0x8020a5 <adcb_callback>
     b3a:	f0 91 a6 20 	lds	r31, 0x20A6	; 0x8020a6 <adcb_callback+0x1>
     b3e:	64 e0       	ldi	r22, 0x04	; 4
     b40:	80 e4       	ldi	r24, 0x40	; 64
     b42:	92 e0       	ldi	r25, 0x02	; 2
     b44:	19 95       	eicall
}
     b46:	ff 91       	pop	r31
     b48:	ef 91       	pop	r30
     b4a:	bf 91       	pop	r27
     b4c:	af 91       	pop	r26
     b4e:	9f 91       	pop	r25
     b50:	8f 91       	pop	r24
     b52:	7f 91       	pop	r23
     b54:	6f 91       	pop	r22
     b56:	5f 91       	pop	r21
     b58:	4f 91       	pop	r20
     b5a:	3f 91       	pop	r19
     b5c:	2f 91       	pop	r18
     b5e:	0f 90       	pop	r0
     b60:	0b be       	out	0x3b, r0	; 59
     b62:	0f 90       	pop	r0
     b64:	09 be       	out	0x39, r0	; 57
     b66:	0f 90       	pop	r0
     b68:	08 be       	out	0x38, r0	; 56
     b6a:	0f 90       	pop	r0
     b6c:	0f be       	out	0x3f, r0	; 63
     b6e:	0f 90       	pop	r0
     b70:	1f 90       	pop	r1
     b72:	18 95       	reti

00000b74 <__vector_42>:
 *
 * Calls the callback function that has been set for the ADC when the channel's
 * interrupt flag is set, if its interrupt has been enabled.
 */
ISR(ADCB_CH3_vect)
{
     b74:	1f 92       	push	r1
     b76:	0f 92       	push	r0
     b78:	0f b6       	in	r0, 0x3f	; 63
     b7a:	0f 92       	push	r0
     b7c:	11 24       	eor	r1, r1
     b7e:	08 b6       	in	r0, 0x38	; 56
     b80:	0f 92       	push	r0
     b82:	18 be       	out	0x38, r1	; 56
     b84:	09 b6       	in	r0, 0x39	; 57
     b86:	0f 92       	push	r0
     b88:	19 be       	out	0x39, r1	; 57
     b8a:	0b b6       	in	r0, 0x3b	; 59
     b8c:	0f 92       	push	r0
     b8e:	1b be       	out	0x3b, r1	; 59
     b90:	2f 93       	push	r18
     b92:	3f 93       	push	r19
     b94:	4f 93       	push	r20
     b96:	5f 93       	push	r21
     b98:	6f 93       	push	r22
     b9a:	7f 93       	push	r23
     b9c:	8f 93       	push	r24
     b9e:	9f 93       	push	r25
     ba0:	af 93       	push	r26
     ba2:	bf 93       	push	r27
     ba4:	ef 93       	push	r30
     ba6:	ff 93       	push	r31
	adcb_callback(&ADCB, ADC_CH3, adc_get_result(&ADCB, ADC_CH3));
     ba8:	40 91 7c 02 	lds	r20, 0x027C	; 0x80027c <__TEXT_REGION_LENGTH__+0x70027c>
     bac:	50 91 7d 02 	lds	r21, 0x027D	; 0x80027d <__TEXT_REGION_LENGTH__+0x70027d>
     bb0:	e0 91 a5 20 	lds	r30, 0x20A5	; 0x8020a5 <adcb_callback>
     bb4:	f0 91 a6 20 	lds	r31, 0x20A6	; 0x8020a6 <adcb_callback+0x1>
     bb8:	68 e0       	ldi	r22, 0x08	; 8
     bba:	80 e4       	ldi	r24, 0x40	; 64
     bbc:	92 e0       	ldi	r25, 0x02	; 2
     bbe:	19 95       	eicall
}
     bc0:	ff 91       	pop	r31
     bc2:	ef 91       	pop	r30
     bc4:	bf 91       	pop	r27
     bc6:	af 91       	pop	r26
     bc8:	9f 91       	pop	r25
     bca:	8f 91       	pop	r24
     bcc:	7f 91       	pop	r23
     bce:	6f 91       	pop	r22
     bd0:	5f 91       	pop	r21
     bd2:	4f 91       	pop	r20
     bd4:	3f 91       	pop	r19
     bd6:	2f 91       	pop	r18
     bd8:	0f 90       	pop	r0
     bda:	0b be       	out	0x3b, r0	; 59
     bdc:	0f 90       	pop	r0
     bde:	09 be       	out	0x39, r0	; 57
     be0:	0f 90       	pop	r0
     be2:	08 be       	out	0x38, r0	; 56
     be4:	0f 90       	pop	r0
     be6:	0f be       	out	0x3f, r0	; 63
     be8:	0f 90       	pop	r0
     bea:	1f 90       	pop	r1
     bec:	18 95       	reti

00000bee <ccp_write_io>:

	PUBLIC_FUNCTION(ccp_write_io)

#if defined(__GNUC__)

	out     RAMPZ, r1               // Reset bits 23:16 of Z
     bee:	1b be       	out	0x3b, r1	; 59
	movw    r30, r24                // Load addr into Z
     bf0:	fc 01       	movw	r30, r24
	ldi     r18, CCP_IOREG          // Load magic CCP value
     bf2:	28 ed       	ldi	r18, 0xD8	; 216
	out     CCP, r18                // Start CCP handshake
     bf4:	24 bf       	out	0x34, r18	; 52
	st      Z, r22                  // Write value to I/O register
     bf6:	60 83       	st	Z, r22
	ret                             // Return to caller
     bf8:	08 95       	ret

00000bfa <nvm_read_byte>:
#endif

#ifndef __DOXYGEN__
	PUBLIC_FUNCTION(nvm_read_byte)
#if defined(__GNUC__)
	lds r20, NVM_CMD          ; Store NVM command register
     bfa:	40 91 ca 01 	lds	r20, 0x01CA	; 0x8001ca <__TEXT_REGION_LENGTH__+0x7001ca>
	mov ZL, r22               ; Load byte index into low byte of Z.
     bfe:	e6 2f       	mov	r30, r22
	mov ZH, r23               ; Load high byte into Z.
     c00:	f7 2f       	mov	r31, r23
	sts NVM_CMD, r24          ; Load prepared command into NVM Command register.
     c02:	80 93 ca 01 	sts	0x01CA, r24	; 0x8001ca <__TEXT_REGION_LENGTH__+0x7001ca>
	lpm r24, Z                ; Perform an LPM to read out byte
     c06:	84 91       	lpm	r24, Z
	sts NVM_CMD, r20          ; Restore NVM command register
     c08:	40 93 ca 01 	sts	0x01CA, r20	; 0x8001ca <__TEXT_REGION_LENGTH__+0x7001ca>
	sts NVM_CMD, r16          ; Load prepared command into NVM Command register.
	lpm r16, Z                ; Perform an LPM to read out byte
	sts NVM_CMD, r20          ; Restore NVM command register
#endif

	ret
     c0c:	08 95       	ret

00000c0e <__vector_14>:
 *
 * This function will handle interrupt on Timer Counter CO overflow and
 * call the callback function.
 */
ISR(TCC0_OVF_vect)
{
     c0e:	1f 92       	push	r1
     c10:	0f 92       	push	r0
     c12:	0f b6       	in	r0, 0x3f	; 63
     c14:	0f 92       	push	r0
     c16:	11 24       	eor	r1, r1
     c18:	08 b6       	in	r0, 0x38	; 56
     c1a:	0f 92       	push	r0
     c1c:	18 be       	out	0x38, r1	; 56
     c1e:	09 b6       	in	r0, 0x39	; 57
     c20:	0f 92       	push	r0
     c22:	19 be       	out	0x39, r1	; 57
     c24:	0b b6       	in	r0, 0x3b	; 59
     c26:	0f 92       	push	r0
     c28:	1b be       	out	0x3b, r1	; 59
     c2a:	2f 93       	push	r18
     c2c:	3f 93       	push	r19
     c2e:	4f 93       	push	r20
     c30:	5f 93       	push	r21
     c32:	6f 93       	push	r22
     c34:	7f 93       	push	r23
     c36:	8f 93       	push	r24
     c38:	9f 93       	push	r25
     c3a:	af 93       	push	r26
     c3c:	bf 93       	push	r27
     c3e:	ef 93       	push	r30
     c40:	ff 93       	push	r31
	if (tc_tcc0_ovf_callback) {
     c42:	e0 91 9d 20 	lds	r30, 0x209D	; 0x80209d <tc_tcc0_ovf_callback>
     c46:	f0 91 9e 20 	lds	r31, 0x209E	; 0x80209e <tc_tcc0_ovf_callback+0x1>
     c4a:	30 97       	sbiw	r30, 0x00	; 0
     c4c:	09 f0       	breq	.+2      	; 0xc50 <__vector_14+0x42>
		tc_tcc0_ovf_callback();
     c4e:	19 95       	eicall
	}
}
     c50:	ff 91       	pop	r31
     c52:	ef 91       	pop	r30
     c54:	bf 91       	pop	r27
     c56:	af 91       	pop	r26
     c58:	9f 91       	pop	r25
     c5a:	8f 91       	pop	r24
     c5c:	7f 91       	pop	r23
     c5e:	6f 91       	pop	r22
     c60:	5f 91       	pop	r21
     c62:	4f 91       	pop	r20
     c64:	3f 91       	pop	r19
     c66:	2f 91       	pop	r18
     c68:	0f 90       	pop	r0
     c6a:	0b be       	out	0x3b, r0	; 59
     c6c:	0f 90       	pop	r0
     c6e:	09 be       	out	0x39, r0	; 57
     c70:	0f 90       	pop	r0
     c72:	08 be       	out	0x38, r0	; 56
     c74:	0f 90       	pop	r0
     c76:	0f be       	out	0x3f, r0	; 63
     c78:	0f 90       	pop	r0
     c7a:	1f 90       	pop	r1
     c7c:	18 95       	reti

00000c7e <__vector_15>:
 *
 * This function will handle interrupt on Timer Counter CO error and
 * call the callback function.
 */
ISR(TCC0_ERR_vect)
{
     c7e:	1f 92       	push	r1
     c80:	0f 92       	push	r0
     c82:	0f b6       	in	r0, 0x3f	; 63
     c84:	0f 92       	push	r0
     c86:	11 24       	eor	r1, r1
     c88:	08 b6       	in	r0, 0x38	; 56
     c8a:	0f 92       	push	r0
     c8c:	18 be       	out	0x38, r1	; 56
     c8e:	09 b6       	in	r0, 0x39	; 57
     c90:	0f 92       	push	r0
     c92:	19 be       	out	0x39, r1	; 57
     c94:	0b b6       	in	r0, 0x3b	; 59
     c96:	0f 92       	push	r0
     c98:	1b be       	out	0x3b, r1	; 59
     c9a:	2f 93       	push	r18
     c9c:	3f 93       	push	r19
     c9e:	4f 93       	push	r20
     ca0:	5f 93       	push	r21
     ca2:	6f 93       	push	r22
     ca4:	7f 93       	push	r23
     ca6:	8f 93       	push	r24
     ca8:	9f 93       	push	r25
     caa:	af 93       	push	r26
     cac:	bf 93       	push	r27
     cae:	ef 93       	push	r30
     cb0:	ff 93       	push	r31
	if (tc_tcc0_err_callback) {
     cb2:	e0 91 9b 20 	lds	r30, 0x209B	; 0x80209b <tc_tcc0_err_callback>
     cb6:	f0 91 9c 20 	lds	r31, 0x209C	; 0x80209c <tc_tcc0_err_callback+0x1>
     cba:	30 97       	sbiw	r30, 0x00	; 0
     cbc:	09 f0       	breq	.+2      	; 0xcc0 <__vector_15+0x42>
		tc_tcc0_err_callback();
     cbe:	19 95       	eicall
	}
}
     cc0:	ff 91       	pop	r31
     cc2:	ef 91       	pop	r30
     cc4:	bf 91       	pop	r27
     cc6:	af 91       	pop	r26
     cc8:	9f 91       	pop	r25
     cca:	8f 91       	pop	r24
     ccc:	7f 91       	pop	r23
     cce:	6f 91       	pop	r22
     cd0:	5f 91       	pop	r21
     cd2:	4f 91       	pop	r20
     cd4:	3f 91       	pop	r19
     cd6:	2f 91       	pop	r18
     cd8:	0f 90       	pop	r0
     cda:	0b be       	out	0x3b, r0	; 59
     cdc:	0f 90       	pop	r0
     cde:	09 be       	out	0x39, r0	; 57
     ce0:	0f 90       	pop	r0
     ce2:	08 be       	out	0x38, r0	; 56
     ce4:	0f 90       	pop	r0
     ce6:	0f be       	out	0x3f, r0	; 63
     ce8:	0f 90       	pop	r0
     cea:	1f 90       	pop	r1
     cec:	18 95       	reti

00000cee <__vector_16>:
 *
 * This function will handle interrupt on Timer Counter CO Compare/CaptureA and
 * call the callback function.
 */
ISR(TCC0_CCA_vect)
{
     cee:	1f 92       	push	r1
     cf0:	0f 92       	push	r0
     cf2:	0f b6       	in	r0, 0x3f	; 63
     cf4:	0f 92       	push	r0
     cf6:	11 24       	eor	r1, r1
     cf8:	08 b6       	in	r0, 0x38	; 56
     cfa:	0f 92       	push	r0
     cfc:	18 be       	out	0x38, r1	; 56
     cfe:	09 b6       	in	r0, 0x39	; 57
     d00:	0f 92       	push	r0
     d02:	19 be       	out	0x39, r1	; 57
     d04:	0b b6       	in	r0, 0x3b	; 59
     d06:	0f 92       	push	r0
     d08:	1b be       	out	0x3b, r1	; 59
     d0a:	2f 93       	push	r18
     d0c:	3f 93       	push	r19
     d0e:	4f 93       	push	r20
     d10:	5f 93       	push	r21
     d12:	6f 93       	push	r22
     d14:	7f 93       	push	r23
     d16:	8f 93       	push	r24
     d18:	9f 93       	push	r25
     d1a:	af 93       	push	r26
     d1c:	bf 93       	push	r27
     d1e:	ef 93       	push	r30
     d20:	ff 93       	push	r31
	if (tc_tcc0_cca_callback) {
     d22:	e0 91 99 20 	lds	r30, 0x2099	; 0x802099 <tc_tcc0_cca_callback>
     d26:	f0 91 9a 20 	lds	r31, 0x209A	; 0x80209a <tc_tcc0_cca_callback+0x1>
     d2a:	30 97       	sbiw	r30, 0x00	; 0
     d2c:	09 f0       	breq	.+2      	; 0xd30 <__vector_16+0x42>
		tc_tcc0_cca_callback();
     d2e:	19 95       	eicall
	}
}
     d30:	ff 91       	pop	r31
     d32:	ef 91       	pop	r30
     d34:	bf 91       	pop	r27
     d36:	af 91       	pop	r26
     d38:	9f 91       	pop	r25
     d3a:	8f 91       	pop	r24
     d3c:	7f 91       	pop	r23
     d3e:	6f 91       	pop	r22
     d40:	5f 91       	pop	r21
     d42:	4f 91       	pop	r20
     d44:	3f 91       	pop	r19
     d46:	2f 91       	pop	r18
     d48:	0f 90       	pop	r0
     d4a:	0b be       	out	0x3b, r0	; 59
     d4c:	0f 90       	pop	r0
     d4e:	09 be       	out	0x39, r0	; 57
     d50:	0f 90       	pop	r0
     d52:	08 be       	out	0x38, r0	; 56
     d54:	0f 90       	pop	r0
     d56:	0f be       	out	0x3f, r0	; 63
     d58:	0f 90       	pop	r0
     d5a:	1f 90       	pop	r1
     d5c:	18 95       	reti

00000d5e <__vector_17>:
 *
 * This function will handle interrupt on Timer Counter CO Compare/CaptureB and
 * call the callback function.
 */
ISR(TCC0_CCB_vect)
{
     d5e:	1f 92       	push	r1
     d60:	0f 92       	push	r0
     d62:	0f b6       	in	r0, 0x3f	; 63
     d64:	0f 92       	push	r0
     d66:	11 24       	eor	r1, r1
     d68:	08 b6       	in	r0, 0x38	; 56
     d6a:	0f 92       	push	r0
     d6c:	18 be       	out	0x38, r1	; 56
     d6e:	09 b6       	in	r0, 0x39	; 57
     d70:	0f 92       	push	r0
     d72:	19 be       	out	0x39, r1	; 57
     d74:	0b b6       	in	r0, 0x3b	; 59
     d76:	0f 92       	push	r0
     d78:	1b be       	out	0x3b, r1	; 59
     d7a:	2f 93       	push	r18
     d7c:	3f 93       	push	r19
     d7e:	4f 93       	push	r20
     d80:	5f 93       	push	r21
     d82:	6f 93       	push	r22
     d84:	7f 93       	push	r23
     d86:	8f 93       	push	r24
     d88:	9f 93       	push	r25
     d8a:	af 93       	push	r26
     d8c:	bf 93       	push	r27
     d8e:	ef 93       	push	r30
     d90:	ff 93       	push	r31
	if (tc_tcc0_ccb_callback) {
     d92:	e0 91 97 20 	lds	r30, 0x2097	; 0x802097 <tc_tcc0_ccb_callback>
     d96:	f0 91 98 20 	lds	r31, 0x2098	; 0x802098 <tc_tcc0_ccb_callback+0x1>
     d9a:	30 97       	sbiw	r30, 0x00	; 0
     d9c:	09 f0       	breq	.+2      	; 0xda0 <__vector_17+0x42>
		tc_tcc0_ccb_callback();
     d9e:	19 95       	eicall
	}
}
     da0:	ff 91       	pop	r31
     da2:	ef 91       	pop	r30
     da4:	bf 91       	pop	r27
     da6:	af 91       	pop	r26
     da8:	9f 91       	pop	r25
     daa:	8f 91       	pop	r24
     dac:	7f 91       	pop	r23
     dae:	6f 91       	pop	r22
     db0:	5f 91       	pop	r21
     db2:	4f 91       	pop	r20
     db4:	3f 91       	pop	r19
     db6:	2f 91       	pop	r18
     db8:	0f 90       	pop	r0
     dba:	0b be       	out	0x3b, r0	; 59
     dbc:	0f 90       	pop	r0
     dbe:	09 be       	out	0x39, r0	; 57
     dc0:	0f 90       	pop	r0
     dc2:	08 be       	out	0x38, r0	; 56
     dc4:	0f 90       	pop	r0
     dc6:	0f be       	out	0x3f, r0	; 63
     dc8:	0f 90       	pop	r0
     dca:	1f 90       	pop	r1
     dcc:	18 95       	reti

00000dce <__vector_18>:
 *
 * This function will handle interrupt on Timer Counter CO Compare/CaptureC and
 * call the callback function.
 */
ISR(TCC0_CCC_vect)
{
     dce:	1f 92       	push	r1
     dd0:	0f 92       	push	r0
     dd2:	0f b6       	in	r0, 0x3f	; 63
     dd4:	0f 92       	push	r0
     dd6:	11 24       	eor	r1, r1
     dd8:	08 b6       	in	r0, 0x38	; 56
     dda:	0f 92       	push	r0
     ddc:	18 be       	out	0x38, r1	; 56
     dde:	09 b6       	in	r0, 0x39	; 57
     de0:	0f 92       	push	r0
     de2:	19 be       	out	0x39, r1	; 57
     de4:	0b b6       	in	r0, 0x3b	; 59
     de6:	0f 92       	push	r0
     de8:	1b be       	out	0x3b, r1	; 59
     dea:	2f 93       	push	r18
     dec:	3f 93       	push	r19
     dee:	4f 93       	push	r20
     df0:	5f 93       	push	r21
     df2:	6f 93       	push	r22
     df4:	7f 93       	push	r23
     df6:	8f 93       	push	r24
     df8:	9f 93       	push	r25
     dfa:	af 93       	push	r26
     dfc:	bf 93       	push	r27
     dfe:	ef 93       	push	r30
     e00:	ff 93       	push	r31
	if (tc_tcc0_ccc_callback) {
     e02:	e0 91 95 20 	lds	r30, 0x2095	; 0x802095 <tc_tcc0_ccc_callback>
     e06:	f0 91 96 20 	lds	r31, 0x2096	; 0x802096 <tc_tcc0_ccc_callback+0x1>
     e0a:	30 97       	sbiw	r30, 0x00	; 0
     e0c:	09 f0       	breq	.+2      	; 0xe10 <__vector_18+0x42>
		tc_tcc0_ccc_callback();
     e0e:	19 95       	eicall
	}
}
     e10:	ff 91       	pop	r31
     e12:	ef 91       	pop	r30
     e14:	bf 91       	pop	r27
     e16:	af 91       	pop	r26
     e18:	9f 91       	pop	r25
     e1a:	8f 91       	pop	r24
     e1c:	7f 91       	pop	r23
     e1e:	6f 91       	pop	r22
     e20:	5f 91       	pop	r21
     e22:	4f 91       	pop	r20
     e24:	3f 91       	pop	r19
     e26:	2f 91       	pop	r18
     e28:	0f 90       	pop	r0
     e2a:	0b be       	out	0x3b, r0	; 59
     e2c:	0f 90       	pop	r0
     e2e:	09 be       	out	0x39, r0	; 57
     e30:	0f 90       	pop	r0
     e32:	08 be       	out	0x38, r0	; 56
     e34:	0f 90       	pop	r0
     e36:	0f be       	out	0x3f, r0	; 63
     e38:	0f 90       	pop	r0
     e3a:	1f 90       	pop	r1
     e3c:	18 95       	reti

00000e3e <__vector_19>:
 *
 * This function will handle interrupt on Timer Counter CO Compare/CaptureD and
 * call the callback function.
 */
ISR(TCC0_CCD_vect)
{
     e3e:	1f 92       	push	r1
     e40:	0f 92       	push	r0
     e42:	0f b6       	in	r0, 0x3f	; 63
     e44:	0f 92       	push	r0
     e46:	11 24       	eor	r1, r1
     e48:	08 b6       	in	r0, 0x38	; 56
     e4a:	0f 92       	push	r0
     e4c:	18 be       	out	0x38, r1	; 56
     e4e:	09 b6       	in	r0, 0x39	; 57
     e50:	0f 92       	push	r0
     e52:	19 be       	out	0x39, r1	; 57
     e54:	0b b6       	in	r0, 0x3b	; 59
     e56:	0f 92       	push	r0
     e58:	1b be       	out	0x3b, r1	; 59
     e5a:	2f 93       	push	r18
     e5c:	3f 93       	push	r19
     e5e:	4f 93       	push	r20
     e60:	5f 93       	push	r21
     e62:	6f 93       	push	r22
     e64:	7f 93       	push	r23
     e66:	8f 93       	push	r24
     e68:	9f 93       	push	r25
     e6a:	af 93       	push	r26
     e6c:	bf 93       	push	r27
     e6e:	ef 93       	push	r30
     e70:	ff 93       	push	r31
	if (tc_tcc0_ccd_callback) {
     e72:	e0 91 93 20 	lds	r30, 0x2093	; 0x802093 <tc_tcc0_ccd_callback>
     e76:	f0 91 94 20 	lds	r31, 0x2094	; 0x802094 <tc_tcc0_ccd_callback+0x1>
     e7a:	30 97       	sbiw	r30, 0x00	; 0
     e7c:	09 f0       	breq	.+2      	; 0xe80 <__vector_19+0x42>
		tc_tcc0_ccd_callback();
     e7e:	19 95       	eicall
	}
}
     e80:	ff 91       	pop	r31
     e82:	ef 91       	pop	r30
     e84:	bf 91       	pop	r27
     e86:	af 91       	pop	r26
     e88:	9f 91       	pop	r25
     e8a:	8f 91       	pop	r24
     e8c:	7f 91       	pop	r23
     e8e:	6f 91       	pop	r22
     e90:	5f 91       	pop	r21
     e92:	4f 91       	pop	r20
     e94:	3f 91       	pop	r19
     e96:	2f 91       	pop	r18
     e98:	0f 90       	pop	r0
     e9a:	0b be       	out	0x3b, r0	; 59
     e9c:	0f 90       	pop	r0
     e9e:	09 be       	out	0x39, r0	; 57
     ea0:	0f 90       	pop	r0
     ea2:	08 be       	out	0x38, r0	; 56
     ea4:	0f 90       	pop	r0
     ea6:	0f be       	out	0x3f, r0	; 63
     ea8:	0f 90       	pop	r0
     eaa:	1f 90       	pop	r1
     eac:	18 95       	reti

00000eae <__vector_20>:
 *
 * This function will handle interrupt on Timer Counter C1 overflow and
 * call the callback function.
 */
ISR(TCC1_OVF_vect)
{
     eae:	1f 92       	push	r1
     eb0:	0f 92       	push	r0
     eb2:	0f b6       	in	r0, 0x3f	; 63
     eb4:	0f 92       	push	r0
     eb6:	11 24       	eor	r1, r1
     eb8:	08 b6       	in	r0, 0x38	; 56
     eba:	0f 92       	push	r0
     ebc:	18 be       	out	0x38, r1	; 56
     ebe:	09 b6       	in	r0, 0x39	; 57
     ec0:	0f 92       	push	r0
     ec2:	19 be       	out	0x39, r1	; 57
     ec4:	0b b6       	in	r0, 0x3b	; 59
     ec6:	0f 92       	push	r0
     ec8:	1b be       	out	0x3b, r1	; 59
     eca:	2f 93       	push	r18
     ecc:	3f 93       	push	r19
     ece:	4f 93       	push	r20
     ed0:	5f 93       	push	r21
     ed2:	6f 93       	push	r22
     ed4:	7f 93       	push	r23
     ed6:	8f 93       	push	r24
     ed8:	9f 93       	push	r25
     eda:	af 93       	push	r26
     edc:	bf 93       	push	r27
     ede:	ef 93       	push	r30
     ee0:	ff 93       	push	r31
	if (tc_tcc1_ovf_callback) {
     ee2:	e0 91 91 20 	lds	r30, 0x2091	; 0x802091 <tc_tcc1_ovf_callback>
     ee6:	f0 91 92 20 	lds	r31, 0x2092	; 0x802092 <tc_tcc1_ovf_callback+0x1>
     eea:	30 97       	sbiw	r30, 0x00	; 0
     eec:	09 f0       	breq	.+2      	; 0xef0 <__vector_20+0x42>
		tc_tcc1_ovf_callback();
     eee:	19 95       	eicall
	}
}
     ef0:	ff 91       	pop	r31
     ef2:	ef 91       	pop	r30
     ef4:	bf 91       	pop	r27
     ef6:	af 91       	pop	r26
     ef8:	9f 91       	pop	r25
     efa:	8f 91       	pop	r24
     efc:	7f 91       	pop	r23
     efe:	6f 91       	pop	r22
     f00:	5f 91       	pop	r21
     f02:	4f 91       	pop	r20
     f04:	3f 91       	pop	r19
     f06:	2f 91       	pop	r18
     f08:	0f 90       	pop	r0
     f0a:	0b be       	out	0x3b, r0	; 59
     f0c:	0f 90       	pop	r0
     f0e:	09 be       	out	0x39, r0	; 57
     f10:	0f 90       	pop	r0
     f12:	08 be       	out	0x38, r0	; 56
     f14:	0f 90       	pop	r0
     f16:	0f be       	out	0x3f, r0	; 63
     f18:	0f 90       	pop	r0
     f1a:	1f 90       	pop	r1
     f1c:	18 95       	reti

00000f1e <__vector_21>:
 *
 * This function will handle interrupt on Timer Counter C1 error and
 * call the callback function.
 */
ISR(TCC1_ERR_vect)
{
     f1e:	1f 92       	push	r1
     f20:	0f 92       	push	r0
     f22:	0f b6       	in	r0, 0x3f	; 63
     f24:	0f 92       	push	r0
     f26:	11 24       	eor	r1, r1
     f28:	08 b6       	in	r0, 0x38	; 56
     f2a:	0f 92       	push	r0
     f2c:	18 be       	out	0x38, r1	; 56
     f2e:	09 b6       	in	r0, 0x39	; 57
     f30:	0f 92       	push	r0
     f32:	19 be       	out	0x39, r1	; 57
     f34:	0b b6       	in	r0, 0x3b	; 59
     f36:	0f 92       	push	r0
     f38:	1b be       	out	0x3b, r1	; 59
     f3a:	2f 93       	push	r18
     f3c:	3f 93       	push	r19
     f3e:	4f 93       	push	r20
     f40:	5f 93       	push	r21
     f42:	6f 93       	push	r22
     f44:	7f 93       	push	r23
     f46:	8f 93       	push	r24
     f48:	9f 93       	push	r25
     f4a:	af 93       	push	r26
     f4c:	bf 93       	push	r27
     f4e:	ef 93       	push	r30
     f50:	ff 93       	push	r31
	if (tc_tcc1_err_callback) {
     f52:	e0 91 8f 20 	lds	r30, 0x208F	; 0x80208f <tc_tcc1_err_callback>
     f56:	f0 91 90 20 	lds	r31, 0x2090	; 0x802090 <tc_tcc1_err_callback+0x1>
     f5a:	30 97       	sbiw	r30, 0x00	; 0
     f5c:	09 f0       	breq	.+2      	; 0xf60 <__vector_21+0x42>
		tc_tcc1_err_callback();
     f5e:	19 95       	eicall
	}
}
     f60:	ff 91       	pop	r31
     f62:	ef 91       	pop	r30
     f64:	bf 91       	pop	r27
     f66:	af 91       	pop	r26
     f68:	9f 91       	pop	r25
     f6a:	8f 91       	pop	r24
     f6c:	7f 91       	pop	r23
     f6e:	6f 91       	pop	r22
     f70:	5f 91       	pop	r21
     f72:	4f 91       	pop	r20
     f74:	3f 91       	pop	r19
     f76:	2f 91       	pop	r18
     f78:	0f 90       	pop	r0
     f7a:	0b be       	out	0x3b, r0	; 59
     f7c:	0f 90       	pop	r0
     f7e:	09 be       	out	0x39, r0	; 57
     f80:	0f 90       	pop	r0
     f82:	08 be       	out	0x38, r0	; 56
     f84:	0f 90       	pop	r0
     f86:	0f be       	out	0x3f, r0	; 63
     f88:	0f 90       	pop	r0
     f8a:	1f 90       	pop	r1
     f8c:	18 95       	reti

00000f8e <__vector_22>:
 *
 * This function will handle interrupt on Timer Counter C1 Compare/CaptureA and
 * call the callback function.
 */
ISR(TCC1_CCA_vect)
{
     f8e:	1f 92       	push	r1
     f90:	0f 92       	push	r0
     f92:	0f b6       	in	r0, 0x3f	; 63
     f94:	0f 92       	push	r0
     f96:	11 24       	eor	r1, r1
     f98:	08 b6       	in	r0, 0x38	; 56
     f9a:	0f 92       	push	r0
     f9c:	18 be       	out	0x38, r1	; 56
     f9e:	09 b6       	in	r0, 0x39	; 57
     fa0:	0f 92       	push	r0
     fa2:	19 be       	out	0x39, r1	; 57
     fa4:	0b b6       	in	r0, 0x3b	; 59
     fa6:	0f 92       	push	r0
     fa8:	1b be       	out	0x3b, r1	; 59
     faa:	2f 93       	push	r18
     fac:	3f 93       	push	r19
     fae:	4f 93       	push	r20
     fb0:	5f 93       	push	r21
     fb2:	6f 93       	push	r22
     fb4:	7f 93       	push	r23
     fb6:	8f 93       	push	r24
     fb8:	9f 93       	push	r25
     fba:	af 93       	push	r26
     fbc:	bf 93       	push	r27
     fbe:	ef 93       	push	r30
     fc0:	ff 93       	push	r31
	if (tc_tcc1_cca_callback) {
     fc2:	e0 91 8d 20 	lds	r30, 0x208D	; 0x80208d <tc_tcc1_cca_callback>
     fc6:	f0 91 8e 20 	lds	r31, 0x208E	; 0x80208e <tc_tcc1_cca_callback+0x1>
     fca:	30 97       	sbiw	r30, 0x00	; 0
     fcc:	09 f0       	breq	.+2      	; 0xfd0 <__vector_22+0x42>
		tc_tcc1_cca_callback();
     fce:	19 95       	eicall
	}
}
     fd0:	ff 91       	pop	r31
     fd2:	ef 91       	pop	r30
     fd4:	bf 91       	pop	r27
     fd6:	af 91       	pop	r26
     fd8:	9f 91       	pop	r25
     fda:	8f 91       	pop	r24
     fdc:	7f 91       	pop	r23
     fde:	6f 91       	pop	r22
     fe0:	5f 91       	pop	r21
     fe2:	4f 91       	pop	r20
     fe4:	3f 91       	pop	r19
     fe6:	2f 91       	pop	r18
     fe8:	0f 90       	pop	r0
     fea:	0b be       	out	0x3b, r0	; 59
     fec:	0f 90       	pop	r0
     fee:	09 be       	out	0x39, r0	; 57
     ff0:	0f 90       	pop	r0
     ff2:	08 be       	out	0x38, r0	; 56
     ff4:	0f 90       	pop	r0
     ff6:	0f be       	out	0x3f, r0	; 63
     ff8:	0f 90       	pop	r0
     ffa:	1f 90       	pop	r1
     ffc:	18 95       	reti

00000ffe <__vector_23>:
 *
 * This function will handle interrupt on Timer Counter C1 Compare/CaptureB and
 * call the callback function.
 */
ISR(TCC1_CCB_vect)
{
     ffe:	1f 92       	push	r1
    1000:	0f 92       	push	r0
    1002:	0f b6       	in	r0, 0x3f	; 63
    1004:	0f 92       	push	r0
    1006:	11 24       	eor	r1, r1
    1008:	08 b6       	in	r0, 0x38	; 56
    100a:	0f 92       	push	r0
    100c:	18 be       	out	0x38, r1	; 56
    100e:	09 b6       	in	r0, 0x39	; 57
    1010:	0f 92       	push	r0
    1012:	19 be       	out	0x39, r1	; 57
    1014:	0b b6       	in	r0, 0x3b	; 59
    1016:	0f 92       	push	r0
    1018:	1b be       	out	0x3b, r1	; 59
    101a:	2f 93       	push	r18
    101c:	3f 93       	push	r19
    101e:	4f 93       	push	r20
    1020:	5f 93       	push	r21
    1022:	6f 93       	push	r22
    1024:	7f 93       	push	r23
    1026:	8f 93       	push	r24
    1028:	9f 93       	push	r25
    102a:	af 93       	push	r26
    102c:	bf 93       	push	r27
    102e:	ef 93       	push	r30
    1030:	ff 93       	push	r31
	if (tc_tcc1_ccb_callback) {
    1032:	e0 91 8b 20 	lds	r30, 0x208B	; 0x80208b <tc_tcc1_ccb_callback>
    1036:	f0 91 8c 20 	lds	r31, 0x208C	; 0x80208c <tc_tcc1_ccb_callback+0x1>
    103a:	30 97       	sbiw	r30, 0x00	; 0
    103c:	09 f0       	breq	.+2      	; 0x1040 <__vector_23+0x42>
		tc_tcc1_ccb_callback();
    103e:	19 95       	eicall
	}
}
    1040:	ff 91       	pop	r31
    1042:	ef 91       	pop	r30
    1044:	bf 91       	pop	r27
    1046:	af 91       	pop	r26
    1048:	9f 91       	pop	r25
    104a:	8f 91       	pop	r24
    104c:	7f 91       	pop	r23
    104e:	6f 91       	pop	r22
    1050:	5f 91       	pop	r21
    1052:	4f 91       	pop	r20
    1054:	3f 91       	pop	r19
    1056:	2f 91       	pop	r18
    1058:	0f 90       	pop	r0
    105a:	0b be       	out	0x3b, r0	; 59
    105c:	0f 90       	pop	r0
    105e:	09 be       	out	0x39, r0	; 57
    1060:	0f 90       	pop	r0
    1062:	08 be       	out	0x38, r0	; 56
    1064:	0f 90       	pop	r0
    1066:	0f be       	out	0x3f, r0	; 63
    1068:	0f 90       	pop	r0
    106a:	1f 90       	pop	r1
    106c:	18 95       	reti

0000106e <__vector_77>:
 *
 * This function will handle interrupt on Timer Counter D0 overflow and
 * call the callback function.
 */
ISR(TCD0_OVF_vect)
{
    106e:	1f 92       	push	r1
    1070:	0f 92       	push	r0
    1072:	0f b6       	in	r0, 0x3f	; 63
    1074:	0f 92       	push	r0
    1076:	11 24       	eor	r1, r1
    1078:	08 b6       	in	r0, 0x38	; 56
    107a:	0f 92       	push	r0
    107c:	18 be       	out	0x38, r1	; 56
    107e:	09 b6       	in	r0, 0x39	; 57
    1080:	0f 92       	push	r0
    1082:	19 be       	out	0x39, r1	; 57
    1084:	0b b6       	in	r0, 0x3b	; 59
    1086:	0f 92       	push	r0
    1088:	1b be       	out	0x3b, r1	; 59
    108a:	2f 93       	push	r18
    108c:	3f 93       	push	r19
    108e:	4f 93       	push	r20
    1090:	5f 93       	push	r21
    1092:	6f 93       	push	r22
    1094:	7f 93       	push	r23
    1096:	8f 93       	push	r24
    1098:	9f 93       	push	r25
    109a:	af 93       	push	r26
    109c:	bf 93       	push	r27
    109e:	ef 93       	push	r30
    10a0:	ff 93       	push	r31
	if (tc_tcd0_ovf_callback) {
    10a2:	e0 91 89 20 	lds	r30, 0x2089	; 0x802089 <tc_tcd0_ovf_callback>
    10a6:	f0 91 8a 20 	lds	r31, 0x208A	; 0x80208a <tc_tcd0_ovf_callback+0x1>
    10aa:	30 97       	sbiw	r30, 0x00	; 0
    10ac:	09 f0       	breq	.+2      	; 0x10b0 <__vector_77+0x42>
		tc_tcd0_ovf_callback();
    10ae:	19 95       	eicall
	}
}
    10b0:	ff 91       	pop	r31
    10b2:	ef 91       	pop	r30
    10b4:	bf 91       	pop	r27
    10b6:	af 91       	pop	r26
    10b8:	9f 91       	pop	r25
    10ba:	8f 91       	pop	r24
    10bc:	7f 91       	pop	r23
    10be:	6f 91       	pop	r22
    10c0:	5f 91       	pop	r21
    10c2:	4f 91       	pop	r20
    10c4:	3f 91       	pop	r19
    10c6:	2f 91       	pop	r18
    10c8:	0f 90       	pop	r0
    10ca:	0b be       	out	0x3b, r0	; 59
    10cc:	0f 90       	pop	r0
    10ce:	09 be       	out	0x39, r0	; 57
    10d0:	0f 90       	pop	r0
    10d2:	08 be       	out	0x38, r0	; 56
    10d4:	0f 90       	pop	r0
    10d6:	0f be       	out	0x3f, r0	; 63
    10d8:	0f 90       	pop	r0
    10da:	1f 90       	pop	r1
    10dc:	18 95       	reti

000010de <__vector_78>:
 *
 * This function will handle interrupt on Timer Counter D0 error and
 * call the callback function.
 */
ISR(TCD0_ERR_vect)
{
    10de:	1f 92       	push	r1
    10e0:	0f 92       	push	r0
    10e2:	0f b6       	in	r0, 0x3f	; 63
    10e4:	0f 92       	push	r0
    10e6:	11 24       	eor	r1, r1
    10e8:	08 b6       	in	r0, 0x38	; 56
    10ea:	0f 92       	push	r0
    10ec:	18 be       	out	0x38, r1	; 56
    10ee:	09 b6       	in	r0, 0x39	; 57
    10f0:	0f 92       	push	r0
    10f2:	19 be       	out	0x39, r1	; 57
    10f4:	0b b6       	in	r0, 0x3b	; 59
    10f6:	0f 92       	push	r0
    10f8:	1b be       	out	0x3b, r1	; 59
    10fa:	2f 93       	push	r18
    10fc:	3f 93       	push	r19
    10fe:	4f 93       	push	r20
    1100:	5f 93       	push	r21
    1102:	6f 93       	push	r22
    1104:	7f 93       	push	r23
    1106:	8f 93       	push	r24
    1108:	9f 93       	push	r25
    110a:	af 93       	push	r26
    110c:	bf 93       	push	r27
    110e:	ef 93       	push	r30
    1110:	ff 93       	push	r31
	if (tc_tcd0_err_callback) {
    1112:	e0 91 87 20 	lds	r30, 0x2087	; 0x802087 <tc_tcd0_err_callback>
    1116:	f0 91 88 20 	lds	r31, 0x2088	; 0x802088 <tc_tcd0_err_callback+0x1>
    111a:	30 97       	sbiw	r30, 0x00	; 0
    111c:	09 f0       	breq	.+2      	; 0x1120 <__vector_78+0x42>
		tc_tcd0_err_callback();
    111e:	19 95       	eicall
	}
}
    1120:	ff 91       	pop	r31
    1122:	ef 91       	pop	r30
    1124:	bf 91       	pop	r27
    1126:	af 91       	pop	r26
    1128:	9f 91       	pop	r25
    112a:	8f 91       	pop	r24
    112c:	7f 91       	pop	r23
    112e:	6f 91       	pop	r22
    1130:	5f 91       	pop	r21
    1132:	4f 91       	pop	r20
    1134:	3f 91       	pop	r19
    1136:	2f 91       	pop	r18
    1138:	0f 90       	pop	r0
    113a:	0b be       	out	0x3b, r0	; 59
    113c:	0f 90       	pop	r0
    113e:	09 be       	out	0x39, r0	; 57
    1140:	0f 90       	pop	r0
    1142:	08 be       	out	0x38, r0	; 56
    1144:	0f 90       	pop	r0
    1146:	0f be       	out	0x3f, r0	; 63
    1148:	0f 90       	pop	r0
    114a:	1f 90       	pop	r1
    114c:	18 95       	reti

0000114e <__vector_79>:
 *
 * This function will handle interrupt on Timer Counter D0 Compare/CaptureA and
 * call the callback function.
 */
ISR(TCD0_CCA_vect)
{
    114e:	1f 92       	push	r1
    1150:	0f 92       	push	r0
    1152:	0f b6       	in	r0, 0x3f	; 63
    1154:	0f 92       	push	r0
    1156:	11 24       	eor	r1, r1
    1158:	08 b6       	in	r0, 0x38	; 56
    115a:	0f 92       	push	r0
    115c:	18 be       	out	0x38, r1	; 56
    115e:	09 b6       	in	r0, 0x39	; 57
    1160:	0f 92       	push	r0
    1162:	19 be       	out	0x39, r1	; 57
    1164:	0b b6       	in	r0, 0x3b	; 59
    1166:	0f 92       	push	r0
    1168:	1b be       	out	0x3b, r1	; 59
    116a:	2f 93       	push	r18
    116c:	3f 93       	push	r19
    116e:	4f 93       	push	r20
    1170:	5f 93       	push	r21
    1172:	6f 93       	push	r22
    1174:	7f 93       	push	r23
    1176:	8f 93       	push	r24
    1178:	9f 93       	push	r25
    117a:	af 93       	push	r26
    117c:	bf 93       	push	r27
    117e:	ef 93       	push	r30
    1180:	ff 93       	push	r31
	if (tc_tcd0_cca_callback) {
    1182:	e0 91 85 20 	lds	r30, 0x2085	; 0x802085 <tc_tcd0_cca_callback>
    1186:	f0 91 86 20 	lds	r31, 0x2086	; 0x802086 <tc_tcd0_cca_callback+0x1>
    118a:	30 97       	sbiw	r30, 0x00	; 0
    118c:	09 f0       	breq	.+2      	; 0x1190 <__vector_79+0x42>
		tc_tcd0_cca_callback();
    118e:	19 95       	eicall
	}
}
    1190:	ff 91       	pop	r31
    1192:	ef 91       	pop	r30
    1194:	bf 91       	pop	r27
    1196:	af 91       	pop	r26
    1198:	9f 91       	pop	r25
    119a:	8f 91       	pop	r24
    119c:	7f 91       	pop	r23
    119e:	6f 91       	pop	r22
    11a0:	5f 91       	pop	r21
    11a2:	4f 91       	pop	r20
    11a4:	3f 91       	pop	r19
    11a6:	2f 91       	pop	r18
    11a8:	0f 90       	pop	r0
    11aa:	0b be       	out	0x3b, r0	; 59
    11ac:	0f 90       	pop	r0
    11ae:	09 be       	out	0x39, r0	; 57
    11b0:	0f 90       	pop	r0
    11b2:	08 be       	out	0x38, r0	; 56
    11b4:	0f 90       	pop	r0
    11b6:	0f be       	out	0x3f, r0	; 63
    11b8:	0f 90       	pop	r0
    11ba:	1f 90       	pop	r1
    11bc:	18 95       	reti

000011be <__vector_80>:
 *
 * This function will handle interrupt on Timer Counter D0 Compare/CaptureB and
 * call the callback function.
 */
ISR(TCD0_CCB_vect)
{
    11be:	1f 92       	push	r1
    11c0:	0f 92       	push	r0
    11c2:	0f b6       	in	r0, 0x3f	; 63
    11c4:	0f 92       	push	r0
    11c6:	11 24       	eor	r1, r1
    11c8:	08 b6       	in	r0, 0x38	; 56
    11ca:	0f 92       	push	r0
    11cc:	18 be       	out	0x38, r1	; 56
    11ce:	09 b6       	in	r0, 0x39	; 57
    11d0:	0f 92       	push	r0
    11d2:	19 be       	out	0x39, r1	; 57
    11d4:	0b b6       	in	r0, 0x3b	; 59
    11d6:	0f 92       	push	r0
    11d8:	1b be       	out	0x3b, r1	; 59
    11da:	2f 93       	push	r18
    11dc:	3f 93       	push	r19
    11de:	4f 93       	push	r20
    11e0:	5f 93       	push	r21
    11e2:	6f 93       	push	r22
    11e4:	7f 93       	push	r23
    11e6:	8f 93       	push	r24
    11e8:	9f 93       	push	r25
    11ea:	af 93       	push	r26
    11ec:	bf 93       	push	r27
    11ee:	ef 93       	push	r30
    11f0:	ff 93       	push	r31
	if (tc_tcd0_ccb_callback) {
    11f2:	e0 91 83 20 	lds	r30, 0x2083	; 0x802083 <tc_tcd0_ccb_callback>
    11f6:	f0 91 84 20 	lds	r31, 0x2084	; 0x802084 <tc_tcd0_ccb_callback+0x1>
    11fa:	30 97       	sbiw	r30, 0x00	; 0
    11fc:	09 f0       	breq	.+2      	; 0x1200 <__vector_80+0x42>
		tc_tcd0_ccb_callback();
    11fe:	19 95       	eicall
	}
}
    1200:	ff 91       	pop	r31
    1202:	ef 91       	pop	r30
    1204:	bf 91       	pop	r27
    1206:	af 91       	pop	r26
    1208:	9f 91       	pop	r25
    120a:	8f 91       	pop	r24
    120c:	7f 91       	pop	r23
    120e:	6f 91       	pop	r22
    1210:	5f 91       	pop	r21
    1212:	4f 91       	pop	r20
    1214:	3f 91       	pop	r19
    1216:	2f 91       	pop	r18
    1218:	0f 90       	pop	r0
    121a:	0b be       	out	0x3b, r0	; 59
    121c:	0f 90       	pop	r0
    121e:	09 be       	out	0x39, r0	; 57
    1220:	0f 90       	pop	r0
    1222:	08 be       	out	0x38, r0	; 56
    1224:	0f 90       	pop	r0
    1226:	0f be       	out	0x3f, r0	; 63
    1228:	0f 90       	pop	r0
    122a:	1f 90       	pop	r1
    122c:	18 95       	reti

0000122e <__vector_81>:
 *
 * This function will handle interrupt on Timer Counter D0 Compare/CaptureC and
 * call the callback function.
 */
ISR(TCD0_CCC_vect)
{
    122e:	1f 92       	push	r1
    1230:	0f 92       	push	r0
    1232:	0f b6       	in	r0, 0x3f	; 63
    1234:	0f 92       	push	r0
    1236:	11 24       	eor	r1, r1
    1238:	08 b6       	in	r0, 0x38	; 56
    123a:	0f 92       	push	r0
    123c:	18 be       	out	0x38, r1	; 56
    123e:	09 b6       	in	r0, 0x39	; 57
    1240:	0f 92       	push	r0
    1242:	19 be       	out	0x39, r1	; 57
    1244:	0b b6       	in	r0, 0x3b	; 59
    1246:	0f 92       	push	r0
    1248:	1b be       	out	0x3b, r1	; 59
    124a:	2f 93       	push	r18
    124c:	3f 93       	push	r19
    124e:	4f 93       	push	r20
    1250:	5f 93       	push	r21
    1252:	6f 93       	push	r22
    1254:	7f 93       	push	r23
    1256:	8f 93       	push	r24
    1258:	9f 93       	push	r25
    125a:	af 93       	push	r26
    125c:	bf 93       	push	r27
    125e:	ef 93       	push	r30
    1260:	ff 93       	push	r31
	if (tc_tcd0_ccc_callback) {
    1262:	e0 91 81 20 	lds	r30, 0x2081	; 0x802081 <tc_tcd0_ccc_callback>
    1266:	f0 91 82 20 	lds	r31, 0x2082	; 0x802082 <tc_tcd0_ccc_callback+0x1>
    126a:	30 97       	sbiw	r30, 0x00	; 0
    126c:	09 f0       	breq	.+2      	; 0x1270 <__vector_81+0x42>
		tc_tcd0_ccc_callback();
    126e:	19 95       	eicall
	}
}
    1270:	ff 91       	pop	r31
    1272:	ef 91       	pop	r30
    1274:	bf 91       	pop	r27
    1276:	af 91       	pop	r26
    1278:	9f 91       	pop	r25
    127a:	8f 91       	pop	r24
    127c:	7f 91       	pop	r23
    127e:	6f 91       	pop	r22
    1280:	5f 91       	pop	r21
    1282:	4f 91       	pop	r20
    1284:	3f 91       	pop	r19
    1286:	2f 91       	pop	r18
    1288:	0f 90       	pop	r0
    128a:	0b be       	out	0x3b, r0	; 59
    128c:	0f 90       	pop	r0
    128e:	09 be       	out	0x39, r0	; 57
    1290:	0f 90       	pop	r0
    1292:	08 be       	out	0x38, r0	; 56
    1294:	0f 90       	pop	r0
    1296:	0f be       	out	0x3f, r0	; 63
    1298:	0f 90       	pop	r0
    129a:	1f 90       	pop	r1
    129c:	18 95       	reti

0000129e <__vector_82>:
 *
 * This function will handle interrupt on Timer Counter D0 Compare/CaptureD and
 * call the callback function.
 */
ISR(TCD0_CCD_vect)
{
    129e:	1f 92       	push	r1
    12a0:	0f 92       	push	r0
    12a2:	0f b6       	in	r0, 0x3f	; 63
    12a4:	0f 92       	push	r0
    12a6:	11 24       	eor	r1, r1
    12a8:	08 b6       	in	r0, 0x38	; 56
    12aa:	0f 92       	push	r0
    12ac:	18 be       	out	0x38, r1	; 56
    12ae:	09 b6       	in	r0, 0x39	; 57
    12b0:	0f 92       	push	r0
    12b2:	19 be       	out	0x39, r1	; 57
    12b4:	0b b6       	in	r0, 0x3b	; 59
    12b6:	0f 92       	push	r0
    12b8:	1b be       	out	0x3b, r1	; 59
    12ba:	2f 93       	push	r18
    12bc:	3f 93       	push	r19
    12be:	4f 93       	push	r20
    12c0:	5f 93       	push	r21
    12c2:	6f 93       	push	r22
    12c4:	7f 93       	push	r23
    12c6:	8f 93       	push	r24
    12c8:	9f 93       	push	r25
    12ca:	af 93       	push	r26
    12cc:	bf 93       	push	r27
    12ce:	ef 93       	push	r30
    12d0:	ff 93       	push	r31
	if (tc_tcd0_ccd_callback) {
    12d2:	e0 91 7f 20 	lds	r30, 0x207F	; 0x80207f <tc_tcd0_ccd_callback>
    12d6:	f0 91 80 20 	lds	r31, 0x2080	; 0x802080 <tc_tcd0_ccd_callback+0x1>
    12da:	30 97       	sbiw	r30, 0x00	; 0
    12dc:	09 f0       	breq	.+2      	; 0x12e0 <__vector_82+0x42>
		tc_tcd0_ccd_callback();
    12de:	19 95       	eicall
	}
}
    12e0:	ff 91       	pop	r31
    12e2:	ef 91       	pop	r30
    12e4:	bf 91       	pop	r27
    12e6:	af 91       	pop	r26
    12e8:	9f 91       	pop	r25
    12ea:	8f 91       	pop	r24
    12ec:	7f 91       	pop	r23
    12ee:	6f 91       	pop	r22
    12f0:	5f 91       	pop	r21
    12f2:	4f 91       	pop	r20
    12f4:	3f 91       	pop	r19
    12f6:	2f 91       	pop	r18
    12f8:	0f 90       	pop	r0
    12fa:	0b be       	out	0x3b, r0	; 59
    12fc:	0f 90       	pop	r0
    12fe:	09 be       	out	0x39, r0	; 57
    1300:	0f 90       	pop	r0
    1302:	08 be       	out	0x38, r0	; 56
    1304:	0f 90       	pop	r0
    1306:	0f be       	out	0x3f, r0	; 63
    1308:	0f 90       	pop	r0
    130a:	1f 90       	pop	r1
    130c:	18 95       	reti

0000130e <__vector_83>:
 *
 * This function will handle interrupt on Timer Counter D1 overflow and
 * call the callback function.
 */
ISR(TCD1_OVF_vect)
{
    130e:	1f 92       	push	r1
    1310:	0f 92       	push	r0
    1312:	0f b6       	in	r0, 0x3f	; 63
    1314:	0f 92       	push	r0
    1316:	11 24       	eor	r1, r1
    1318:	08 b6       	in	r0, 0x38	; 56
    131a:	0f 92       	push	r0
    131c:	18 be       	out	0x38, r1	; 56
    131e:	09 b6       	in	r0, 0x39	; 57
    1320:	0f 92       	push	r0
    1322:	19 be       	out	0x39, r1	; 57
    1324:	0b b6       	in	r0, 0x3b	; 59
    1326:	0f 92       	push	r0
    1328:	1b be       	out	0x3b, r1	; 59
    132a:	2f 93       	push	r18
    132c:	3f 93       	push	r19
    132e:	4f 93       	push	r20
    1330:	5f 93       	push	r21
    1332:	6f 93       	push	r22
    1334:	7f 93       	push	r23
    1336:	8f 93       	push	r24
    1338:	9f 93       	push	r25
    133a:	af 93       	push	r26
    133c:	bf 93       	push	r27
    133e:	ef 93       	push	r30
    1340:	ff 93       	push	r31
	if (tc_tcd1_ovf_callback) {
    1342:	e0 91 7d 20 	lds	r30, 0x207D	; 0x80207d <tc_tcd1_ovf_callback>
    1346:	f0 91 7e 20 	lds	r31, 0x207E	; 0x80207e <tc_tcd1_ovf_callback+0x1>
    134a:	30 97       	sbiw	r30, 0x00	; 0
    134c:	09 f0       	breq	.+2      	; 0x1350 <__vector_83+0x42>
		tc_tcd1_ovf_callback();
    134e:	19 95       	eicall
	}
}
    1350:	ff 91       	pop	r31
    1352:	ef 91       	pop	r30
    1354:	bf 91       	pop	r27
    1356:	af 91       	pop	r26
    1358:	9f 91       	pop	r25
    135a:	8f 91       	pop	r24
    135c:	7f 91       	pop	r23
    135e:	6f 91       	pop	r22
    1360:	5f 91       	pop	r21
    1362:	4f 91       	pop	r20
    1364:	3f 91       	pop	r19
    1366:	2f 91       	pop	r18
    1368:	0f 90       	pop	r0
    136a:	0b be       	out	0x3b, r0	; 59
    136c:	0f 90       	pop	r0
    136e:	09 be       	out	0x39, r0	; 57
    1370:	0f 90       	pop	r0
    1372:	08 be       	out	0x38, r0	; 56
    1374:	0f 90       	pop	r0
    1376:	0f be       	out	0x3f, r0	; 63
    1378:	0f 90       	pop	r0
    137a:	1f 90       	pop	r1
    137c:	18 95       	reti

0000137e <__vector_84>:
 *
 * This function will handle interrupt on Timer Counter D1 error and
 * call the callback function.
 */
ISR(TCD1_ERR_vect)
{
    137e:	1f 92       	push	r1
    1380:	0f 92       	push	r0
    1382:	0f b6       	in	r0, 0x3f	; 63
    1384:	0f 92       	push	r0
    1386:	11 24       	eor	r1, r1
    1388:	08 b6       	in	r0, 0x38	; 56
    138a:	0f 92       	push	r0
    138c:	18 be       	out	0x38, r1	; 56
    138e:	09 b6       	in	r0, 0x39	; 57
    1390:	0f 92       	push	r0
    1392:	19 be       	out	0x39, r1	; 57
    1394:	0b b6       	in	r0, 0x3b	; 59
    1396:	0f 92       	push	r0
    1398:	1b be       	out	0x3b, r1	; 59
    139a:	2f 93       	push	r18
    139c:	3f 93       	push	r19
    139e:	4f 93       	push	r20
    13a0:	5f 93       	push	r21
    13a2:	6f 93       	push	r22
    13a4:	7f 93       	push	r23
    13a6:	8f 93       	push	r24
    13a8:	9f 93       	push	r25
    13aa:	af 93       	push	r26
    13ac:	bf 93       	push	r27
    13ae:	ef 93       	push	r30
    13b0:	ff 93       	push	r31
	if (tc_tcd1_err_callback) {
    13b2:	e0 91 7b 20 	lds	r30, 0x207B	; 0x80207b <tc_tcd1_err_callback>
    13b6:	f0 91 7c 20 	lds	r31, 0x207C	; 0x80207c <tc_tcd1_err_callback+0x1>
    13ba:	30 97       	sbiw	r30, 0x00	; 0
    13bc:	09 f0       	breq	.+2      	; 0x13c0 <__vector_84+0x42>
		tc_tcd1_err_callback();
    13be:	19 95       	eicall
	}
}
    13c0:	ff 91       	pop	r31
    13c2:	ef 91       	pop	r30
    13c4:	bf 91       	pop	r27
    13c6:	af 91       	pop	r26
    13c8:	9f 91       	pop	r25
    13ca:	8f 91       	pop	r24
    13cc:	7f 91       	pop	r23
    13ce:	6f 91       	pop	r22
    13d0:	5f 91       	pop	r21
    13d2:	4f 91       	pop	r20
    13d4:	3f 91       	pop	r19
    13d6:	2f 91       	pop	r18
    13d8:	0f 90       	pop	r0
    13da:	0b be       	out	0x3b, r0	; 59
    13dc:	0f 90       	pop	r0
    13de:	09 be       	out	0x39, r0	; 57
    13e0:	0f 90       	pop	r0
    13e2:	08 be       	out	0x38, r0	; 56
    13e4:	0f 90       	pop	r0
    13e6:	0f be       	out	0x3f, r0	; 63
    13e8:	0f 90       	pop	r0
    13ea:	1f 90       	pop	r1
    13ec:	18 95       	reti

000013ee <__vector_85>:
 *
 * This function will handle interrupt on Timer Counter D1 Compare/CaptureA and
 * call the callback function.
 */
ISR(TCD1_CCA_vect)
{
    13ee:	1f 92       	push	r1
    13f0:	0f 92       	push	r0
    13f2:	0f b6       	in	r0, 0x3f	; 63
    13f4:	0f 92       	push	r0
    13f6:	11 24       	eor	r1, r1
    13f8:	08 b6       	in	r0, 0x38	; 56
    13fa:	0f 92       	push	r0
    13fc:	18 be       	out	0x38, r1	; 56
    13fe:	09 b6       	in	r0, 0x39	; 57
    1400:	0f 92       	push	r0
    1402:	19 be       	out	0x39, r1	; 57
    1404:	0b b6       	in	r0, 0x3b	; 59
    1406:	0f 92       	push	r0
    1408:	1b be       	out	0x3b, r1	; 59
    140a:	2f 93       	push	r18
    140c:	3f 93       	push	r19
    140e:	4f 93       	push	r20
    1410:	5f 93       	push	r21
    1412:	6f 93       	push	r22
    1414:	7f 93       	push	r23
    1416:	8f 93       	push	r24
    1418:	9f 93       	push	r25
    141a:	af 93       	push	r26
    141c:	bf 93       	push	r27
    141e:	ef 93       	push	r30
    1420:	ff 93       	push	r31
	if (tc_tcd1_cca_callback) {
    1422:	e0 91 79 20 	lds	r30, 0x2079	; 0x802079 <tc_tcd1_cca_callback>
    1426:	f0 91 7a 20 	lds	r31, 0x207A	; 0x80207a <tc_tcd1_cca_callback+0x1>
    142a:	30 97       	sbiw	r30, 0x00	; 0
    142c:	09 f0       	breq	.+2      	; 0x1430 <__vector_85+0x42>
		tc_tcd1_cca_callback();
    142e:	19 95       	eicall
	}
}
    1430:	ff 91       	pop	r31
    1432:	ef 91       	pop	r30
    1434:	bf 91       	pop	r27
    1436:	af 91       	pop	r26
    1438:	9f 91       	pop	r25
    143a:	8f 91       	pop	r24
    143c:	7f 91       	pop	r23
    143e:	6f 91       	pop	r22
    1440:	5f 91       	pop	r21
    1442:	4f 91       	pop	r20
    1444:	3f 91       	pop	r19
    1446:	2f 91       	pop	r18
    1448:	0f 90       	pop	r0
    144a:	0b be       	out	0x3b, r0	; 59
    144c:	0f 90       	pop	r0
    144e:	09 be       	out	0x39, r0	; 57
    1450:	0f 90       	pop	r0
    1452:	08 be       	out	0x38, r0	; 56
    1454:	0f 90       	pop	r0
    1456:	0f be       	out	0x3f, r0	; 63
    1458:	0f 90       	pop	r0
    145a:	1f 90       	pop	r1
    145c:	18 95       	reti

0000145e <__vector_86>:
 *
 * This function will handle interrupt on Timer Counter D1 Compare/CaptureB and
 * call the callback function.
 */
ISR(TCD1_CCB_vect)
{
    145e:	1f 92       	push	r1
    1460:	0f 92       	push	r0
    1462:	0f b6       	in	r0, 0x3f	; 63
    1464:	0f 92       	push	r0
    1466:	11 24       	eor	r1, r1
    1468:	08 b6       	in	r0, 0x38	; 56
    146a:	0f 92       	push	r0
    146c:	18 be       	out	0x38, r1	; 56
    146e:	09 b6       	in	r0, 0x39	; 57
    1470:	0f 92       	push	r0
    1472:	19 be       	out	0x39, r1	; 57
    1474:	0b b6       	in	r0, 0x3b	; 59
    1476:	0f 92       	push	r0
    1478:	1b be       	out	0x3b, r1	; 59
    147a:	2f 93       	push	r18
    147c:	3f 93       	push	r19
    147e:	4f 93       	push	r20
    1480:	5f 93       	push	r21
    1482:	6f 93       	push	r22
    1484:	7f 93       	push	r23
    1486:	8f 93       	push	r24
    1488:	9f 93       	push	r25
    148a:	af 93       	push	r26
    148c:	bf 93       	push	r27
    148e:	ef 93       	push	r30
    1490:	ff 93       	push	r31
	if (tc_tcd1_ccb_callback) {
    1492:	e0 91 77 20 	lds	r30, 0x2077	; 0x802077 <tc_tcd1_ccb_callback>
    1496:	f0 91 78 20 	lds	r31, 0x2078	; 0x802078 <tc_tcd1_ccb_callback+0x1>
    149a:	30 97       	sbiw	r30, 0x00	; 0
    149c:	09 f0       	breq	.+2      	; 0x14a0 <__vector_86+0x42>
		tc_tcd1_ccb_callback();
    149e:	19 95       	eicall
	}
}
    14a0:	ff 91       	pop	r31
    14a2:	ef 91       	pop	r30
    14a4:	bf 91       	pop	r27
    14a6:	af 91       	pop	r26
    14a8:	9f 91       	pop	r25
    14aa:	8f 91       	pop	r24
    14ac:	7f 91       	pop	r23
    14ae:	6f 91       	pop	r22
    14b0:	5f 91       	pop	r21
    14b2:	4f 91       	pop	r20
    14b4:	3f 91       	pop	r19
    14b6:	2f 91       	pop	r18
    14b8:	0f 90       	pop	r0
    14ba:	0b be       	out	0x3b, r0	; 59
    14bc:	0f 90       	pop	r0
    14be:	09 be       	out	0x39, r0	; 57
    14c0:	0f 90       	pop	r0
    14c2:	08 be       	out	0x38, r0	; 56
    14c4:	0f 90       	pop	r0
    14c6:	0f be       	out	0x3f, r0	; 63
    14c8:	0f 90       	pop	r0
    14ca:	1f 90       	pop	r1
    14cc:	18 95       	reti

000014ce <__vector_47>:
 *
 * This function will handle interrupt on Timer Counter E0 overflow and
 * call the callback function.
 */
ISR(TCE0_OVF_vect)
{
    14ce:	1f 92       	push	r1
    14d0:	0f 92       	push	r0
    14d2:	0f b6       	in	r0, 0x3f	; 63
    14d4:	0f 92       	push	r0
    14d6:	11 24       	eor	r1, r1
    14d8:	08 b6       	in	r0, 0x38	; 56
    14da:	0f 92       	push	r0
    14dc:	18 be       	out	0x38, r1	; 56
    14de:	09 b6       	in	r0, 0x39	; 57
    14e0:	0f 92       	push	r0
    14e2:	19 be       	out	0x39, r1	; 57
    14e4:	0b b6       	in	r0, 0x3b	; 59
    14e6:	0f 92       	push	r0
    14e8:	1b be       	out	0x3b, r1	; 59
    14ea:	2f 93       	push	r18
    14ec:	3f 93       	push	r19
    14ee:	4f 93       	push	r20
    14f0:	5f 93       	push	r21
    14f2:	6f 93       	push	r22
    14f4:	7f 93       	push	r23
    14f6:	8f 93       	push	r24
    14f8:	9f 93       	push	r25
    14fa:	af 93       	push	r26
    14fc:	bf 93       	push	r27
    14fe:	ef 93       	push	r30
    1500:	ff 93       	push	r31
	if (tc_tce0_ovf_callback) {
    1502:	e0 91 75 20 	lds	r30, 0x2075	; 0x802075 <tc_tce0_ovf_callback>
    1506:	f0 91 76 20 	lds	r31, 0x2076	; 0x802076 <tc_tce0_ovf_callback+0x1>
    150a:	30 97       	sbiw	r30, 0x00	; 0
    150c:	09 f0       	breq	.+2      	; 0x1510 <__vector_47+0x42>
		tc_tce0_ovf_callback();
    150e:	19 95       	eicall
	}
}
    1510:	ff 91       	pop	r31
    1512:	ef 91       	pop	r30
    1514:	bf 91       	pop	r27
    1516:	af 91       	pop	r26
    1518:	9f 91       	pop	r25
    151a:	8f 91       	pop	r24
    151c:	7f 91       	pop	r23
    151e:	6f 91       	pop	r22
    1520:	5f 91       	pop	r21
    1522:	4f 91       	pop	r20
    1524:	3f 91       	pop	r19
    1526:	2f 91       	pop	r18
    1528:	0f 90       	pop	r0
    152a:	0b be       	out	0x3b, r0	; 59
    152c:	0f 90       	pop	r0
    152e:	09 be       	out	0x39, r0	; 57
    1530:	0f 90       	pop	r0
    1532:	08 be       	out	0x38, r0	; 56
    1534:	0f 90       	pop	r0
    1536:	0f be       	out	0x3f, r0	; 63
    1538:	0f 90       	pop	r0
    153a:	1f 90       	pop	r1
    153c:	18 95       	reti

0000153e <__vector_48>:
 *
 * This function will handle interrupt on Timer Counter E0 error and
 * call the callback function.
 */
ISR(TCE0_ERR_vect)
{
    153e:	1f 92       	push	r1
    1540:	0f 92       	push	r0
    1542:	0f b6       	in	r0, 0x3f	; 63
    1544:	0f 92       	push	r0
    1546:	11 24       	eor	r1, r1
    1548:	08 b6       	in	r0, 0x38	; 56
    154a:	0f 92       	push	r0
    154c:	18 be       	out	0x38, r1	; 56
    154e:	09 b6       	in	r0, 0x39	; 57
    1550:	0f 92       	push	r0
    1552:	19 be       	out	0x39, r1	; 57
    1554:	0b b6       	in	r0, 0x3b	; 59
    1556:	0f 92       	push	r0
    1558:	1b be       	out	0x3b, r1	; 59
    155a:	2f 93       	push	r18
    155c:	3f 93       	push	r19
    155e:	4f 93       	push	r20
    1560:	5f 93       	push	r21
    1562:	6f 93       	push	r22
    1564:	7f 93       	push	r23
    1566:	8f 93       	push	r24
    1568:	9f 93       	push	r25
    156a:	af 93       	push	r26
    156c:	bf 93       	push	r27
    156e:	ef 93       	push	r30
    1570:	ff 93       	push	r31
	if (tc_tce0_err_callback) {
    1572:	e0 91 73 20 	lds	r30, 0x2073	; 0x802073 <tc_tce0_err_callback>
    1576:	f0 91 74 20 	lds	r31, 0x2074	; 0x802074 <tc_tce0_err_callback+0x1>
    157a:	30 97       	sbiw	r30, 0x00	; 0
    157c:	09 f0       	breq	.+2      	; 0x1580 <__vector_48+0x42>
		tc_tce0_err_callback();
    157e:	19 95       	eicall
	}
}
    1580:	ff 91       	pop	r31
    1582:	ef 91       	pop	r30
    1584:	bf 91       	pop	r27
    1586:	af 91       	pop	r26
    1588:	9f 91       	pop	r25
    158a:	8f 91       	pop	r24
    158c:	7f 91       	pop	r23
    158e:	6f 91       	pop	r22
    1590:	5f 91       	pop	r21
    1592:	4f 91       	pop	r20
    1594:	3f 91       	pop	r19
    1596:	2f 91       	pop	r18
    1598:	0f 90       	pop	r0
    159a:	0b be       	out	0x3b, r0	; 59
    159c:	0f 90       	pop	r0
    159e:	09 be       	out	0x39, r0	; 57
    15a0:	0f 90       	pop	r0
    15a2:	08 be       	out	0x38, r0	; 56
    15a4:	0f 90       	pop	r0
    15a6:	0f be       	out	0x3f, r0	; 63
    15a8:	0f 90       	pop	r0
    15aa:	1f 90       	pop	r1
    15ac:	18 95       	reti

000015ae <__vector_49>:
 *
 * This function will handle interrupt on Timer Counter E0 Compare/CaptureA and
 * call the callback function.
 */
ISR(TCE0_CCA_vect)
{
    15ae:	1f 92       	push	r1
    15b0:	0f 92       	push	r0
    15b2:	0f b6       	in	r0, 0x3f	; 63
    15b4:	0f 92       	push	r0
    15b6:	11 24       	eor	r1, r1
    15b8:	08 b6       	in	r0, 0x38	; 56
    15ba:	0f 92       	push	r0
    15bc:	18 be       	out	0x38, r1	; 56
    15be:	09 b6       	in	r0, 0x39	; 57
    15c0:	0f 92       	push	r0
    15c2:	19 be       	out	0x39, r1	; 57
    15c4:	0b b6       	in	r0, 0x3b	; 59
    15c6:	0f 92       	push	r0
    15c8:	1b be       	out	0x3b, r1	; 59
    15ca:	2f 93       	push	r18
    15cc:	3f 93       	push	r19
    15ce:	4f 93       	push	r20
    15d0:	5f 93       	push	r21
    15d2:	6f 93       	push	r22
    15d4:	7f 93       	push	r23
    15d6:	8f 93       	push	r24
    15d8:	9f 93       	push	r25
    15da:	af 93       	push	r26
    15dc:	bf 93       	push	r27
    15de:	ef 93       	push	r30
    15e0:	ff 93       	push	r31
	if (tc_tce0_cca_callback) {
    15e2:	e0 91 71 20 	lds	r30, 0x2071	; 0x802071 <tc_tce0_cca_callback>
    15e6:	f0 91 72 20 	lds	r31, 0x2072	; 0x802072 <tc_tce0_cca_callback+0x1>
    15ea:	30 97       	sbiw	r30, 0x00	; 0
    15ec:	09 f0       	breq	.+2      	; 0x15f0 <__vector_49+0x42>
		tc_tce0_cca_callback();
    15ee:	19 95       	eicall
	}
}
    15f0:	ff 91       	pop	r31
    15f2:	ef 91       	pop	r30
    15f4:	bf 91       	pop	r27
    15f6:	af 91       	pop	r26
    15f8:	9f 91       	pop	r25
    15fa:	8f 91       	pop	r24
    15fc:	7f 91       	pop	r23
    15fe:	6f 91       	pop	r22
    1600:	5f 91       	pop	r21
    1602:	4f 91       	pop	r20
    1604:	3f 91       	pop	r19
    1606:	2f 91       	pop	r18
    1608:	0f 90       	pop	r0
    160a:	0b be       	out	0x3b, r0	; 59
    160c:	0f 90       	pop	r0
    160e:	09 be       	out	0x39, r0	; 57
    1610:	0f 90       	pop	r0
    1612:	08 be       	out	0x38, r0	; 56
    1614:	0f 90       	pop	r0
    1616:	0f be       	out	0x3f, r0	; 63
    1618:	0f 90       	pop	r0
    161a:	1f 90       	pop	r1
    161c:	18 95       	reti

0000161e <__vector_50>:
 *
 * This function will handle interrupt on Timer Counter E0 Compare/CaptureB and
 * call the callback function.
 */
ISR(TCE0_CCB_vect)
{
    161e:	1f 92       	push	r1
    1620:	0f 92       	push	r0
    1622:	0f b6       	in	r0, 0x3f	; 63
    1624:	0f 92       	push	r0
    1626:	11 24       	eor	r1, r1
    1628:	08 b6       	in	r0, 0x38	; 56
    162a:	0f 92       	push	r0
    162c:	18 be       	out	0x38, r1	; 56
    162e:	09 b6       	in	r0, 0x39	; 57
    1630:	0f 92       	push	r0
    1632:	19 be       	out	0x39, r1	; 57
    1634:	0b b6       	in	r0, 0x3b	; 59
    1636:	0f 92       	push	r0
    1638:	1b be       	out	0x3b, r1	; 59
    163a:	2f 93       	push	r18
    163c:	3f 93       	push	r19
    163e:	4f 93       	push	r20
    1640:	5f 93       	push	r21
    1642:	6f 93       	push	r22
    1644:	7f 93       	push	r23
    1646:	8f 93       	push	r24
    1648:	9f 93       	push	r25
    164a:	af 93       	push	r26
    164c:	bf 93       	push	r27
    164e:	ef 93       	push	r30
    1650:	ff 93       	push	r31
	if (tc_tce0_ccb_callback) {
    1652:	e0 91 6f 20 	lds	r30, 0x206F	; 0x80206f <tc_tce0_ccb_callback>
    1656:	f0 91 70 20 	lds	r31, 0x2070	; 0x802070 <tc_tce0_ccb_callback+0x1>
    165a:	30 97       	sbiw	r30, 0x00	; 0
    165c:	09 f0       	breq	.+2      	; 0x1660 <__vector_50+0x42>
		tc_tce0_ccb_callback();
    165e:	19 95       	eicall
	}
}
    1660:	ff 91       	pop	r31
    1662:	ef 91       	pop	r30
    1664:	bf 91       	pop	r27
    1666:	af 91       	pop	r26
    1668:	9f 91       	pop	r25
    166a:	8f 91       	pop	r24
    166c:	7f 91       	pop	r23
    166e:	6f 91       	pop	r22
    1670:	5f 91       	pop	r21
    1672:	4f 91       	pop	r20
    1674:	3f 91       	pop	r19
    1676:	2f 91       	pop	r18
    1678:	0f 90       	pop	r0
    167a:	0b be       	out	0x3b, r0	; 59
    167c:	0f 90       	pop	r0
    167e:	09 be       	out	0x39, r0	; 57
    1680:	0f 90       	pop	r0
    1682:	08 be       	out	0x38, r0	; 56
    1684:	0f 90       	pop	r0
    1686:	0f be       	out	0x3f, r0	; 63
    1688:	0f 90       	pop	r0
    168a:	1f 90       	pop	r1
    168c:	18 95       	reti

0000168e <__vector_51>:
 *
 * This function will handle interrupt on Timer Counter E0 Compare/CaptureC and
 * call the callback function.
 */
ISR(TCE0_CCC_vect)
{
    168e:	1f 92       	push	r1
    1690:	0f 92       	push	r0
    1692:	0f b6       	in	r0, 0x3f	; 63
    1694:	0f 92       	push	r0
    1696:	11 24       	eor	r1, r1
    1698:	08 b6       	in	r0, 0x38	; 56
    169a:	0f 92       	push	r0
    169c:	18 be       	out	0x38, r1	; 56
    169e:	09 b6       	in	r0, 0x39	; 57
    16a0:	0f 92       	push	r0
    16a2:	19 be       	out	0x39, r1	; 57
    16a4:	0b b6       	in	r0, 0x3b	; 59
    16a6:	0f 92       	push	r0
    16a8:	1b be       	out	0x3b, r1	; 59
    16aa:	2f 93       	push	r18
    16ac:	3f 93       	push	r19
    16ae:	4f 93       	push	r20
    16b0:	5f 93       	push	r21
    16b2:	6f 93       	push	r22
    16b4:	7f 93       	push	r23
    16b6:	8f 93       	push	r24
    16b8:	9f 93       	push	r25
    16ba:	af 93       	push	r26
    16bc:	bf 93       	push	r27
    16be:	ef 93       	push	r30
    16c0:	ff 93       	push	r31
	if (tc_tce0_ccc_callback) {
    16c2:	e0 91 6d 20 	lds	r30, 0x206D	; 0x80206d <tc_tce0_ccc_callback>
    16c6:	f0 91 6e 20 	lds	r31, 0x206E	; 0x80206e <tc_tce0_ccc_callback+0x1>
    16ca:	30 97       	sbiw	r30, 0x00	; 0
    16cc:	09 f0       	breq	.+2      	; 0x16d0 <__vector_51+0x42>
		tc_tce0_ccc_callback();
    16ce:	19 95       	eicall
	}
}
    16d0:	ff 91       	pop	r31
    16d2:	ef 91       	pop	r30
    16d4:	bf 91       	pop	r27
    16d6:	af 91       	pop	r26
    16d8:	9f 91       	pop	r25
    16da:	8f 91       	pop	r24
    16dc:	7f 91       	pop	r23
    16de:	6f 91       	pop	r22
    16e0:	5f 91       	pop	r21
    16e2:	4f 91       	pop	r20
    16e4:	3f 91       	pop	r19
    16e6:	2f 91       	pop	r18
    16e8:	0f 90       	pop	r0
    16ea:	0b be       	out	0x3b, r0	; 59
    16ec:	0f 90       	pop	r0
    16ee:	09 be       	out	0x39, r0	; 57
    16f0:	0f 90       	pop	r0
    16f2:	08 be       	out	0x38, r0	; 56
    16f4:	0f 90       	pop	r0
    16f6:	0f be       	out	0x3f, r0	; 63
    16f8:	0f 90       	pop	r0
    16fa:	1f 90       	pop	r1
    16fc:	18 95       	reti

000016fe <__vector_52>:
 *
 * This function will handle interrupt on Timer Counter E0 Compare/CaptureD and
 * call the callback function.
 */
ISR(TCE0_CCD_vect)
{
    16fe:	1f 92       	push	r1
    1700:	0f 92       	push	r0
    1702:	0f b6       	in	r0, 0x3f	; 63
    1704:	0f 92       	push	r0
    1706:	11 24       	eor	r1, r1
    1708:	08 b6       	in	r0, 0x38	; 56
    170a:	0f 92       	push	r0
    170c:	18 be       	out	0x38, r1	; 56
    170e:	09 b6       	in	r0, 0x39	; 57
    1710:	0f 92       	push	r0
    1712:	19 be       	out	0x39, r1	; 57
    1714:	0b b6       	in	r0, 0x3b	; 59
    1716:	0f 92       	push	r0
    1718:	1b be       	out	0x3b, r1	; 59
    171a:	2f 93       	push	r18
    171c:	3f 93       	push	r19
    171e:	4f 93       	push	r20
    1720:	5f 93       	push	r21
    1722:	6f 93       	push	r22
    1724:	7f 93       	push	r23
    1726:	8f 93       	push	r24
    1728:	9f 93       	push	r25
    172a:	af 93       	push	r26
    172c:	bf 93       	push	r27
    172e:	ef 93       	push	r30
    1730:	ff 93       	push	r31
	if (tc_tce0_ccd_callback) {
    1732:	e0 91 6b 20 	lds	r30, 0x206B	; 0x80206b <tc_tce0_ccd_callback>
    1736:	f0 91 6c 20 	lds	r31, 0x206C	; 0x80206c <tc_tce0_ccd_callback+0x1>
    173a:	30 97       	sbiw	r30, 0x00	; 0
    173c:	09 f0       	breq	.+2      	; 0x1740 <__vector_52+0x42>
		tc_tce0_ccd_callback();
    173e:	19 95       	eicall
	}
}
    1740:	ff 91       	pop	r31
    1742:	ef 91       	pop	r30
    1744:	bf 91       	pop	r27
    1746:	af 91       	pop	r26
    1748:	9f 91       	pop	r25
    174a:	8f 91       	pop	r24
    174c:	7f 91       	pop	r23
    174e:	6f 91       	pop	r22
    1750:	5f 91       	pop	r21
    1752:	4f 91       	pop	r20
    1754:	3f 91       	pop	r19
    1756:	2f 91       	pop	r18
    1758:	0f 90       	pop	r0
    175a:	0b be       	out	0x3b, r0	; 59
    175c:	0f 90       	pop	r0
    175e:	09 be       	out	0x39, r0	; 57
    1760:	0f 90       	pop	r0
    1762:	08 be       	out	0x38, r0	; 56
    1764:	0f 90       	pop	r0
    1766:	0f be       	out	0x3f, r0	; 63
    1768:	0f 90       	pop	r0
    176a:	1f 90       	pop	r1
    176c:	18 95       	reti

0000176e <__vector_53>:
 *
 * This function will handle interrupt on Timer Counter E1 overflow and
 * call the callback function.
 */
ISR(TCE1_OVF_vect)
{
    176e:	1f 92       	push	r1
    1770:	0f 92       	push	r0
    1772:	0f b6       	in	r0, 0x3f	; 63
    1774:	0f 92       	push	r0
    1776:	11 24       	eor	r1, r1
    1778:	08 b6       	in	r0, 0x38	; 56
    177a:	0f 92       	push	r0
    177c:	18 be       	out	0x38, r1	; 56
    177e:	09 b6       	in	r0, 0x39	; 57
    1780:	0f 92       	push	r0
    1782:	19 be       	out	0x39, r1	; 57
    1784:	0b b6       	in	r0, 0x3b	; 59
    1786:	0f 92       	push	r0
    1788:	1b be       	out	0x3b, r1	; 59
    178a:	2f 93       	push	r18
    178c:	3f 93       	push	r19
    178e:	4f 93       	push	r20
    1790:	5f 93       	push	r21
    1792:	6f 93       	push	r22
    1794:	7f 93       	push	r23
    1796:	8f 93       	push	r24
    1798:	9f 93       	push	r25
    179a:	af 93       	push	r26
    179c:	bf 93       	push	r27
    179e:	ef 93       	push	r30
    17a0:	ff 93       	push	r31
	if (tc_tce1_ovf_callback) {
    17a2:	e0 91 69 20 	lds	r30, 0x2069	; 0x802069 <tc_tce1_ovf_callback>
    17a6:	f0 91 6a 20 	lds	r31, 0x206A	; 0x80206a <tc_tce1_ovf_callback+0x1>
    17aa:	30 97       	sbiw	r30, 0x00	; 0
    17ac:	09 f0       	breq	.+2      	; 0x17b0 <__vector_53+0x42>
		tc_tce1_ovf_callback();
    17ae:	19 95       	eicall
	}
}
    17b0:	ff 91       	pop	r31
    17b2:	ef 91       	pop	r30
    17b4:	bf 91       	pop	r27
    17b6:	af 91       	pop	r26
    17b8:	9f 91       	pop	r25
    17ba:	8f 91       	pop	r24
    17bc:	7f 91       	pop	r23
    17be:	6f 91       	pop	r22
    17c0:	5f 91       	pop	r21
    17c2:	4f 91       	pop	r20
    17c4:	3f 91       	pop	r19
    17c6:	2f 91       	pop	r18
    17c8:	0f 90       	pop	r0
    17ca:	0b be       	out	0x3b, r0	; 59
    17cc:	0f 90       	pop	r0
    17ce:	09 be       	out	0x39, r0	; 57
    17d0:	0f 90       	pop	r0
    17d2:	08 be       	out	0x38, r0	; 56
    17d4:	0f 90       	pop	r0
    17d6:	0f be       	out	0x3f, r0	; 63
    17d8:	0f 90       	pop	r0
    17da:	1f 90       	pop	r1
    17dc:	18 95       	reti

000017de <__vector_54>:
 *
 * This function will handle interrupt on Timer Counter E1 error and
 * call the callback function.
 */
ISR(TCE1_ERR_vect)
{
    17de:	1f 92       	push	r1
    17e0:	0f 92       	push	r0
    17e2:	0f b6       	in	r0, 0x3f	; 63
    17e4:	0f 92       	push	r0
    17e6:	11 24       	eor	r1, r1
    17e8:	08 b6       	in	r0, 0x38	; 56
    17ea:	0f 92       	push	r0
    17ec:	18 be       	out	0x38, r1	; 56
    17ee:	09 b6       	in	r0, 0x39	; 57
    17f0:	0f 92       	push	r0
    17f2:	19 be       	out	0x39, r1	; 57
    17f4:	0b b6       	in	r0, 0x3b	; 59
    17f6:	0f 92       	push	r0
    17f8:	1b be       	out	0x3b, r1	; 59
    17fa:	2f 93       	push	r18
    17fc:	3f 93       	push	r19
    17fe:	4f 93       	push	r20
    1800:	5f 93       	push	r21
    1802:	6f 93       	push	r22
    1804:	7f 93       	push	r23
    1806:	8f 93       	push	r24
    1808:	9f 93       	push	r25
    180a:	af 93       	push	r26
    180c:	bf 93       	push	r27
    180e:	ef 93       	push	r30
    1810:	ff 93       	push	r31
	if (tc_tce1_err_callback) {
    1812:	e0 91 67 20 	lds	r30, 0x2067	; 0x802067 <tc_tce1_err_callback>
    1816:	f0 91 68 20 	lds	r31, 0x2068	; 0x802068 <tc_tce1_err_callback+0x1>
    181a:	30 97       	sbiw	r30, 0x00	; 0
    181c:	09 f0       	breq	.+2      	; 0x1820 <__vector_54+0x42>
		tc_tce1_err_callback();
    181e:	19 95       	eicall
	}
}
    1820:	ff 91       	pop	r31
    1822:	ef 91       	pop	r30
    1824:	bf 91       	pop	r27
    1826:	af 91       	pop	r26
    1828:	9f 91       	pop	r25
    182a:	8f 91       	pop	r24
    182c:	7f 91       	pop	r23
    182e:	6f 91       	pop	r22
    1830:	5f 91       	pop	r21
    1832:	4f 91       	pop	r20
    1834:	3f 91       	pop	r19
    1836:	2f 91       	pop	r18
    1838:	0f 90       	pop	r0
    183a:	0b be       	out	0x3b, r0	; 59
    183c:	0f 90       	pop	r0
    183e:	09 be       	out	0x39, r0	; 57
    1840:	0f 90       	pop	r0
    1842:	08 be       	out	0x38, r0	; 56
    1844:	0f 90       	pop	r0
    1846:	0f be       	out	0x3f, r0	; 63
    1848:	0f 90       	pop	r0
    184a:	1f 90       	pop	r1
    184c:	18 95       	reti

0000184e <__vector_55>:
 *
 * This function will handle interrupt on Timer Counter E1 Compare/CaptureA and
 * call the callback function.
 */
ISR(TCE1_CCA_vect)
{
    184e:	1f 92       	push	r1
    1850:	0f 92       	push	r0
    1852:	0f b6       	in	r0, 0x3f	; 63
    1854:	0f 92       	push	r0
    1856:	11 24       	eor	r1, r1
    1858:	08 b6       	in	r0, 0x38	; 56
    185a:	0f 92       	push	r0
    185c:	18 be       	out	0x38, r1	; 56
    185e:	09 b6       	in	r0, 0x39	; 57
    1860:	0f 92       	push	r0
    1862:	19 be       	out	0x39, r1	; 57
    1864:	0b b6       	in	r0, 0x3b	; 59
    1866:	0f 92       	push	r0
    1868:	1b be       	out	0x3b, r1	; 59
    186a:	2f 93       	push	r18
    186c:	3f 93       	push	r19
    186e:	4f 93       	push	r20
    1870:	5f 93       	push	r21
    1872:	6f 93       	push	r22
    1874:	7f 93       	push	r23
    1876:	8f 93       	push	r24
    1878:	9f 93       	push	r25
    187a:	af 93       	push	r26
    187c:	bf 93       	push	r27
    187e:	ef 93       	push	r30
    1880:	ff 93       	push	r31
	if (tc_tce1_cca_callback) {
    1882:	e0 91 65 20 	lds	r30, 0x2065	; 0x802065 <tc_tce1_cca_callback>
    1886:	f0 91 66 20 	lds	r31, 0x2066	; 0x802066 <tc_tce1_cca_callback+0x1>
    188a:	30 97       	sbiw	r30, 0x00	; 0
    188c:	09 f0       	breq	.+2      	; 0x1890 <__vector_55+0x42>
		tc_tce1_cca_callback();
    188e:	19 95       	eicall
	}
}
    1890:	ff 91       	pop	r31
    1892:	ef 91       	pop	r30
    1894:	bf 91       	pop	r27
    1896:	af 91       	pop	r26
    1898:	9f 91       	pop	r25
    189a:	8f 91       	pop	r24
    189c:	7f 91       	pop	r23
    189e:	6f 91       	pop	r22
    18a0:	5f 91       	pop	r21
    18a2:	4f 91       	pop	r20
    18a4:	3f 91       	pop	r19
    18a6:	2f 91       	pop	r18
    18a8:	0f 90       	pop	r0
    18aa:	0b be       	out	0x3b, r0	; 59
    18ac:	0f 90       	pop	r0
    18ae:	09 be       	out	0x39, r0	; 57
    18b0:	0f 90       	pop	r0
    18b2:	08 be       	out	0x38, r0	; 56
    18b4:	0f 90       	pop	r0
    18b6:	0f be       	out	0x3f, r0	; 63
    18b8:	0f 90       	pop	r0
    18ba:	1f 90       	pop	r1
    18bc:	18 95       	reti

000018be <__vector_56>:
 *
 * This function will handle interrupt on Timer Counter E1 Compare/CaptureB and
 * call the callback function.
 */
ISR(TCE1_CCB_vect)
{
    18be:	1f 92       	push	r1
    18c0:	0f 92       	push	r0
    18c2:	0f b6       	in	r0, 0x3f	; 63
    18c4:	0f 92       	push	r0
    18c6:	11 24       	eor	r1, r1
    18c8:	08 b6       	in	r0, 0x38	; 56
    18ca:	0f 92       	push	r0
    18cc:	18 be       	out	0x38, r1	; 56
    18ce:	09 b6       	in	r0, 0x39	; 57
    18d0:	0f 92       	push	r0
    18d2:	19 be       	out	0x39, r1	; 57
    18d4:	0b b6       	in	r0, 0x3b	; 59
    18d6:	0f 92       	push	r0
    18d8:	1b be       	out	0x3b, r1	; 59
    18da:	2f 93       	push	r18
    18dc:	3f 93       	push	r19
    18de:	4f 93       	push	r20
    18e0:	5f 93       	push	r21
    18e2:	6f 93       	push	r22
    18e4:	7f 93       	push	r23
    18e6:	8f 93       	push	r24
    18e8:	9f 93       	push	r25
    18ea:	af 93       	push	r26
    18ec:	bf 93       	push	r27
    18ee:	ef 93       	push	r30
    18f0:	ff 93       	push	r31
	if (tc_tce1_ccb_callback) {
    18f2:	e0 91 63 20 	lds	r30, 0x2063	; 0x802063 <tc_tce1_ccb_callback>
    18f6:	f0 91 64 20 	lds	r31, 0x2064	; 0x802064 <tc_tce1_ccb_callback+0x1>
    18fa:	30 97       	sbiw	r30, 0x00	; 0
    18fc:	09 f0       	breq	.+2      	; 0x1900 <__vector_56+0x42>
		tc_tce1_ccb_callback();
    18fe:	19 95       	eicall
	}
}
    1900:	ff 91       	pop	r31
    1902:	ef 91       	pop	r30
    1904:	bf 91       	pop	r27
    1906:	af 91       	pop	r26
    1908:	9f 91       	pop	r25
    190a:	8f 91       	pop	r24
    190c:	7f 91       	pop	r23
    190e:	6f 91       	pop	r22
    1910:	5f 91       	pop	r21
    1912:	4f 91       	pop	r20
    1914:	3f 91       	pop	r19
    1916:	2f 91       	pop	r18
    1918:	0f 90       	pop	r0
    191a:	0b be       	out	0x3b, r0	; 59
    191c:	0f 90       	pop	r0
    191e:	09 be       	out	0x39, r0	; 57
    1920:	0f 90       	pop	r0
    1922:	08 be       	out	0x38, r0	; 56
    1924:	0f 90       	pop	r0
    1926:	0f be       	out	0x3f, r0	; 63
    1928:	0f 90       	pop	r0
    192a:	1f 90       	pop	r1
    192c:	18 95       	reti

0000192e <__vector_108>:
 *
 * This function will handle interrupt on Timer Counter F0 overflow and
 * call the callback function.
 */
ISR(TCF0_OVF_vect)
{
    192e:	1f 92       	push	r1
    1930:	0f 92       	push	r0
    1932:	0f b6       	in	r0, 0x3f	; 63
    1934:	0f 92       	push	r0
    1936:	11 24       	eor	r1, r1
    1938:	08 b6       	in	r0, 0x38	; 56
    193a:	0f 92       	push	r0
    193c:	18 be       	out	0x38, r1	; 56
    193e:	09 b6       	in	r0, 0x39	; 57
    1940:	0f 92       	push	r0
    1942:	19 be       	out	0x39, r1	; 57
    1944:	0b b6       	in	r0, 0x3b	; 59
    1946:	0f 92       	push	r0
    1948:	1b be       	out	0x3b, r1	; 59
    194a:	2f 93       	push	r18
    194c:	3f 93       	push	r19
    194e:	4f 93       	push	r20
    1950:	5f 93       	push	r21
    1952:	6f 93       	push	r22
    1954:	7f 93       	push	r23
    1956:	8f 93       	push	r24
    1958:	9f 93       	push	r25
    195a:	af 93       	push	r26
    195c:	bf 93       	push	r27
    195e:	ef 93       	push	r30
    1960:	ff 93       	push	r31
	if (tc_tcf0_ovf_callback) {
    1962:	e0 91 61 20 	lds	r30, 0x2061	; 0x802061 <tc_tcf0_ovf_callback>
    1966:	f0 91 62 20 	lds	r31, 0x2062	; 0x802062 <tc_tcf0_ovf_callback+0x1>
    196a:	30 97       	sbiw	r30, 0x00	; 0
    196c:	09 f0       	breq	.+2      	; 0x1970 <__vector_108+0x42>
		tc_tcf0_ovf_callback();
    196e:	19 95       	eicall
	}
}
    1970:	ff 91       	pop	r31
    1972:	ef 91       	pop	r30
    1974:	bf 91       	pop	r27
    1976:	af 91       	pop	r26
    1978:	9f 91       	pop	r25
    197a:	8f 91       	pop	r24
    197c:	7f 91       	pop	r23
    197e:	6f 91       	pop	r22
    1980:	5f 91       	pop	r21
    1982:	4f 91       	pop	r20
    1984:	3f 91       	pop	r19
    1986:	2f 91       	pop	r18
    1988:	0f 90       	pop	r0
    198a:	0b be       	out	0x3b, r0	; 59
    198c:	0f 90       	pop	r0
    198e:	09 be       	out	0x39, r0	; 57
    1990:	0f 90       	pop	r0
    1992:	08 be       	out	0x38, r0	; 56
    1994:	0f 90       	pop	r0
    1996:	0f be       	out	0x3f, r0	; 63
    1998:	0f 90       	pop	r0
    199a:	1f 90       	pop	r1
    199c:	18 95       	reti

0000199e <__vector_109>:
 *
 * This function will handle interrupt on Timer Counter F0 error and
 * call the callback function.
 */
ISR(TCF0_ERR_vect)
{
    199e:	1f 92       	push	r1
    19a0:	0f 92       	push	r0
    19a2:	0f b6       	in	r0, 0x3f	; 63
    19a4:	0f 92       	push	r0
    19a6:	11 24       	eor	r1, r1
    19a8:	08 b6       	in	r0, 0x38	; 56
    19aa:	0f 92       	push	r0
    19ac:	18 be       	out	0x38, r1	; 56
    19ae:	09 b6       	in	r0, 0x39	; 57
    19b0:	0f 92       	push	r0
    19b2:	19 be       	out	0x39, r1	; 57
    19b4:	0b b6       	in	r0, 0x3b	; 59
    19b6:	0f 92       	push	r0
    19b8:	1b be       	out	0x3b, r1	; 59
    19ba:	2f 93       	push	r18
    19bc:	3f 93       	push	r19
    19be:	4f 93       	push	r20
    19c0:	5f 93       	push	r21
    19c2:	6f 93       	push	r22
    19c4:	7f 93       	push	r23
    19c6:	8f 93       	push	r24
    19c8:	9f 93       	push	r25
    19ca:	af 93       	push	r26
    19cc:	bf 93       	push	r27
    19ce:	ef 93       	push	r30
    19d0:	ff 93       	push	r31
	if (tc_tcf0_err_callback) {
    19d2:	e0 91 5f 20 	lds	r30, 0x205F	; 0x80205f <tc_tcf0_err_callback>
    19d6:	f0 91 60 20 	lds	r31, 0x2060	; 0x802060 <tc_tcf0_err_callback+0x1>
    19da:	30 97       	sbiw	r30, 0x00	; 0
    19dc:	09 f0       	breq	.+2      	; 0x19e0 <__vector_109+0x42>
		tc_tcf0_err_callback();
    19de:	19 95       	eicall
	}
}
    19e0:	ff 91       	pop	r31
    19e2:	ef 91       	pop	r30
    19e4:	bf 91       	pop	r27
    19e6:	af 91       	pop	r26
    19e8:	9f 91       	pop	r25
    19ea:	8f 91       	pop	r24
    19ec:	7f 91       	pop	r23
    19ee:	6f 91       	pop	r22
    19f0:	5f 91       	pop	r21
    19f2:	4f 91       	pop	r20
    19f4:	3f 91       	pop	r19
    19f6:	2f 91       	pop	r18
    19f8:	0f 90       	pop	r0
    19fa:	0b be       	out	0x3b, r0	; 59
    19fc:	0f 90       	pop	r0
    19fe:	09 be       	out	0x39, r0	; 57
    1a00:	0f 90       	pop	r0
    1a02:	08 be       	out	0x38, r0	; 56
    1a04:	0f 90       	pop	r0
    1a06:	0f be       	out	0x3f, r0	; 63
    1a08:	0f 90       	pop	r0
    1a0a:	1f 90       	pop	r1
    1a0c:	18 95       	reti

00001a0e <__vector_110>:
 *
 * This function will handle interrupt on Timer Counter F0 Compare/CaptureA and
 * call the callback function.
 */
ISR(TCF0_CCA_vect)
{
    1a0e:	1f 92       	push	r1
    1a10:	0f 92       	push	r0
    1a12:	0f b6       	in	r0, 0x3f	; 63
    1a14:	0f 92       	push	r0
    1a16:	11 24       	eor	r1, r1
    1a18:	08 b6       	in	r0, 0x38	; 56
    1a1a:	0f 92       	push	r0
    1a1c:	18 be       	out	0x38, r1	; 56
    1a1e:	09 b6       	in	r0, 0x39	; 57
    1a20:	0f 92       	push	r0
    1a22:	19 be       	out	0x39, r1	; 57
    1a24:	0b b6       	in	r0, 0x3b	; 59
    1a26:	0f 92       	push	r0
    1a28:	1b be       	out	0x3b, r1	; 59
    1a2a:	2f 93       	push	r18
    1a2c:	3f 93       	push	r19
    1a2e:	4f 93       	push	r20
    1a30:	5f 93       	push	r21
    1a32:	6f 93       	push	r22
    1a34:	7f 93       	push	r23
    1a36:	8f 93       	push	r24
    1a38:	9f 93       	push	r25
    1a3a:	af 93       	push	r26
    1a3c:	bf 93       	push	r27
    1a3e:	ef 93       	push	r30
    1a40:	ff 93       	push	r31
	if (tc_tcf0_cca_callback) {
    1a42:	e0 91 5d 20 	lds	r30, 0x205D	; 0x80205d <tc_tcf0_cca_callback>
    1a46:	f0 91 5e 20 	lds	r31, 0x205E	; 0x80205e <tc_tcf0_cca_callback+0x1>
    1a4a:	30 97       	sbiw	r30, 0x00	; 0
    1a4c:	09 f0       	breq	.+2      	; 0x1a50 <__vector_110+0x42>
		tc_tcf0_cca_callback();
    1a4e:	19 95       	eicall
	}
}
    1a50:	ff 91       	pop	r31
    1a52:	ef 91       	pop	r30
    1a54:	bf 91       	pop	r27
    1a56:	af 91       	pop	r26
    1a58:	9f 91       	pop	r25
    1a5a:	8f 91       	pop	r24
    1a5c:	7f 91       	pop	r23
    1a5e:	6f 91       	pop	r22
    1a60:	5f 91       	pop	r21
    1a62:	4f 91       	pop	r20
    1a64:	3f 91       	pop	r19
    1a66:	2f 91       	pop	r18
    1a68:	0f 90       	pop	r0
    1a6a:	0b be       	out	0x3b, r0	; 59
    1a6c:	0f 90       	pop	r0
    1a6e:	09 be       	out	0x39, r0	; 57
    1a70:	0f 90       	pop	r0
    1a72:	08 be       	out	0x38, r0	; 56
    1a74:	0f 90       	pop	r0
    1a76:	0f be       	out	0x3f, r0	; 63
    1a78:	0f 90       	pop	r0
    1a7a:	1f 90       	pop	r1
    1a7c:	18 95       	reti

00001a7e <__vector_111>:
 *
 * This function will handle interrupt on Timer Counter F0 Compare/CaptureB and
 * call the callback function.
 */
ISR(TCF0_CCB_vect)
{
    1a7e:	1f 92       	push	r1
    1a80:	0f 92       	push	r0
    1a82:	0f b6       	in	r0, 0x3f	; 63
    1a84:	0f 92       	push	r0
    1a86:	11 24       	eor	r1, r1
    1a88:	08 b6       	in	r0, 0x38	; 56
    1a8a:	0f 92       	push	r0
    1a8c:	18 be       	out	0x38, r1	; 56
    1a8e:	09 b6       	in	r0, 0x39	; 57
    1a90:	0f 92       	push	r0
    1a92:	19 be       	out	0x39, r1	; 57
    1a94:	0b b6       	in	r0, 0x3b	; 59
    1a96:	0f 92       	push	r0
    1a98:	1b be       	out	0x3b, r1	; 59
    1a9a:	2f 93       	push	r18
    1a9c:	3f 93       	push	r19
    1a9e:	4f 93       	push	r20
    1aa0:	5f 93       	push	r21
    1aa2:	6f 93       	push	r22
    1aa4:	7f 93       	push	r23
    1aa6:	8f 93       	push	r24
    1aa8:	9f 93       	push	r25
    1aaa:	af 93       	push	r26
    1aac:	bf 93       	push	r27
    1aae:	ef 93       	push	r30
    1ab0:	ff 93       	push	r31
	if (tc_tcf0_ccb_callback) {
    1ab2:	e0 91 5b 20 	lds	r30, 0x205B	; 0x80205b <tc_tcf0_ccb_callback>
    1ab6:	f0 91 5c 20 	lds	r31, 0x205C	; 0x80205c <tc_tcf0_ccb_callback+0x1>
    1aba:	30 97       	sbiw	r30, 0x00	; 0
    1abc:	09 f0       	breq	.+2      	; 0x1ac0 <__vector_111+0x42>
		tc_tcf0_ccb_callback();
    1abe:	19 95       	eicall
	}
}
    1ac0:	ff 91       	pop	r31
    1ac2:	ef 91       	pop	r30
    1ac4:	bf 91       	pop	r27
    1ac6:	af 91       	pop	r26
    1ac8:	9f 91       	pop	r25
    1aca:	8f 91       	pop	r24
    1acc:	7f 91       	pop	r23
    1ace:	6f 91       	pop	r22
    1ad0:	5f 91       	pop	r21
    1ad2:	4f 91       	pop	r20
    1ad4:	3f 91       	pop	r19
    1ad6:	2f 91       	pop	r18
    1ad8:	0f 90       	pop	r0
    1ada:	0b be       	out	0x3b, r0	; 59
    1adc:	0f 90       	pop	r0
    1ade:	09 be       	out	0x39, r0	; 57
    1ae0:	0f 90       	pop	r0
    1ae2:	08 be       	out	0x38, r0	; 56
    1ae4:	0f 90       	pop	r0
    1ae6:	0f be       	out	0x3f, r0	; 63
    1ae8:	0f 90       	pop	r0
    1aea:	1f 90       	pop	r1
    1aec:	18 95       	reti

00001aee <__vector_112>:
 *
 * This function will handle interrupt on Timer Counter F0 Compare/CaptureC and
 * call the callback function.
 */
ISR(TCF0_CCC_vect)
{
    1aee:	1f 92       	push	r1
    1af0:	0f 92       	push	r0
    1af2:	0f b6       	in	r0, 0x3f	; 63
    1af4:	0f 92       	push	r0
    1af6:	11 24       	eor	r1, r1
    1af8:	08 b6       	in	r0, 0x38	; 56
    1afa:	0f 92       	push	r0
    1afc:	18 be       	out	0x38, r1	; 56
    1afe:	09 b6       	in	r0, 0x39	; 57
    1b00:	0f 92       	push	r0
    1b02:	19 be       	out	0x39, r1	; 57
    1b04:	0b b6       	in	r0, 0x3b	; 59
    1b06:	0f 92       	push	r0
    1b08:	1b be       	out	0x3b, r1	; 59
    1b0a:	2f 93       	push	r18
    1b0c:	3f 93       	push	r19
    1b0e:	4f 93       	push	r20
    1b10:	5f 93       	push	r21
    1b12:	6f 93       	push	r22
    1b14:	7f 93       	push	r23
    1b16:	8f 93       	push	r24
    1b18:	9f 93       	push	r25
    1b1a:	af 93       	push	r26
    1b1c:	bf 93       	push	r27
    1b1e:	ef 93       	push	r30
    1b20:	ff 93       	push	r31
	if (tc_tcf0_ccc_callback) {
    1b22:	e0 91 59 20 	lds	r30, 0x2059	; 0x802059 <tc_tcf0_ccc_callback>
    1b26:	f0 91 5a 20 	lds	r31, 0x205A	; 0x80205a <tc_tcf0_ccc_callback+0x1>
    1b2a:	30 97       	sbiw	r30, 0x00	; 0
    1b2c:	09 f0       	breq	.+2      	; 0x1b30 <__vector_112+0x42>
		tc_tcf0_ccc_callback();
    1b2e:	19 95       	eicall
	}
}
    1b30:	ff 91       	pop	r31
    1b32:	ef 91       	pop	r30
    1b34:	bf 91       	pop	r27
    1b36:	af 91       	pop	r26
    1b38:	9f 91       	pop	r25
    1b3a:	8f 91       	pop	r24
    1b3c:	7f 91       	pop	r23
    1b3e:	6f 91       	pop	r22
    1b40:	5f 91       	pop	r21
    1b42:	4f 91       	pop	r20
    1b44:	3f 91       	pop	r19
    1b46:	2f 91       	pop	r18
    1b48:	0f 90       	pop	r0
    1b4a:	0b be       	out	0x3b, r0	; 59
    1b4c:	0f 90       	pop	r0
    1b4e:	09 be       	out	0x39, r0	; 57
    1b50:	0f 90       	pop	r0
    1b52:	08 be       	out	0x38, r0	; 56
    1b54:	0f 90       	pop	r0
    1b56:	0f be       	out	0x3f, r0	; 63
    1b58:	0f 90       	pop	r0
    1b5a:	1f 90       	pop	r1
    1b5c:	18 95       	reti

00001b5e <__vector_113>:
 *
 * This function will handle interrupt on Timer Counter F0 Compare/CaptureD and
 * call the callback function.
 */
ISR(TCF0_CCD_vect)
{
    1b5e:	1f 92       	push	r1
    1b60:	0f 92       	push	r0
    1b62:	0f b6       	in	r0, 0x3f	; 63
    1b64:	0f 92       	push	r0
    1b66:	11 24       	eor	r1, r1
    1b68:	08 b6       	in	r0, 0x38	; 56
    1b6a:	0f 92       	push	r0
    1b6c:	18 be       	out	0x38, r1	; 56
    1b6e:	09 b6       	in	r0, 0x39	; 57
    1b70:	0f 92       	push	r0
    1b72:	19 be       	out	0x39, r1	; 57
    1b74:	0b b6       	in	r0, 0x3b	; 59
    1b76:	0f 92       	push	r0
    1b78:	1b be       	out	0x3b, r1	; 59
    1b7a:	2f 93       	push	r18
    1b7c:	3f 93       	push	r19
    1b7e:	4f 93       	push	r20
    1b80:	5f 93       	push	r21
    1b82:	6f 93       	push	r22
    1b84:	7f 93       	push	r23
    1b86:	8f 93       	push	r24
    1b88:	9f 93       	push	r25
    1b8a:	af 93       	push	r26
    1b8c:	bf 93       	push	r27
    1b8e:	ef 93       	push	r30
    1b90:	ff 93       	push	r31
	if (tc_tcf0_ccd_callback) {
    1b92:	e0 91 57 20 	lds	r30, 0x2057	; 0x802057 <tc_tcf0_ccd_callback>
    1b96:	f0 91 58 20 	lds	r31, 0x2058	; 0x802058 <tc_tcf0_ccd_callback+0x1>
    1b9a:	30 97       	sbiw	r30, 0x00	; 0
    1b9c:	09 f0       	breq	.+2      	; 0x1ba0 <__vector_113+0x42>
		tc_tcf0_ccd_callback();
    1b9e:	19 95       	eicall
	}
}
    1ba0:	ff 91       	pop	r31
    1ba2:	ef 91       	pop	r30
    1ba4:	bf 91       	pop	r27
    1ba6:	af 91       	pop	r26
    1ba8:	9f 91       	pop	r25
    1baa:	8f 91       	pop	r24
    1bac:	7f 91       	pop	r23
    1bae:	6f 91       	pop	r22
    1bb0:	5f 91       	pop	r21
    1bb2:	4f 91       	pop	r20
    1bb4:	3f 91       	pop	r19
    1bb6:	2f 91       	pop	r18
    1bb8:	0f 90       	pop	r0
    1bba:	0b be       	out	0x3b, r0	; 59
    1bbc:	0f 90       	pop	r0
    1bbe:	09 be       	out	0x39, r0	; 57
    1bc0:	0f 90       	pop	r0
    1bc2:	08 be       	out	0x38, r0	; 56
    1bc4:	0f 90       	pop	r0
    1bc6:	0f be       	out	0x3f, r0	; 63
    1bc8:	0f 90       	pop	r0
    1bca:	1f 90       	pop	r1
    1bcc:	18 95       	reti

00001bce <__vector_114>:
 *
 * This function will handle interrupt on Timer Counter F1 overflow and
 * call the callback function.
 */
ISR(TCF1_OVF_vect)
{
    1bce:	1f 92       	push	r1
    1bd0:	0f 92       	push	r0
    1bd2:	0f b6       	in	r0, 0x3f	; 63
    1bd4:	0f 92       	push	r0
    1bd6:	11 24       	eor	r1, r1
    1bd8:	08 b6       	in	r0, 0x38	; 56
    1bda:	0f 92       	push	r0
    1bdc:	18 be       	out	0x38, r1	; 56
    1bde:	09 b6       	in	r0, 0x39	; 57
    1be0:	0f 92       	push	r0
    1be2:	19 be       	out	0x39, r1	; 57
    1be4:	0b b6       	in	r0, 0x3b	; 59
    1be6:	0f 92       	push	r0
    1be8:	1b be       	out	0x3b, r1	; 59
    1bea:	2f 93       	push	r18
    1bec:	3f 93       	push	r19
    1bee:	4f 93       	push	r20
    1bf0:	5f 93       	push	r21
    1bf2:	6f 93       	push	r22
    1bf4:	7f 93       	push	r23
    1bf6:	8f 93       	push	r24
    1bf8:	9f 93       	push	r25
    1bfa:	af 93       	push	r26
    1bfc:	bf 93       	push	r27
    1bfe:	ef 93       	push	r30
    1c00:	ff 93       	push	r31
	if (tc_tcf1_ovf_callback) {
    1c02:	e0 91 55 20 	lds	r30, 0x2055	; 0x802055 <tc_tcf1_ovf_callback>
    1c06:	f0 91 56 20 	lds	r31, 0x2056	; 0x802056 <tc_tcf1_ovf_callback+0x1>
    1c0a:	30 97       	sbiw	r30, 0x00	; 0
    1c0c:	09 f0       	breq	.+2      	; 0x1c10 <__vector_114+0x42>
		tc_tcf1_ovf_callback();
    1c0e:	19 95       	eicall
	}
}
    1c10:	ff 91       	pop	r31
    1c12:	ef 91       	pop	r30
    1c14:	bf 91       	pop	r27
    1c16:	af 91       	pop	r26
    1c18:	9f 91       	pop	r25
    1c1a:	8f 91       	pop	r24
    1c1c:	7f 91       	pop	r23
    1c1e:	6f 91       	pop	r22
    1c20:	5f 91       	pop	r21
    1c22:	4f 91       	pop	r20
    1c24:	3f 91       	pop	r19
    1c26:	2f 91       	pop	r18
    1c28:	0f 90       	pop	r0
    1c2a:	0b be       	out	0x3b, r0	; 59
    1c2c:	0f 90       	pop	r0
    1c2e:	09 be       	out	0x39, r0	; 57
    1c30:	0f 90       	pop	r0
    1c32:	08 be       	out	0x38, r0	; 56
    1c34:	0f 90       	pop	r0
    1c36:	0f be       	out	0x3f, r0	; 63
    1c38:	0f 90       	pop	r0
    1c3a:	1f 90       	pop	r1
    1c3c:	18 95       	reti

00001c3e <__vector_115>:
 *
 * This function will handle interrupt on Timer Counter F1 error and
 * call the callback function.
 */
ISR(TCF1_ERR_vect)
{
    1c3e:	1f 92       	push	r1
    1c40:	0f 92       	push	r0
    1c42:	0f b6       	in	r0, 0x3f	; 63
    1c44:	0f 92       	push	r0
    1c46:	11 24       	eor	r1, r1
    1c48:	08 b6       	in	r0, 0x38	; 56
    1c4a:	0f 92       	push	r0
    1c4c:	18 be       	out	0x38, r1	; 56
    1c4e:	09 b6       	in	r0, 0x39	; 57
    1c50:	0f 92       	push	r0
    1c52:	19 be       	out	0x39, r1	; 57
    1c54:	0b b6       	in	r0, 0x3b	; 59
    1c56:	0f 92       	push	r0
    1c58:	1b be       	out	0x3b, r1	; 59
    1c5a:	2f 93       	push	r18
    1c5c:	3f 93       	push	r19
    1c5e:	4f 93       	push	r20
    1c60:	5f 93       	push	r21
    1c62:	6f 93       	push	r22
    1c64:	7f 93       	push	r23
    1c66:	8f 93       	push	r24
    1c68:	9f 93       	push	r25
    1c6a:	af 93       	push	r26
    1c6c:	bf 93       	push	r27
    1c6e:	ef 93       	push	r30
    1c70:	ff 93       	push	r31
	if (tc_tcf1_err_callback) {
    1c72:	e0 91 53 20 	lds	r30, 0x2053	; 0x802053 <tc_tcf1_err_callback>
    1c76:	f0 91 54 20 	lds	r31, 0x2054	; 0x802054 <tc_tcf1_err_callback+0x1>
    1c7a:	30 97       	sbiw	r30, 0x00	; 0
    1c7c:	09 f0       	breq	.+2      	; 0x1c80 <__vector_115+0x42>
		tc_tcf1_err_callback();
    1c7e:	19 95       	eicall
	}
}
    1c80:	ff 91       	pop	r31
    1c82:	ef 91       	pop	r30
    1c84:	bf 91       	pop	r27
    1c86:	af 91       	pop	r26
    1c88:	9f 91       	pop	r25
    1c8a:	8f 91       	pop	r24
    1c8c:	7f 91       	pop	r23
    1c8e:	6f 91       	pop	r22
    1c90:	5f 91       	pop	r21
    1c92:	4f 91       	pop	r20
    1c94:	3f 91       	pop	r19
    1c96:	2f 91       	pop	r18
    1c98:	0f 90       	pop	r0
    1c9a:	0b be       	out	0x3b, r0	; 59
    1c9c:	0f 90       	pop	r0
    1c9e:	09 be       	out	0x39, r0	; 57
    1ca0:	0f 90       	pop	r0
    1ca2:	08 be       	out	0x38, r0	; 56
    1ca4:	0f 90       	pop	r0
    1ca6:	0f be       	out	0x3f, r0	; 63
    1ca8:	0f 90       	pop	r0
    1caa:	1f 90       	pop	r1
    1cac:	18 95       	reti

00001cae <__vector_116>:
 *
 * This function will handle interrupt on Timer Counter F1 Compare/CaptureA and
 * call the callback function.
 */
ISR(TCF1_CCA_vect)
{
    1cae:	1f 92       	push	r1
    1cb0:	0f 92       	push	r0
    1cb2:	0f b6       	in	r0, 0x3f	; 63
    1cb4:	0f 92       	push	r0
    1cb6:	11 24       	eor	r1, r1
    1cb8:	08 b6       	in	r0, 0x38	; 56
    1cba:	0f 92       	push	r0
    1cbc:	18 be       	out	0x38, r1	; 56
    1cbe:	09 b6       	in	r0, 0x39	; 57
    1cc0:	0f 92       	push	r0
    1cc2:	19 be       	out	0x39, r1	; 57
    1cc4:	0b b6       	in	r0, 0x3b	; 59
    1cc6:	0f 92       	push	r0
    1cc8:	1b be       	out	0x3b, r1	; 59
    1cca:	2f 93       	push	r18
    1ccc:	3f 93       	push	r19
    1cce:	4f 93       	push	r20
    1cd0:	5f 93       	push	r21
    1cd2:	6f 93       	push	r22
    1cd4:	7f 93       	push	r23
    1cd6:	8f 93       	push	r24
    1cd8:	9f 93       	push	r25
    1cda:	af 93       	push	r26
    1cdc:	bf 93       	push	r27
    1cde:	ef 93       	push	r30
    1ce0:	ff 93       	push	r31
	if (tc_tcf1_cca_callback) {
    1ce2:	e0 91 51 20 	lds	r30, 0x2051	; 0x802051 <tc_tcf1_cca_callback>
    1ce6:	f0 91 52 20 	lds	r31, 0x2052	; 0x802052 <tc_tcf1_cca_callback+0x1>
    1cea:	30 97       	sbiw	r30, 0x00	; 0
    1cec:	09 f0       	breq	.+2      	; 0x1cf0 <__vector_116+0x42>
		tc_tcf1_cca_callback();
    1cee:	19 95       	eicall
	}
}
    1cf0:	ff 91       	pop	r31
    1cf2:	ef 91       	pop	r30
    1cf4:	bf 91       	pop	r27
    1cf6:	af 91       	pop	r26
    1cf8:	9f 91       	pop	r25
    1cfa:	8f 91       	pop	r24
    1cfc:	7f 91       	pop	r23
    1cfe:	6f 91       	pop	r22
    1d00:	5f 91       	pop	r21
    1d02:	4f 91       	pop	r20
    1d04:	3f 91       	pop	r19
    1d06:	2f 91       	pop	r18
    1d08:	0f 90       	pop	r0
    1d0a:	0b be       	out	0x3b, r0	; 59
    1d0c:	0f 90       	pop	r0
    1d0e:	09 be       	out	0x39, r0	; 57
    1d10:	0f 90       	pop	r0
    1d12:	08 be       	out	0x38, r0	; 56
    1d14:	0f 90       	pop	r0
    1d16:	0f be       	out	0x3f, r0	; 63
    1d18:	0f 90       	pop	r0
    1d1a:	1f 90       	pop	r1
    1d1c:	18 95       	reti

00001d1e <__vector_117>:
 *
 * This function will handle interrupt on Timer Counter F1 Compare/CaptureB and
 * call the callback function.
 */
ISR(TCF1_CCB_vect)
{
    1d1e:	1f 92       	push	r1
    1d20:	0f 92       	push	r0
    1d22:	0f b6       	in	r0, 0x3f	; 63
    1d24:	0f 92       	push	r0
    1d26:	11 24       	eor	r1, r1
    1d28:	08 b6       	in	r0, 0x38	; 56
    1d2a:	0f 92       	push	r0
    1d2c:	18 be       	out	0x38, r1	; 56
    1d2e:	09 b6       	in	r0, 0x39	; 57
    1d30:	0f 92       	push	r0
    1d32:	19 be       	out	0x39, r1	; 57
    1d34:	0b b6       	in	r0, 0x3b	; 59
    1d36:	0f 92       	push	r0
    1d38:	1b be       	out	0x3b, r1	; 59
    1d3a:	2f 93       	push	r18
    1d3c:	3f 93       	push	r19
    1d3e:	4f 93       	push	r20
    1d40:	5f 93       	push	r21
    1d42:	6f 93       	push	r22
    1d44:	7f 93       	push	r23
    1d46:	8f 93       	push	r24
    1d48:	9f 93       	push	r25
    1d4a:	af 93       	push	r26
    1d4c:	bf 93       	push	r27
    1d4e:	ef 93       	push	r30
    1d50:	ff 93       	push	r31
	if (tc_tcf1_ccb_callback) {
    1d52:	e0 91 4f 20 	lds	r30, 0x204F	; 0x80204f <tc_tcf1_ccb_callback>
    1d56:	f0 91 50 20 	lds	r31, 0x2050	; 0x802050 <tc_tcf1_ccb_callback+0x1>
    1d5a:	30 97       	sbiw	r30, 0x00	; 0
    1d5c:	09 f0       	breq	.+2      	; 0x1d60 <__vector_117+0x42>
		tc_tcf1_ccb_callback();
    1d5e:	19 95       	eicall
	}
}
    1d60:	ff 91       	pop	r31
    1d62:	ef 91       	pop	r30
    1d64:	bf 91       	pop	r27
    1d66:	af 91       	pop	r26
    1d68:	9f 91       	pop	r25
    1d6a:	8f 91       	pop	r24
    1d6c:	7f 91       	pop	r23
    1d6e:	6f 91       	pop	r22
    1d70:	5f 91       	pop	r21
    1d72:	4f 91       	pop	r20
    1d74:	3f 91       	pop	r19
    1d76:	2f 91       	pop	r18
    1d78:	0f 90       	pop	r0
    1d7a:	0b be       	out	0x3b, r0	; 59
    1d7c:	0f 90       	pop	r0
    1d7e:	09 be       	out	0x39, r0	; 57
    1d80:	0f 90       	pop	r0
    1d82:	08 be       	out	0x38, r0	; 56
    1d84:	0f 90       	pop	r0
    1d86:	0f be       	out	0x3f, r0	; 63
    1d88:	0f 90       	pop	r0
    1d8a:	1f 90       	pop	r1
    1d8c:	18 95       	reti

00001d8e <usart_putchar>:

	if (baud_offset != USART_BAUD_UNDEFINED) {
		(usart)->BAUDCTRLB = (uint8_t)((uint16_t)baudctrl);
		(usart)->BAUDCTRLA = (uint8_t)((uint16_t)baudctrl >> 8);
	}
}
    1d8e:	fc 01       	movw	r30, r24
    1d90:	91 81       	ldd	r25, Z+1	; 0x01
    1d92:	95 ff       	sbrs	r25, 5
    1d94:	fd cf       	rjmp	.-6      	; 0x1d90 <usart_putchar+0x2>
    1d96:	60 83       	st	Z, r22
    1d98:	80 e0       	ldi	r24, 0x00	; 0
    1d9a:	90 e0       	ldi	r25, 0x00	; 0
    1d9c:	08 95       	ret

00001d9e <usart_getchar>:
    1d9e:	fc 01       	movw	r30, r24
    1da0:	91 81       	ldd	r25, Z+1	; 0x01
    1da2:	99 23       	and	r25, r25
    1da4:	ec f7       	brge	.-6      	; 0x1da0 <usart_getchar+0x2>
    1da6:	80 81       	ld	r24, Z
    1da8:	08 95       	ret

00001daa <usart_set_baudrate>:
 * \retval true if the hardware supports the baud rate
 * \retval false if the hardware does not support the baud rate (i.e. it's
 *               either too high or too low.)
 */
bool usart_set_baudrate(USART_t *usart, uint32_t baud, uint32_t cpu_hz)
{
    1daa:	4f 92       	push	r4
    1dac:	5f 92       	push	r5
    1dae:	6f 92       	push	r6
    1db0:	7f 92       	push	r7
    1db2:	8f 92       	push	r8
    1db4:	9f 92       	push	r9
    1db6:	af 92       	push	r10
    1db8:	bf 92       	push	r11
    1dba:	ef 92       	push	r14
    1dbc:	ff 92       	push	r15
    1dbe:	0f 93       	push	r16
    1dc0:	1f 93       	push	r17
    1dc2:	cf 93       	push	r28
    1dc4:	7c 01       	movw	r14, r24
    1dc6:	4a 01       	movw	r8, r20
    1dc8:	5b 01       	movw	r10, r22
    1dca:	28 01       	movw	r4, r16
    1dcc:	39 01       	movw	r6, r18
	/* 8 = (2^0) * 8 * (2^0) = (2^BSCALE_MIN) * 8 * (BSEL_MIN) */
	max_rate = cpu_hz / 8;
	/* 4194304 = (2^7) * 8 * (2^12) = (2^BSCALE_MAX) * 8 * (BSEL_MAX+1) */
	min_rate = cpu_hz / 4194304;

	if (!((usart)->CTRLB & USART_CLK2X_bm)) {
    1dce:	fc 01       	movw	r30, r24
    1dd0:	84 81       	ldd	r24, Z+4	; 0x04
    1dd2:	82 ff       	sbrs	r24, 2
    1dd4:	16 c0       	rjmp	.+44     	; 0x1e02 <usart_set_baudrate+0x58>

	/*
	 * Check if the hardware supports the given baud rate
	 */
	/* 8 = (2^0) * 8 * (2^0) = (2^BSCALE_MIN) * 8 * (BSEL_MIN) */
	max_rate = cpu_hz / 8;
    1dd6:	d9 01       	movw	r26, r18
    1dd8:	c8 01       	movw	r24, r16
    1dda:	68 94       	set
    1ddc:	12 f8       	bld	r1, 2
    1dde:	b6 95       	lsr	r27
    1de0:	a7 95       	ror	r26
    1de2:	97 95       	ror	r25
    1de4:	87 95       	ror	r24
    1de6:	16 94       	lsr	r1
    1de8:	d1 f7       	brne	.-12     	; 0x1dde <usart_set_baudrate+0x34>
	/* 4194304 = (2^7) * 8 * (2^12) = (2^BSCALE_MAX) * 8 * (BSEL_MAX+1) */
	min_rate = cpu_hz / 4194304;
    1dea:	b9 01       	movw	r22, r18
    1dec:	a8 01       	movw	r20, r16
    1dee:	03 2e       	mov	r0, r19
    1df0:	36 e1       	ldi	r19, 0x16	; 22
    1df2:	76 95       	lsr	r23
    1df4:	67 95       	ror	r22
    1df6:	57 95       	ror	r21
    1df8:	47 95       	ror	r20
    1dfa:	3a 95       	dec	r19
    1dfc:	d1 f7       	brne	.-12     	; 0x1df2 <usart_set_baudrate+0x48>
    1dfe:	30 2d       	mov	r19, r0
    1e00:	15 c0       	rjmp	.+42     	; 0x1e2c <usart_set_baudrate+0x82>

	if (!((usart)->CTRLB & USART_CLK2X_bm)) {
		max_rate /= 2;
    1e02:	d9 01       	movw	r26, r18
    1e04:	c8 01       	movw	r24, r16
    1e06:	68 94       	set
    1e08:	13 f8       	bld	r1, 3
    1e0a:	b6 95       	lsr	r27
    1e0c:	a7 95       	ror	r26
    1e0e:	97 95       	ror	r25
    1e10:	87 95       	ror	r24
    1e12:	16 94       	lsr	r1
    1e14:	d1 f7       	brne	.-12     	; 0x1e0a <usart_set_baudrate+0x60>
		min_rate /= 2;
    1e16:	b9 01       	movw	r22, r18
    1e18:	a8 01       	movw	r20, r16
    1e1a:	03 2e       	mov	r0, r19
    1e1c:	37 e1       	ldi	r19, 0x17	; 23
    1e1e:	76 95       	lsr	r23
    1e20:	67 95       	ror	r22
    1e22:	57 95       	ror	r21
    1e24:	47 95       	ror	r20
    1e26:	3a 95       	dec	r19
    1e28:	d1 f7       	brne	.-12     	; 0x1e1e <usart_set_baudrate+0x74>
    1e2a:	30 2d       	mov	r19, r0
	}

	if ((baud > max_rate) || (baud < min_rate)) {
    1e2c:	88 15       	cp	r24, r8
    1e2e:	99 05       	cpc	r25, r9
    1e30:	aa 05       	cpc	r26, r10
    1e32:	bb 05       	cpc	r27, r11
    1e34:	08 f4       	brcc	.+2      	; 0x1e38 <usart_set_baudrate+0x8e>
    1e36:	a6 c0       	rjmp	.+332    	; 0x1f84 <usart_set_baudrate+0x1da>
    1e38:	84 16       	cp	r8, r20
    1e3a:	95 06       	cpc	r9, r21
    1e3c:	a6 06       	cpc	r10, r22
    1e3e:	b7 06       	cpc	r11, r23
    1e40:	08 f4       	brcc	.+2      	; 0x1e44 <usart_set_baudrate+0x9a>
    1e42:	a2 c0       	rjmp	.+324    	; 0x1f88 <usart_set_baudrate+0x1de>
		return false;
	}

	/* Check if double speed is enabled. */
	if (!((usart)->CTRLB & USART_CLK2X_bm)) {
    1e44:	f7 01       	movw	r30, r14
    1e46:	84 81       	ldd	r24, Z+4	; 0x04
    1e48:	82 fd       	sbrc	r24, 2
    1e4a:	04 c0       	rjmp	.+8      	; 0x1e54 <usart_set_baudrate+0xaa>
		baud *= 2;
    1e4c:	88 0c       	add	r8, r8
    1e4e:	99 1c       	adc	r9, r9
    1e50:	aa 1c       	adc	r10, r10
    1e52:	bb 1c       	adc	r11, r11
	}

	/* Find the lowest possible exponent. */
	limit = 0xfffU >> 4;
	ratio = cpu_hz / baud;
    1e54:	c3 01       	movw	r24, r6
    1e56:	b2 01       	movw	r22, r4
    1e58:	a5 01       	movw	r20, r10
    1e5a:	94 01       	movw	r18, r8
    1e5c:	0e 94 5c 1f 	call	0x3eb8	; 0x3eb8 <__udivmodsi4>

	for (exp = -7; exp < 7; exp++) {
		if (ratio < limit) {
    1e60:	2f 3f       	cpi	r18, 0xFF	; 255
    1e62:	31 05       	cpc	r19, r1
    1e64:	41 05       	cpc	r20, r1
    1e66:	51 05       	cpc	r21, r1
    1e68:	08 f4       	brcc	.+2      	; 0x1e6c <usart_set_baudrate+0xc2>
    1e6a:	90 c0       	rjmp	.+288    	; 0x1f8c <usart_set_baudrate+0x1e2>
    1e6c:	8f ef       	ldi	r24, 0xFF	; 255
    1e6e:	90 e0       	ldi	r25, 0x00	; 0
    1e70:	a0 e0       	ldi	r26, 0x00	; 0
    1e72:	b0 e0       	ldi	r27, 0x00	; 0
    1e74:	c9 ef       	ldi	r28, 0xF9	; 249
    1e76:	05 c0       	rjmp	.+10     	; 0x1e82 <usart_set_baudrate+0xd8>
    1e78:	28 17       	cp	r18, r24
    1e7a:	39 07       	cpc	r19, r25
    1e7c:	4a 07       	cpc	r20, r26
    1e7e:	5b 07       	cpc	r21, r27
    1e80:	58 f0       	brcs	.+22     	; 0x1e98 <usart_set_baudrate+0xee>
			break;
		}

		limit <<= 1;
    1e82:	88 0f       	add	r24, r24
    1e84:	99 1f       	adc	r25, r25
    1e86:	aa 1f       	adc	r26, r26
    1e88:	bb 1f       	adc	r27, r27

		if (exp < -3) {
    1e8a:	cd 3f       	cpi	r28, 0xFD	; 253
    1e8c:	0c f4       	brge	.+2      	; 0x1e90 <usart_set_baudrate+0xe6>
			limit |= 1;
    1e8e:	81 60       	ori	r24, 0x01	; 1
    1e90:	cf 5f       	subi	r28, 0xFF	; 255

	/* Find the lowest possible exponent. */
	limit = 0xfffU >> 4;
	ratio = cpu_hz / baud;

	for (exp = -7; exp < 7; exp++) {
    1e92:	c7 30       	cpi	r28, 0x07	; 7
    1e94:	89 f7       	brne	.-30     	; 0x1e78 <usart_set_baudrate+0xce>
    1e96:	4f c0       	rjmp	.+158    	; 0x1f36 <usart_set_baudrate+0x18c>
	 * point.
	 *
	 * The formula for calculating BSEL is slightly different when exp is
	 * negative than it is when exp is positive.
	 */
	if (exp < 0) {
    1e98:	cc 23       	and	r28, r28
    1e9a:	0c f0       	brlt	.+2      	; 0x1e9e <usart_set_baudrate+0xf4>
    1e9c:	4c c0       	rjmp	.+152    	; 0x1f36 <usart_set_baudrate+0x18c>
		/* We are supposed to subtract 1, then apply BSCALE. We want to
		 * apply BSCALE first, so we need to turn everything inside the
		 * parenthesis into a single fractional expression.
		 */
		cpu_hz -= 8 * baud;
    1e9e:	d5 01       	movw	r26, r10
    1ea0:	c4 01       	movw	r24, r8
    1ea2:	88 0f       	add	r24, r24
    1ea4:	99 1f       	adc	r25, r25
    1ea6:	aa 1f       	adc	r26, r26
    1ea8:	bb 1f       	adc	r27, r27
    1eaa:	88 0f       	add	r24, r24
    1eac:	99 1f       	adc	r25, r25
    1eae:	aa 1f       	adc	r26, r26
    1eb0:	bb 1f       	adc	r27, r27
    1eb2:	88 0f       	add	r24, r24
    1eb4:	99 1f       	adc	r25, r25
    1eb6:	aa 1f       	adc	r26, r26
    1eb8:	bb 1f       	adc	r27, r27
    1eba:	48 1a       	sub	r4, r24
    1ebc:	59 0a       	sbc	r5, r25
    1ebe:	6a 0a       	sbc	r6, r26
    1ec0:	7b 0a       	sbc	r7, r27
		/* If we end up with a left-shift after taking the final
		 * divide-by-8 into account, do the shift before the divide.
		 * Otherwise, left-shift the denominator instead (effectively
		 * resulting in an overall right shift.)
		 */
		if (exp <= -3) {
    1ec2:	ce 3f       	cpi	r28, 0xFE	; 254
    1ec4:	f4 f4       	brge	.+60     	; 0x1f02 <usart_set_baudrate+0x158>
			div = ((cpu_hz << (-exp - 3)) + baud / 2) / baud;
    1ec6:	8d ef       	ldi	r24, 0xFD	; 253
    1ec8:	9f ef       	ldi	r25, 0xFF	; 255
    1eca:	8c 1b       	sub	r24, r28
    1ecc:	91 09       	sbc	r25, r1
    1ece:	c7 fd       	sbrc	r28, 7
    1ed0:	93 95       	inc	r25
    1ed2:	04 c0       	rjmp	.+8      	; 0x1edc <usart_set_baudrate+0x132>
    1ed4:	44 0c       	add	r4, r4
    1ed6:	55 1c       	adc	r5, r5
    1ed8:	66 1c       	adc	r6, r6
    1eda:	77 1c       	adc	r7, r7
    1edc:	8a 95       	dec	r24
    1ede:	d2 f7       	brpl	.-12     	; 0x1ed4 <usart_set_baudrate+0x12a>
    1ee0:	d5 01       	movw	r26, r10
    1ee2:	c4 01       	movw	r24, r8
    1ee4:	b6 95       	lsr	r27
    1ee6:	a7 95       	ror	r26
    1ee8:	97 95       	ror	r25
    1eea:	87 95       	ror	r24
    1eec:	bc 01       	movw	r22, r24
    1eee:	cd 01       	movw	r24, r26
    1ef0:	64 0d       	add	r22, r4
    1ef2:	75 1d       	adc	r23, r5
    1ef4:	86 1d       	adc	r24, r6
    1ef6:	97 1d       	adc	r25, r7
    1ef8:	a5 01       	movw	r20, r10
    1efa:	94 01       	movw	r18, r8
    1efc:	0e 94 5c 1f 	call	0x3eb8	; 0x3eb8 <__udivmodsi4>
    1f00:	37 c0       	rjmp	.+110    	; 0x1f70 <usart_set_baudrate+0x1c6>
		} else {
			baud <<= exp + 3;
    1f02:	83 e0       	ldi	r24, 0x03	; 3
    1f04:	8c 0f       	add	r24, r28
    1f06:	a5 01       	movw	r20, r10
    1f08:	94 01       	movw	r18, r8
    1f0a:	04 c0       	rjmp	.+8      	; 0x1f14 <usart_set_baudrate+0x16a>
    1f0c:	22 0f       	add	r18, r18
    1f0e:	33 1f       	adc	r19, r19
    1f10:	44 1f       	adc	r20, r20
    1f12:	55 1f       	adc	r21, r21
    1f14:	8a 95       	dec	r24
    1f16:	d2 f7       	brpl	.-12     	; 0x1f0c <usart_set_baudrate+0x162>
			div = (cpu_hz + baud / 2) / baud;
    1f18:	da 01       	movw	r26, r20
    1f1a:	c9 01       	movw	r24, r18
    1f1c:	b6 95       	lsr	r27
    1f1e:	a7 95       	ror	r26
    1f20:	97 95       	ror	r25
    1f22:	87 95       	ror	r24
    1f24:	bc 01       	movw	r22, r24
    1f26:	cd 01       	movw	r24, r26
    1f28:	64 0d       	add	r22, r4
    1f2a:	75 1d       	adc	r23, r5
    1f2c:	86 1d       	adc	r24, r6
    1f2e:	97 1d       	adc	r25, r7
    1f30:	0e 94 5c 1f 	call	0x3eb8	; 0x3eb8 <__udivmodsi4>
    1f34:	1d c0       	rjmp	.+58     	; 0x1f70 <usart_set_baudrate+0x1c6>
		}
	} else {
		/* We will always do a right shift in this case, but we need to
		 * shift three extra positions because of the divide-by-8.
		 */
		baud <<= exp + 3;
    1f36:	83 e0       	ldi	r24, 0x03	; 3
    1f38:	8c 0f       	add	r24, r28
    1f3a:	a5 01       	movw	r20, r10
    1f3c:	94 01       	movw	r18, r8
    1f3e:	04 c0       	rjmp	.+8      	; 0x1f48 <usart_set_baudrate+0x19e>
    1f40:	22 0f       	add	r18, r18
    1f42:	33 1f       	adc	r19, r19
    1f44:	44 1f       	adc	r20, r20
    1f46:	55 1f       	adc	r21, r21
    1f48:	8a 95       	dec	r24
    1f4a:	d2 f7       	brpl	.-12     	; 0x1f40 <usart_set_baudrate+0x196>
		div = (cpu_hz + baud / 2) / baud - 1;
    1f4c:	da 01       	movw	r26, r20
    1f4e:	c9 01       	movw	r24, r18
    1f50:	b6 95       	lsr	r27
    1f52:	a7 95       	ror	r26
    1f54:	97 95       	ror	r25
    1f56:	87 95       	ror	r24
    1f58:	bc 01       	movw	r22, r24
    1f5a:	cd 01       	movw	r24, r26
    1f5c:	64 0d       	add	r22, r4
    1f5e:	75 1d       	adc	r23, r5
    1f60:	86 1d       	adc	r24, r6
    1f62:	97 1d       	adc	r25, r7
    1f64:	0e 94 5c 1f 	call	0x3eb8	; 0x3eb8 <__udivmodsi4>
    1f68:	21 50       	subi	r18, 0x01	; 1
    1f6a:	31 09       	sbc	r19, r1
    1f6c:	41 09       	sbc	r20, r1
    1f6e:	51 09       	sbc	r21, r1
	}

	(usart)->BAUDCTRLB = (uint8_t)(((div >> 8) & 0X0F) | (exp << 4));
    1f70:	83 2f       	mov	r24, r19
    1f72:	8f 70       	andi	r24, 0x0F	; 15
    1f74:	c2 95       	swap	r28
    1f76:	c0 7f       	andi	r28, 0xF0	; 240
    1f78:	c8 2b       	or	r28, r24
    1f7a:	f7 01       	movw	r30, r14
    1f7c:	c7 83       	std	Z+7, r28	; 0x07
	(usart)->BAUDCTRLA = (uint8_t)div;
    1f7e:	26 83       	std	Z+6, r18	; 0x06

	return true;
    1f80:	81 e0       	ldi	r24, 0x01	; 1
    1f82:	18 c0       	rjmp	.+48     	; 0x1fb4 <usart_set_baudrate+0x20a>
		max_rate /= 2;
		min_rate /= 2;
	}

	if ((baud > max_rate) || (baud < min_rate)) {
		return false;
    1f84:	80 e0       	ldi	r24, 0x00	; 0
    1f86:	16 c0       	rjmp	.+44     	; 0x1fb4 <usart_set_baudrate+0x20a>
    1f88:	80 e0       	ldi	r24, 0x00	; 0
    1f8a:	14 c0       	rjmp	.+40     	; 0x1fb4 <usart_set_baudrate+0x20a>
	if (exp < 0) {
		/* We are supposed to subtract 1, then apply BSCALE. We want to
		 * apply BSCALE first, so we need to turn everything inside the
		 * parenthesis into a single fractional expression.
		 */
		cpu_hz -= 8 * baud;
    1f8c:	d5 01       	movw	r26, r10
    1f8e:	c4 01       	movw	r24, r8
    1f90:	88 0f       	add	r24, r24
    1f92:	99 1f       	adc	r25, r25
    1f94:	aa 1f       	adc	r26, r26
    1f96:	bb 1f       	adc	r27, r27
    1f98:	88 0f       	add	r24, r24
    1f9a:	99 1f       	adc	r25, r25
    1f9c:	aa 1f       	adc	r26, r26
    1f9e:	bb 1f       	adc	r27, r27
    1fa0:	88 0f       	add	r24, r24
    1fa2:	99 1f       	adc	r25, r25
    1fa4:	aa 1f       	adc	r26, r26
    1fa6:	bb 1f       	adc	r27, r27
    1fa8:	48 1a       	sub	r4, r24
    1faa:	59 0a       	sbc	r5, r25
    1fac:	6a 0a       	sbc	r6, r26
    1fae:	7b 0a       	sbc	r7, r27

	/* Find the lowest possible exponent. */
	limit = 0xfffU >> 4;
	ratio = cpu_hz / baud;

	for (exp = -7; exp < 7; exp++) {
    1fb0:	c9 ef       	ldi	r28, 0xF9	; 249
    1fb2:	89 cf       	rjmp	.-238    	; 0x1ec6 <usart_set_baudrate+0x11c>

	(usart)->BAUDCTRLB = (uint8_t)(((div >> 8) & 0X0F) | (exp << 4));
	(usart)->BAUDCTRLA = (uint8_t)div;

	return true;
}
    1fb4:	cf 91       	pop	r28
    1fb6:	1f 91       	pop	r17
    1fb8:	0f 91       	pop	r16
    1fba:	ff 90       	pop	r15
    1fbc:	ef 90       	pop	r14
    1fbe:	bf 90       	pop	r11
    1fc0:	af 90       	pop	r10
    1fc2:	9f 90       	pop	r9
    1fc4:	8f 90       	pop	r8
    1fc6:	7f 90       	pop	r7
    1fc8:	6f 90       	pop	r6
    1fca:	5f 90       	pop	r5
    1fcc:	4f 90       	pop	r4
    1fce:	08 95       	ret

00001fd0 <usart_init_rs232>:
 *
 * \retval true if the initialization was successfull
 * \retval false if the initialization failed (error in baud rate calculation)
 */
bool usart_init_rs232(USART_t *usart, const usart_rs232_options_t *opt)
{
    1fd0:	0f 93       	push	r16
    1fd2:	1f 93       	push	r17
    1fd4:	cf 93       	push	r28
    1fd6:	df 93       	push	r29
    1fd8:	ec 01       	movw	r28, r24
    1fda:	8b 01       	movw	r16, r22
 *
 * \param module Pointer to the module's base address.
 */
static inline void sysclk_enable_peripheral_clock(const volatile void *module)
{
	if (module == NULL) {
    1fdc:	00 97       	sbiw	r24, 0x00	; 0
    1fde:	09 f4       	brne	.+2      	; 0x1fe2 <usart_init_rs232+0x12>
    1fe0:	5d c1       	rjmp	.+698    	; 0x229c <usart_init_rs232+0x2cc>
		Assert(false);
	}
#ifdef AES
	else if (module == &AES) {
    1fe2:	80 3c       	cpi	r24, 0xC0	; 192
    1fe4:	91 05       	cpc	r25, r1
    1fe6:	29 f4       	brne	.+10     	; 0x1ff2 <usart_init_rs232+0x22>
		sysclk_enable_module(SYSCLK_PORT_GEN, SYSCLK_AES);
    1fe8:	60 e1       	ldi	r22, 0x10	; 16
    1fea:	80 e0       	ldi	r24, 0x00	; 0
    1fec:	0e 94 ce 03 	call	0x79c	; 0x79c <sysclk_enable_module>
    1ff0:	55 c1       	rjmp	.+682    	; 0x229c <usart_init_rs232+0x2cc>
	}
#endif
#ifdef EBI
	else if (module == &EBI) {
    1ff2:	c0 34       	cpi	r28, 0x40	; 64
    1ff4:	84 e0       	ldi	r24, 0x04	; 4
    1ff6:	d8 07       	cpc	r29, r24
    1ff8:	29 f4       	brne	.+10     	; 0x2004 <usart_init_rs232+0x34>
		sysclk_enable_module(SYSCLK_PORT_GEN, SYSCLK_EBI);
    1ffa:	68 e0       	ldi	r22, 0x08	; 8
    1ffc:	80 e0       	ldi	r24, 0x00	; 0
    1ffe:	0e 94 ce 03 	call	0x79c	; 0x79c <sysclk_enable_module>
    2002:	4c c1       	rjmp	.+664    	; 0x229c <usart_init_rs232+0x2cc>
	}
#endif
#ifdef RTC
	else if (module == &RTC) {
    2004:	c1 15       	cp	r28, r1
    2006:	e4 e0       	ldi	r30, 0x04	; 4
    2008:	de 07       	cpc	r29, r30
    200a:	29 f4       	brne	.+10     	; 0x2016 <usart_init_rs232+0x46>
		sysclk_enable_module(SYSCLK_PORT_GEN, SYSCLK_RTC);
    200c:	64 e0       	ldi	r22, 0x04	; 4
    200e:	80 e0       	ldi	r24, 0x00	; 0
    2010:	0e 94 ce 03 	call	0x79c	; 0x79c <sysclk_enable_module>
    2014:	43 c1       	rjmp	.+646    	; 0x229c <usart_init_rs232+0x2cc>
	}
#endif
#ifdef EVSYS
	else if (module == &EVSYS) {
    2016:	c0 38       	cpi	r28, 0x80	; 128
    2018:	f1 e0       	ldi	r31, 0x01	; 1
    201a:	df 07       	cpc	r29, r31
    201c:	29 f4       	brne	.+10     	; 0x2028 <usart_init_rs232+0x58>
		sysclk_enable_module(SYSCLK_PORT_GEN, SYSCLK_EVSYS);
    201e:	62 e0       	ldi	r22, 0x02	; 2
    2020:	80 e0       	ldi	r24, 0x00	; 0
    2022:	0e 94 ce 03 	call	0x79c	; 0x79c <sysclk_enable_module>
    2026:	3a c1       	rjmp	.+628    	; 0x229c <usart_init_rs232+0x2cc>
	}
#endif
#ifdef DMA
	else if (module == &DMA) {
    2028:	c1 15       	cp	r28, r1
    202a:	81 e0       	ldi	r24, 0x01	; 1
    202c:	d8 07       	cpc	r29, r24
    202e:	29 f4       	brne	.+10     	; 0x203a <usart_init_rs232+0x6a>
		sysclk_enable_module(SYSCLK_PORT_GEN, SYSCLK_DMA);
    2030:	61 e0       	ldi	r22, 0x01	; 1
    2032:	80 e0       	ldi	r24, 0x00	; 0
    2034:	0e 94 ce 03 	call	0x79c	; 0x79c <sysclk_enable_module>
    2038:	31 c1       	rjmp	.+610    	; 0x229c <usart_init_rs232+0x2cc>
	else if (module == &EDMA) {
		sysclk_enable_module(SYSCLK_PORT_GEN, SYSCLK_EDMA);
	}
#endif
#ifdef ACA
	else if (module == &ACA) {
    203a:	c0 38       	cpi	r28, 0x80	; 128
    203c:	e3 e0       	ldi	r30, 0x03	; 3
    203e:	de 07       	cpc	r29, r30
    2040:	29 f4       	brne	.+10     	; 0x204c <usart_init_rs232+0x7c>
		sysclk_enable_module(SYSCLK_PORT_A, SYSCLK_AC);
    2042:	61 e0       	ldi	r22, 0x01	; 1
    2044:	81 e0       	ldi	r24, 0x01	; 1
    2046:	0e 94 ce 03 	call	0x79c	; 0x79c <sysclk_enable_module>
    204a:	28 c1       	rjmp	.+592    	; 0x229c <usart_init_rs232+0x2cc>
	}
#endif
#ifdef ACB
	else if (module == &ACB) {
    204c:	c0 39       	cpi	r28, 0x90	; 144
    204e:	f3 e0       	ldi	r31, 0x03	; 3
    2050:	df 07       	cpc	r29, r31
    2052:	29 f4       	brne	.+10     	; 0x205e <usart_init_rs232+0x8e>
		sysclk_enable_module(SYSCLK_PORT_B, SYSCLK_AC);
    2054:	61 e0       	ldi	r22, 0x01	; 1
    2056:	82 e0       	ldi	r24, 0x02	; 2
    2058:	0e 94 ce 03 	call	0x79c	; 0x79c <sysclk_enable_module>
    205c:	1f c1       	rjmp	.+574    	; 0x229c <usart_init_rs232+0x2cc>
	}
#endif
#ifdef ADCA
	else if (module == &ADCA) {
    205e:	c1 15       	cp	r28, r1
    2060:	82 e0       	ldi	r24, 0x02	; 2
    2062:	d8 07       	cpc	r29, r24
    2064:	29 f4       	brne	.+10     	; 0x2070 <usart_init_rs232+0xa0>
		sysclk_enable_module(SYSCLK_PORT_A, SYSCLK_ADC);
    2066:	62 e0       	ldi	r22, 0x02	; 2
    2068:	81 e0       	ldi	r24, 0x01	; 1
    206a:	0e 94 ce 03 	call	0x79c	; 0x79c <sysclk_enable_module>
    206e:	16 c1       	rjmp	.+556    	; 0x229c <usart_init_rs232+0x2cc>
	}
#endif
#ifdef ADCB
	else if (module == &ADCB) {
    2070:	c0 34       	cpi	r28, 0x40	; 64
    2072:	e2 e0       	ldi	r30, 0x02	; 2
    2074:	de 07       	cpc	r29, r30
    2076:	29 f4       	brne	.+10     	; 0x2082 <usart_init_rs232+0xb2>
		sysclk_enable_module(SYSCLK_PORT_B, SYSCLK_ADC);
    2078:	62 e0       	ldi	r22, 0x02	; 2
    207a:	82 e0       	ldi	r24, 0x02	; 2
    207c:	0e 94 ce 03 	call	0x79c	; 0x79c <sysclk_enable_module>
    2080:	0d c1       	rjmp	.+538    	; 0x229c <usart_init_rs232+0x2cc>
	}
#endif
#ifdef DACA
	else if (module == &DACA) {
    2082:	c1 15       	cp	r28, r1
    2084:	f3 e0       	ldi	r31, 0x03	; 3
    2086:	df 07       	cpc	r29, r31
    2088:	29 f4       	brne	.+10     	; 0x2094 <usart_init_rs232+0xc4>
		sysclk_enable_module(SYSCLK_PORT_A, SYSCLK_DAC);
    208a:	64 e0       	ldi	r22, 0x04	; 4
    208c:	81 e0       	ldi	r24, 0x01	; 1
    208e:	0e 94 ce 03 	call	0x79c	; 0x79c <sysclk_enable_module>
    2092:	04 c1       	rjmp	.+520    	; 0x229c <usart_init_rs232+0x2cc>
	}
#endif
// Workaround for bad XMEGA D header file
#if !XMEGA_D
#ifdef DACB
	else if (module == &DACB) {
    2094:	c0 32       	cpi	r28, 0x20	; 32
    2096:	83 e0       	ldi	r24, 0x03	; 3
    2098:	d8 07       	cpc	r29, r24
    209a:	29 f4       	brne	.+10     	; 0x20a6 <usart_init_rs232+0xd6>
		sysclk_enable_module(SYSCLK_PORT_B, SYSCLK_DAC);
    209c:	64 e0       	ldi	r22, 0x04	; 4
    209e:	82 e0       	ldi	r24, 0x02	; 2
    20a0:	0e 94 ce 03 	call	0x79c	; 0x79c <sysclk_enable_module>
    20a4:	fb c0       	rjmp	.+502    	; 0x229c <usart_init_rs232+0x2cc>
	}
#endif
#endif // Workaround end
#ifdef TCC0
	else if (module == &TCC0) {
    20a6:	c1 15       	cp	r28, r1
    20a8:	e8 e0       	ldi	r30, 0x08	; 8
    20aa:	de 07       	cpc	r29, r30
    20ac:	29 f4       	brne	.+10     	; 0x20b8 <usart_init_rs232+0xe8>
		sysclk_enable_module(SYSCLK_PORT_C, SYSCLK_TC0);
    20ae:	61 e0       	ldi	r22, 0x01	; 1
    20b0:	83 e0       	ldi	r24, 0x03	; 3
    20b2:	0e 94 ce 03 	call	0x79c	; 0x79c <sysclk_enable_module>
    20b6:	f2 c0       	rjmp	.+484    	; 0x229c <usart_init_rs232+0x2cc>
	}
#endif
#ifdef TCD0
	else if (module == &TCD0) {
    20b8:	c1 15       	cp	r28, r1
    20ba:	f9 e0       	ldi	r31, 0x09	; 9
    20bc:	df 07       	cpc	r29, r31
    20be:	29 f4       	brne	.+10     	; 0x20ca <usart_init_rs232+0xfa>
		sysclk_enable_module(SYSCLK_PORT_D, SYSCLK_TC0);
    20c0:	61 e0       	ldi	r22, 0x01	; 1
    20c2:	84 e0       	ldi	r24, 0x04	; 4
    20c4:	0e 94 ce 03 	call	0x79c	; 0x79c <sysclk_enable_module>
    20c8:	e9 c0       	rjmp	.+466    	; 0x229c <usart_init_rs232+0x2cc>
	}
#endif
#ifdef TCE0
	else if (module == &TCE0) {
    20ca:	c1 15       	cp	r28, r1
    20cc:	8a e0       	ldi	r24, 0x0A	; 10
    20ce:	d8 07       	cpc	r29, r24
    20d0:	29 f4       	brne	.+10     	; 0x20dc <usart_init_rs232+0x10c>
		sysclk_enable_module(SYSCLK_PORT_E, SYSCLK_TC0);
    20d2:	61 e0       	ldi	r22, 0x01	; 1
    20d4:	85 e0       	ldi	r24, 0x05	; 5
    20d6:	0e 94 ce 03 	call	0x79c	; 0x79c <sysclk_enable_module>
    20da:	e0 c0       	rjmp	.+448    	; 0x229c <usart_init_rs232+0x2cc>
	}
#endif
#ifdef TCF0
	else if (module == &TCF0) {
    20dc:	c1 15       	cp	r28, r1
    20de:	eb e0       	ldi	r30, 0x0B	; 11
    20e0:	de 07       	cpc	r29, r30
    20e2:	29 f4       	brne	.+10     	; 0x20ee <usart_init_rs232+0x11e>
		sysclk_enable_module(SYSCLK_PORT_F, SYSCLK_TC0);
    20e4:	61 e0       	ldi	r22, 0x01	; 1
    20e6:	86 e0       	ldi	r24, 0x06	; 6
    20e8:	0e 94 ce 03 	call	0x79c	; 0x79c <sysclk_enable_module>
    20ec:	d7 c0       	rjmp	.+430    	; 0x229c <usart_init_rs232+0x2cc>
	}
#endif
#ifdef TCC1
	else if (module == &TCC1) {
    20ee:	c0 34       	cpi	r28, 0x40	; 64
    20f0:	f8 e0       	ldi	r31, 0x08	; 8
    20f2:	df 07       	cpc	r29, r31
    20f4:	29 f4       	brne	.+10     	; 0x2100 <usart_init_rs232+0x130>
		sysclk_enable_module(SYSCLK_PORT_C, SYSCLK_TC1);
    20f6:	62 e0       	ldi	r22, 0x02	; 2
    20f8:	83 e0       	ldi	r24, 0x03	; 3
    20fa:	0e 94 ce 03 	call	0x79c	; 0x79c <sysclk_enable_module>
    20fe:	ce c0       	rjmp	.+412    	; 0x229c <usart_init_rs232+0x2cc>
	}
#endif
#ifdef TCD1
	else if (module == &TCD1) {
    2100:	c0 34       	cpi	r28, 0x40	; 64
    2102:	89 e0       	ldi	r24, 0x09	; 9
    2104:	d8 07       	cpc	r29, r24
    2106:	29 f4       	brne	.+10     	; 0x2112 <usart_init_rs232+0x142>
		sysclk_enable_module(SYSCLK_PORT_D, SYSCLK_TC1);
    2108:	62 e0       	ldi	r22, 0x02	; 2
    210a:	84 e0       	ldi	r24, 0x04	; 4
    210c:	0e 94 ce 03 	call	0x79c	; 0x79c <sysclk_enable_module>
    2110:	c5 c0       	rjmp	.+394    	; 0x229c <usart_init_rs232+0x2cc>
	}
#endif
#ifdef TCE1
	else if (module == &TCE1) {
    2112:	c0 34       	cpi	r28, 0x40	; 64
    2114:	ea e0       	ldi	r30, 0x0A	; 10
    2116:	de 07       	cpc	r29, r30
    2118:	29 f4       	brne	.+10     	; 0x2124 <usart_init_rs232+0x154>
		sysclk_enable_module(SYSCLK_PORT_E, SYSCLK_TC1);
    211a:	62 e0       	ldi	r22, 0x02	; 2
    211c:	85 e0       	ldi	r24, 0x05	; 5
    211e:	0e 94 ce 03 	call	0x79c	; 0x79c <sysclk_enable_module>
    2122:	bc c0       	rjmp	.+376    	; 0x229c <usart_init_rs232+0x2cc>
	}
#endif
#ifdef TCF1
	else if (module == &TCF1) {
    2124:	c0 34       	cpi	r28, 0x40	; 64
    2126:	fb e0       	ldi	r31, 0x0B	; 11
    2128:	df 07       	cpc	r29, r31
    212a:	29 f4       	brne	.+10     	; 0x2136 <usart_init_rs232+0x166>
		sysclk_enable_module(SYSCLK_PORT_F, SYSCLK_TC1);
    212c:	62 e0       	ldi	r22, 0x02	; 2
    212e:	86 e0       	ldi	r24, 0x06	; 6
    2130:	0e 94 ce 03 	call	0x79c	; 0x79c <sysclk_enable_module>
    2134:	b3 c0       	rjmp	.+358    	; 0x229c <usart_init_rs232+0x2cc>
	else if (module == &TCD5) {
		sysclk_enable_module(SYSCLK_PORT_D, SYSCLK_TC5);
	}
#endif
#ifdef HIRESC
	else if (module == &HIRESC) {
    2136:	c0 39       	cpi	r28, 0x90	; 144
    2138:	88 e0       	ldi	r24, 0x08	; 8
    213a:	d8 07       	cpc	r29, r24
    213c:	29 f4       	brne	.+10     	; 0x2148 <usart_init_rs232+0x178>
			sysclk_enable_module(SYSCLK_PORT_C, SYSCLK_HIRES);
    213e:	64 e0       	ldi	r22, 0x04	; 4
    2140:	83 e0       	ldi	r24, 0x03	; 3
    2142:	0e 94 ce 03 	call	0x79c	; 0x79c <sysclk_enable_module>
    2146:	aa c0       	rjmp	.+340    	; 0x229c <usart_init_rs232+0x2cc>
	}
#endif
#ifdef HIRESD
	else if (module == &HIRESD) {
    2148:	c0 39       	cpi	r28, 0x90	; 144
    214a:	e9 e0       	ldi	r30, 0x09	; 9
    214c:	de 07       	cpc	r29, r30
    214e:	29 f4       	brne	.+10     	; 0x215a <usart_init_rs232+0x18a>
		sysclk_enable_module(SYSCLK_PORT_D, SYSCLK_HIRES);
    2150:	64 e0       	ldi	r22, 0x04	; 4
    2152:	84 e0       	ldi	r24, 0x04	; 4
    2154:	0e 94 ce 03 	call	0x79c	; 0x79c <sysclk_enable_module>
    2158:	a1 c0       	rjmp	.+322    	; 0x229c <usart_init_rs232+0x2cc>
	}
#endif
#ifdef HIRESE
	else if (module == &HIRESE) {
    215a:	c0 39       	cpi	r28, 0x90	; 144
    215c:	fa e0       	ldi	r31, 0x0A	; 10
    215e:	df 07       	cpc	r29, r31
    2160:	29 f4       	brne	.+10     	; 0x216c <usart_init_rs232+0x19c>
		sysclk_enable_module(SYSCLK_PORT_E, SYSCLK_HIRES);
    2162:	64 e0       	ldi	r22, 0x04	; 4
    2164:	85 e0       	ldi	r24, 0x05	; 5
    2166:	0e 94 ce 03 	call	0x79c	; 0x79c <sysclk_enable_module>
    216a:	98 c0       	rjmp	.+304    	; 0x229c <usart_init_rs232+0x2cc>
	}
#endif
#ifdef HIRESF
	else if (module == &HIRESF) {
    216c:	c0 39       	cpi	r28, 0x90	; 144
    216e:	8b e0       	ldi	r24, 0x0B	; 11
    2170:	d8 07       	cpc	r29, r24
    2172:	29 f4       	brne	.+10     	; 0x217e <usart_init_rs232+0x1ae>
		sysclk_enable_module(SYSCLK_PORT_F, SYSCLK_HIRES);
    2174:	64 e0       	ldi	r22, 0x04	; 4
    2176:	86 e0       	ldi	r24, 0x06	; 6
    2178:	0e 94 ce 03 	call	0x79c	; 0x79c <sysclk_enable_module>
    217c:	8f c0       	rjmp	.+286    	; 0x229c <usart_init_rs232+0x2cc>
	}
#endif
#ifdef SPIC
	else if (module == &SPIC) {
    217e:	c0 3c       	cpi	r28, 0xC0	; 192
    2180:	e8 e0       	ldi	r30, 0x08	; 8
    2182:	de 07       	cpc	r29, r30
    2184:	29 f4       	brne	.+10     	; 0x2190 <usart_init_rs232+0x1c0>
		sysclk_enable_module(SYSCLK_PORT_C, SYSCLK_SPI);
    2186:	68 e0       	ldi	r22, 0x08	; 8
    2188:	83 e0       	ldi	r24, 0x03	; 3
    218a:	0e 94 ce 03 	call	0x79c	; 0x79c <sysclk_enable_module>
    218e:	86 c0       	rjmp	.+268    	; 0x229c <usart_init_rs232+0x2cc>
	}
#endif
#ifdef SPID
	else if (module == &SPID) {
    2190:	c0 3c       	cpi	r28, 0xC0	; 192
    2192:	f9 e0       	ldi	r31, 0x09	; 9
    2194:	df 07       	cpc	r29, r31
    2196:	29 f4       	brne	.+10     	; 0x21a2 <usart_init_rs232+0x1d2>
		sysclk_enable_module(SYSCLK_PORT_D, SYSCLK_SPI);
    2198:	68 e0       	ldi	r22, 0x08	; 8
    219a:	84 e0       	ldi	r24, 0x04	; 4
    219c:	0e 94 ce 03 	call	0x79c	; 0x79c <sysclk_enable_module>
    21a0:	7d c0       	rjmp	.+250    	; 0x229c <usart_init_rs232+0x2cc>
	}
#endif
#ifdef SPIE
	else if (module == &SPIE) {
    21a2:	c0 3c       	cpi	r28, 0xC0	; 192
    21a4:	8a e0       	ldi	r24, 0x0A	; 10
    21a6:	d8 07       	cpc	r29, r24
    21a8:	29 f4       	brne	.+10     	; 0x21b4 <usart_init_rs232+0x1e4>
		sysclk_enable_module(SYSCLK_PORT_E, SYSCLK_SPI);
    21aa:	68 e0       	ldi	r22, 0x08	; 8
    21ac:	85 e0       	ldi	r24, 0x05	; 5
    21ae:	0e 94 ce 03 	call	0x79c	; 0x79c <sysclk_enable_module>
    21b2:	74 c0       	rjmp	.+232    	; 0x229c <usart_init_rs232+0x2cc>
	}
#endif
#ifdef SPIF
	else if (module == &SPIF) {
    21b4:	c0 3c       	cpi	r28, 0xC0	; 192
    21b6:	eb e0       	ldi	r30, 0x0B	; 11
    21b8:	de 07       	cpc	r29, r30
    21ba:	29 f4       	brne	.+10     	; 0x21c6 <usart_init_rs232+0x1f6>
		sysclk_enable_module(SYSCLK_PORT_F, SYSCLK_SPI);
    21bc:	68 e0       	ldi	r22, 0x08	; 8
    21be:	86 e0       	ldi	r24, 0x06	; 6
    21c0:	0e 94 ce 03 	call	0x79c	; 0x79c <sysclk_enable_module>
    21c4:	6b c0       	rjmp	.+214    	; 0x229c <usart_init_rs232+0x2cc>
	}
#endif
#ifdef USARTC0
	else if (module == &USARTC0) {
    21c6:	c0 3a       	cpi	r28, 0xA0	; 160
    21c8:	f8 e0       	ldi	r31, 0x08	; 8
    21ca:	df 07       	cpc	r29, r31
    21cc:	29 f4       	brne	.+10     	; 0x21d8 <usart_init_rs232+0x208>
		sysclk_enable_module(SYSCLK_PORT_C, SYSCLK_USART0);
    21ce:	60 e1       	ldi	r22, 0x10	; 16
    21d0:	83 e0       	ldi	r24, 0x03	; 3
    21d2:	0e 94 ce 03 	call	0x79c	; 0x79c <sysclk_enable_module>
    21d6:	62 c0       	rjmp	.+196    	; 0x229c <usart_init_rs232+0x2cc>
	}
#endif
#ifdef USARTD0
	else if (module == &USARTD0) {
    21d8:	c0 3a       	cpi	r28, 0xA0	; 160
    21da:	89 e0       	ldi	r24, 0x09	; 9
    21dc:	d8 07       	cpc	r29, r24
    21de:	29 f4       	brne	.+10     	; 0x21ea <usart_init_rs232+0x21a>
		sysclk_enable_module(SYSCLK_PORT_D, SYSCLK_USART0);
    21e0:	60 e1       	ldi	r22, 0x10	; 16
    21e2:	84 e0       	ldi	r24, 0x04	; 4
    21e4:	0e 94 ce 03 	call	0x79c	; 0x79c <sysclk_enable_module>
    21e8:	59 c0       	rjmp	.+178    	; 0x229c <usart_init_rs232+0x2cc>
	}
#endif
#ifdef USARTE0
	else if (module == &USARTE0) {
    21ea:	c0 3a       	cpi	r28, 0xA0	; 160
    21ec:	ea e0       	ldi	r30, 0x0A	; 10
    21ee:	de 07       	cpc	r29, r30
    21f0:	29 f4       	brne	.+10     	; 0x21fc <usart_init_rs232+0x22c>
		sysclk_enable_module(SYSCLK_PORT_E, SYSCLK_USART0);
    21f2:	60 e1       	ldi	r22, 0x10	; 16
    21f4:	85 e0       	ldi	r24, 0x05	; 5
    21f6:	0e 94 ce 03 	call	0x79c	; 0x79c <sysclk_enable_module>
    21fa:	50 c0       	rjmp	.+160    	; 0x229c <usart_init_rs232+0x2cc>
	}
#endif
#ifdef USARTF0
	else if (module == &USARTF0) {
    21fc:	c0 3a       	cpi	r28, 0xA0	; 160
    21fe:	fb e0       	ldi	r31, 0x0B	; 11
    2200:	df 07       	cpc	r29, r31
    2202:	29 f4       	brne	.+10     	; 0x220e <usart_init_rs232+0x23e>
		sysclk_enable_module(SYSCLK_PORT_F, SYSCLK_USART0);
    2204:	60 e1       	ldi	r22, 0x10	; 16
    2206:	86 e0       	ldi	r24, 0x06	; 6
    2208:	0e 94 ce 03 	call	0x79c	; 0x79c <sysclk_enable_module>
    220c:	47 c0       	rjmp	.+142    	; 0x229c <usart_init_rs232+0x2cc>
	}
#endif
#ifdef USARTC1
	else if (module == &USARTC1) {
    220e:	c0 3b       	cpi	r28, 0xB0	; 176
    2210:	88 e0       	ldi	r24, 0x08	; 8
    2212:	d8 07       	cpc	r29, r24
    2214:	29 f4       	brne	.+10     	; 0x2220 <usart_init_rs232+0x250>
		sysclk_enable_module(SYSCLK_PORT_C, SYSCLK_USART1);
    2216:	60 e2       	ldi	r22, 0x20	; 32
    2218:	83 e0       	ldi	r24, 0x03	; 3
    221a:	0e 94 ce 03 	call	0x79c	; 0x79c <sysclk_enable_module>
    221e:	3e c0       	rjmp	.+124    	; 0x229c <usart_init_rs232+0x2cc>
	}
#endif
#ifdef USARTD1
	else if (module == &USARTD1) {
    2220:	c0 3b       	cpi	r28, 0xB0	; 176
    2222:	e9 e0       	ldi	r30, 0x09	; 9
    2224:	de 07       	cpc	r29, r30
    2226:	29 f4       	brne	.+10     	; 0x2232 <usart_init_rs232+0x262>
		sysclk_enable_module(SYSCLK_PORT_D, SYSCLK_USART1);
    2228:	60 e2       	ldi	r22, 0x20	; 32
    222a:	84 e0       	ldi	r24, 0x04	; 4
    222c:	0e 94 ce 03 	call	0x79c	; 0x79c <sysclk_enable_module>
    2230:	35 c0       	rjmp	.+106    	; 0x229c <usart_init_rs232+0x2cc>
	}
#endif
#ifdef USARTE1
	else if (module == &USARTE1) {
    2232:	c0 3b       	cpi	r28, 0xB0	; 176
    2234:	fa e0       	ldi	r31, 0x0A	; 10
    2236:	df 07       	cpc	r29, r31
    2238:	29 f4       	brne	.+10     	; 0x2244 <usart_init_rs232+0x274>
		sysclk_enable_module(SYSCLK_PORT_E, SYSCLK_USART1);
    223a:	60 e2       	ldi	r22, 0x20	; 32
    223c:	85 e0       	ldi	r24, 0x05	; 5
    223e:	0e 94 ce 03 	call	0x79c	; 0x79c <sysclk_enable_module>
    2242:	2c c0       	rjmp	.+88     	; 0x229c <usart_init_rs232+0x2cc>
	}
#endif
#ifdef USARTF1
	else if (module == &USARTF1) {
    2244:	c0 3b       	cpi	r28, 0xB0	; 176
    2246:	8b e0       	ldi	r24, 0x0B	; 11
    2248:	d8 07       	cpc	r29, r24
    224a:	29 f4       	brne	.+10     	; 0x2256 <usart_init_rs232+0x286>
		sysclk_enable_module(SYSCLK_PORT_F, SYSCLK_USART1);
    224c:	60 e2       	ldi	r22, 0x20	; 32
    224e:	86 e0       	ldi	r24, 0x06	; 6
    2250:	0e 94 ce 03 	call	0x79c	; 0x79c <sysclk_enable_module>
    2254:	23 c0       	rjmp	.+70     	; 0x229c <usart_init_rs232+0x2cc>
	}
#endif
#ifdef TWIC
	else if (module == &TWIC) {
    2256:	c0 38       	cpi	r28, 0x80	; 128
    2258:	e4 e0       	ldi	r30, 0x04	; 4
    225a:	de 07       	cpc	r29, r30
    225c:	29 f4       	brne	.+10     	; 0x2268 <usart_init_rs232+0x298>
		sysclk_enable_module(SYSCLK_PORT_C, SYSCLK_TWI);
    225e:	60 e4       	ldi	r22, 0x40	; 64
    2260:	83 e0       	ldi	r24, 0x03	; 3
    2262:	0e 94 ce 03 	call	0x79c	; 0x79c <sysclk_enable_module>
    2266:	1a c0       	rjmp	.+52     	; 0x229c <usart_init_rs232+0x2cc>
	}
#endif
#ifdef TWID
	else if (module == &TWID) {
    2268:	c0 39       	cpi	r28, 0x90	; 144
    226a:	f4 e0       	ldi	r31, 0x04	; 4
    226c:	df 07       	cpc	r29, r31
    226e:	29 f4       	brne	.+10     	; 0x227a <usart_init_rs232+0x2aa>
		sysclk_enable_module(SYSCLK_PORT_D, SYSCLK_TWI);
    2270:	60 e4       	ldi	r22, 0x40	; 64
    2272:	84 e0       	ldi	r24, 0x04	; 4
    2274:	0e 94 ce 03 	call	0x79c	; 0x79c <sysclk_enable_module>
    2278:	11 c0       	rjmp	.+34     	; 0x229c <usart_init_rs232+0x2cc>
	}
#endif
#ifdef TWIE
	else if (module == &TWIE) {
    227a:	c0 3a       	cpi	r28, 0xA0	; 160
    227c:	84 e0       	ldi	r24, 0x04	; 4
    227e:	d8 07       	cpc	r29, r24
    2280:	29 f4       	brne	.+10     	; 0x228c <usart_init_rs232+0x2bc>
		sysclk_enable_module(SYSCLK_PORT_E, SYSCLK_TWI);
    2282:	60 e4       	ldi	r22, 0x40	; 64
    2284:	85 e0       	ldi	r24, 0x05	; 5
    2286:	0e 94 ce 03 	call	0x79c	; 0x79c <sysclk_enable_module>
    228a:	08 c0       	rjmp	.+16     	; 0x229c <usart_init_rs232+0x2cc>
	}
#endif
#ifdef TWIF
	else if (module == &TWIF) {
    228c:	c0 3b       	cpi	r28, 0xB0	; 176
    228e:	e4 e0       	ldi	r30, 0x04	; 4
    2290:	de 07       	cpc	r29, r30
    2292:	21 f4       	brne	.+8      	; 0x229c <usart_init_rs232+0x2cc>
		sysclk_enable_module(SYSCLK_PORT_F, SYSCLK_TWI);
    2294:	60 e4       	ldi	r22, 0x40	; 64
    2296:	86 e0       	ldi	r24, 0x06	; 6
    2298:	0e 94 ce 03 	call	0x79c	; 0x79c <sysclk_enable_module>
 * - 0x2        : IrDA mode.
 * - 0x3        : Master SPI mode.
 */
static inline void usart_set_mode(USART_t *usart, USART_CMODE_t usartmode)
{
	(usart)->CTRLC = ((usart)->CTRLC & (~USART_CMODE_gm)) | usartmode;
    229c:	8d 81       	ldd	r24, Y+5	; 0x05
    229e:	8f 73       	andi	r24, 0x3F	; 63
    22a0:	8d 83       	std	Y+5, r24	; 0x05
 *  \param twoStopBits Enable two stop bit mode. Use bool type.
 */
static inline void usart_format_set(USART_t *usart, USART_CHSIZE_t charSize,
		USART_PMODE_t parityMode, bool twoStopBits)
{
	(usart)->CTRLC = (uint8_t)charSize | parityMode
    22a2:	f8 01       	movw	r30, r16
    22a4:	95 81       	ldd	r25, Z+5	; 0x05
    22a6:	84 81       	ldd	r24, Z+4	; 0x04
    22a8:	89 2b       	or	r24, r25
    22aa:	96 81       	ldd	r25, Z+6	; 0x06
    22ac:	91 11       	cpse	r25, r1
    22ae:	98 e0       	ldi	r25, 0x08	; 8
    22b0:	89 2b       	or	r24, r25
    22b2:	8d 83       	std	Y+5, r24	; 0x05
	bool result;
	sysclk_enable_peripheral_clock(usart);
	usart_set_mode(usart, USART_CMODE_ASYNCHRONOUS_gc);
	usart_format_set(usart, opt->charlength, opt->paritytype,
			opt->stopbits);
	result = usart_set_baudrate(usart, opt->baudrate, sysclk_get_per_hz());
    22b4:	f8 01       	movw	r30, r16
    22b6:	40 81       	ld	r20, Z
    22b8:	51 81       	ldd	r21, Z+1	; 0x01
    22ba:	62 81       	ldd	r22, Z+2	; 0x02
    22bc:	73 81       	ldd	r23, Z+3	; 0x03
    22be:	00 e0       	ldi	r16, 0x00	; 0
    22c0:	18 e4       	ldi	r17, 0x48	; 72
    22c2:	28 ee       	ldi	r18, 0xE8	; 232
    22c4:	31 e0       	ldi	r19, 0x01	; 1
    22c6:	ce 01       	movw	r24, r28
    22c8:	70 dd       	rcall	.-1312   	; 0x1daa <usart_set_baudrate>
 *
 * \param usart Pointer to the USART module.
 */
static inline void usart_tx_enable(USART_t *usart)
{
	(usart)->CTRLB |= USART_TXEN_bm;
    22ca:	9c 81       	ldd	r25, Y+4	; 0x04
    22cc:	98 60       	ori	r25, 0x08	; 8
    22ce:	9c 83       	std	Y+4, r25	; 0x04
 *
 * \param usart Pointer to the USART module
 */
static inline void usart_rx_enable(USART_t *usart)
{
	(usart)->CTRLB |= USART_RXEN_bm;
    22d0:	9c 81       	ldd	r25, Y+4	; 0x04
    22d2:	90 61       	ori	r25, 0x10	; 16
    22d4:	9c 83       	std	Y+4, r25	; 0x04
	usart_tx_enable(usart);
	usart_rx_enable(usart);
	
	return result;
}
    22d6:	df 91       	pop	r29
    22d8:	cf 91       	pop	r28
    22da:	1f 91       	pop	r17
    22dc:	0f 91       	pop	r16
    22de:	08 95       	ret

000022e0 <Get_altitude>:
#include "thermistor.h"
#include <math.h>

extern int32_t TEMP;

float Get_altitude(uint32_t initial, uint32_t pressure, uint32_t temperature){
    22e0:	4f 92       	push	r4
    22e2:	5f 92       	push	r5
    22e4:	6f 92       	push	r6
    22e6:	7f 92       	push	r7
    22e8:	8f 92       	push	r8
    22ea:	9f 92       	push	r9
    22ec:	af 92       	push	r10
    22ee:	bf 92       	push	r11
    22f0:	cf 92       	push	r12
    22f2:	df 92       	push	r13
    22f4:	ef 92       	push	r14
    22f6:	ff 92       	push	r15
    22f8:	29 01       	movw	r4, r18
    22fa:	3a 01       	movw	r6, r20
	//printf("Initial Pressure = %lu\n", initial);
	//printf("pressure = %lu \n", pressure);
	//printf("temperature = %lu \n", temperature);
	//float altitude = (((287.058 * (((float)(TEMP)/100)+273.15)/9.8))*log((float)initial/get_pressure())*3.28);	Not this one, this one's bad
	float altitude = (pow(((initial/100)/(pressure/100)),(1/5.257))-1)*((TEMP/100)+273.15)/.0065; //This is now right, just gotta use the thermistor
    22fc:	0f 2e       	mov	r0, r31
    22fe:	f4 e6       	ldi	r31, 0x64	; 100
    2300:	cf 2e       	mov	r12, r31
    2302:	d1 2c       	mov	r13, r1
    2304:	e1 2c       	mov	r14, r1
    2306:	f1 2c       	mov	r15, r1
    2308:	f0 2d       	mov	r31, r0
    230a:	a7 01       	movw	r20, r14
    230c:	96 01       	movw	r18, r12
    230e:	0e 94 5c 1f 	call	0x3eb8	; 0x3eb8 <__udivmodsi4>
    2312:	49 01       	movw	r8, r18
    2314:	5a 01       	movw	r10, r20
    2316:	c3 01       	movw	r24, r6
    2318:	b2 01       	movw	r22, r4
    231a:	a7 01       	movw	r20, r14
    231c:	96 01       	movw	r18, r12
    231e:	0e 94 5c 1f 	call	0x3eb8	; 0x3eb8 <__udivmodsi4>
    2322:	c5 01       	movw	r24, r10
    2324:	b4 01       	movw	r22, r8
    2326:	0e 94 5c 1f 	call	0x3eb8	; 0x3eb8 <__udivmodsi4>
    232a:	ca 01       	movw	r24, r20
    232c:	b9 01       	movw	r22, r18
    232e:	eb d7       	rcall	.+4054   	; 0x3306 <__floatunsisf>
    2330:	24 eb       	ldi	r18, 0xB4	; 180
    2332:	39 ec       	ldi	r19, 0xC9	; 201
    2334:	42 e4       	ldi	r20, 0x42	; 66
    2336:	5e e3       	ldi	r21, 0x3E	; 62
    2338:	0e 94 b9 1a 	call	0x3572	; 0x3572 <pow>
    233c:	4b 01       	movw	r8, r22
    233e:	5c 01       	movw	r10, r24
	//printf("altitude = %f \n", (float)altitude);
	return altitude;
    2340:	60 91 a9 20 	lds	r22, 0x20A9	; 0x8020a9 <TEMP>
    2344:	70 91 aa 20 	lds	r23, 0x20AA	; 0x8020aa <TEMP+0x1>
    2348:	80 91 ab 20 	lds	r24, 0x20AB	; 0x8020ab <TEMP+0x2>
    234c:	90 91 ac 20 	lds	r25, 0x20AC	; 0x8020ac <TEMP+0x3>
    2350:	a7 01       	movw	r20, r14
    2352:	96 01       	movw	r18, r12
    2354:	0e 94 7e 1f 	call	0x3efc	; 0x3efc <__divmodsi4>
    2358:	ca 01       	movw	r24, r20
    235a:	b9 01       	movw	r22, r18
    235c:	d6 d7       	rcall	.+4012   	; 0x330a <__floatsisf>
    235e:	23 e3       	ldi	r18, 0x33	; 51
    2360:	33 e9       	ldi	r19, 0x93	; 147
    2362:	48 e8       	ldi	r20, 0x88	; 136
    2364:	53 e4       	ldi	r21, 0x43	; 67
    2366:	d2 d6       	rcall	.+3492   	; 0x310c <__addsf3>
    2368:	6b 01       	movw	r12, r22
    236a:	7c 01       	movw	r14, r24
    236c:	20 e0       	ldi	r18, 0x00	; 0
    236e:	30 e0       	ldi	r19, 0x00	; 0
    2370:	40 e8       	ldi	r20, 0x80	; 128
    2372:	5f e3       	ldi	r21, 0x3F	; 63
    2374:	c5 01       	movw	r24, r10
    2376:	b4 01       	movw	r22, r8
    2378:	c8 d6       	rcall	.+3472   	; 0x310a <__subsf3>
    237a:	9b 01       	movw	r18, r22
    237c:	ac 01       	movw	r20, r24
    237e:	c7 01       	movw	r24, r14
    2380:	b6 01       	movw	r22, r12
    2382:	0e 94 56 1a 	call	0x34ac	; 0x34ac <__mulsf3>
    2386:	24 ef       	ldi	r18, 0xF4	; 244
    2388:	3d ef       	ldi	r19, 0xFD	; 253
    238a:	44 ed       	ldi	r20, 0xD4	; 212
    238c:	5b e3       	ldi	r21, 0x3B	; 59
    238e:	22 d7       	rcall	.+3652   	; 0x31d4 <__divsf3>
}
    2390:	ff 90       	pop	r15
    2392:	ef 90       	pop	r14
    2394:	df 90       	pop	r13
    2396:	cf 90       	pop	r12
    2398:	bf 90       	pop	r11
    239a:	af 90       	pop	r10
    239c:	9f 90       	pop	r9
    239e:	8f 90       	pop	r8
    23a0:	7f 90       	pop	r7
    23a2:	6f 90       	pop	r6
    23a4:	5f 90       	pop	r5
    23a6:	4f 90       	pop	r4
    23a8:	08 95       	ret

000023aa <__portable_avr_delay_cycles>:
	PORTE.OUTSET = 0b00000001;
}*/

void heatshield_solenoid(PORT_t* port){
	(*port).DIRSET = 0b10000000;
	(*port).OUTSET = 0b10000000;
    23aa:	04 c0       	rjmp	.+8      	; 0x23b4 <__portable_avr_delay_cycles+0xa>
    23ac:	61 50       	subi	r22, 0x01	; 1
    23ae:	71 09       	sbc	r23, r1
    23b0:	81 09       	sbc	r24, r1
    23b2:	91 09       	sbc	r25, r1
    23b4:	61 15       	cp	r22, r1
    23b6:	71 05       	cpc	r23, r1
    23b8:	81 05       	cpc	r24, r1
    23ba:	91 05       	cpc	r25, r1
    23bc:	b9 f7       	brne	.-18     	; 0x23ac <__portable_avr_delay_cycles+0x2>
    23be:	08 95       	ret

000023c0 <heatshield_hotwire>:
}

void heatshield_hotwire (void){
    23c0:	cf 93       	push	r28
    23c2:	df 93       	push	r29
	PORTD.DIR |= 0b00000010;
    23c4:	c0 e6       	ldi	r28, 0x60	; 96
    23c6:	d6 e0       	ldi	r29, 0x06	; 6
    23c8:	88 81       	ld	r24, Y
    23ca:	82 60       	ori	r24, 0x02	; 2
    23cc:	88 83       	st	Y, r24
	PORTD.OUT |= 0b00000010; //TODO: fix these port addresses
    23ce:	8c 81       	ldd	r24, Y+4	; 0x04
    23d0:	82 60       	ori	r24, 0x02	; 2
    23d2:	8c 83       	std	Y+4, r24	; 0x04
	delay_ms(4000);
    23d4:	66 e5       	ldi	r22, 0x56	; 86
    23d6:	75 e8       	ldi	r23, 0x85	; 133
    23d8:	85 e4       	ldi	r24, 0x45	; 69
    23da:	91 e0       	ldi	r25, 0x01	; 1
    23dc:	e6 df       	rcall	.-52     	; 0x23aa <__portable_avr_delay_cycles>
	PORTD.OUT &= 0b11111101;
    23de:	8c 81       	ldd	r24, Y+4	; 0x04
    23e0:	8d 7f       	andi	r24, 0xFD	; 253
    23e2:	8c 83       	std	Y+4, r24	; 0x04
}
    23e4:	df 91       	pop	r29
    23e6:	cf 91       	pop	r28
    23e8:	08 95       	ret

000023ea <parachute_hotwire>:

void parachute_hotwire (void) {
    23ea:	cf 93       	push	r28
    23ec:	df 93       	push	r29
	PORTD.DIR |= 0b00000010;
    23ee:	c0 e6       	ldi	r28, 0x60	; 96
    23f0:	d6 e0       	ldi	r29, 0x06	; 6
    23f2:	88 81       	ld	r24, Y
    23f4:	82 60       	ori	r24, 0x02	; 2
    23f6:	88 83       	st	Y, r24
	PORTD.OUT |= 0b00000010; //TODO: fix these port addresses
    23f8:	8c 81       	ldd	r24, Y+4	; 0x04
    23fa:	82 60       	ori	r24, 0x02	; 2
    23fc:	8c 83       	std	Y+4, r24	; 0x04
	delay_ms(4000);
    23fe:	66 e5       	ldi	r22, 0x56	; 86
    2400:	75 e8       	ldi	r23, 0x85	; 133
    2402:	85 e4       	ldi	r24, 0x45	; 69
    2404:	91 e0       	ldi	r25, 0x01	; 1
    2406:	d1 df       	rcall	.-94     	; 0x23aa <__portable_avr_delay_cycles>
	PORTD.OUT &= 0b11111101;
    2408:	8c 81       	ldd	r24, Y+4	; 0x04
    240a:	8d 7f       	andi	r24, 0xFD	; 253
    240c:	8c 83       	std	Y+4, r24	; 0x04
}
    240e:	df 91       	pop	r29
    2410:	cf 91       	pop	r28
    2412:	08 95       	ret

00002414 <heatshield_detatch_hotwire>:

void heatshield_detatch_hotwire(void){
    2414:	cf 93       	push	r28
    2416:	df 93       	push	r29
	PORTD.DIR |= 0b00000010;
    2418:	c0 e6       	ldi	r28, 0x60	; 96
    241a:	d6 e0       	ldi	r29, 0x06	; 6
    241c:	88 81       	ld	r24, Y
    241e:	82 60       	ori	r24, 0x02	; 2
    2420:	88 83       	st	Y, r24
	PORTD.OUT |= 0b00000010; //TODO: fix these port addresses
    2422:	8c 81       	ldd	r24, Y+4	; 0x04
    2424:	82 60       	ori	r24, 0x02	; 2
    2426:	8c 83       	std	Y+4, r24	; 0x04
	delay_ms(4000);
    2428:	66 e5       	ldi	r22, 0x56	; 86
    242a:	75 e8       	ldi	r23, 0x85	; 133
    242c:	85 e4       	ldi	r24, 0x45	; 69
    242e:	91 e0       	ldi	r25, 0x01	; 1
    2430:	bc df       	rcall	.-136    	; 0x23aa <__portable_avr_delay_cycles>
	PORTD.OUT &= 0b11111101;	
    2432:	8c 81       	ldd	r24, Y+4	; 0x04
    2434:	8d 7f       	andi	r24, 0xFD	; 253
    2436:	8c 83       	std	Y+4, r24	; 0x04
}
    2438:	df 91       	pop	r29
    243a:	cf 91       	pop	r28
    243c:	08 95       	ret

0000243e <buzzer_on>:

void buzzer_on(void){
	PORTA.DIR |= 0b00001000; //TODO: switch to timer counter for real board 
    243e:	e0 e0       	ldi	r30, 0x00	; 0
    2440:	f6 e0       	ldi	r31, 0x06	; 6
    2442:	80 81       	ld	r24, Z
    2444:	88 60       	ori	r24, 0x08	; 8
    2446:	80 83       	st	Z, r24
	PORTA.OUT |= 0b00001000;
    2448:	84 81       	ldd	r24, Z+4	; 0x04
    244a:	88 60       	ori	r24, 0x08	; 8
    244c:	84 83       	std	Z+4, r24	; 0x04
    244e:	08 95       	ret

00002450 <buzzer_off>:
	
}
void buzzer_off(void){
	PORTA.DIR |= 0b00001000; //TODO: switch to timer counter for real board 
    2450:	e0 e0       	ldi	r30, 0x00	; 0
    2452:	f6 e0       	ldi	r31, 0x06	; 6
    2454:	80 81       	ld	r24, Z
    2456:	88 60       	ori	r24, 0x08	; 8
    2458:	80 83       	st	Z, r24
	PORTA.OUT &= 0b11110111;
    245a:	84 81       	ldd	r24, Z+4	; 0x04
    245c:	87 7f       	andi	r24, 0xF7	; 247
    245e:	84 83       	std	Z+4, r24	; 0x04
    2460:	08 95       	ret

00002462 <camera_on>:
	
}
void camera_on(void){
	PORTE.DIR |= 0b01000000;
    2462:	e0 e8       	ldi	r30, 0x80	; 128
    2464:	f6 e0       	ldi	r31, 0x06	; 6
    2466:	80 81       	ld	r24, Z
    2468:	80 64       	ori	r24, 0x40	; 64
    246a:	80 83       	st	Z, r24
	PORTE.OUT |= 0b01000000;
    246c:	84 81       	ldd	r24, Z+4	; 0x04
    246e:	80 64       	ori	r24, 0x40	; 64
    2470:	84 83       	std	Z+4, r24	; 0x04
    2472:	08 95       	ret

00002474 <__portable_avr_delay_cycles>:
 *
 * @{
 */
__always_optimize
static inline void __portable_avr_delay_cycles(unsigned long n)
{
    2474:	04 c0       	rjmp	.+8      	; 0x247e <__portable_avr_delay_cycles+0xa>
	while (n) {
		barrier();
		n--;
    2476:	61 50       	subi	r22, 0x01	; 1
    2478:	71 09       	sbc	r23, r1
    247a:	81 09       	sbc	r24, r1
    247c:	91 09       	sbc	r25, r1
 * @{
 */
__always_optimize
static inline void __portable_avr_delay_cycles(unsigned long n)
{
	while (n) {
    247e:	61 15       	cp	r22, r1
    2480:	71 05       	cpc	r23, r1
    2482:	81 05       	cpc	r24, r1
    2484:	91 05       	cpc	r25, r1
    2486:	b9 f7       	brne	.-18     	; 0x2476 <__portable_avr_delay_cycles+0x2>
    2488:	08 95       	ret

0000248a <SPI_init>:
uint16_t c5;
uint16_t c6;


void SPI_init(void){
	PORTC.DIRSET = 0b10110000;
    248a:	e0 e4       	ldi	r30, 0x40	; 64
    248c:	f6 e0       	ldi	r31, 0x06	; 6
    248e:	80 eb       	ldi	r24, 0xB0	; 176
    2490:	81 83       	std	Z+1, r24	; 0x01
	PORTC.DIRCLR = 0b01000000;
    2492:	90 e4       	ldi	r25, 0x40	; 64
    2494:	92 83       	std	Z+2, r25	; 0x02
	PORTC.OUTSET = 0b10110000;
    2496:	85 83       	std	Z+5, r24	; 0x05
	SPIC.CTRL = 0b01010011;
    2498:	83 e5       	ldi	r24, 0x53	; 83
    249a:	80 93 c0 08 	sts	0x08C0, r24	; 0x8008c0 <__TEXT_REGION_LENGTH__+0x7008c0>
    249e:	08 95       	ret

000024a0 <SPI_write>:
}

void SPI_write(uint8_t data){
	SPIC.DATA = data;
    24a0:	80 93 c3 08 	sts	0x08C3, r24	; 0x8008c3 <__TEXT_REGION_LENGTH__+0x7008c3>
	while(!(SPIC.STATUS>>7));
    24a4:	e0 ec       	ldi	r30, 0xC0	; 192
    24a6:	f8 e0       	ldi	r31, 0x08	; 8
    24a8:	82 81       	ldd	r24, Z+2	; 0x02
    24aa:	88 23       	and	r24, r24
    24ac:	ec f7       	brge	.-6      	; 0x24a8 <SPI_write+0x8>
}
    24ae:	08 95       	ret

000024b0 <spi_read>:

uint8_t spi_read (void){
	SPI_write(0xFF);
    24b0:	8f ef       	ldi	r24, 0xFF	; 255
    24b2:	f6 df       	rcall	.-20     	; 0x24a0 <SPI_write>
	return SPIC.DATA;
    24b4:	80 91 c3 08 	lds	r24, 0x08C3	; 0x8008c3 <__TEXT_REGION_LENGTH__+0x7008c3>
}
    24b8:	08 95       	ret

000024ba <prom_read>:
	//printf("c5: %u \n", c5);
	c6 = prom_read(0xAC);
	//printf("c6: %u \n", c6);
}

uint16_t prom_read(uint8_t command){
    24ba:	ff 92       	push	r15
    24bc:	0f 93       	push	r16
    24be:	1f 93       	push	r17
    24c0:	cf 93       	push	r28
    24c2:	df 93       	push	r29
	uint16_t data;
	PORTC.OUTCLR = 0b00010000;
    24c4:	00 e4       	ldi	r16, 0x40	; 64
    24c6:	16 e0       	ldi	r17, 0x06	; 6
    24c8:	68 94       	set
    24ca:	ff 24       	eor	r15, r15
    24cc:	f4 f8       	bld	r15, 4
    24ce:	f8 01       	movw	r30, r16
	SPI_write(command);
	data = ((uint16_t)spi_read())<<8;	//Bitshifting
    24d0:	f6 82       	std	Z+6, r15	; 0x06
    24d2:	e6 df       	rcall	.-52     	; 0x24a0 <SPI_write>
    24d4:	ed df       	rcall	.-38     	; 0x24b0 <spi_read>
    24d6:	c8 2f       	mov	r28, r24
    24d8:	d0 e0       	ldi	r29, 0x00	; 0
	data += spi_read();
    24da:	dc 2f       	mov	r29, r28
    24dc:	cc 27       	eor	r28, r28
    24de:	e8 df       	rcall	.-48     	; 0x24b0 <spi_read>
    24e0:	c8 0f       	add	r28, r24
	PORTC.OUTSET = 0b00010000;
    24e2:	d1 1d       	adc	r29, r1
    24e4:	f8 01       	movw	r30, r16
	delay_ms(1);
    24e6:	f5 82       	std	Z+5, r15	; 0x05
    24e8:	66 ed       	ldi	r22, 0xD6	; 214
    24ea:	74 e1       	ldi	r23, 0x14	; 20
    24ec:	80 e0       	ldi	r24, 0x00	; 0
    24ee:	90 e0       	ldi	r25, 0x00	; 0
	//printf("data: %lu \n", data);
	return data;
}
    24f0:	c1 df       	rcall	.-126    	; 0x2474 <__portable_avr_delay_cycles>
    24f2:	ce 01       	movw	r24, r28
    24f4:	df 91       	pop	r29
    24f6:	cf 91       	pop	r28
    24f8:	1f 91       	pop	r17
    24fa:	0f 91       	pop	r16
    24fc:	ff 90       	pop	r15
    24fe:	08 95       	ret

00002500 <ms5607_init>:
uint8_t spi_read (void){
	SPI_write(0xFF);
	return SPIC.DATA;
}

void ms5607_init(void){
    2500:	1f 93       	push	r17
    2502:	cf 93       	push	r28
    2504:	df 93       	push	r29
	PORTC.OUTCLR = 0b00010000;
    2506:	c0 e4       	ldi	r28, 0x40	; 64
    2508:	d6 e0       	ldi	r29, 0x06	; 6
    250a:	10 e1       	ldi	r17, 0x10	; 16
    250c:	1e 83       	std	Y+6, r17	; 0x06
	SPI_write(0x1E);
    250e:	8e e1       	ldi	r24, 0x1E	; 30
    2510:	c7 df       	rcall	.-114    	; 0x24a0 <SPI_write>
	PORTC.OUTSET = 0b00010000;
    2512:	1d 83       	std	Y+5, r17	; 0x05
	delay_ms(10);
    2514:	66 e5       	ldi	r22, 0x56	; 86
    2516:	70 ed       	ldi	r23, 0xD0	; 208
    2518:	80 e0       	ldi	r24, 0x00	; 0
    251a:	90 e0       	ldi	r25, 0x00	; 0
	c1 = prom_read(0xA2);
    251c:	ab df       	rcall	.-170    	; 0x2474 <__portable_avr_delay_cycles>
    251e:	82 ea       	ldi	r24, 0xA2	; 162
    2520:	cc df       	rcall	.-104    	; 0x24ba <prom_read>
    2522:	80 93 b5 20 	sts	0x20B5, r24	; 0x8020b5 <c1>
    2526:	90 93 b6 20 	sts	0x20B6, r25	; 0x8020b6 <c1+0x1>
	//printf("c1: %u \n", c1);
	c2 = prom_read(0xA4);
    252a:	84 ea       	ldi	r24, 0xA4	; 164
    252c:	c6 df       	rcall	.-116    	; 0x24ba <prom_read>
    252e:	80 93 b1 20 	sts	0x20B1, r24	; 0x8020b1 <c2>
    2532:	90 93 b2 20 	sts	0x20B2, r25	; 0x8020b2 <c2+0x1>
	//printf("c2: %u \n", c2);
	c3 = prom_read(0xA6);
    2536:	86 ea       	ldi	r24, 0xA6	; 166
    2538:	c0 df       	rcall	.-128    	; 0x24ba <prom_read>
    253a:	80 93 b7 20 	sts	0x20B7, r24	; 0x8020b7 <c3>
    253e:	90 93 b8 20 	sts	0x20B8, r25	; 0x8020b8 <c3+0x1>
	//printf("c3: %u \n", c3);
	c4 = prom_read(0xA8);
    2542:	88 ea       	ldi	r24, 0xA8	; 168
    2544:	ba df       	rcall	.-140    	; 0x24ba <prom_read>
    2546:	80 93 af 20 	sts	0x20AF, r24	; 0x8020af <c4>
    254a:	90 93 b0 20 	sts	0x20B0, r25	; 0x8020b0 <c4+0x1>
	//printf("c4: %u \n", c4);
	c5 = prom_read(0xAA);
    254e:	8a ea       	ldi	r24, 0xAA	; 170
    2550:	b4 df       	rcall	.-152    	; 0x24ba <prom_read>
    2552:	80 93 b3 20 	sts	0x20B3, r24	; 0x8020b3 <c5>
    2556:	90 93 b4 20 	sts	0x20B4, r25	; 0x8020b4 <c5+0x1>
	//printf("c5: %u \n", c5);
	c6 = prom_read(0xAC);
    255a:	8c ea       	ldi	r24, 0xAC	; 172
    255c:	ae df       	rcall	.-164    	; 0x24ba <prom_read>
    255e:	80 93 ad 20 	sts	0x20AD, r24	; 0x8020ad <c6>
    2562:	90 93 ae 20 	sts	0x20AE, r25	; 0x8020ae <c6+0x1>
	//printf("c6: %u \n", c6);
}
    2566:	df 91       	pop	r29
    2568:	cf 91       	pop	r28
    256a:	1f 91       	pop	r17
    256c:	08 95       	ret

0000256e <data_read>:
	delay_ms(1);
	//printf("data: %lu \n", data);
	return data;
}

uint32_t data_read(uint8_t command){
    256e:	8f 92       	push	r8
    2570:	9f 92       	push	r9
    2572:	af 92       	push	r10
    2574:	bf 92       	push	r11
    2576:	cf 92       	push	r12
    2578:	df 92       	push	r13
    257a:	ef 92       	push	r14
    257c:	ff 92       	push	r15
    257e:	1f 93       	push	r17
    2580:	cf 93       	push	r28
    2582:	df 93       	push	r29
	uint32_t data;
	PORTC.OUTCLR = 0b00010000;
    2584:	c0 e4       	ldi	r28, 0x40	; 64
    2586:	d6 e0       	ldi	r29, 0x06	; 6
    2588:	10 e1       	ldi	r17, 0x10	; 16
	SPI_write(command);
    258a:	1e 83       	std	Y+6, r17	; 0x06
	PORTC.OUTSET = 0b00010000;
    258c:	89 df       	rcall	.-238    	; 0x24a0 <SPI_write>
	delay_ms(9);
    258e:	1d 83       	std	Y+5, r17	; 0x05
    2590:	61 e8       	ldi	r22, 0x81	; 129
    2592:	7b eb       	ldi	r23, 0xBB	; 187
    2594:	80 e0       	ldi	r24, 0x00	; 0
	PORTC.OUTCLR = 0b00010000;
    2596:	90 e0       	ldi	r25, 0x00	; 0
    2598:	6d df       	rcall	.-294    	; 0x2474 <__portable_avr_delay_cycles>
    259a:	1e 83       	std	Y+6, r17	; 0x06
    259c:	80 e0       	ldi	r24, 0x00	; 0
    259e:	80 df       	rcall	.-256    	; 0x24a0 <SPI_write>
    25a0:	87 df       	rcall	.-242    	; 0x24b0 <spi_read>
    25a2:	c8 2e       	mov	r12, r24
    25a4:	d1 2c       	mov	r13, r1
    25a6:	e1 2c       	mov	r14, r1
    25a8:	f1 2c       	mov	r15, r1
    25aa:	56 01       	movw	r10, r12
    25ac:	99 24       	eor	r9, r9
    25ae:	88 24       	eor	r8, r8
    25b0:	7f df       	rcall	.-258    	; 0x24b0 <spi_read>
    25b2:	c8 2e       	mov	r12, r24
    25b4:	d1 2c       	mov	r13, r1
    25b6:	e1 2c       	mov	r14, r1
    25b8:	f1 2c       	mov	r15, r1
    25ba:	fe 2c       	mov	r15, r14
    25bc:	ed 2c       	mov	r14, r13
    25be:	dc 2c       	mov	r13, r12
    25c0:	cc 24       	eor	r12, r12
    25c2:	c8 0c       	add	r12, r8
    25c4:	d9 1c       	adc	r13, r9
    25c6:	ea 1c       	adc	r14, r10
    25c8:	fb 1c       	adc	r15, r11
    25ca:	72 df       	rcall	.-284    	; 0x24b0 <spi_read>
    25cc:	1d 83       	std	Y+5, r17	; 0x05
    25ce:	a7 01       	movw	r20, r14
    25d0:	96 01       	movw	r18, r12
    25d2:	28 0f       	add	r18, r24
    25d4:	31 1d       	adc	r19, r1
    25d6:	41 1d       	adc	r20, r1
    25d8:	51 1d       	adc	r21, r1
    25da:	ca 01       	movw	r24, r20
    25dc:	b9 01       	movw	r22, r18
    25de:	df 91       	pop	r29
    25e0:	cf 91       	pop	r28
    25e2:	1f 91       	pop	r17
    25e4:	ff 90       	pop	r15
    25e6:	ef 90       	pop	r14
    25e8:	df 90       	pop	r13
    25ea:	cf 90       	pop	r12
    25ec:	bf 90       	pop	r11
    25ee:	af 90       	pop	r10
    25f0:	9f 90       	pop	r9
    25f2:	8f 90       	pop	r8
    25f4:	08 95       	ret

000025f6 <get_pressure>:
    25f6:	2f 92       	push	r2
    25f8:	3f 92       	push	r3
    25fa:	4f 92       	push	r4
    25fc:	5f 92       	push	r5
    25fe:	6f 92       	push	r6
    2600:	7f 92       	push	r7
    2602:	8f 92       	push	r8
    2604:	9f 92       	push	r9
    2606:	af 92       	push	r10
    2608:	bf 92       	push	r11
    260a:	cf 92       	push	r12
    260c:	df 92       	push	r13
    260e:	ef 92       	push	r14
    2610:	ff 92       	push	r15
    2612:	0f 93       	push	r16
    2614:	1f 93       	push	r17
    2616:	cf 93       	push	r28
    2618:	df 93       	push	r29
    261a:	cd b7       	in	r28, 0x3d	; 61
    261c:	de b7       	in	r29, 0x3e	; 62
    261e:	61 97       	sbiw	r28, 0x11	; 17
    2620:	cd bf       	out	0x3d, r28	; 61
    2622:	de bf       	out	0x3e, r29	; 62
    2624:	88 e4       	ldi	r24, 0x48	; 72
    2626:	a3 df       	rcall	.-186    	; 0x256e <data_read>
    2628:	6d 83       	std	Y+5, r22	; 0x05
    262a:	7e 83       	std	Y+6, r23	; 0x06
    262c:	8f 83       	std	Y+7, r24	; 0x07
    262e:	98 87       	std	Y+8, r25	; 0x08
    2630:	88 e5       	ldi	r24, 0x58	; 88
    2632:	9d df       	rcall	.-198    	; 0x256e <data_read>
    2634:	20 91 b3 20 	lds	r18, 0x20B3	; 0x8020b3 <c5>
    2638:	30 91 b4 20 	lds	r19, 0x20B4	; 0x8020b4 <c5+0x1>
    263c:	89 01       	movw	r16, r18
    263e:	20 e0       	ldi	r18, 0x00	; 0
    2640:	30 e0       	ldi	r19, 0x00	; 0
    2642:	32 2f       	mov	r19, r18
    2644:	21 2f       	mov	r18, r17
    2646:	10 2f       	mov	r17, r16
    2648:	00 27       	eor	r16, r16
    264a:	6b 01       	movw	r12, r22
    264c:	7c 01       	movw	r14, r24
    264e:	c0 1a       	sub	r12, r16
    2650:	d1 0a       	sbc	r13, r17
    2652:	e2 0a       	sbc	r14, r18
    2654:	f3 0a       	sbc	r15, r19
    2656:	c9 82       	std	Y+1, r12	; 0x01
    2658:	da 82       	std	Y+2, r13	; 0x02
    265a:	eb 82       	std	Y+3, r14	; 0x03
    265c:	fc 82       	std	Y+4, r15	; 0x04
    265e:	20 90 ad 20 	lds	r2, 0x20AD	; 0x8020ad <c6>
    2662:	30 90 ae 20 	lds	r3, 0x20AE	; 0x8020ae <c6+0x1>
    2666:	d7 01       	movw	r26, r14
    2668:	c6 01       	movw	r24, r12
    266a:	bb 0f       	add	r27, r27
    266c:	88 0b       	sbc	r24, r24
    266e:	98 2f       	mov	r25, r24
    2670:	dc 01       	movw	r26, r24
    2672:	a9 80       	ldd	r10, Y+1	; 0x01
    2674:	ba 80       	ldd	r11, Y+2	; 0x02
    2676:	cb 80       	ldd	r12, Y+3	; 0x03
    2678:	dc 80       	ldd	r13, Y+4	; 0x04
    267a:	e8 2e       	mov	r14, r24
    267c:	f8 2e       	mov	r15, r24
    267e:	08 2f       	mov	r16, r24
    2680:	18 2f       	mov	r17, r24
    2682:	22 2d       	mov	r18, r2
    2684:	33 2d       	mov	r19, r3
    2686:	40 e0       	ldi	r20, 0x00	; 0
    2688:	50 e0       	ldi	r21, 0x00	; 0
    268a:	60 e0       	ldi	r22, 0x00	; 0
    268c:	70 e0       	ldi	r23, 0x00	; 0
    268e:	80 e0       	ldi	r24, 0x00	; 0
    2690:	90 e0       	ldi	r25, 0x00	; 0
    2692:	0e 94 ad 1f 	call	0x3f5a	; 0x3f5a <__muldi3>
    2696:	89 8b       	std	Y+17, r24	; 0x11
    2698:	b2 2f       	mov	r27, r18
    269a:	f3 2f       	mov	r31, r19
    269c:	e4 2f       	mov	r30, r20
    269e:	95 2e       	mov	r9, r21
    26a0:	86 2e       	mov	r8, r22
    26a2:	77 2e       	mov	r7, r23
    26a4:	a8 2e       	mov	r10, r24
    26a6:	b9 2e       	mov	r11, r25
    26a8:	a0 e0       	ldi	r26, 0x00	; 0
    26aa:	0e 94 47 20 	call	0x408e	; 0x408e <__cmpdi2_s8>
    26ae:	84 f4       	brge	.+32     	; 0x26d0 <get_pressure+0xda>
    26b0:	21 50       	subi	r18, 0x01	; 1
    26b2:	31 09       	sbc	r19, r1
    26b4:	40 48       	sbci	r20, 0x80	; 128
    26b6:	5f 4f       	sbci	r21, 0xFF	; 255
    26b8:	6f 4f       	sbci	r22, 0xFF	; 255
    26ba:	7f 4f       	sbci	r23, 0xFF	; 255
    26bc:	8f 4f       	sbci	r24, 0xFF	; 255
    26be:	9f 4f       	sbci	r25, 0xFF	; 255
    26c0:	b2 2f       	mov	r27, r18
    26c2:	f3 2f       	mov	r31, r19
    26c4:	e4 2f       	mov	r30, r20
    26c6:	95 2e       	mov	r9, r21
    26c8:	86 2e       	mov	r8, r22
    26ca:	77 2e       	mov	r7, r23
    26cc:	a8 2e       	mov	r10, r24
    26ce:	b9 2e       	mov	r11, r25
    26d0:	2b 2f       	mov	r18, r27
    26d2:	3f 2f       	mov	r19, r31
    26d4:	4e 2f       	mov	r20, r30
    26d6:	59 2d       	mov	r21, r9
    26d8:	68 2d       	mov	r22, r8
    26da:	77 2d       	mov	r23, r7
    26dc:	8a 2d       	mov	r24, r10
    26de:	9b 2d       	mov	r25, r11
    26e0:	07 e1       	ldi	r16, 0x17	; 23
    26e2:	0e 94 17 20 	call	0x402e	; 0x402e <__ashrdi3>
    26e6:	82 2e       	mov	r8, r18
    26e8:	93 2e       	mov	r9, r19
    26ea:	00 e3       	ldi	r16, 0x30	; 48
    26ec:	80 1a       	sub	r8, r16
    26ee:	08 ef       	ldi	r16, 0xF8	; 248
    26f0:	90 0a       	sbc	r9, r16
    26f2:	09 2c       	mov	r0, r9
    26f4:	00 0c       	add	r0, r0
    26f6:	aa 08       	sbc	r10, r10
    26f8:	bb 08       	sbc	r11, r11
    26fa:	80 92 a9 20 	sts	0x20A9, r8	; 0x8020a9 <TEMP>
    26fe:	90 92 aa 20 	sts	0x20AA, r9	; 0x8020aa <TEMP+0x1>
    2702:	a0 92 ab 20 	sts	0x20AB, r10	; 0x8020ab <TEMP+0x2>
    2706:	b0 92 ac 20 	sts	0x20AC, r11	; 0x8020ac <TEMP+0x3>
    270a:	a0 91 b7 20 	lds	r26, 0x20B7	; 0x8020b7 <c3>
    270e:	b0 91 b8 20 	lds	r27, 0x20B8	; 0x8020b8 <c3+0x1>
    2712:	29 81       	ldd	r18, Y+1	; 0x01
    2714:	3a 81       	ldd	r19, Y+2	; 0x02
    2716:	4b 81       	ldd	r20, Y+3	; 0x03
    2718:	5c 81       	ldd	r21, Y+4	; 0x04
    271a:	0e 94 a3 1f 	call	0x3f46	; 0x3f46 <__muluhisi3>
    271e:	4b 01       	movw	r8, r22
    2720:	5c 01       	movw	r10, r24
    2722:	99 23       	and	r25, r25
    2724:	2c f4       	brge	.+10     	; 0x2730 <get_pressure+0x13a>
    2726:	1f e7       	ldi	r17, 0x7F	; 127
    2728:	81 0e       	add	r8, r17
    272a:	91 1c       	adc	r9, r1
    272c:	a1 1c       	adc	r10, r1
    272e:	b1 1c       	adc	r11, r1
    2730:	24 01       	movw	r4, r8
    2732:	35 01       	movw	r6, r10
    2734:	68 94       	set
    2736:	16 f8       	bld	r1, 6
    2738:	75 94       	asr	r7
    273a:	67 94       	ror	r6
    273c:	57 94       	ror	r5
    273e:	47 94       	ror	r4
    2740:	16 94       	lsr	r1
    2742:	d1 f7       	brne	.-12     	; 0x2738 <get_pressure+0x142>
    2744:	bb 0c       	add	r11, r11
    2746:	88 08       	sbc	r8, r8
    2748:	98 2c       	mov	r9, r8
    274a:	54 01       	movw	r10, r8
    274c:	80 91 b5 20 	lds	r24, 0x20B5	; 0x8020b5 <c1>
    2750:	90 91 b6 20 	lds	r25, 0x20B6	; 0x8020b6 <c1+0x1>
    2754:	6c 01       	movw	r12, r24
    2756:	e1 2c       	mov	r14, r1
    2758:	f1 2c       	mov	r15, r1
    275a:	00 e0       	ldi	r16, 0x00	; 0
    275c:	10 e0       	ldi	r17, 0x00	; 0
    275e:	98 01       	movw	r18, r16
    2760:	89 87       	std	Y+9, r24	; 0x09
    2762:	da 86       	std	Y+10, r13	; 0x0a
    2764:	eb 86       	std	Y+11, r14	; 0x0b
    2766:	fc 86       	std	Y+12, r15	; 0x0c
    2768:	0d 87       	std	Y+13, r16	; 0x0d
    276a:	1e 87       	std	Y+14, r17	; 0x0e
    276c:	2f 87       	std	Y+15, r18	; 0x0f
    276e:	38 8b       	std	Y+16, r19	; 0x10
    2770:	28 2f       	mov	r18, r24
    2772:	3d 2d       	mov	r19, r13
    2774:	40 e0       	ldi	r20, 0x00	; 0
    2776:	50 e0       	ldi	r21, 0x00	; 0
    2778:	60 e0       	ldi	r22, 0x00	; 0
    277a:	70 e0       	ldi	r23, 0x00	; 0
    277c:	80 e0       	ldi	r24, 0x00	; 0
    277e:	90 e0       	ldi	r25, 0x00	; 0
    2780:	00 e1       	ldi	r16, 0x10	; 16
    2782:	0e 94 fe 1f 	call	0x3ffc	; 0x3ffc <__ashldi3>
    2786:	f2 2f       	mov	r31, r18
    2788:	e3 2f       	mov	r30, r19
    278a:	c4 2e       	mov	r12, r20
    278c:	d5 2e       	mov	r13, r21
    278e:	e6 2e       	mov	r14, r22
    2790:	f7 2e       	mov	r15, r23
    2792:	08 2f       	mov	r16, r24
    2794:	19 2f       	mov	r17, r25
    2796:	24 2d       	mov	r18, r4
    2798:	35 2d       	mov	r19, r5
    279a:	46 2d       	mov	r20, r6
    279c:	57 2d       	mov	r21, r7
    279e:	68 2d       	mov	r22, r8
    27a0:	78 2d       	mov	r23, r8
    27a2:	88 2d       	mov	r24, r8
    27a4:	98 2d       	mov	r25, r8
    27a6:	af 2e       	mov	r10, r31
    27a8:	be 2e       	mov	r11, r30
    27aa:	0e 94 35 20 	call	0x406a	; 0x406a <__adddi3>
    27ae:	ed 80       	ldd	r14, Y+5	; 0x05
    27b0:	fe 80       	ldd	r15, Y+6	; 0x06
    27b2:	0f 81       	ldd	r16, Y+7	; 0x07
    27b4:	18 85       	ldd	r17, Y+8	; 0x08
    27b6:	17 01       	movw	r2, r14
    27b8:	28 01       	movw	r4, r16
    27ba:	ae 2c       	mov	r10, r14
    27bc:	b3 2c       	mov	r11, r3
    27be:	c4 2c       	mov	r12, r4
    27c0:	d5 2c       	mov	r13, r5
    27c2:	e1 2c       	mov	r14, r1
    27c4:	f1 2c       	mov	r15, r1
    27c6:	00 e0       	ldi	r16, 0x00	; 0
    27c8:	10 e0       	ldi	r17, 0x00	; 0
    27ca:	0e 94 ad 1f 	call	0x3f5a	; 0x3f5a <__muldi3>
    27ce:	12 2f       	mov	r17, r18
    27d0:	39 87       	std	Y+9, r19	; 0x09
    27d2:	4d 83       	std	Y+5, r20	; 0x05
    27d4:	b5 2f       	mov	r27, r21
    27d6:	f6 2f       	mov	r31, r22
    27d8:	e7 2f       	mov	r30, r23
    27da:	78 2e       	mov	r7, r24
    27dc:	89 2e       	mov	r8, r25
    27de:	a0 e0       	ldi	r26, 0x00	; 0
    27e0:	0e 94 47 20 	call	0x408e	; 0x408e <__cmpdi2_s8>
    27e4:	84 f4       	brge	.+32     	; 0x2806 <get_pressure+0x210>
    27e6:	21 50       	subi	r18, 0x01	; 1
    27e8:	31 09       	sbc	r19, r1
    27ea:	40 4e       	sbci	r20, 0xE0	; 224
    27ec:	5f 4f       	sbci	r21, 0xFF	; 255
    27ee:	6f 4f       	sbci	r22, 0xFF	; 255
    27f0:	7f 4f       	sbci	r23, 0xFF	; 255
    27f2:	8f 4f       	sbci	r24, 0xFF	; 255
    27f4:	9f 4f       	sbci	r25, 0xFF	; 255
    27f6:	12 2f       	mov	r17, r18
    27f8:	39 87       	std	Y+9, r19	; 0x09
    27fa:	4d 83       	std	Y+5, r20	; 0x05
    27fc:	b5 2f       	mov	r27, r21
    27fe:	f6 2f       	mov	r31, r22
    2800:	e7 2f       	mov	r30, r23
    2802:	78 2e       	mov	r7, r24
    2804:	89 2e       	mov	r8, r25
    2806:	21 2f       	mov	r18, r17
    2808:	39 85       	ldd	r19, Y+9	; 0x09
    280a:	4d 81       	ldd	r20, Y+5	; 0x05
    280c:	5b 2f       	mov	r21, r27
    280e:	6f 2f       	mov	r22, r31
    2810:	7e 2f       	mov	r23, r30
    2812:	87 2d       	mov	r24, r7
    2814:	98 2d       	mov	r25, r8
    2816:	05 e1       	ldi	r16, 0x15	; 21
    2818:	0e 94 17 20 	call	0x402e	; 0x402e <__ashrdi3>
    281c:	52 2e       	mov	r5, r18
    281e:	63 2e       	mov	r6, r19
    2820:	74 2e       	mov	r7, r20
    2822:	59 8b       	std	Y+17, r21	; 0x11
    2824:	69 87       	std	Y+9, r22	; 0x09
    2826:	f7 2f       	mov	r31, r23
    2828:	e8 2f       	mov	r30, r24
    282a:	49 2e       	mov	r4, r25
    282c:	a0 91 af 20 	lds	r26, 0x20AF	; 0x8020af <c4>
    2830:	b0 91 b0 20 	lds	r27, 0x20B0	; 0x8020b0 <c4+0x1>
    2834:	29 81       	ldd	r18, Y+1	; 0x01
    2836:	3a 81       	ldd	r19, Y+2	; 0x02
    2838:	4b 81       	ldd	r20, Y+3	; 0x03
    283a:	5c 81       	ldd	r21, Y+4	; 0x04
    283c:	0e 94 a3 1f 	call	0x3f46	; 0x3f46 <__muluhisi3>
    2840:	4b 01       	movw	r8, r22
    2842:	5c 01       	movw	r10, r24
    2844:	99 23       	and	r25, r25
    2846:	2c f4       	brge	.+10     	; 0x2852 <get_pressure+0x25c>
    2848:	0f e3       	ldi	r16, 0x3F	; 63
    284a:	80 0e       	add	r8, r16
    284c:	91 1c       	adc	r9, r1
    284e:	a1 1c       	adc	r10, r1
    2850:	b1 1c       	adc	r11, r1
    2852:	75 01       	movw	r14, r10
    2854:	64 01       	movw	r12, r8
    2856:	68 94       	set
    2858:	15 f8       	bld	r1, 5
    285a:	f5 94       	asr	r15
    285c:	e7 94       	ror	r14
    285e:	d7 94       	ror	r13
    2860:	c7 94       	ror	r12
    2862:	16 94       	lsr	r1
    2864:	d1 f7       	brne	.-12     	; 0x285a <get_pressure+0x264>
    2866:	bb 0c       	add	r11, r11
    2868:	88 08       	sbc	r8, r8
    286a:	98 2c       	mov	r9, r8
    286c:	54 01       	movw	r10, r8
    286e:	20 91 b1 20 	lds	r18, 0x20B1	; 0x8020b1 <c2>
    2872:	30 91 b2 20 	lds	r19, 0x20B2	; 0x8020b2 <c2+0x1>
    2876:	a9 01       	movw	r20, r18
    2878:	35 2f       	mov	r19, r21
    287a:	40 e0       	ldi	r20, 0x00	; 0
    287c:	50 e0       	ldi	r21, 0x00	; 0
    287e:	60 e0       	ldi	r22, 0x00	; 0
    2880:	70 e0       	ldi	r23, 0x00	; 0
    2882:	80 e0       	ldi	r24, 0x00	; 0
    2884:	90 e0       	ldi	r25, 0x00	; 0
    2886:	01 e1       	ldi	r16, 0x11	; 17
    2888:	0e 94 fe 1f 	call	0x3ffc	; 0x3ffc <__ashldi3>
    288c:	22 2e       	mov	r2, r18
    288e:	33 2e       	mov	r3, r19
    2890:	49 83       	std	Y+1, r20	; 0x01
    2892:	5d 83       	std	Y+5, r21	; 0x05
    2894:	b6 2f       	mov	r27, r22
    2896:	a7 2f       	mov	r26, r23
    2898:	08 2f       	mov	r16, r24
    289a:	19 2f       	mov	r17, r25
    289c:	2c 2d       	mov	r18, r12
    289e:	3d 2d       	mov	r19, r13
    28a0:	4e 2d       	mov	r20, r14
    28a2:	5f 2d       	mov	r21, r15
    28a4:	68 2d       	mov	r22, r8
    28a6:	78 2d       	mov	r23, r8
    28a8:	88 2d       	mov	r24, r8
    28aa:	98 2d       	mov	r25, r8
    28ac:	a2 2c       	mov	r10, r2
    28ae:	b3 2c       	mov	r11, r3
    28b0:	c9 80       	ldd	r12, Y+1	; 0x01
    28b2:	dd 80       	ldd	r13, Y+5	; 0x05
    28b4:	eb 2e       	mov	r14, r27
    28b6:	fa 2e       	mov	r15, r26
    28b8:	0e 94 35 20 	call	0x406a	; 0x406a <__adddi3>
    28bc:	a2 2e       	mov	r10, r18
    28be:	b3 2e       	mov	r11, r19
    28c0:	c4 2e       	mov	r12, r20
    28c2:	d5 2e       	mov	r13, r21
    28c4:	e6 2e       	mov	r14, r22
    28c6:	f7 2e       	mov	r15, r23
    28c8:	08 2f       	mov	r16, r24
    28ca:	19 2f       	mov	r17, r25
    28cc:	25 2d       	mov	r18, r5
    28ce:	36 2d       	mov	r19, r6
    28d0:	47 2d       	mov	r20, r7
    28d2:	59 89       	ldd	r21, Y+17	; 0x11
    28d4:	69 85       	ldd	r22, Y+9	; 0x09
    28d6:	7f 2f       	mov	r23, r31
    28d8:	8e 2f       	mov	r24, r30
    28da:	94 2d       	mov	r25, r4
    28dc:	0e 94 3e 20 	call	0x407c	; 0x407c <__subdi3>
    28e0:	12 2f       	mov	r17, r18
    28e2:	3d 83       	std	Y+5, r19	; 0x05
    28e4:	49 83       	std	Y+1, r20	; 0x01
    28e6:	b5 2f       	mov	r27, r21
    28e8:	f6 2f       	mov	r31, r22
    28ea:	e7 2f       	mov	r30, r23
    28ec:	78 2e       	mov	r7, r24
    28ee:	89 2e       	mov	r8, r25
    28f0:	a0 e0       	ldi	r26, 0x00	; 0
    28f2:	0e 94 47 20 	call	0x408e	; 0x408e <__cmpdi2_s8>
    28f6:	84 f4       	brge	.+32     	; 0x2918 <get_pressure+0x322>
    28f8:	21 50       	subi	r18, 0x01	; 1
    28fa:	30 48       	sbci	r19, 0x80	; 128
    28fc:	4f 4f       	sbci	r20, 0xFF	; 255
    28fe:	5f 4f       	sbci	r21, 0xFF	; 255
    2900:	6f 4f       	sbci	r22, 0xFF	; 255
    2902:	7f 4f       	sbci	r23, 0xFF	; 255
    2904:	8f 4f       	sbci	r24, 0xFF	; 255
    2906:	9f 4f       	sbci	r25, 0xFF	; 255
    2908:	12 2f       	mov	r17, r18
    290a:	3d 83       	std	Y+5, r19	; 0x05
    290c:	49 83       	std	Y+1, r20	; 0x01
    290e:	b5 2f       	mov	r27, r21
    2910:	f6 2f       	mov	r31, r22
    2912:	e7 2f       	mov	r30, r23
    2914:	78 2e       	mov	r7, r24
    2916:	89 2e       	mov	r8, r25
    2918:	21 2f       	mov	r18, r17
    291a:	3d 81       	ldd	r19, Y+5	; 0x05
    291c:	49 81       	ldd	r20, Y+1	; 0x01
    291e:	5b 2f       	mov	r21, r27
    2920:	6f 2f       	mov	r22, r31
    2922:	7e 2f       	mov	r23, r30
    2924:	87 2d       	mov	r24, r7
    2926:	98 2d       	mov	r25, r8
    2928:	0f e0       	ldi	r16, 0x0F	; 15
    292a:	0e 94 17 20 	call	0x402e	; 0x402e <__ashrdi3>
    292e:	62 2f       	mov	r22, r18
    2930:	73 2f       	mov	r23, r19
    2932:	84 2f       	mov	r24, r20
    2934:	95 2f       	mov	r25, r21
    2936:	61 96       	adiw	r28, 0x11	; 17
    2938:	cd bf       	out	0x3d, r28	; 61
    293a:	de bf       	out	0x3e, r29	; 62
    293c:	df 91       	pop	r29
    293e:	cf 91       	pop	r28
    2940:	1f 91       	pop	r17
    2942:	0f 91       	pop	r16
    2944:	ff 90       	pop	r15
    2946:	ef 90       	pop	r14
    2948:	df 90       	pop	r13
    294a:	cf 90       	pop	r12
    294c:	bf 90       	pop	r11
    294e:	af 90       	pop	r10
    2950:	9f 90       	pop	r9
    2952:	8f 90       	pop	r8
    2954:	7f 90       	pop	r7
    2956:	6f 90       	pop	r6
    2958:	5f 90       	pop	r5
    295a:	4f 90       	pop	r4
    295c:	3f 90       	pop	r3
    295e:	2f 90       	pop	r2
    2960:	08 95       	ret

00002962 <adc_init>:
#include <asf.h>
#include <math.h>
#include "thermistor.h"


void adc_init(void){	//This is for PA6... mostly
    2962:	ff 92       	push	r15
    2964:	0f 93       	push	r16
    2966:	1f 93       	push	r17
    2968:	cf 93       	push	r28
    296a:	df 93       	push	r29
	PORTA.DIRCLR = 0b00000001;
    296c:	e0 e0       	ldi	r30, 0x00	; 0
    296e:	f6 e0       	ldi	r31, 0x06	; 6
    2970:	ff 24       	eor	r15, r15
    2972:	f3 94       	inc	r15
    2974:	f2 82       	std	Z+2, r15	; 0x02
	PORTA.DIR = 0b11111110;
    2976:	8e ef       	ldi	r24, 0xFE	; 254
    2978:	80 83       	st	Z, r24
	ADCA.CTRLA = 0b00000001;
    297a:	c0 e0       	ldi	r28, 0x00	; 0
    297c:	d2 e0       	ldi	r29, 0x02	; 2
    297e:	f8 82       	st	Y, r15
	ADCA.CTRLB = 0b00000000;
    2980:	19 82       	std	Y+1, r1	; 0x01
	ADCA.REFCTRL = 0b00010000;
    2982:	80 e1       	ldi	r24, 0x10	; 16
    2984:	8a 83       	std	Y+2, r24	; 0x02
	ADCA.PRESCALER = 0b00000101;
    2986:	85 e0       	ldi	r24, 0x05	; 5
    2988:	8c 83       	std	Y+4, r24	; 0x04
 *
 * \param address Byte offset into the signature row
 */
static inline uint8_t nvm_read_production_signature_row(uint8_t address)
{
	return nvm_read_byte(NVM_CMD_READ_CALIB_ROW_gc, address);
    298a:	61 e2       	ldi	r22, 0x21	; 33
    298c:	70 e0       	ldi	r23, 0x00	; 0
    298e:	82 e0       	ldi	r24, 0x02	; 2
    2990:	0e 94 fd 05 	call	0xbfa	; 0xbfa <nvm_read_byte>
	uint16_t data;

	switch (cal) {
#ifdef ADCA
	case ADC_CAL_ADCA:
		data = nvm_read_production_signature_row(ADCACAL1);
    2994:	08 2f       	mov	r16, r24
    2996:	10 e0       	ldi	r17, 0x00	; 0
		data <<= 8;
    2998:	10 2f       	mov	r17, r16
    299a:	00 27       	eor	r16, r16
    299c:	60 e2       	ldi	r22, 0x20	; 32
    299e:	70 e0       	ldi	r23, 0x00	; 0
    29a0:	82 e0       	ldi	r24, 0x02	; 2
    29a2:	0e 94 fd 05 	call	0xbfa	; 0xbfa <nvm_read_byte>
		data |= nvm_read_production_signature_row(ADCACAL0);
    29a6:	08 2b       	or	r16, r24
	ADCA.CAL = adc_get_calibration_data(ADC_CAL_ADCA);
    29a8:	0c 87       	std	Y+12, r16	; 0x0c
    29aa:	1d 87       	std	Y+13, r17	; 0x0d
	
	ADCA.CH0.CTRL = 0b00000001;
    29ac:	f8 a2       	std	Y+32, r15	; 0x20
	ADCA.CH0.MUXCTRL = 0b00000110;
    29ae:	86 e0       	ldi	r24, 0x06	; 6
    29b0:	89 a3       	std	Y+33, r24	; 0x21
}
    29b2:	df 91       	pop	r29
    29b4:	cf 91       	pop	r28
    29b6:	1f 91       	pop	r17
    29b8:	0f 91       	pop	r16
    29ba:	ff 90       	pop	r15
    29bc:	08 95       	ret

000029be <getVoltage>:


float getVoltage(void){
	ADCA.CH0.CTRL  |= 0b10000000;
    29be:	e0 e0       	ldi	r30, 0x00	; 0
    29c0:	f2 e0       	ldi	r31, 0x02	; 2
    29c2:	80 a1       	ldd	r24, Z+32	; 0x20
    29c4:	80 68       	ori	r24, 0x80	; 128
    29c6:	80 a3       	std	Z+32, r24	; 0x20
	//printf("one");
	while(ADCA.CH0.INTFLAGS == 0);
    29c8:	83 a1       	ldd	r24, Z+35	; 0x23
    29ca:	88 23       	and	r24, r24
    29cc:	e9 f3       	breq	.-6      	; 0x29c8 <getVoltage+0xa>
	//printf("two");
	ADCA.CH0.INTFLAGS = 0;
    29ce:	e0 e0       	ldi	r30, 0x00	; 0
    29d0:	f2 e0       	ldi	r31, 0x02	; 2
    29d2:	13 a2       	std	Z+35, r1	; 0x23
	//printf("three");
	uint16_t adcReading = ADCA.CH0.RES;
    29d4:	64 a1       	ldd	r22, Z+36	; 0x24
    29d6:	75 a1       	ldd	r23, Z+37	; 0x25
	//printf("ADC reading = %u\n", adcReading);
	float voltage = 0.0004899 * (float)(adcReading) - 0.0856326;	//We have to find these numbers by applying differing voltage, printing ADC readings, and solve equation
	//printf("voltage: %f \n", voltage);
	return voltage;
    29d8:	80 e0       	ldi	r24, 0x00	; 0
    29da:	90 e0       	ldi	r25, 0x00	; 0
    29dc:	94 d4       	rcall	.+2344   	; 0x3306 <__floatunsisf>
    29de:	22 ea       	ldi	r18, 0xA2	; 162
    29e0:	3c e6       	ldi	r19, 0x6C	; 108
    29e2:	40 e0       	ldi	r20, 0x00	; 0
    29e4:	5a e3       	ldi	r21, 0x3A	; 58
    29e6:	62 d5       	rcall	.+2756   	; 0x34ac <__mulsf3>
    29e8:	25 e2       	ldi	r18, 0x25	; 37
    29ea:	30 e6       	ldi	r19, 0x60	; 96
    29ec:	4f ea       	ldi	r20, 0xAF	; 175
    29ee:	5d e3       	ldi	r21, 0x3D	; 61
	
}
    29f0:	8c c3       	rjmp	.+1816   	; 0x310a <__subsf3>

000029f2 <getTemperature>:
	uint16_t voltage = getVoltage();
	uint16_t current = (voltage/10000);
	return current;
}
*/
float getTemperature(void){
    29f2:	8f 92       	push	r8
    29f4:	9f 92       	push	r9
    29f6:	af 92       	push	r10
    29f8:	bf 92       	push	r11
    29fa:	cf 92       	push	r12
    29fc:	df 92       	push	r13
    29fe:	ef 92       	push	r14
	float voltage = getVoltage();
    2a00:	ff 92       	push	r15
    2a02:	dd df       	rcall	.-70     	; 0x29be <getVoltage>
    2a04:	6b 01       	movw	r12, r22
	//uint16_t current = getCurrent();
	//uint16_t resistance = voltage/current;
	float resistance = (voltage*10000)/(voltage-3.3);
	//printf("resistance = %f \n", resistance);
	uint32_t temperature = 3977.0/(log(resistance/(10000.0*pow(2.71828,(-3977.0/298.15)))));
    2a06:	7c 01       	movw	r14, r24
    2a08:	20 e0       	ldi	r18, 0x00	; 0
    2a0a:	30 e4       	ldi	r19, 0x40	; 64
    2a0c:	4c e1       	ldi	r20, 0x1C	; 28
    2a0e:	56 e4       	ldi	r21, 0x46	; 70
    2a10:	4d d5       	rcall	.+2714   	; 0x34ac <__mulsf3>
    2a12:	4b 01       	movw	r8, r22
    2a14:	5c 01       	movw	r10, r24
    2a16:	23 e3       	ldi	r18, 0x33	; 51
    2a18:	33 e3       	ldi	r19, 0x33	; 51
    2a1a:	43 e5       	ldi	r20, 0x53	; 83
    2a1c:	50 e4       	ldi	r21, 0x40	; 64
    2a1e:	c7 01       	movw	r24, r14
    2a20:	b6 01       	movw	r22, r12
    2a22:	73 d3       	rcall	.+1766   	; 0x310a <__subsf3>
    2a24:	9b 01       	movw	r18, r22
    2a26:	ac 01       	movw	r20, r24
    2a28:	c5 01       	movw	r24, r10
    2a2a:	b4 01       	movw	r22, r8
    2a2c:	d3 d3       	rcall	.+1958   	; 0x31d4 <__divsf3>
    2a2e:	2b e5       	ldi	r18, 0x5B	; 91
    2a30:	30 ef       	ldi	r19, 0xF0	; 240
    2a32:	43 e8       	ldi	r20, 0x83	; 131
    2a34:	5c e3       	ldi	r21, 0x3C	; 60
	//float temperature = pow((.003351016+.0002569850*log(resistance/10000)+.000002620131*pow(log(resistance/10000),2)),-1);
	return temperature;
    2a36:	ce d3       	rcall	.+1948   	; 0x31d4 <__divsf3>
    2a38:	f9 d4       	rcall	.+2546   	; 0x342c <log>
    2a3a:	9b 01       	movw	r18, r22
    2a3c:	ac 01       	movw	r20, r24
    2a3e:	60 e0       	ldi	r22, 0x00	; 0
    2a40:	70 e9       	ldi	r23, 0x90	; 144
    2a42:	88 e7       	ldi	r24, 0x78	; 120
    2a44:	95 e4       	ldi	r25, 0x45	; 69
    2a46:	c6 d3       	rcall	.+1932   	; 0x31d4 <__divsf3>
	
	
	
    2a48:	32 d4       	rcall	.+2148   	; 0x32ae <__fixunssfsi>
    2a4a:	5d d4       	rcall	.+2234   	; 0x3306 <__floatunsisf>
    2a4c:	ff 90       	pop	r15
    2a4e:	ef 90       	pop	r14
    2a50:	df 90       	pop	r13
    2a52:	cf 90       	pop	r12
    2a54:	bf 90       	pop	r11
    2a56:	af 90       	pop	r10
    2a58:	9f 90       	pop	r9
    2a5a:	8f 90       	pop	r8
    2a5c:	08 95       	ret

00002a5e <usart_serial_getchar>:
		read_buffer[loc] = usart_getchar(usart_channel);
		loc++;
		
	}
	return read_buffer;
}
    2a5e:	cf 93       	push	r28
    2a60:	df 93       	push	r29
    2a62:	eb 01       	movw	r28, r22
    2a64:	9c d9       	rcall	.-3272   	; 0x1d9e <usart_getchar>
    2a66:	88 83       	st	Y, r24
    2a68:	df 91       	pop	r29
    2a6a:	cf 91       	pop	r28
    2a6c:	08 95       	ret

00002a6e <usart_serial_putchar>:
    2a6e:	8f c9       	rjmp	.-3298   	; 0x1d8e <usart_putchar>
    2a70:	08 95       	ret

00002a72 <usart_init>:
    2a72:	cf 93       	push	r28
    2a74:	df 93       	push	r29
    2a76:	cd b7       	in	r28, 0x3d	; 61
    2a78:	de b7       	in	r29, 0x3e	; 62
    2a7a:	27 97       	sbiw	r28, 0x07	; 7
    2a7c:	cd bf       	out	0x3d, r28	; 61
    2a7e:	de bf       	out	0x3e, r29	; 62
    2a80:	e0 e4       	ldi	r30, 0x40	; 64
    2a82:	f6 e0       	ldi	r31, 0x06	; 6
    2a84:	88 e0       	ldi	r24, 0x08	; 8
    2a86:	81 83       	std	Z+1, r24	; 0x01
    2a88:	85 83       	std	Z+5, r24	; 0x05
    2a8a:	e0 e6       	ldi	r30, 0x60	; 96
    2a8c:	f6 e0       	ldi	r31, 0x06	; 6
    2a8e:	81 83       	std	Z+1, r24	; 0x01
    2a90:	85 83       	std	Z+5, r24	; 0x05
    2a92:	80 ea       	ldi	r24, 0xA0	; 160
    2a94:	98 e0       	ldi	r25, 0x08	; 8
    2a96:	80 93 a3 20 	sts	0x20A3, r24	; 0x8020a3 <stdio_base>
    2a9a:	90 93 a4 20 	sts	0x20A4, r25	; 0x8020a4 <stdio_base+0x1>
    2a9e:	87 e3       	ldi	r24, 0x37	; 55
    2aa0:	95 e1       	ldi	r25, 0x15	; 21
    2aa2:	80 93 a1 20 	sts	0x20A1, r24	; 0x8020a1 <ptr_put>
    2aa6:	90 93 a2 20 	sts	0x20A2, r25	; 0x8020a2 <ptr_put+0x1>
    2aaa:	8f e2       	ldi	r24, 0x2F	; 47
    2aac:	95 e1       	ldi	r25, 0x15	; 21
    2aae:	80 93 9f 20 	sts	0x209F, r24	; 0x80209f <ptr_get>
    2ab2:	90 93 a0 20 	sts	0x20A0, r25	; 0x8020a0 <ptr_get+0x1>
    2ab6:	ed e0       	ldi	r30, 0x0D	; 13
    2ab8:	f0 e2       	ldi	r31, 0x20	; 32
    2aba:	84 81       	ldd	r24, Z+4	; 0x04
    2abc:	8d 83       	std	Y+5, r24	; 0x05
    2abe:	85 81       	ldd	r24, Z+5	; 0x05
    2ac0:	8e 83       	std	Y+6, r24	; 0x06
    2ac2:	86 81       	ldd	r24, Z+6	; 0x06
    2ac4:	8f 83       	std	Y+7, r24	; 0x07
    2ac6:	80 81       	ld	r24, Z
    2ac8:	91 81       	ldd	r25, Z+1	; 0x01
    2aca:	a2 81       	ldd	r26, Z+2	; 0x02
    2acc:	b3 81       	ldd	r27, Z+3	; 0x03
    2ace:	89 83       	std	Y+1, r24	; 0x01
    2ad0:	9a 83       	std	Y+2, r25	; 0x02
    2ad2:	ab 83       	std	Y+3, r26	; 0x03
    2ad4:	bc 83       	std	Y+4, r27	; 0x04
    2ad6:	60 e1       	ldi	r22, 0x10	; 16
    2ad8:	83 e0       	ldi	r24, 0x03	; 3
    2ada:	0e 94 ce 03 	call	0x79c	; 0x79c <sysclk_enable_module>
    2ade:	be 01       	movw	r22, r28
    2ae0:	6f 5f       	subi	r22, 0xFF	; 255
    2ae2:	7f 4f       	sbci	r23, 0xFF	; 255
    2ae4:	80 ea       	ldi	r24, 0xA0	; 160
    2ae6:	98 e0       	ldi	r25, 0x08	; 8
    2ae8:	73 da       	rcall	.-2842   	; 0x1fd0 <usart_init_rs232>
    2aea:	64 ee       	ldi	r22, 0xE4	; 228
    2aec:	73 e0       	ldi	r23, 0x03	; 3
    2aee:	8d ef       	ldi	r24, 0xFD	; 253
    2af0:	93 e0       	ldi	r25, 0x03	; 3
    2af2:	0e 94 50 21 	call	0x42a0	; 0x42a0 <fdevopen>
    2af6:	e6 e0       	ldi	r30, 0x06	; 6
    2af8:	f0 e2       	ldi	r31, 0x20	; 32
    2afa:	84 81       	ldd	r24, Z+4	; 0x04
    2afc:	8d 83       	std	Y+5, r24	; 0x05
    2afe:	85 81       	ldd	r24, Z+5	; 0x05
    2b00:	8e 83       	std	Y+6, r24	; 0x06
    2b02:	86 81       	ldd	r24, Z+6	; 0x06
    2b04:	8f 83       	std	Y+7, r24	; 0x07
    2b06:	80 81       	ld	r24, Z
    2b08:	91 81       	ldd	r25, Z+1	; 0x01
    2b0a:	a2 81       	ldd	r26, Z+2	; 0x02
    2b0c:	b3 81       	ldd	r27, Z+3	; 0x03
    2b0e:	89 83       	std	Y+1, r24	; 0x01
    2b10:	9a 83       	std	Y+2, r25	; 0x02
    2b12:	ab 83       	std	Y+3, r26	; 0x03
    2b14:	bc 83       	std	Y+4, r27	; 0x04
    2b16:	60 e1       	ldi	r22, 0x10	; 16
    2b18:	84 e0       	ldi	r24, 0x04	; 4
    2b1a:	0e 94 ce 03 	call	0x79c	; 0x79c <sysclk_enable_module>
    2b1e:	be 01       	movw	r22, r28
    2b20:	6f 5f       	subi	r22, 0xFF	; 255
    2b22:	7f 4f       	sbci	r23, 0xFF	; 255
    2b24:	80 ea       	ldi	r24, 0xA0	; 160
    2b26:	99 e0       	ldi	r25, 0x09	; 9
    2b28:	53 da       	rcall	.-2906   	; 0x1fd0 <usart_init_rs232>
    2b2a:	27 96       	adiw	r28, 0x07	; 7
    2b2c:	cd bf       	out	0x3d, r28	; 61
    2b2e:	de bf       	out	0x3e, r29	; 62
    2b30:	df 91       	pop	r29
    2b32:	cf 91       	pop	r28
    2b34:	08 95       	ret

00002b36 <usart_tx>:
    2b36:	cf 92       	push	r12
    2b38:	df 92       	push	r13
    2b3a:	ef 92       	push	r14
    2b3c:	ff 92       	push	r15
    2b3e:	0f 93       	push	r16
    2b40:	1f 93       	push	r17
    2b42:	cf 93       	push	r28
    2b44:	df 93       	push	r29
    2b46:	cd b7       	in	r28, 0x3d	; 61
    2b48:	de b7       	in	r29, 0x3e	; 62
    2b4a:	da 95       	dec	r29
    2b4c:	cd bf       	out	0x3d, r28	; 61
    2b4e:	de bf       	out	0x3e, r29	; 62
    2b50:	c4 5f       	subi	r28, 0xF4	; 244
    2b52:	de 4f       	sbci	r29, 0xFE	; 254
    2b54:	e8 80       	ld	r14, Y
    2b56:	f9 80       	ldd	r15, Y+1	; 0x01
    2b58:	cc 50       	subi	r28, 0x0C	; 12
    2b5a:	d1 40       	sbci	r29, 0x01	; 1
    2b5c:	ae 01       	movw	r20, r28
    2b5e:	40 5f       	subi	r20, 0xF0	; 240
    2b60:	5e 4f       	sbci	r21, 0xFE	; 254
    2b62:	c2 5f       	subi	r28, 0xF2	; 242
    2b64:	de 4f       	sbci	r29, 0xFE	; 254
    2b66:	68 81       	ld	r22, Y
    2b68:	79 81       	ldd	r23, Y+1	; 0x01
    2b6a:	ce 50       	subi	r28, 0x0E	; 14
    2b6c:	d1 40       	sbci	r29, 0x01	; 1
    2b6e:	ce 01       	movw	r24, r28
    2b70:	01 96       	adiw	r24, 0x01	; 1
    2b72:	0e 94 2e 22 	call	0x445c	; 0x445c <vsprintf>
    2b76:	81 e2       	ldi	r24, 0x21	; 33
    2b78:	c0 50       	subi	r28, 0x00	; 0
    2b7a:	df 4f       	sbci	r29, 0xFF	; 255
    2b7c:	88 83       	st	Y, r24
    2b7e:	c0 50       	subi	r28, 0x00	; 0
    2b80:	d1 40       	sbci	r29, 0x01	; 1
    2b82:	8e 01       	movw	r16, r28
    2b84:	0f 5f       	subi	r16, 0xFF	; 255
    2b86:	1f 4f       	sbci	r17, 0xFF	; 255
    2b88:	6e 01       	movw	r12, r28
    2b8a:	81 e0       	ldi	r24, 0x01	; 1
    2b8c:	c8 0e       	add	r12, r24
    2b8e:	d8 1e       	adc	r13, r24
    2b90:	f8 01       	movw	r30, r16
    2b92:	61 91       	ld	r22, Z+
    2b94:	8f 01       	movw	r16, r30
    2b96:	c7 01       	movw	r24, r14
    2b98:	fa d8       	rcall	.-3596   	; 0x1d8e <usart_putchar>
    2b9a:	0c 15       	cp	r16, r12
    2b9c:	1d 05       	cpc	r17, r13
    2b9e:	c1 f7       	brne	.-16     	; 0x2b90 <usart_tx+0x5a>
    2ba0:	d3 95       	inc	r29
    2ba2:	cd bf       	out	0x3d, r28	; 61
    2ba4:	de bf       	out	0x3e, r29	; 62
    2ba6:	df 91       	pop	r29
    2ba8:	cf 91       	pop	r28
    2baa:	1f 91       	pop	r17
    2bac:	0f 91       	pop	r16
    2bae:	ff 90       	pop	r15
    2bb0:	ef 90       	pop	r14
    2bb2:	df 90       	pop	r13
    2bb4:	cf 90       	pop	r12
    2bb6:	08 95       	ret

00002bb8 <__vector_25>:
	
ISR(USARTC0_RXC_vect){
    2bb8:	1f 92       	push	r1
    2bba:	0f 92       	push	r0
    2bbc:	0f b6       	in	r0, 0x3f	; 63
    2bbe:	0f 92       	push	r0
    2bc0:	11 24       	eor	r1, r1
    2bc2:	08 b6       	in	r0, 0x38	; 56
    2bc4:	0f 92       	push	r0
    2bc6:	18 be       	out	0x38, r1	; 56
    2bc8:	09 b6       	in	r0, 0x39	; 57
    2bca:	0f 92       	push	r0
    2bcc:	19 be       	out	0x39, r1	; 57
    2bce:	0b b6       	in	r0, 0x3b	; 59
    2bd0:	0f 92       	push	r0
    2bd2:	1b be       	out	0x3b, r1	; 59
    2bd4:	2f 93       	push	r18
    2bd6:	3f 93       	push	r19
    2bd8:	4f 93       	push	r20
    2bda:	5f 93       	push	r21
    2bdc:	6f 93       	push	r22
    2bde:	7f 93       	push	r23
    2be0:	8f 93       	push	r24
    2be2:	9f 93       	push	r25
    2be4:	af 93       	push	r26
    2be6:	bf 93       	push	r27
    2be8:	ef 93       	push	r30
    2bea:	ff 93       	push	r31
	//If we send reset things to the board
	xbee_rx_temporary = usart_getchar(&USARTC0);
    2bec:	80 ea       	ldi	r24, 0xA0	; 160
    2bee:	98 e0       	ldi	r25, 0x08	; 8
    2bf0:	d6 d8       	rcall	.-3668   	; 0x1d9e <usart_getchar>
    2bf2:	80 93 b9 20 	sts	0x20B9, r24	; 0x8020b9 <xbee_rx_temporary>
	
	switch(xbee_rx_temporary){
    2bf6:	e0 91 b9 20 	lds	r30, 0x20B9	; 0x8020b9 <xbee_rx_temporary>
    2bfa:	8e 2f       	mov	r24, r30
    2bfc:	ee 0f       	add	r30, r30
    2bfe:	99 0b       	sbc	r25, r25
    2c00:	aa 0b       	sbc	r26, r26
    2c02:	bb 0b       	sbc	r27, r27
    2c04:	fc 01       	movw	r30, r24
    2c06:	b1 97       	sbiw	r30, 0x21	; 33
    2c08:	ef 33       	cpi	r30, 0x3F	; 63
    2c0a:	f1 05       	cpc	r31, r1
    2c0c:	a0 f4       	brcc	.+40     	; 0x2c36 <__vector_25+0x7e>
    2c0e:	88 27       	eor	r24, r24
    2c10:	e2 50       	subi	r30, 0x02	; 2
    2c12:	ff 4f       	sbci	r31, 0xFF	; 255
    2c14:	8f 4f       	sbci	r24, 0xFF	; 255
    2c16:	0c 94 9a 1f 	jmp	0x3f34	; 0x3f34 <__tablejump2__>
		case '!':						//reset MCU 
			wdt_reset_mcu();
    2c1a:	0e 94 85 03 	call	0x70a	; 0x70a <wdt_reset_mcu>
			break;
		case '&':						//deploy parachute
			parachute_hotwire();
			break;
		case '*':						//detatching heatshield
			heatshield_detatch_hotwire();
    2c1e:	0b c0       	rjmp	.+22     	; 0x2c36 <__vector_25+0x7e>
			break;
		case '(':						//buzzer on
			buzzer_on();
    2c20:	cf db       	rcall	.-2146   	; 0x23c0 <heatshield_hotwire>
			break;
    2c22:	09 c0       	rjmp	.+18     	; 0x2c36 <__vector_25+0x7e>
		case ')':						//buzzer off
			buzzer_off();
    2c24:	e2 db       	rcall	.-2108   	; 0x23ea <parachute_hotwire>
    2c26:	07 c0       	rjmp	.+14     	; 0x2c36 <__vector_25+0x7e>
			break;
    2c28:	f5 db       	rcall	.-2070   	; 0x2414 <heatshield_detatch_hotwire>
		case '_':						//camera on
			camera_on();
    2c2a:	05 c0       	rjmp	.+10     	; 0x2c36 <__vector_25+0x7e>
    2c2c:	08 dc       	rcall	.-2032   	; 0x243e <buzzer_on>
			break;
	}
	
}
    2c2e:	03 c0       	rjmp	.+6      	; 0x2c36 <__vector_25+0x7e>
    2c30:	0f dc       	rcall	.-2018   	; 0x2450 <buzzer_off>
    2c32:	01 c0       	rjmp	.+2      	; 0x2c36 <__vector_25+0x7e>
    2c34:	16 dc       	rcall	.-2004   	; 0x2462 <camera_on>
    2c36:	ff 91       	pop	r31
    2c38:	ef 91       	pop	r30
    2c3a:	bf 91       	pop	r27
    2c3c:	af 91       	pop	r26
    2c3e:	9f 91       	pop	r25
    2c40:	8f 91       	pop	r24
    2c42:	7f 91       	pop	r23
    2c44:	6f 91       	pop	r22
    2c46:	5f 91       	pop	r21
    2c48:	4f 91       	pop	r20
    2c4a:	3f 91       	pop	r19
    2c4c:	2f 91       	pop	r18
    2c4e:	0f 90       	pop	r0
    2c50:	0b be       	out	0x3b, r0	; 59
    2c52:	0f 90       	pop	r0
    2c54:	09 be       	out	0x39, r0	; 57
    2c56:	0f 90       	pop	r0
    2c58:	08 be       	out	0x38, r0	; 56
    2c5a:	0f 90       	pop	r0
 * \param c       Character to write.
 *
 * \return Status code
 */
static inline enum status_code usart_serial_putchar(usart_if usart, uint8_t c)
{
    2c5c:	0f be       	out	0x3f, r0	; 63
    2c5e:	0f 90       	pop	r0
    2c60:	1f 90       	pop	r1
    2c62:	18 95       	reti

00002c64 <__portable_avr_delay_cycles>:
 *
 * @{
 */
__always_optimize
static inline void __portable_avr_delay_cycles(unsigned long n)
{
    2c64:	04 c0       	rjmp	.+8      	; 0x2c6e <__portable_avr_delay_cycles+0xa>
	while (n) {
		barrier();
		n--;
    2c66:	61 50       	subi	r22, 0x01	; 1
    2c68:	71 09       	sbc	r23, r1
    2c6a:	81 09       	sbc	r24, r1
    2c6c:	91 09       	sbc	r25, r1
 * @{
 */
__always_optimize
static inline void __portable_avr_delay_cycles(unsigned long n)
{
	while (n) {
    2c6e:	61 15       	cp	r22, r1
    2c70:	71 05       	cpc	r23, r1
    2c72:	81 05       	cpc	r24, r1
    2c74:	91 05       	cpc	r25, r1
    2c76:	b9 f7       	brne	.-18     	; 0x2c66 <__portable_avr_delay_cycles+0x2>
    2c78:	08 95       	ret

00002c7a <sysclk_enable_peripheral_clock>:
 *
 * \param module Pointer to the module's base address.
 */
static inline void sysclk_enable_peripheral_clock(const volatile void *module)
{
	if (module == NULL) {
    2c7a:	00 97       	sbiw	r24, 0x00	; 0
    2c7c:	09 f4       	brne	.+2      	; 0x2c80 <sysclk_enable_peripheral_clock+0x6>
    2c7e:	5c c1       	rjmp	.+696    	; 0x2f38 <sysclk_enable_peripheral_clock+0x2be>
		Assert(false);
	}
#ifdef AES
	else if (module == &AES) {
    2c80:	80 3c       	cpi	r24, 0xC0	; 192
    2c82:	91 05       	cpc	r25, r1
    2c84:	29 f4       	brne	.+10     	; 0x2c90 <sysclk_enable_peripheral_clock+0x16>
		sysclk_enable_module(SYSCLK_PORT_GEN, SYSCLK_AES);
    2c86:	60 e1       	ldi	r22, 0x10	; 16
    2c88:	80 e0       	ldi	r24, 0x00	; 0
    2c8a:	0c 94 ce 03 	jmp	0x79c	; 0x79c <sysclk_enable_module>
    2c8e:	08 95       	ret
	}
#endif
#ifdef EBI
	else if (module == &EBI) {
    2c90:	80 34       	cpi	r24, 0x40	; 64
    2c92:	24 e0       	ldi	r18, 0x04	; 4
    2c94:	92 07       	cpc	r25, r18
    2c96:	29 f4       	brne	.+10     	; 0x2ca2 <sysclk_enable_peripheral_clock+0x28>
		sysclk_enable_module(SYSCLK_PORT_GEN, SYSCLK_EBI);
    2c98:	68 e0       	ldi	r22, 0x08	; 8
    2c9a:	80 e0       	ldi	r24, 0x00	; 0
    2c9c:	0c 94 ce 03 	jmp	0x79c	; 0x79c <sysclk_enable_module>
    2ca0:	08 95       	ret
	}
#endif
#ifdef RTC
	else if (module == &RTC) {
    2ca2:	81 15       	cp	r24, r1
    2ca4:	24 e0       	ldi	r18, 0x04	; 4
    2ca6:	92 07       	cpc	r25, r18
    2ca8:	29 f4       	brne	.+10     	; 0x2cb4 <sysclk_enable_peripheral_clock+0x3a>
		sysclk_enable_module(SYSCLK_PORT_GEN, SYSCLK_RTC);
    2caa:	64 e0       	ldi	r22, 0x04	; 4
    2cac:	80 e0       	ldi	r24, 0x00	; 0
    2cae:	0c 94 ce 03 	jmp	0x79c	; 0x79c <sysclk_enable_module>
    2cb2:	08 95       	ret
	}
#endif
#ifdef EVSYS
	else if (module == &EVSYS) {
    2cb4:	80 38       	cpi	r24, 0x80	; 128
    2cb6:	21 e0       	ldi	r18, 0x01	; 1
    2cb8:	92 07       	cpc	r25, r18
    2cba:	29 f4       	brne	.+10     	; 0x2cc6 <sysclk_enable_peripheral_clock+0x4c>
		sysclk_enable_module(SYSCLK_PORT_GEN, SYSCLK_EVSYS);
    2cbc:	62 e0       	ldi	r22, 0x02	; 2
    2cbe:	80 e0       	ldi	r24, 0x00	; 0
    2cc0:	0c 94 ce 03 	jmp	0x79c	; 0x79c <sysclk_enable_module>
    2cc4:	08 95       	ret
	}
#endif
#ifdef DMA
	else if (module == &DMA) {
    2cc6:	81 15       	cp	r24, r1
    2cc8:	21 e0       	ldi	r18, 0x01	; 1
    2cca:	92 07       	cpc	r25, r18
    2ccc:	29 f4       	brne	.+10     	; 0x2cd8 <sysclk_enable_peripheral_clock+0x5e>
		sysclk_enable_module(SYSCLK_PORT_GEN, SYSCLK_DMA);
    2cce:	61 e0       	ldi	r22, 0x01	; 1
    2cd0:	80 e0       	ldi	r24, 0x00	; 0
    2cd2:	0c 94 ce 03 	jmp	0x79c	; 0x79c <sysclk_enable_module>
    2cd6:	08 95       	ret
	else if (module == &EDMA) {
		sysclk_enable_module(SYSCLK_PORT_GEN, SYSCLK_EDMA);
	}
#endif
#ifdef ACA
	else if (module == &ACA) {
    2cd8:	80 38       	cpi	r24, 0x80	; 128
    2cda:	23 e0       	ldi	r18, 0x03	; 3
    2cdc:	92 07       	cpc	r25, r18
    2cde:	29 f4       	brne	.+10     	; 0x2cea <sysclk_enable_peripheral_clock+0x70>
		sysclk_enable_module(SYSCLK_PORT_A, SYSCLK_AC);
    2ce0:	61 e0       	ldi	r22, 0x01	; 1
    2ce2:	81 e0       	ldi	r24, 0x01	; 1
    2ce4:	0c 94 ce 03 	jmp	0x79c	; 0x79c <sysclk_enable_module>
    2ce8:	08 95       	ret
	}
#endif
#ifdef ACB
	else if (module == &ACB) {
    2cea:	80 39       	cpi	r24, 0x90	; 144
    2cec:	23 e0       	ldi	r18, 0x03	; 3
    2cee:	92 07       	cpc	r25, r18
    2cf0:	29 f4       	brne	.+10     	; 0x2cfc <sysclk_enable_peripheral_clock+0x82>
		sysclk_enable_module(SYSCLK_PORT_B, SYSCLK_AC);
    2cf2:	61 e0       	ldi	r22, 0x01	; 1
    2cf4:	82 e0       	ldi	r24, 0x02	; 2
    2cf6:	0c 94 ce 03 	jmp	0x79c	; 0x79c <sysclk_enable_module>
    2cfa:	08 95       	ret
	}
#endif
#ifdef ADCA
	else if (module == &ADCA) {
    2cfc:	81 15       	cp	r24, r1
    2cfe:	22 e0       	ldi	r18, 0x02	; 2
    2d00:	92 07       	cpc	r25, r18
    2d02:	29 f4       	brne	.+10     	; 0x2d0e <sysclk_enable_peripheral_clock+0x94>
		sysclk_enable_module(SYSCLK_PORT_A, SYSCLK_ADC);
    2d04:	62 e0       	ldi	r22, 0x02	; 2
    2d06:	81 e0       	ldi	r24, 0x01	; 1
    2d08:	0c 94 ce 03 	jmp	0x79c	; 0x79c <sysclk_enable_module>
    2d0c:	08 95       	ret
	}
#endif
#ifdef ADCB
	else if (module == &ADCB) {
    2d0e:	80 34       	cpi	r24, 0x40	; 64
    2d10:	22 e0       	ldi	r18, 0x02	; 2
    2d12:	92 07       	cpc	r25, r18
    2d14:	29 f4       	brne	.+10     	; 0x2d20 <sysclk_enable_peripheral_clock+0xa6>
		sysclk_enable_module(SYSCLK_PORT_B, SYSCLK_ADC);
    2d16:	62 e0       	ldi	r22, 0x02	; 2
    2d18:	82 e0       	ldi	r24, 0x02	; 2
    2d1a:	0c 94 ce 03 	jmp	0x79c	; 0x79c <sysclk_enable_module>
    2d1e:	08 95       	ret
	}
#endif
#ifdef DACA
	else if (module == &DACA) {
    2d20:	81 15       	cp	r24, r1
    2d22:	23 e0       	ldi	r18, 0x03	; 3
    2d24:	92 07       	cpc	r25, r18
    2d26:	29 f4       	brne	.+10     	; 0x2d32 <sysclk_enable_peripheral_clock+0xb8>
		sysclk_enable_module(SYSCLK_PORT_A, SYSCLK_DAC);
    2d28:	64 e0       	ldi	r22, 0x04	; 4
    2d2a:	81 e0       	ldi	r24, 0x01	; 1
    2d2c:	0c 94 ce 03 	jmp	0x79c	; 0x79c <sysclk_enable_module>
    2d30:	08 95       	ret
	}
#endif
// Workaround for bad XMEGA D header file
#if !XMEGA_D
#ifdef DACB
	else if (module == &DACB) {
    2d32:	80 32       	cpi	r24, 0x20	; 32
    2d34:	23 e0       	ldi	r18, 0x03	; 3
    2d36:	92 07       	cpc	r25, r18
    2d38:	29 f4       	brne	.+10     	; 0x2d44 <sysclk_enable_peripheral_clock+0xca>
		sysclk_enable_module(SYSCLK_PORT_B, SYSCLK_DAC);
    2d3a:	64 e0       	ldi	r22, 0x04	; 4
    2d3c:	82 e0       	ldi	r24, 0x02	; 2
    2d3e:	0c 94 ce 03 	jmp	0x79c	; 0x79c <sysclk_enable_module>
    2d42:	08 95       	ret
	}
#endif
#endif // Workaround end
#ifdef TCC0
	else if (module == &TCC0) {
    2d44:	81 15       	cp	r24, r1
    2d46:	28 e0       	ldi	r18, 0x08	; 8
    2d48:	92 07       	cpc	r25, r18
    2d4a:	29 f4       	brne	.+10     	; 0x2d56 <sysclk_enable_peripheral_clock+0xdc>
		sysclk_enable_module(SYSCLK_PORT_C, SYSCLK_TC0);
    2d4c:	61 e0       	ldi	r22, 0x01	; 1
    2d4e:	83 e0       	ldi	r24, 0x03	; 3
    2d50:	0c 94 ce 03 	jmp	0x79c	; 0x79c <sysclk_enable_module>
    2d54:	08 95       	ret
	}
#endif
#ifdef TCD0
	else if (module == &TCD0) {
    2d56:	81 15       	cp	r24, r1
    2d58:	29 e0       	ldi	r18, 0x09	; 9
    2d5a:	92 07       	cpc	r25, r18
    2d5c:	29 f4       	brne	.+10     	; 0x2d68 <sysclk_enable_peripheral_clock+0xee>
		sysclk_enable_module(SYSCLK_PORT_D, SYSCLK_TC0);
    2d5e:	61 e0       	ldi	r22, 0x01	; 1
    2d60:	84 e0       	ldi	r24, 0x04	; 4
    2d62:	0c 94 ce 03 	jmp	0x79c	; 0x79c <sysclk_enable_module>
    2d66:	08 95       	ret
	}
#endif
#ifdef TCE0
	else if (module == &TCE0) {
    2d68:	81 15       	cp	r24, r1
    2d6a:	2a e0       	ldi	r18, 0x0A	; 10
    2d6c:	92 07       	cpc	r25, r18
    2d6e:	29 f4       	brne	.+10     	; 0x2d7a <sysclk_enable_peripheral_clock+0x100>
		sysclk_enable_module(SYSCLK_PORT_E, SYSCLK_TC0);
    2d70:	61 e0       	ldi	r22, 0x01	; 1
    2d72:	85 e0       	ldi	r24, 0x05	; 5
    2d74:	0c 94 ce 03 	jmp	0x79c	; 0x79c <sysclk_enable_module>
    2d78:	08 95       	ret
	}
#endif
#ifdef TCF0
	else if (module == &TCF0) {
    2d7a:	81 15       	cp	r24, r1
    2d7c:	2b e0       	ldi	r18, 0x0B	; 11
    2d7e:	92 07       	cpc	r25, r18
    2d80:	29 f4       	brne	.+10     	; 0x2d8c <sysclk_enable_peripheral_clock+0x112>
		sysclk_enable_module(SYSCLK_PORT_F, SYSCLK_TC0);
    2d82:	61 e0       	ldi	r22, 0x01	; 1
    2d84:	86 e0       	ldi	r24, 0x06	; 6
    2d86:	0c 94 ce 03 	jmp	0x79c	; 0x79c <sysclk_enable_module>
    2d8a:	08 95       	ret
	}
#endif
#ifdef TCC1
	else if (module == &TCC1) {
    2d8c:	80 34       	cpi	r24, 0x40	; 64
    2d8e:	28 e0       	ldi	r18, 0x08	; 8
    2d90:	92 07       	cpc	r25, r18
    2d92:	29 f4       	brne	.+10     	; 0x2d9e <sysclk_enable_peripheral_clock+0x124>
		sysclk_enable_module(SYSCLK_PORT_C, SYSCLK_TC1);
    2d94:	62 e0       	ldi	r22, 0x02	; 2
    2d96:	83 e0       	ldi	r24, 0x03	; 3
    2d98:	0c 94 ce 03 	jmp	0x79c	; 0x79c <sysclk_enable_module>
    2d9c:	08 95       	ret
	}
#endif
#ifdef TCD1
	else if (module == &TCD1) {
    2d9e:	80 34       	cpi	r24, 0x40	; 64
    2da0:	29 e0       	ldi	r18, 0x09	; 9
    2da2:	92 07       	cpc	r25, r18
    2da4:	29 f4       	brne	.+10     	; 0x2db0 <sysclk_enable_peripheral_clock+0x136>
		sysclk_enable_module(SYSCLK_PORT_D, SYSCLK_TC1);
    2da6:	62 e0       	ldi	r22, 0x02	; 2
    2da8:	84 e0       	ldi	r24, 0x04	; 4
    2daa:	0c 94 ce 03 	jmp	0x79c	; 0x79c <sysclk_enable_module>
    2dae:	08 95       	ret
	}
#endif
#ifdef TCE1
	else if (module == &TCE1) {
    2db0:	80 34       	cpi	r24, 0x40	; 64
    2db2:	2a e0       	ldi	r18, 0x0A	; 10
    2db4:	92 07       	cpc	r25, r18
    2db6:	29 f4       	brne	.+10     	; 0x2dc2 <sysclk_enable_peripheral_clock+0x148>
		sysclk_enable_module(SYSCLK_PORT_E, SYSCLK_TC1);
    2db8:	62 e0       	ldi	r22, 0x02	; 2
    2dba:	85 e0       	ldi	r24, 0x05	; 5
    2dbc:	0c 94 ce 03 	jmp	0x79c	; 0x79c <sysclk_enable_module>
    2dc0:	08 95       	ret
	}
#endif
#ifdef TCF1
	else if (module == &TCF1) {
    2dc2:	80 34       	cpi	r24, 0x40	; 64
    2dc4:	2b e0       	ldi	r18, 0x0B	; 11
    2dc6:	92 07       	cpc	r25, r18
    2dc8:	29 f4       	brne	.+10     	; 0x2dd4 <sysclk_enable_peripheral_clock+0x15a>
		sysclk_enable_module(SYSCLK_PORT_F, SYSCLK_TC1);
    2dca:	62 e0       	ldi	r22, 0x02	; 2
    2dcc:	86 e0       	ldi	r24, 0x06	; 6
    2dce:	0c 94 ce 03 	jmp	0x79c	; 0x79c <sysclk_enable_module>
    2dd2:	08 95       	ret
	else if (module == &TCD5) {
		sysclk_enable_module(SYSCLK_PORT_D, SYSCLK_TC5);
	}
#endif
#ifdef HIRESC
	else if (module == &HIRESC) {
    2dd4:	80 39       	cpi	r24, 0x90	; 144
    2dd6:	28 e0       	ldi	r18, 0x08	; 8
    2dd8:	92 07       	cpc	r25, r18
    2dda:	29 f4       	brne	.+10     	; 0x2de6 <sysclk_enable_peripheral_clock+0x16c>
			sysclk_enable_module(SYSCLK_PORT_C, SYSCLK_HIRES);
    2ddc:	64 e0       	ldi	r22, 0x04	; 4
    2dde:	83 e0       	ldi	r24, 0x03	; 3
    2de0:	0c 94 ce 03 	jmp	0x79c	; 0x79c <sysclk_enable_module>
    2de4:	08 95       	ret
	}
#endif
#ifdef HIRESD
	else if (module == &HIRESD) {
    2de6:	80 39       	cpi	r24, 0x90	; 144
    2de8:	29 e0       	ldi	r18, 0x09	; 9
    2dea:	92 07       	cpc	r25, r18
    2dec:	29 f4       	brne	.+10     	; 0x2df8 <sysclk_enable_peripheral_clock+0x17e>
		sysclk_enable_module(SYSCLK_PORT_D, SYSCLK_HIRES);
    2dee:	64 e0       	ldi	r22, 0x04	; 4
    2df0:	84 e0       	ldi	r24, 0x04	; 4
    2df2:	0c 94 ce 03 	jmp	0x79c	; 0x79c <sysclk_enable_module>
    2df6:	08 95       	ret
	}
#endif
#ifdef HIRESE
	else if (module == &HIRESE) {
    2df8:	80 39       	cpi	r24, 0x90	; 144
    2dfa:	2a e0       	ldi	r18, 0x0A	; 10
    2dfc:	92 07       	cpc	r25, r18
    2dfe:	29 f4       	brne	.+10     	; 0x2e0a <sysclk_enable_peripheral_clock+0x190>
		sysclk_enable_module(SYSCLK_PORT_E, SYSCLK_HIRES);
    2e00:	64 e0       	ldi	r22, 0x04	; 4
    2e02:	85 e0       	ldi	r24, 0x05	; 5
    2e04:	0c 94 ce 03 	jmp	0x79c	; 0x79c <sysclk_enable_module>
    2e08:	08 95       	ret
	}
#endif
#ifdef HIRESF
	else if (module == &HIRESF) {
    2e0a:	80 39       	cpi	r24, 0x90	; 144
    2e0c:	2b e0       	ldi	r18, 0x0B	; 11
    2e0e:	92 07       	cpc	r25, r18
    2e10:	29 f4       	brne	.+10     	; 0x2e1c <sysclk_enable_peripheral_clock+0x1a2>
		sysclk_enable_module(SYSCLK_PORT_F, SYSCLK_HIRES);
    2e12:	64 e0       	ldi	r22, 0x04	; 4
    2e14:	86 e0       	ldi	r24, 0x06	; 6
    2e16:	0c 94 ce 03 	jmp	0x79c	; 0x79c <sysclk_enable_module>
    2e1a:	08 95       	ret
	}
#endif
#ifdef SPIC
	else if (module == &SPIC) {
    2e1c:	80 3c       	cpi	r24, 0xC0	; 192
    2e1e:	28 e0       	ldi	r18, 0x08	; 8
    2e20:	92 07       	cpc	r25, r18
    2e22:	29 f4       	brne	.+10     	; 0x2e2e <sysclk_enable_peripheral_clock+0x1b4>
		sysclk_enable_module(SYSCLK_PORT_C, SYSCLK_SPI);
    2e24:	68 e0       	ldi	r22, 0x08	; 8
    2e26:	83 e0       	ldi	r24, 0x03	; 3
    2e28:	0c 94 ce 03 	jmp	0x79c	; 0x79c <sysclk_enable_module>
    2e2c:	08 95       	ret
	}
#endif
#ifdef SPID
	else if (module == &SPID) {
    2e2e:	80 3c       	cpi	r24, 0xC0	; 192
    2e30:	29 e0       	ldi	r18, 0x09	; 9
    2e32:	92 07       	cpc	r25, r18
    2e34:	29 f4       	brne	.+10     	; 0x2e40 <sysclk_enable_peripheral_clock+0x1c6>
		sysclk_enable_module(SYSCLK_PORT_D, SYSCLK_SPI);
    2e36:	68 e0       	ldi	r22, 0x08	; 8
    2e38:	84 e0       	ldi	r24, 0x04	; 4
    2e3a:	0c 94 ce 03 	jmp	0x79c	; 0x79c <sysclk_enable_module>
    2e3e:	08 95       	ret
	}
#endif
#ifdef SPIE
	else if (module == &SPIE) {
    2e40:	80 3c       	cpi	r24, 0xC0	; 192
    2e42:	2a e0       	ldi	r18, 0x0A	; 10
    2e44:	92 07       	cpc	r25, r18
    2e46:	29 f4       	brne	.+10     	; 0x2e52 <sysclk_enable_peripheral_clock+0x1d8>
		sysclk_enable_module(SYSCLK_PORT_E, SYSCLK_SPI);
    2e48:	68 e0       	ldi	r22, 0x08	; 8
    2e4a:	85 e0       	ldi	r24, 0x05	; 5
    2e4c:	0c 94 ce 03 	jmp	0x79c	; 0x79c <sysclk_enable_module>
    2e50:	08 95       	ret
	}
#endif
#ifdef SPIF
	else if (module == &SPIF) {
    2e52:	80 3c       	cpi	r24, 0xC0	; 192
    2e54:	2b e0       	ldi	r18, 0x0B	; 11
    2e56:	92 07       	cpc	r25, r18
    2e58:	29 f4       	brne	.+10     	; 0x2e64 <sysclk_enable_peripheral_clock+0x1ea>
		sysclk_enable_module(SYSCLK_PORT_F, SYSCLK_SPI);
    2e5a:	68 e0       	ldi	r22, 0x08	; 8
    2e5c:	86 e0       	ldi	r24, 0x06	; 6
    2e5e:	0c 94 ce 03 	jmp	0x79c	; 0x79c <sysclk_enable_module>
    2e62:	08 95       	ret
	}
#endif
#ifdef USARTC0
	else if (module == &USARTC0) {
    2e64:	80 3a       	cpi	r24, 0xA0	; 160
    2e66:	28 e0       	ldi	r18, 0x08	; 8
    2e68:	92 07       	cpc	r25, r18
    2e6a:	29 f4       	brne	.+10     	; 0x2e76 <sysclk_enable_peripheral_clock+0x1fc>
		sysclk_enable_module(SYSCLK_PORT_C, SYSCLK_USART0);
    2e6c:	60 e1       	ldi	r22, 0x10	; 16
    2e6e:	83 e0       	ldi	r24, 0x03	; 3
    2e70:	0c 94 ce 03 	jmp	0x79c	; 0x79c <sysclk_enable_module>
    2e74:	08 95       	ret
	}
#endif
#ifdef USARTD0
	else if (module == &USARTD0) {
    2e76:	80 3a       	cpi	r24, 0xA0	; 160
    2e78:	29 e0       	ldi	r18, 0x09	; 9
    2e7a:	92 07       	cpc	r25, r18
    2e7c:	29 f4       	brne	.+10     	; 0x2e88 <sysclk_enable_peripheral_clock+0x20e>
		sysclk_enable_module(SYSCLK_PORT_D, SYSCLK_USART0);
    2e7e:	60 e1       	ldi	r22, 0x10	; 16
    2e80:	84 e0       	ldi	r24, 0x04	; 4
    2e82:	0c 94 ce 03 	jmp	0x79c	; 0x79c <sysclk_enable_module>
    2e86:	08 95       	ret
	}
#endif
#ifdef USARTE0
	else if (module == &USARTE0) {
    2e88:	80 3a       	cpi	r24, 0xA0	; 160
    2e8a:	2a e0       	ldi	r18, 0x0A	; 10
    2e8c:	92 07       	cpc	r25, r18
    2e8e:	29 f4       	brne	.+10     	; 0x2e9a <sysclk_enable_peripheral_clock+0x220>
		sysclk_enable_module(SYSCLK_PORT_E, SYSCLK_USART0);
    2e90:	60 e1       	ldi	r22, 0x10	; 16
    2e92:	85 e0       	ldi	r24, 0x05	; 5
    2e94:	0c 94 ce 03 	jmp	0x79c	; 0x79c <sysclk_enable_module>
    2e98:	08 95       	ret
	}
#endif
#ifdef USARTF0
	else if (module == &USARTF0) {
    2e9a:	80 3a       	cpi	r24, 0xA0	; 160
    2e9c:	2b e0       	ldi	r18, 0x0B	; 11
    2e9e:	92 07       	cpc	r25, r18
    2ea0:	29 f4       	brne	.+10     	; 0x2eac <sysclk_enable_peripheral_clock+0x232>
		sysclk_enable_module(SYSCLK_PORT_F, SYSCLK_USART0);
    2ea2:	60 e1       	ldi	r22, 0x10	; 16
    2ea4:	86 e0       	ldi	r24, 0x06	; 6
    2ea6:	0c 94 ce 03 	jmp	0x79c	; 0x79c <sysclk_enable_module>
    2eaa:	08 95       	ret
	}
#endif
#ifdef USARTC1
	else if (module == &USARTC1) {
    2eac:	80 3b       	cpi	r24, 0xB0	; 176
    2eae:	28 e0       	ldi	r18, 0x08	; 8
    2eb0:	92 07       	cpc	r25, r18
    2eb2:	29 f4       	brne	.+10     	; 0x2ebe <sysclk_enable_peripheral_clock+0x244>
		sysclk_enable_module(SYSCLK_PORT_C, SYSCLK_USART1);
    2eb4:	60 e2       	ldi	r22, 0x20	; 32
    2eb6:	83 e0       	ldi	r24, 0x03	; 3
    2eb8:	0c 94 ce 03 	jmp	0x79c	; 0x79c <sysclk_enable_module>
    2ebc:	08 95       	ret
	}
#endif
#ifdef USARTD1
	else if (module == &USARTD1) {
    2ebe:	80 3b       	cpi	r24, 0xB0	; 176
    2ec0:	29 e0       	ldi	r18, 0x09	; 9
    2ec2:	92 07       	cpc	r25, r18
    2ec4:	29 f4       	brne	.+10     	; 0x2ed0 <sysclk_enable_peripheral_clock+0x256>
		sysclk_enable_module(SYSCLK_PORT_D, SYSCLK_USART1);
    2ec6:	60 e2       	ldi	r22, 0x20	; 32
    2ec8:	84 e0       	ldi	r24, 0x04	; 4
    2eca:	0c 94 ce 03 	jmp	0x79c	; 0x79c <sysclk_enable_module>
    2ece:	08 95       	ret
	}
#endif
#ifdef USARTE1
	else if (module == &USARTE1) {
    2ed0:	80 3b       	cpi	r24, 0xB0	; 176
    2ed2:	2a e0       	ldi	r18, 0x0A	; 10
    2ed4:	92 07       	cpc	r25, r18
    2ed6:	29 f4       	brne	.+10     	; 0x2ee2 <sysclk_enable_peripheral_clock+0x268>
		sysclk_enable_module(SYSCLK_PORT_E, SYSCLK_USART1);
    2ed8:	60 e2       	ldi	r22, 0x20	; 32
    2eda:	85 e0       	ldi	r24, 0x05	; 5
    2edc:	0c 94 ce 03 	jmp	0x79c	; 0x79c <sysclk_enable_module>
    2ee0:	08 95       	ret
	}
#endif
#ifdef USARTF1
	else if (module == &USARTF1) {
    2ee2:	80 3b       	cpi	r24, 0xB0	; 176
    2ee4:	2b e0       	ldi	r18, 0x0B	; 11
    2ee6:	92 07       	cpc	r25, r18
    2ee8:	29 f4       	brne	.+10     	; 0x2ef4 <sysclk_enable_peripheral_clock+0x27a>
		sysclk_enable_module(SYSCLK_PORT_F, SYSCLK_USART1);
    2eea:	60 e2       	ldi	r22, 0x20	; 32
    2eec:	86 e0       	ldi	r24, 0x06	; 6
    2eee:	0c 94 ce 03 	jmp	0x79c	; 0x79c <sysclk_enable_module>
    2ef2:	08 95       	ret
	}
#endif
#ifdef TWIC
	else if (module == &TWIC) {
    2ef4:	80 38       	cpi	r24, 0x80	; 128
    2ef6:	24 e0       	ldi	r18, 0x04	; 4
    2ef8:	92 07       	cpc	r25, r18
    2efa:	29 f4       	brne	.+10     	; 0x2f06 <sysclk_enable_peripheral_clock+0x28c>
		sysclk_enable_module(SYSCLK_PORT_C, SYSCLK_TWI);
    2efc:	60 e4       	ldi	r22, 0x40	; 64
    2efe:	83 e0       	ldi	r24, 0x03	; 3
    2f00:	0c 94 ce 03 	jmp	0x79c	; 0x79c <sysclk_enable_module>
    2f04:	08 95       	ret
	}
#endif
#ifdef TWID
	else if (module == &TWID) {
    2f06:	80 39       	cpi	r24, 0x90	; 144
    2f08:	24 e0       	ldi	r18, 0x04	; 4
    2f0a:	92 07       	cpc	r25, r18
    2f0c:	29 f4       	brne	.+10     	; 0x2f18 <sysclk_enable_peripheral_clock+0x29e>
		sysclk_enable_module(SYSCLK_PORT_D, SYSCLK_TWI);
    2f0e:	60 e4       	ldi	r22, 0x40	; 64
    2f10:	84 e0       	ldi	r24, 0x04	; 4
    2f12:	0c 94 ce 03 	jmp	0x79c	; 0x79c <sysclk_enable_module>
    2f16:	08 95       	ret
	}
#endif
#ifdef TWIE
	else if (module == &TWIE) {
    2f18:	80 3a       	cpi	r24, 0xA0	; 160
    2f1a:	24 e0       	ldi	r18, 0x04	; 4
    2f1c:	92 07       	cpc	r25, r18
    2f1e:	29 f4       	brne	.+10     	; 0x2f2a <sysclk_enable_peripheral_clock+0x2b0>
		sysclk_enable_module(SYSCLK_PORT_E, SYSCLK_TWI);
    2f20:	60 e4       	ldi	r22, 0x40	; 64
    2f22:	85 e0       	ldi	r24, 0x05	; 5
    2f24:	0c 94 ce 03 	jmp	0x79c	; 0x79c <sysclk_enable_module>
    2f28:	08 95       	ret
	}
#endif
#ifdef TWIF
	else if (module == &TWIF) {
    2f2a:	80 3b       	cpi	r24, 0xB0	; 176
    2f2c:	94 40       	sbci	r25, 0x04	; 4
    2f2e:	21 f4       	brne	.+8      	; 0x2f38 <sysclk_enable_peripheral_clock+0x2be>
		sysclk_enable_module(SYSCLK_PORT_F, SYSCLK_TWI);
    2f30:	60 e4       	ldi	r22, 0x40	; 64
    2f32:	86 e0       	ldi	r24, 0x06	; 6
    2f34:	0c 94 ce 03 	jmp	0x79c	; 0x79c <sysclk_enable_module>
    2f38:	08 95       	ret

00002f3a <main>:
    2f3a:	cf 93       	push	r28
    2f3c:	df 93       	push	r29
    2f3e:	cd b7       	in	r28, 0x3d	; 61
    2f40:	de b7       	in	r29, 0x3e	; 62
    2f42:	2a 97       	sbiw	r28, 0x0a	; 10
    2f44:	cd bf       	out	0x3d, r28	; 61
    2f46:	de bf       	out	0x3e, r29	; 62
    2f48:	0e 94 99 03 	call	0x732	; 0x732 <sysclk_init>
    2f4c:	80 e0       	ldi	r24, 0x00	; 0
    2f4e:	9b e0       	ldi	r25, 0x0B	; 11
    2f50:	94 de       	rcall	.-728    	; 0x2c7a <sysclk_enable_peripheral_clock>
    2f52:	80 e0       	ldi	r24, 0x00	; 0
    2f54:	99 e0       	ldi	r25, 0x09	; 9
    2f56:	91 de       	rcall	.-734    	; 0x2c7a <sysclk_enable_peripheral_clock>
    2f58:	64 e0       	ldi	r22, 0x04	; 4
    2f5a:	86 e0       	ldi	r24, 0x06	; 6
    2f5c:	0e 94 ce 03 	call	0x79c	; 0x79c <sysclk_enable_module>
    2f60:	64 e0       	ldi	r22, 0x04	; 4
    2f62:	84 e0       	ldi	r24, 0x04	; 4
    2f64:	0e 94 ce 03 	call	0x79c	; 0x79c <sysclk_enable_module>
    2f68:	68 e0       	ldi	r22, 0x08	; 8
    2f6a:	83 e0       	ldi	r24, 0x03	; 3
    2f6c:	0e 94 ce 03 	call	0x79c	; 0x79c <sysclk_enable_module>
    2f70:	80 ea       	ldi	r24, 0xA0	; 160
    2f72:	98 e0       	ldi	r25, 0x08	; 8
    2f74:	82 de       	rcall	.-764    	; 0x2c7a <sysclk_enable_peripheral_clock>
    2f76:	7d dd       	rcall	.-1286   	; 0x2a72 <usart_init>
    2f78:	80 ec       	ldi	r24, 0xC0	; 192
    2f7a:	98 e0       	ldi	r25, 0x08	; 8
    2f7c:	7e de       	rcall	.-772    	; 0x2c7a <sysclk_enable_peripheral_clock>
    2f7e:	85 da       	rcall	.-2806   	; 0x248a <SPI_init>
    2f80:	bf da       	rcall	.-2690   	; 0x2500 <ms5607_init>
    2f82:	80 e0       	ldi	r24, 0x00	; 0
    2f84:	92 e0       	ldi	r25, 0x02	; 2
    2f86:	79 de       	rcall	.-782    	; 0x2c7a <sysclk_enable_peripheral_clock>
    2f88:	ec dc       	rcall	.-1576   	; 0x2962 <adc_init>
    2f8a:	35 db       	rcall	.-2454   	; 0x25f6 <get_pressure>
    2f8c:	6f 83       	std	Y+7, r22	; 0x07
    2f8e:	78 87       	std	Y+8, r23	; 0x08
    2f90:	89 87       	std	Y+9, r24	; 0x09
    2f92:	9a 87       	std	Y+10, r25	; 0x0a
    2f94:	31 2c       	mov	r3, r1
    2f96:	81 2c       	mov	r8, r1
    2f98:	91 2c       	mov	r9, r1
    2f9a:	54 01       	movw	r10, r8
    2f9c:	68 94       	set
    2f9e:	22 24       	eor	r2, r2
    2fa0:	23 f8       	bld	r2, 3
    2fa2:	29 db       	rcall	.-2478   	; 0x25f6 <get_pressure>
    2fa4:	d6 2e       	mov	r13, r22
    2fa6:	c7 2e       	mov	r12, r23
    2fa8:	68 2e       	mov	r6, r24
    2faa:	79 2e       	mov	r7, r25
    2fac:	22 dd       	rcall	.-1468   	; 0x29f2 <getTemperature>
    2fae:	7f d1       	rcall	.+766    	; 0x32ae <__fixunssfsi>
    2fb0:	7b 01       	movw	r14, r22
    2fb2:	8c 01       	movw	r16, r24
    2fb4:	2d 2d       	mov	r18, r13
    2fb6:	3c 2d       	mov	r19, r12
    2fb8:	46 2d       	mov	r20, r6
    2fba:	57 2d       	mov	r21, r7
    2fbc:	6f 81       	ldd	r22, Y+7	; 0x07
    2fbe:	78 85       	ldd	r23, Y+8	; 0x08
    2fc0:	89 85       	ldd	r24, Y+9	; 0x09
    2fc2:	9a 85       	ldd	r25, Y+10	; 0x0a
    2fc4:	8d d9       	rcall	.-3302   	; 0x22e0 <Get_altitude>
    2fc6:	6e d1       	rcall	.+732    	; 0x32a4 <__fixsfsi>
    2fc8:	2b 01       	movw	r4, r22
    2fca:	3c 01       	movw	r6, r24
    2fcc:	9e d1       	rcall	.+828    	; 0x330a <__floatsisf>
    2fce:	26 e6       	ldi	r18, 0x66	; 102
    2fd0:	36 e6       	ldi	r19, 0x66	; 102
    2fd2:	46 e6       	ldi	r20, 0x66	; 102
    2fd4:	5f e3       	ldi	r21, 0x3F	; 63
    2fd6:	6a d2       	rcall	.+1236   	; 0x34ac <__mulsf3>
    2fd8:	6b 83       	std	Y+3, r22	; 0x03
    2fda:	7c 83       	std	Y+4, r23	; 0x04
    2fdc:	8d 83       	std	Y+5, r24	; 0x05
    2fde:	9e 83       	std	Y+6, r25	; 0x06
    2fe0:	c5 01       	movw	r24, r10
    2fe2:	b4 01       	movw	r22, r8
    2fe4:	92 d1       	rcall	.+804    	; 0x330a <__floatsisf>
    2fe6:	20 ed       	ldi	r18, 0xD0	; 208
    2fe8:	3c ec       	ldi	r19, 0xCC	; 204
    2fea:	4c ec       	ldi	r20, 0xCC	; 204
    2fec:	5d e3       	ldi	r21, 0x3D	; 61
    2fee:	5e d2       	rcall	.+1212   	; 0x34ac <__mulsf3>
    2ff0:	9b 01       	movw	r18, r22
    2ff2:	ac 01       	movw	r20, r24
    2ff4:	6b 81       	ldd	r22, Y+3	; 0x03
    2ff6:	7c 81       	ldd	r23, Y+4	; 0x04
    2ff8:	8d 81       	ldd	r24, Y+5	; 0x05
    2ffa:	9e 81       	ldd	r25, Y+6	; 0x06
    2ffc:	87 d0       	rcall	.+270    	; 0x310c <__addsf3>
    2ffe:	52 d1       	rcall	.+676    	; 0x32a4 <__fixsfsi>
    3000:	4b 01       	movw	r8, r22
    3002:	5c 01       	movw	r10, r24
    3004:	61 e8       	ldi	r22, 0x81	; 129
    3006:	78 e3       	ldi	r23, 0x38	; 56
    3008:	81 e0       	ldi	r24, 0x01	; 1
    300a:	90 e0       	ldi	r25, 0x00	; 0
    300c:	2b de       	rcall	.-938    	; 0x2c64 <__portable_avr_delay_cycles>
    300e:	cf 92       	push	r12
    3010:	df 92       	push	r13
    3012:	84 e1       	ldi	r24, 0x14	; 20
    3014:	90 e2       	ldi	r25, 0x20	; 32
    3016:	9f 93       	push	r25
    3018:	8f 93       	push	r24
    301a:	0e 94 06 22 	call	0x440c	; 0x440c <sprintf>
    301e:	89 83       	std	Y+1, r24	; 0x01
    3020:	9a 83       	std	Y+2, r25	; 0x02
    3022:	81 e0       	ldi	r24, 0x01	; 1
    3024:	90 e0       	ldi	r25, 0x00	; 0
    3026:	8c 0f       	add	r24, r28
    3028:	9d 1f       	adc	r25, r29
    302a:	9f 93       	push	r25
    302c:	8f 93       	push	r24
    302e:	2f 92       	push	r2
    3030:	90 ea       	ldi	r25, 0xA0	; 160
    3032:	9f 93       	push	r25
    3034:	80 dd       	rcall	.-1280   	; 0x2b36 <usart_tx>
    3036:	cd bf       	out	0x3d, r28	; 61
    3038:	de bf       	out	0x3e, r29	; 62
    303a:	31 10       	cpse	r3, r1
    303c:	21 c0       	rjmp	.+66     	; 0x3080 <main+0x146>
    303e:	95 e5       	ldi	r25, 0x55	; 85
    3040:	90 93 81 06 	sts	0x0681, r25	; 0x800681 <__TEXT_REGION_LENGTH__+0x700681>
    3044:	90 93 85 06 	sts	0x0685, r25	; 0x800685 <__TEXT_REGION_LENGTH__+0x700685>
    3048:	20 92 04 06 	sts	0x0604, r2	; 0x800604 <__TEXT_REGION_LENGTH__+0x700604>
    304c:	d5 01       	movw	r26, r10
    304e:	c4 01       	movw	r24, r8
    3050:	84 19       	sub	r24, r4
    3052:	95 09       	sbc	r25, r5
    3054:	a6 09       	sbc	r26, r6
    3056:	b7 09       	sbc	r27, r7
    3058:	0a f0       	brmi	.+2      	; 0x305c <main+0x122>
    305a:	a3 cf       	rjmp	.-186    	; 0x2fa2 <main+0x68>
    305c:	d5 01       	movw	r26, r10
    305e:	c4 01       	movw	r24, r8
    3060:	89 55       	subi	r24, 0x59	; 89
    3062:	92 40       	sbci	r25, 0x02	; 2
    3064:	a1 09       	sbc	r26, r1
    3066:	b1 09       	sbc	r27, r1
    3068:	87 3c       	cpi	r24, 0xC7	; 199
    306a:	91 05       	cpc	r25, r1
    306c:	a1 05       	cpc	r26, r1
    306e:	b1 05       	cpc	r27, r1
    3070:	08 f0       	brcs	.+2      	; 0x3074 <main+0x13a>
    3072:	97 cf       	rjmp	.-210    	; 0x2fa2 <main+0x68>
    3074:	81 e0       	ldi	r24, 0x01	; 1
    3076:	80 93 81 06 	sts	0x0681, r24	; 0x800681 <__TEXT_REGION_LENGTH__+0x700681>
    307a:	80 93 85 06 	sts	0x0685, r24	; 0x800685 <__TEXT_REGION_LENGTH__+0x700685>
    307e:	03 c0       	rjmp	.+6      	; 0x3086 <main+0x14c>
    3080:	21 e0       	ldi	r18, 0x01	; 1
    3082:	32 12       	cpse	r3, r18
    3084:	16 c0       	rjmp	.+44     	; 0x30b2 <main+0x178>
    3086:	83 e2       	ldi	r24, 0x23	; 35
    3088:	90 e2       	ldi	r25, 0x20	; 32
    308a:	0e 94 d6 21 	call	0x43ac	; 0x43ac <puts>
    308e:	8c e2       	ldi	r24, 0x2C	; 44
    3090:	88 16       	cp	r8, r24
    3092:	81 e0       	ldi	r24, 0x01	; 1
    3094:	98 06       	cpc	r9, r24
    3096:	a1 04       	cpc	r10, r1
    3098:	b1 04       	cpc	r11, r1
    309a:	64 f5       	brge	.+88     	; 0x30f4 <main+0x1ba>
    309c:	82 e0       	ldi	r24, 0x02	; 2
    309e:	80 93 81 06 	sts	0x0681, r24	; 0x800681 <__TEXT_REGION_LENGTH__+0x700681>
    30a2:	80 93 85 06 	sts	0x0685, r24	; 0x800685 <__TEXT_REGION_LENGTH__+0x700685>
    30a6:	90 e8       	ldi	r25, 0x80	; 128
    30a8:	90 93 01 06 	sts	0x0601, r25	; 0x800601 <__TEXT_REGION_LENGTH__+0x700601>
    30ac:	90 93 05 06 	sts	0x0605, r25	; 0x800605 <__TEXT_REGION_LENGTH__+0x700605>
    30b0:	03 c0       	rjmp	.+6      	; 0x30b8 <main+0x17e>
    30b2:	22 e0       	ldi	r18, 0x02	; 2
    30b4:	32 12       	cpse	r3, r18
    30b6:	75 cf       	rjmp	.-278    	; 0x2fa2 <main+0x68>
    30b8:	83 e3       	ldi	r24, 0x33	; 51
    30ba:	90 e2       	ldi	r25, 0x20	; 32
    30bc:	0e 94 d6 21 	call	0x43ac	; 0x43ac <puts>
    30c0:	d5 01       	movw	r26, r10
    30c2:	c4 01       	movw	r24, r8
    30c4:	84 19       	sub	r24, r4
    30c6:	95 09       	sbc	r25, r5
    30c8:	a6 09       	sbc	r26, r6
    30ca:	b7 09       	sbc	r27, r7
    30cc:	18 16       	cp	r1, r24
    30ce:	19 06       	cpc	r1, r25
    30d0:	1a 06       	cpc	r1, r26
    30d2:	1b 06       	cpc	r1, r27
    30d4:	94 f0       	brlt	.+36     	; 0x30fa <main+0x1c0>
    30d6:	84 e6       	ldi	r24, 0x64	; 100
    30d8:	48 16       	cp	r4, r24
    30da:	51 04       	cpc	r5, r1
    30dc:	61 04       	cpc	r6, r1
    30de:	71 04       	cpc	r7, r1
    30e0:	84 f4       	brge	.+32     	; 0x3102 <main+0x1c8>
    30e2:	20 92 01 06 	sts	0x0601, r2	; 0x800601 <__TEXT_REGION_LENGTH__+0x700601>
    30e6:	20 92 05 06 	sts	0x0605, r2	; 0x800605 <__TEXT_REGION_LENGTH__+0x700605>
    30ea:	0f 2e       	mov	r0, r31
    30ec:	f3 e0       	ldi	r31, 0x03	; 3
    30ee:	3f 2e       	mov	r3, r31
    30f0:	f0 2d       	mov	r31, r0
    30f2:	57 cf       	rjmp	.-338    	; 0x2fa2 <main+0x68>
    30f4:	33 24       	eor	r3, r3
    30f6:	33 94       	inc	r3
    30f8:	54 cf       	rjmp	.-344    	; 0x2fa2 <main+0x68>
    30fa:	68 94       	set
    30fc:	33 24       	eor	r3, r3
    30fe:	31 f8       	bld	r3, 1
    3100:	50 cf       	rjmp	.-352    	; 0x2fa2 <main+0x68>
    3102:	68 94       	set
    3104:	33 24       	eor	r3, r3
    3106:	31 f8       	bld	r3, 1
    3108:	4c cf       	rjmp	.-360    	; 0x2fa2 <main+0x68>

0000310a <__subsf3>:
    310a:	50 58       	subi	r21, 0x80	; 128

0000310c <__addsf3>:
    310c:	bb 27       	eor	r27, r27
    310e:	aa 27       	eor	r26, r26
    3110:	0e d0       	rcall	.+28     	; 0x312e <__addsf3x>
    3112:	4d c1       	rjmp	.+666    	; 0x33ae <__fp_round>
    3114:	3e d1       	rcall	.+636    	; 0x3392 <__fp_pscA>
    3116:	30 f0       	brcs	.+12     	; 0x3124 <__addsf3+0x18>
    3118:	43 d1       	rcall	.+646    	; 0x33a0 <__fp_pscB>
    311a:	20 f0       	brcs	.+8      	; 0x3124 <__addsf3+0x18>
    311c:	31 f4       	brne	.+12     	; 0x312a <__addsf3+0x1e>
    311e:	9f 3f       	cpi	r25, 0xFF	; 255
    3120:	11 f4       	brne	.+4      	; 0x3126 <__addsf3+0x1a>
    3122:	1e f4       	brtc	.+6      	; 0x312a <__addsf3+0x1e>
    3124:	33 c1       	rjmp	.+614    	; 0x338c <__fp_nan>
    3126:	0e f4       	brtc	.+2      	; 0x312a <__addsf3+0x1e>
    3128:	e0 95       	com	r30
    312a:	e7 fb       	bst	r30, 7
    312c:	29 c1       	rjmp	.+594    	; 0x3380 <__fp_inf>

0000312e <__addsf3x>:
    312e:	e9 2f       	mov	r30, r25
    3130:	4f d1       	rcall	.+670    	; 0x33d0 <__fp_split3>
    3132:	80 f3       	brcs	.-32     	; 0x3114 <__addsf3+0x8>
    3134:	ba 17       	cp	r27, r26
    3136:	62 07       	cpc	r22, r18
    3138:	73 07       	cpc	r23, r19
    313a:	84 07       	cpc	r24, r20
    313c:	95 07       	cpc	r25, r21
    313e:	18 f0       	brcs	.+6      	; 0x3146 <__addsf3x+0x18>
    3140:	71 f4       	brne	.+28     	; 0x315e <__addsf3x+0x30>
    3142:	9e f5       	brtc	.+102    	; 0x31aa <__addsf3x+0x7c>
    3144:	67 c1       	rjmp	.+718    	; 0x3414 <__fp_zero>
    3146:	0e f4       	brtc	.+2      	; 0x314a <__addsf3x+0x1c>
    3148:	e0 95       	com	r30
    314a:	0b 2e       	mov	r0, r27
    314c:	ba 2f       	mov	r27, r26
    314e:	a0 2d       	mov	r26, r0
    3150:	0b 01       	movw	r0, r22
    3152:	b9 01       	movw	r22, r18
    3154:	90 01       	movw	r18, r0
    3156:	0c 01       	movw	r0, r24
    3158:	ca 01       	movw	r24, r20
    315a:	a0 01       	movw	r20, r0
    315c:	11 24       	eor	r1, r1
    315e:	ff 27       	eor	r31, r31
    3160:	59 1b       	sub	r21, r25
    3162:	99 f0       	breq	.+38     	; 0x318a <__addsf3x+0x5c>
    3164:	59 3f       	cpi	r21, 0xF9	; 249
    3166:	50 f4       	brcc	.+20     	; 0x317c <__addsf3x+0x4e>
    3168:	50 3e       	cpi	r21, 0xE0	; 224
    316a:	68 f1       	brcs	.+90     	; 0x31c6 <__addsf3x+0x98>
    316c:	1a 16       	cp	r1, r26
    316e:	f0 40       	sbci	r31, 0x00	; 0
    3170:	a2 2f       	mov	r26, r18
    3172:	23 2f       	mov	r18, r19
    3174:	34 2f       	mov	r19, r20
    3176:	44 27       	eor	r20, r20
    3178:	58 5f       	subi	r21, 0xF8	; 248
    317a:	f3 cf       	rjmp	.-26     	; 0x3162 <__addsf3x+0x34>
    317c:	46 95       	lsr	r20
    317e:	37 95       	ror	r19
    3180:	27 95       	ror	r18
    3182:	a7 95       	ror	r26
    3184:	f0 40       	sbci	r31, 0x00	; 0
    3186:	53 95       	inc	r21
    3188:	c9 f7       	brne	.-14     	; 0x317c <__addsf3x+0x4e>
    318a:	7e f4       	brtc	.+30     	; 0x31aa <__addsf3x+0x7c>
    318c:	1f 16       	cp	r1, r31
    318e:	ba 0b       	sbc	r27, r26
    3190:	62 0b       	sbc	r22, r18
    3192:	73 0b       	sbc	r23, r19
    3194:	84 0b       	sbc	r24, r20
    3196:	ba f0       	brmi	.+46     	; 0x31c6 <__addsf3x+0x98>
    3198:	91 50       	subi	r25, 0x01	; 1
    319a:	a1 f0       	breq	.+40     	; 0x31c4 <__addsf3x+0x96>
    319c:	ff 0f       	add	r31, r31
    319e:	bb 1f       	adc	r27, r27
    31a0:	66 1f       	adc	r22, r22
    31a2:	77 1f       	adc	r23, r23
    31a4:	88 1f       	adc	r24, r24
    31a6:	c2 f7       	brpl	.-16     	; 0x3198 <__addsf3x+0x6a>
    31a8:	0e c0       	rjmp	.+28     	; 0x31c6 <__addsf3x+0x98>
    31aa:	ba 0f       	add	r27, r26
    31ac:	62 1f       	adc	r22, r18
    31ae:	73 1f       	adc	r23, r19
    31b0:	84 1f       	adc	r24, r20
    31b2:	48 f4       	brcc	.+18     	; 0x31c6 <__addsf3x+0x98>
    31b4:	87 95       	ror	r24
    31b6:	77 95       	ror	r23
    31b8:	67 95       	ror	r22
    31ba:	b7 95       	ror	r27
    31bc:	f7 95       	ror	r31
    31be:	9e 3f       	cpi	r25, 0xFE	; 254
    31c0:	08 f0       	brcs	.+2      	; 0x31c4 <__addsf3x+0x96>
    31c2:	b3 cf       	rjmp	.-154    	; 0x312a <__addsf3+0x1e>
    31c4:	93 95       	inc	r25
    31c6:	88 0f       	add	r24, r24
    31c8:	08 f0       	brcs	.+2      	; 0x31cc <__addsf3x+0x9e>
    31ca:	99 27       	eor	r25, r25
    31cc:	ee 0f       	add	r30, r30
    31ce:	97 95       	ror	r25
    31d0:	87 95       	ror	r24
    31d2:	08 95       	ret

000031d4 <__divsf3>:
    31d4:	0c d0       	rcall	.+24     	; 0x31ee <__divsf3x>
    31d6:	eb c0       	rjmp	.+470    	; 0x33ae <__fp_round>
    31d8:	e3 d0       	rcall	.+454    	; 0x33a0 <__fp_pscB>
    31da:	40 f0       	brcs	.+16     	; 0x31ec <__divsf3+0x18>
    31dc:	da d0       	rcall	.+436    	; 0x3392 <__fp_pscA>
    31de:	30 f0       	brcs	.+12     	; 0x31ec <__divsf3+0x18>
    31e0:	21 f4       	brne	.+8      	; 0x31ea <__divsf3+0x16>
    31e2:	5f 3f       	cpi	r21, 0xFF	; 255
    31e4:	19 f0       	breq	.+6      	; 0x31ec <__divsf3+0x18>
    31e6:	cc c0       	rjmp	.+408    	; 0x3380 <__fp_inf>
    31e8:	51 11       	cpse	r21, r1
    31ea:	15 c1       	rjmp	.+554    	; 0x3416 <__fp_szero>
    31ec:	cf c0       	rjmp	.+414    	; 0x338c <__fp_nan>

000031ee <__divsf3x>:
    31ee:	f0 d0       	rcall	.+480    	; 0x33d0 <__fp_split3>
    31f0:	98 f3       	brcs	.-26     	; 0x31d8 <__divsf3+0x4>

000031f2 <__divsf3_pse>:
    31f2:	99 23       	and	r25, r25
    31f4:	c9 f3       	breq	.-14     	; 0x31e8 <__divsf3+0x14>
    31f6:	55 23       	and	r21, r21
    31f8:	b1 f3       	breq	.-20     	; 0x31e6 <__divsf3+0x12>
    31fa:	95 1b       	sub	r25, r21
    31fc:	55 0b       	sbc	r21, r21
    31fe:	bb 27       	eor	r27, r27
    3200:	aa 27       	eor	r26, r26
    3202:	62 17       	cp	r22, r18
    3204:	73 07       	cpc	r23, r19
    3206:	84 07       	cpc	r24, r20
    3208:	38 f0       	brcs	.+14     	; 0x3218 <__divsf3_pse+0x26>
    320a:	9f 5f       	subi	r25, 0xFF	; 255
    320c:	5f 4f       	sbci	r21, 0xFF	; 255
    320e:	22 0f       	add	r18, r18
    3210:	33 1f       	adc	r19, r19
    3212:	44 1f       	adc	r20, r20
    3214:	aa 1f       	adc	r26, r26
    3216:	a9 f3       	breq	.-22     	; 0x3202 <__divsf3_pse+0x10>
    3218:	33 d0       	rcall	.+102    	; 0x3280 <__divsf3_pse+0x8e>
    321a:	0e 2e       	mov	r0, r30
    321c:	3a f0       	brmi	.+14     	; 0x322c <__divsf3_pse+0x3a>
    321e:	e0 e8       	ldi	r30, 0x80	; 128
    3220:	30 d0       	rcall	.+96     	; 0x3282 <__divsf3_pse+0x90>
    3222:	91 50       	subi	r25, 0x01	; 1
    3224:	50 40       	sbci	r21, 0x00	; 0
    3226:	e6 95       	lsr	r30
    3228:	00 1c       	adc	r0, r0
    322a:	ca f7       	brpl	.-14     	; 0x321e <__divsf3_pse+0x2c>
    322c:	29 d0       	rcall	.+82     	; 0x3280 <__divsf3_pse+0x8e>
    322e:	fe 2f       	mov	r31, r30
    3230:	27 d0       	rcall	.+78     	; 0x3280 <__divsf3_pse+0x8e>
    3232:	66 0f       	add	r22, r22
    3234:	77 1f       	adc	r23, r23
    3236:	88 1f       	adc	r24, r24
    3238:	bb 1f       	adc	r27, r27
    323a:	26 17       	cp	r18, r22
    323c:	37 07       	cpc	r19, r23
    323e:	48 07       	cpc	r20, r24
    3240:	ab 07       	cpc	r26, r27
    3242:	b0 e8       	ldi	r27, 0x80	; 128
    3244:	09 f0       	breq	.+2      	; 0x3248 <__divsf3_pse+0x56>
    3246:	bb 0b       	sbc	r27, r27
    3248:	80 2d       	mov	r24, r0
    324a:	bf 01       	movw	r22, r30
    324c:	ff 27       	eor	r31, r31
    324e:	93 58       	subi	r25, 0x83	; 131
    3250:	5f 4f       	sbci	r21, 0xFF	; 255
    3252:	2a f0       	brmi	.+10     	; 0x325e <__divsf3_pse+0x6c>
    3254:	9e 3f       	cpi	r25, 0xFE	; 254
    3256:	51 05       	cpc	r21, r1
    3258:	68 f0       	brcs	.+26     	; 0x3274 <__divsf3_pse+0x82>
    325a:	92 c0       	rjmp	.+292    	; 0x3380 <__fp_inf>
    325c:	dc c0       	rjmp	.+440    	; 0x3416 <__fp_szero>
    325e:	5f 3f       	cpi	r21, 0xFF	; 255
    3260:	ec f3       	brlt	.-6      	; 0x325c <__divsf3_pse+0x6a>
    3262:	98 3e       	cpi	r25, 0xE8	; 232
    3264:	dc f3       	brlt	.-10     	; 0x325c <__divsf3_pse+0x6a>
    3266:	86 95       	lsr	r24
    3268:	77 95       	ror	r23
    326a:	67 95       	ror	r22
    326c:	b7 95       	ror	r27
    326e:	f7 95       	ror	r31
    3270:	9f 5f       	subi	r25, 0xFF	; 255
    3272:	c9 f7       	brne	.-14     	; 0x3266 <__divsf3_pse+0x74>
    3274:	88 0f       	add	r24, r24
    3276:	91 1d       	adc	r25, r1
    3278:	96 95       	lsr	r25
    327a:	87 95       	ror	r24
    327c:	97 f9       	bld	r25, 7
    327e:	08 95       	ret
    3280:	e1 e0       	ldi	r30, 0x01	; 1
    3282:	66 0f       	add	r22, r22
    3284:	77 1f       	adc	r23, r23
    3286:	88 1f       	adc	r24, r24
    3288:	bb 1f       	adc	r27, r27
    328a:	62 17       	cp	r22, r18
    328c:	73 07       	cpc	r23, r19
    328e:	84 07       	cpc	r24, r20
    3290:	ba 07       	cpc	r27, r26
    3292:	20 f0       	brcs	.+8      	; 0x329c <__divsf3_pse+0xaa>
    3294:	62 1b       	sub	r22, r18
    3296:	73 0b       	sbc	r23, r19
    3298:	84 0b       	sbc	r24, r20
    329a:	ba 0b       	sbc	r27, r26
    329c:	ee 1f       	adc	r30, r30
    329e:	88 f7       	brcc	.-30     	; 0x3282 <__divsf3_pse+0x90>
    32a0:	e0 95       	com	r30
    32a2:	08 95       	ret

000032a4 <__fixsfsi>:
    32a4:	04 d0       	rcall	.+8      	; 0x32ae <__fixunssfsi>
    32a6:	68 94       	set
    32a8:	b1 11       	cpse	r27, r1
    32aa:	b5 c0       	rjmp	.+362    	; 0x3416 <__fp_szero>
    32ac:	08 95       	ret

000032ae <__fixunssfsi>:
    32ae:	98 d0       	rcall	.+304    	; 0x33e0 <__fp_splitA>
    32b0:	88 f0       	brcs	.+34     	; 0x32d4 <__fixunssfsi+0x26>
    32b2:	9f 57       	subi	r25, 0x7F	; 127
    32b4:	90 f0       	brcs	.+36     	; 0x32da <__fixunssfsi+0x2c>
    32b6:	b9 2f       	mov	r27, r25
    32b8:	99 27       	eor	r25, r25
    32ba:	b7 51       	subi	r27, 0x17	; 23
    32bc:	a0 f0       	brcs	.+40     	; 0x32e6 <__fixunssfsi+0x38>
    32be:	d1 f0       	breq	.+52     	; 0x32f4 <__fixunssfsi+0x46>
    32c0:	66 0f       	add	r22, r22
    32c2:	77 1f       	adc	r23, r23
    32c4:	88 1f       	adc	r24, r24
    32c6:	99 1f       	adc	r25, r25
    32c8:	1a f0       	brmi	.+6      	; 0x32d0 <__fixunssfsi+0x22>
    32ca:	ba 95       	dec	r27
    32cc:	c9 f7       	brne	.-14     	; 0x32c0 <__fixunssfsi+0x12>
    32ce:	12 c0       	rjmp	.+36     	; 0x32f4 <__fixunssfsi+0x46>
    32d0:	b1 30       	cpi	r27, 0x01	; 1
    32d2:	81 f0       	breq	.+32     	; 0x32f4 <__fixunssfsi+0x46>
    32d4:	9f d0       	rcall	.+318    	; 0x3414 <__fp_zero>
    32d6:	b1 e0       	ldi	r27, 0x01	; 1
    32d8:	08 95       	ret
    32da:	9c c0       	rjmp	.+312    	; 0x3414 <__fp_zero>
    32dc:	67 2f       	mov	r22, r23
    32de:	78 2f       	mov	r23, r24
    32e0:	88 27       	eor	r24, r24
    32e2:	b8 5f       	subi	r27, 0xF8	; 248
    32e4:	39 f0       	breq	.+14     	; 0x32f4 <__fixunssfsi+0x46>
    32e6:	b9 3f       	cpi	r27, 0xF9	; 249
    32e8:	cc f3       	brlt	.-14     	; 0x32dc <__fixunssfsi+0x2e>
    32ea:	86 95       	lsr	r24
    32ec:	77 95       	ror	r23
    32ee:	67 95       	ror	r22
    32f0:	b3 95       	inc	r27
    32f2:	d9 f7       	brne	.-10     	; 0x32ea <__fixunssfsi+0x3c>
    32f4:	3e f4       	brtc	.+14     	; 0x3304 <__fixunssfsi+0x56>
    32f6:	90 95       	com	r25
    32f8:	80 95       	com	r24
    32fa:	70 95       	com	r23
    32fc:	61 95       	neg	r22
    32fe:	7f 4f       	sbci	r23, 0xFF	; 255
    3300:	8f 4f       	sbci	r24, 0xFF	; 255
    3302:	9f 4f       	sbci	r25, 0xFF	; 255
    3304:	08 95       	ret

00003306 <__floatunsisf>:
    3306:	e8 94       	clt
    3308:	09 c0       	rjmp	.+18     	; 0x331c <__floatsisf+0x12>

0000330a <__floatsisf>:
    330a:	97 fb       	bst	r25, 7
    330c:	3e f4       	brtc	.+14     	; 0x331c <__floatsisf+0x12>
    330e:	90 95       	com	r25
    3310:	80 95       	com	r24
    3312:	70 95       	com	r23
    3314:	61 95       	neg	r22
    3316:	7f 4f       	sbci	r23, 0xFF	; 255
    3318:	8f 4f       	sbci	r24, 0xFF	; 255
    331a:	9f 4f       	sbci	r25, 0xFF	; 255
    331c:	99 23       	and	r25, r25
    331e:	a9 f0       	breq	.+42     	; 0x334a <__floatsisf+0x40>
    3320:	f9 2f       	mov	r31, r25
    3322:	96 e9       	ldi	r25, 0x96	; 150
    3324:	bb 27       	eor	r27, r27
    3326:	93 95       	inc	r25
    3328:	f6 95       	lsr	r31
    332a:	87 95       	ror	r24
    332c:	77 95       	ror	r23
    332e:	67 95       	ror	r22
    3330:	b7 95       	ror	r27
    3332:	f1 11       	cpse	r31, r1
    3334:	f8 cf       	rjmp	.-16     	; 0x3326 <__floatsisf+0x1c>
    3336:	fa f4       	brpl	.+62     	; 0x3376 <__floatsisf+0x6c>
    3338:	bb 0f       	add	r27, r27
    333a:	11 f4       	brne	.+4      	; 0x3340 <__floatsisf+0x36>
    333c:	60 ff       	sbrs	r22, 0
    333e:	1b c0       	rjmp	.+54     	; 0x3376 <__floatsisf+0x6c>
    3340:	6f 5f       	subi	r22, 0xFF	; 255
    3342:	7f 4f       	sbci	r23, 0xFF	; 255
    3344:	8f 4f       	sbci	r24, 0xFF	; 255
    3346:	9f 4f       	sbci	r25, 0xFF	; 255
    3348:	16 c0       	rjmp	.+44     	; 0x3376 <__floatsisf+0x6c>
    334a:	88 23       	and	r24, r24
    334c:	11 f0       	breq	.+4      	; 0x3352 <__floatsisf+0x48>
    334e:	96 e9       	ldi	r25, 0x96	; 150
    3350:	11 c0       	rjmp	.+34     	; 0x3374 <__floatsisf+0x6a>
    3352:	77 23       	and	r23, r23
    3354:	21 f0       	breq	.+8      	; 0x335e <__floatsisf+0x54>
    3356:	9e e8       	ldi	r25, 0x8E	; 142
    3358:	87 2f       	mov	r24, r23
    335a:	76 2f       	mov	r23, r22
    335c:	05 c0       	rjmp	.+10     	; 0x3368 <__floatsisf+0x5e>
    335e:	66 23       	and	r22, r22
    3360:	71 f0       	breq	.+28     	; 0x337e <__floatsisf+0x74>
    3362:	96 e8       	ldi	r25, 0x86	; 134
    3364:	86 2f       	mov	r24, r22
    3366:	70 e0       	ldi	r23, 0x00	; 0
    3368:	60 e0       	ldi	r22, 0x00	; 0
    336a:	2a f0       	brmi	.+10     	; 0x3376 <__floatsisf+0x6c>
    336c:	9a 95       	dec	r25
    336e:	66 0f       	add	r22, r22
    3370:	77 1f       	adc	r23, r23
    3372:	88 1f       	adc	r24, r24
    3374:	da f7       	brpl	.-10     	; 0x336c <__floatsisf+0x62>
    3376:	88 0f       	add	r24, r24
    3378:	96 95       	lsr	r25
    337a:	87 95       	ror	r24
    337c:	97 f9       	bld	r25, 7
    337e:	08 95       	ret

00003380 <__fp_inf>:
    3380:	97 f9       	bld	r25, 7
    3382:	9f 67       	ori	r25, 0x7F	; 127
    3384:	80 e8       	ldi	r24, 0x80	; 128
    3386:	70 e0       	ldi	r23, 0x00	; 0
    3388:	60 e0       	ldi	r22, 0x00	; 0
    338a:	08 95       	ret

0000338c <__fp_nan>:
    338c:	9f ef       	ldi	r25, 0xFF	; 255
    338e:	80 ec       	ldi	r24, 0xC0	; 192
    3390:	08 95       	ret

00003392 <__fp_pscA>:
    3392:	00 24       	eor	r0, r0
    3394:	0a 94       	dec	r0
    3396:	16 16       	cp	r1, r22
    3398:	17 06       	cpc	r1, r23
    339a:	18 06       	cpc	r1, r24
    339c:	09 06       	cpc	r0, r25
    339e:	08 95       	ret

000033a0 <__fp_pscB>:
    33a0:	00 24       	eor	r0, r0
    33a2:	0a 94       	dec	r0
    33a4:	12 16       	cp	r1, r18
    33a6:	13 06       	cpc	r1, r19
    33a8:	14 06       	cpc	r1, r20
    33aa:	05 06       	cpc	r0, r21
    33ac:	08 95       	ret

000033ae <__fp_round>:
    33ae:	09 2e       	mov	r0, r25
    33b0:	03 94       	inc	r0
    33b2:	00 0c       	add	r0, r0
    33b4:	11 f4       	brne	.+4      	; 0x33ba <__fp_round+0xc>
    33b6:	88 23       	and	r24, r24
    33b8:	52 f0       	brmi	.+20     	; 0x33ce <__fp_round+0x20>
    33ba:	bb 0f       	add	r27, r27
    33bc:	40 f4       	brcc	.+16     	; 0x33ce <__fp_round+0x20>
    33be:	bf 2b       	or	r27, r31
    33c0:	11 f4       	brne	.+4      	; 0x33c6 <__fp_round+0x18>
    33c2:	60 ff       	sbrs	r22, 0
    33c4:	04 c0       	rjmp	.+8      	; 0x33ce <__fp_round+0x20>
    33c6:	6f 5f       	subi	r22, 0xFF	; 255
    33c8:	7f 4f       	sbci	r23, 0xFF	; 255
    33ca:	8f 4f       	sbci	r24, 0xFF	; 255
    33cc:	9f 4f       	sbci	r25, 0xFF	; 255
    33ce:	08 95       	ret

000033d0 <__fp_split3>:
    33d0:	57 fd       	sbrc	r21, 7
    33d2:	90 58       	subi	r25, 0x80	; 128
    33d4:	44 0f       	add	r20, r20
    33d6:	55 1f       	adc	r21, r21
    33d8:	59 f0       	breq	.+22     	; 0x33f0 <__fp_splitA+0x10>
    33da:	5f 3f       	cpi	r21, 0xFF	; 255
    33dc:	71 f0       	breq	.+28     	; 0x33fa <__fp_splitA+0x1a>
    33de:	47 95       	ror	r20

000033e0 <__fp_splitA>:
    33e0:	88 0f       	add	r24, r24
    33e2:	97 fb       	bst	r25, 7
    33e4:	99 1f       	adc	r25, r25
    33e6:	61 f0       	breq	.+24     	; 0x3400 <__fp_splitA+0x20>
    33e8:	9f 3f       	cpi	r25, 0xFF	; 255
    33ea:	79 f0       	breq	.+30     	; 0x340a <__fp_splitA+0x2a>
    33ec:	87 95       	ror	r24
    33ee:	08 95       	ret
    33f0:	12 16       	cp	r1, r18
    33f2:	13 06       	cpc	r1, r19
    33f4:	14 06       	cpc	r1, r20
    33f6:	55 1f       	adc	r21, r21
    33f8:	f2 cf       	rjmp	.-28     	; 0x33de <__fp_split3+0xe>
    33fa:	46 95       	lsr	r20
    33fc:	f1 df       	rcall	.-30     	; 0x33e0 <__fp_splitA>
    33fe:	08 c0       	rjmp	.+16     	; 0x3410 <__fp_splitA+0x30>
    3400:	16 16       	cp	r1, r22
    3402:	17 06       	cpc	r1, r23
    3404:	18 06       	cpc	r1, r24
    3406:	99 1f       	adc	r25, r25
    3408:	f1 cf       	rjmp	.-30     	; 0x33ec <__fp_splitA+0xc>
    340a:	86 95       	lsr	r24
    340c:	71 05       	cpc	r23, r1
    340e:	61 05       	cpc	r22, r1
    3410:	08 94       	sec
    3412:	08 95       	ret

00003414 <__fp_zero>:
    3414:	e8 94       	clt

00003416 <__fp_szero>:
    3416:	bb 27       	eor	r27, r27
    3418:	66 27       	eor	r22, r22
    341a:	77 27       	eor	r23, r23
    341c:	cb 01       	movw	r24, r22
    341e:	97 f9       	bld	r25, 7
    3420:	08 95       	ret
    3422:	0e f0       	brts	.+2      	; 0x3426 <__fp_szero+0x10>
    3424:	23 c1       	rjmp	.+582    	; 0x366c <__fp_mpack>
    3426:	b2 cf       	rjmp	.-156    	; 0x338c <__fp_nan>
    3428:	68 94       	set
    342a:	aa cf       	rjmp	.-172    	; 0x3380 <__fp_inf>

0000342c <log>:
    342c:	d9 df       	rcall	.-78     	; 0x33e0 <__fp_splitA>
    342e:	c8 f3       	brcs	.-14     	; 0x3422 <__fp_szero+0xc>
    3430:	99 23       	and	r25, r25
    3432:	d1 f3       	breq	.-12     	; 0x3428 <__fp_szero+0x12>
    3434:	c6 f3       	brts	.-16     	; 0x3426 <__fp_szero+0x10>
    3436:	df 93       	push	r29
    3438:	cf 93       	push	r28
    343a:	1f 93       	push	r17
    343c:	0f 93       	push	r16
    343e:	ff 92       	push	r15
    3440:	c9 2f       	mov	r28, r25
    3442:	dd 27       	eor	r29, r29
    3444:	88 23       	and	r24, r24
    3446:	2a f0       	brmi	.+10     	; 0x3452 <log+0x26>
    3448:	21 97       	sbiw	r28, 0x01	; 1
    344a:	66 0f       	add	r22, r22
    344c:	77 1f       	adc	r23, r23
    344e:	88 1f       	adc	r24, r24
    3450:	da f7       	brpl	.-10     	; 0x3448 <log+0x1c>
    3452:	20 e0       	ldi	r18, 0x00	; 0
    3454:	30 e0       	ldi	r19, 0x00	; 0
    3456:	40 e8       	ldi	r20, 0x80	; 128
    3458:	5f eb       	ldi	r21, 0xBF	; 191
    345a:	9f e3       	ldi	r25, 0x3F	; 63
    345c:	88 39       	cpi	r24, 0x98	; 152
    345e:	20 f0       	brcs	.+8      	; 0x3468 <log+0x3c>
    3460:	80 3e       	cpi	r24, 0xE0	; 224
    3462:	30 f0       	brcs	.+12     	; 0x3470 <log+0x44>
    3464:	21 96       	adiw	r28, 0x01	; 1
    3466:	8f 77       	andi	r24, 0x7F	; 127
    3468:	51 de       	rcall	.-862    	; 0x310c <__addsf3>
    346a:	ea e7       	ldi	r30, 0x7A	; 122
    346c:	f2 e0       	ldi	r31, 0x02	; 2
    346e:	03 c0       	rjmp	.+6      	; 0x3476 <log+0x4a>
    3470:	4d de       	rcall	.-870    	; 0x310c <__addsf3>
    3472:	e7 ea       	ldi	r30, 0xA7	; 167
    3474:	f2 e0       	ldi	r31, 0x02	; 2
    3476:	08 d1       	rcall	.+528    	; 0x3688 <__fp_powser>
    3478:	8b 01       	movw	r16, r22
    347a:	be 01       	movw	r22, r28
    347c:	ec 01       	movw	r28, r24
    347e:	fb 2e       	mov	r15, r27
    3480:	6f 57       	subi	r22, 0x7F	; 127
    3482:	71 09       	sbc	r23, r1
    3484:	75 95       	asr	r23
    3486:	77 1f       	adc	r23, r23
    3488:	88 0b       	sbc	r24, r24
    348a:	99 0b       	sbc	r25, r25
    348c:	3e df       	rcall	.-388    	; 0x330a <__floatsisf>
    348e:	28 e1       	ldi	r18, 0x18	; 24
    3490:	32 e7       	ldi	r19, 0x72	; 114
    3492:	41 e3       	ldi	r20, 0x31	; 49
    3494:	5f e3       	ldi	r21, 0x3F	; 63
    3496:	16 d0       	rcall	.+44     	; 0x34c4 <__mulsf3x>
    3498:	af 2d       	mov	r26, r15
    349a:	98 01       	movw	r18, r16
    349c:	ae 01       	movw	r20, r28
    349e:	ff 90       	pop	r15
    34a0:	0f 91       	pop	r16
    34a2:	1f 91       	pop	r17
    34a4:	cf 91       	pop	r28
    34a6:	df 91       	pop	r29
    34a8:	42 de       	rcall	.-892    	; 0x312e <__addsf3x>
    34aa:	81 cf       	rjmp	.-254    	; 0x33ae <__fp_round>

000034ac <__mulsf3>:
    34ac:	0b d0       	rcall	.+22     	; 0x34c4 <__mulsf3x>
    34ae:	7f cf       	rjmp	.-258    	; 0x33ae <__fp_round>
    34b0:	70 df       	rcall	.-288    	; 0x3392 <__fp_pscA>
    34b2:	28 f0       	brcs	.+10     	; 0x34be <__mulsf3+0x12>
    34b4:	75 df       	rcall	.-278    	; 0x33a0 <__fp_pscB>
    34b6:	18 f0       	brcs	.+6      	; 0x34be <__mulsf3+0x12>
    34b8:	95 23       	and	r25, r21
    34ba:	09 f0       	breq	.+2      	; 0x34be <__mulsf3+0x12>
    34bc:	61 cf       	rjmp	.-318    	; 0x3380 <__fp_inf>
    34be:	66 cf       	rjmp	.-308    	; 0x338c <__fp_nan>
    34c0:	11 24       	eor	r1, r1
    34c2:	a9 cf       	rjmp	.-174    	; 0x3416 <__fp_szero>

000034c4 <__mulsf3x>:
    34c4:	85 df       	rcall	.-246    	; 0x33d0 <__fp_split3>
    34c6:	a0 f3       	brcs	.-24     	; 0x34b0 <__mulsf3+0x4>

000034c8 <__mulsf3_pse>:
    34c8:	95 9f       	mul	r25, r21
    34ca:	d1 f3       	breq	.-12     	; 0x34c0 <__mulsf3+0x14>
    34cc:	95 0f       	add	r25, r21
    34ce:	50 e0       	ldi	r21, 0x00	; 0
    34d0:	55 1f       	adc	r21, r21
    34d2:	62 9f       	mul	r22, r18
    34d4:	f0 01       	movw	r30, r0
    34d6:	72 9f       	mul	r23, r18
    34d8:	bb 27       	eor	r27, r27
    34da:	f0 0d       	add	r31, r0
    34dc:	b1 1d       	adc	r27, r1
    34de:	63 9f       	mul	r22, r19
    34e0:	aa 27       	eor	r26, r26
    34e2:	f0 0d       	add	r31, r0
    34e4:	b1 1d       	adc	r27, r1
    34e6:	aa 1f       	adc	r26, r26
    34e8:	64 9f       	mul	r22, r20
    34ea:	66 27       	eor	r22, r22
    34ec:	b0 0d       	add	r27, r0
    34ee:	a1 1d       	adc	r26, r1
    34f0:	66 1f       	adc	r22, r22
    34f2:	82 9f       	mul	r24, r18
    34f4:	22 27       	eor	r18, r18
    34f6:	b0 0d       	add	r27, r0
    34f8:	a1 1d       	adc	r26, r1
    34fa:	62 1f       	adc	r22, r18
    34fc:	73 9f       	mul	r23, r19
    34fe:	b0 0d       	add	r27, r0
    3500:	a1 1d       	adc	r26, r1
    3502:	62 1f       	adc	r22, r18
    3504:	83 9f       	mul	r24, r19
    3506:	a0 0d       	add	r26, r0
    3508:	61 1d       	adc	r22, r1
    350a:	22 1f       	adc	r18, r18
    350c:	74 9f       	mul	r23, r20
    350e:	33 27       	eor	r19, r19
    3510:	a0 0d       	add	r26, r0
    3512:	61 1d       	adc	r22, r1
    3514:	23 1f       	adc	r18, r19
    3516:	84 9f       	mul	r24, r20
    3518:	60 0d       	add	r22, r0
    351a:	21 1d       	adc	r18, r1
    351c:	82 2f       	mov	r24, r18
    351e:	76 2f       	mov	r23, r22
    3520:	6a 2f       	mov	r22, r26
    3522:	11 24       	eor	r1, r1
    3524:	9f 57       	subi	r25, 0x7F	; 127
    3526:	50 40       	sbci	r21, 0x00	; 0
    3528:	8a f0       	brmi	.+34     	; 0x354c <__mulsf3_pse+0x84>
    352a:	e1 f0       	breq	.+56     	; 0x3564 <__mulsf3_pse+0x9c>
    352c:	88 23       	and	r24, r24
    352e:	4a f0       	brmi	.+18     	; 0x3542 <__mulsf3_pse+0x7a>
    3530:	ee 0f       	add	r30, r30
    3532:	ff 1f       	adc	r31, r31
    3534:	bb 1f       	adc	r27, r27
    3536:	66 1f       	adc	r22, r22
    3538:	77 1f       	adc	r23, r23
    353a:	88 1f       	adc	r24, r24
    353c:	91 50       	subi	r25, 0x01	; 1
    353e:	50 40       	sbci	r21, 0x00	; 0
    3540:	a9 f7       	brne	.-22     	; 0x352c <__mulsf3_pse+0x64>
    3542:	9e 3f       	cpi	r25, 0xFE	; 254
    3544:	51 05       	cpc	r21, r1
    3546:	70 f0       	brcs	.+28     	; 0x3564 <__mulsf3_pse+0x9c>
    3548:	1b cf       	rjmp	.-458    	; 0x3380 <__fp_inf>
    354a:	65 cf       	rjmp	.-310    	; 0x3416 <__fp_szero>
    354c:	5f 3f       	cpi	r21, 0xFF	; 255
    354e:	ec f3       	brlt	.-6      	; 0x354a <__mulsf3_pse+0x82>
    3550:	98 3e       	cpi	r25, 0xE8	; 232
    3552:	dc f3       	brlt	.-10     	; 0x354a <__mulsf3_pse+0x82>
    3554:	86 95       	lsr	r24
    3556:	77 95       	ror	r23
    3558:	67 95       	ror	r22
    355a:	b7 95       	ror	r27
    355c:	f7 95       	ror	r31
    355e:	e7 95       	ror	r30
    3560:	9f 5f       	subi	r25, 0xFF	; 255
    3562:	c1 f7       	brne	.-16     	; 0x3554 <__mulsf3_pse+0x8c>
    3564:	fe 2b       	or	r31, r30
    3566:	88 0f       	add	r24, r24
    3568:	91 1d       	adc	r25, r1
    356a:	96 95       	lsr	r25
    356c:	87 95       	ror	r24
    356e:	97 f9       	bld	r25, 7
    3570:	08 95       	ret

00003572 <pow>:
    3572:	fa 01       	movw	r30, r20
    3574:	ee 0f       	add	r30, r30
    3576:	ff 1f       	adc	r31, r31
    3578:	30 96       	adiw	r30, 0x00	; 0
    357a:	21 05       	cpc	r18, r1
    357c:	31 05       	cpc	r19, r1
    357e:	99 f1       	breq	.+102    	; 0x35e6 <pow+0x74>
    3580:	61 15       	cp	r22, r1
    3582:	71 05       	cpc	r23, r1
    3584:	61 f4       	brne	.+24     	; 0x359e <pow+0x2c>
    3586:	80 38       	cpi	r24, 0x80	; 128
    3588:	bf e3       	ldi	r27, 0x3F	; 63
    358a:	9b 07       	cpc	r25, r27
    358c:	49 f1       	breq	.+82     	; 0x35e0 <pow+0x6e>
    358e:	68 94       	set
    3590:	90 38       	cpi	r25, 0x80	; 128
    3592:	81 05       	cpc	r24, r1
    3594:	61 f0       	breq	.+24     	; 0x35ae <pow+0x3c>
    3596:	80 38       	cpi	r24, 0x80	; 128
    3598:	bf ef       	ldi	r27, 0xFF	; 255
    359a:	9b 07       	cpc	r25, r27
    359c:	41 f0       	breq	.+16     	; 0x35ae <pow+0x3c>
    359e:	99 23       	and	r25, r25
    35a0:	42 f5       	brpl	.+80     	; 0x35f2 <pow+0x80>
    35a2:	ff 3f       	cpi	r31, 0xFF	; 255
    35a4:	e1 05       	cpc	r30, r1
    35a6:	31 05       	cpc	r19, r1
    35a8:	21 05       	cpc	r18, r1
    35aa:	11 f1       	breq	.+68     	; 0x35f0 <pow+0x7e>
    35ac:	e8 94       	clt
    35ae:	08 94       	sec
    35b0:	e7 95       	ror	r30
    35b2:	d9 01       	movw	r26, r18
    35b4:	aa 23       	and	r26, r26
    35b6:	29 f4       	brne	.+10     	; 0x35c2 <pow+0x50>
    35b8:	ab 2f       	mov	r26, r27
    35ba:	be 2f       	mov	r27, r30
    35bc:	f8 5f       	subi	r31, 0xF8	; 248
    35be:	d0 f3       	brcs	.-12     	; 0x35b4 <pow+0x42>
    35c0:	10 c0       	rjmp	.+32     	; 0x35e2 <pow+0x70>
    35c2:	ff 5f       	subi	r31, 0xFF	; 255
    35c4:	70 f4       	brcc	.+28     	; 0x35e2 <pow+0x70>
    35c6:	a6 95       	lsr	r26
    35c8:	e0 f7       	brcc	.-8      	; 0x35c2 <pow+0x50>
    35ca:	f7 39       	cpi	r31, 0x97	; 151
    35cc:	50 f0       	brcs	.+20     	; 0x35e2 <pow+0x70>
    35ce:	19 f0       	breq	.+6      	; 0x35d6 <pow+0x64>
    35d0:	ff 3a       	cpi	r31, 0xAF	; 175
    35d2:	38 f4       	brcc	.+14     	; 0x35e2 <pow+0x70>
    35d4:	9f 77       	andi	r25, 0x7F	; 127
    35d6:	9f 93       	push	r25
    35d8:	0c d0       	rcall	.+24     	; 0x35f2 <pow+0x80>
    35da:	0f 90       	pop	r0
    35dc:	07 fc       	sbrc	r0, 7
    35de:	90 58       	subi	r25, 0x80	; 128
    35e0:	08 95       	ret
    35e2:	3e f0       	brts	.+14     	; 0x35f2 <pow+0x80>
    35e4:	d3 ce       	rjmp	.-602    	; 0x338c <__fp_nan>
    35e6:	60 e0       	ldi	r22, 0x00	; 0
    35e8:	70 e0       	ldi	r23, 0x00	; 0
    35ea:	80 e8       	ldi	r24, 0x80	; 128
    35ec:	9f e3       	ldi	r25, 0x3F	; 63
    35ee:	08 95       	ret
    35f0:	4f e7       	ldi	r20, 0x7F	; 127
    35f2:	9f 77       	andi	r25, 0x7F	; 127
    35f4:	5f 93       	push	r21
    35f6:	4f 93       	push	r20
    35f8:	3f 93       	push	r19
    35fa:	2f 93       	push	r18
    35fc:	17 df       	rcall	.-466    	; 0x342c <log>
    35fe:	2f 91       	pop	r18
    3600:	3f 91       	pop	r19
    3602:	4f 91       	pop	r20
    3604:	5f 91       	pop	r21
    3606:	52 df       	rcall	.-348    	; 0x34ac <__mulsf3>
    3608:	05 c0       	rjmp	.+10     	; 0x3614 <exp>
    360a:	19 f4       	brne	.+6      	; 0x3612 <pow+0xa0>
    360c:	0e f0       	brts	.+2      	; 0x3610 <pow+0x9e>
    360e:	b8 ce       	rjmp	.-656    	; 0x3380 <__fp_inf>
    3610:	01 cf       	rjmp	.-510    	; 0x3414 <__fp_zero>
    3612:	bc ce       	rjmp	.-648    	; 0x338c <__fp_nan>

00003614 <exp>:
    3614:	e5 de       	rcall	.-566    	; 0x33e0 <__fp_splitA>
    3616:	c8 f3       	brcs	.-14     	; 0x360a <pow+0x98>
    3618:	96 38       	cpi	r25, 0x86	; 134
    361a:	c0 f7       	brcc	.-16     	; 0x360c <pow+0x9a>
    361c:	07 f8       	bld	r0, 7
    361e:	0f 92       	push	r0
    3620:	e8 94       	clt
    3622:	2b e3       	ldi	r18, 0x3B	; 59
    3624:	3a ea       	ldi	r19, 0xAA	; 170
    3626:	48 eb       	ldi	r20, 0xB8	; 184
    3628:	5f e7       	ldi	r21, 0x7F	; 127
    362a:	4e df       	rcall	.-356    	; 0x34c8 <__mulsf3_pse>
    362c:	0f 92       	push	r0
    362e:	0f 92       	push	r0
    3630:	0f 92       	push	r0
    3632:	4d b7       	in	r20, 0x3d	; 61
    3634:	5e b7       	in	r21, 0x3e	; 62
    3636:	0f 92       	push	r0
    3638:	89 d0       	rcall	.+274    	; 0x374c <modf>
    363a:	e4 ed       	ldi	r30, 0xD4	; 212
    363c:	f2 e0       	ldi	r31, 0x02	; 2
    363e:	24 d0       	rcall	.+72     	; 0x3688 <__fp_powser>
    3640:	4f 91       	pop	r20
    3642:	5f 91       	pop	r21
    3644:	ef 91       	pop	r30
    3646:	ff 91       	pop	r31
    3648:	e5 95       	asr	r30
    364a:	ee 1f       	adc	r30, r30
    364c:	ff 1f       	adc	r31, r31
    364e:	49 f0       	breq	.+18     	; 0x3662 <exp+0x4e>
    3650:	fe 57       	subi	r31, 0x7E	; 126
    3652:	e0 68       	ori	r30, 0x80	; 128
    3654:	44 27       	eor	r20, r20
    3656:	ee 0f       	add	r30, r30
    3658:	44 1f       	adc	r20, r20
    365a:	fa 95       	dec	r31
    365c:	e1 f7       	brne	.-8      	; 0x3656 <exp+0x42>
    365e:	41 95       	neg	r20
    3660:	55 0b       	sbc	r21, r21
    3662:	40 d0       	rcall	.+128    	; 0x36e4 <ldexp>
    3664:	0f 90       	pop	r0
    3666:	07 fe       	sbrs	r0, 7
    3668:	34 c0       	rjmp	.+104    	; 0x36d2 <inverse>
    366a:	08 95       	ret

0000366c <__fp_mpack>:
    366c:	9f 3f       	cpi	r25, 0xFF	; 255
    366e:	31 f0       	breq	.+12     	; 0x367c <__fp_mpack_finite+0xc>

00003670 <__fp_mpack_finite>:
    3670:	91 50       	subi	r25, 0x01	; 1
    3672:	20 f4       	brcc	.+8      	; 0x367c <__fp_mpack_finite+0xc>
    3674:	87 95       	ror	r24
    3676:	77 95       	ror	r23
    3678:	67 95       	ror	r22
    367a:	b7 95       	ror	r27
    367c:	88 0f       	add	r24, r24
    367e:	91 1d       	adc	r25, r1
    3680:	96 95       	lsr	r25
    3682:	87 95       	ror	r24
    3684:	97 f9       	bld	r25, 7
    3686:	08 95       	ret

00003688 <__fp_powser>:
    3688:	df 93       	push	r29
    368a:	cf 93       	push	r28
    368c:	1f 93       	push	r17
    368e:	0f 93       	push	r16
    3690:	ff 92       	push	r15
    3692:	ef 92       	push	r14
    3694:	df 92       	push	r13
    3696:	7b 01       	movw	r14, r22
    3698:	8c 01       	movw	r16, r24
    369a:	68 94       	set
    369c:	05 c0       	rjmp	.+10     	; 0x36a8 <__fp_powser+0x20>
    369e:	da 2e       	mov	r13, r26
    36a0:	ef 01       	movw	r28, r30
    36a2:	10 df       	rcall	.-480    	; 0x34c4 <__mulsf3x>
    36a4:	fe 01       	movw	r30, r28
    36a6:	e8 94       	clt
    36a8:	a5 91       	lpm	r26, Z+
    36aa:	25 91       	lpm	r18, Z+
    36ac:	35 91       	lpm	r19, Z+
    36ae:	45 91       	lpm	r20, Z+
    36b0:	55 91       	lpm	r21, Z+
    36b2:	ae f3       	brts	.-22     	; 0x369e <__fp_powser+0x16>
    36b4:	ef 01       	movw	r28, r30
    36b6:	3b dd       	rcall	.-1418   	; 0x312e <__addsf3x>
    36b8:	fe 01       	movw	r30, r28
    36ba:	97 01       	movw	r18, r14
    36bc:	a8 01       	movw	r20, r16
    36be:	da 94       	dec	r13
    36c0:	79 f7       	brne	.-34     	; 0x36a0 <__fp_powser+0x18>
    36c2:	df 90       	pop	r13
    36c4:	ef 90       	pop	r14
    36c6:	ff 90       	pop	r15
    36c8:	0f 91       	pop	r16
    36ca:	1f 91       	pop	r17
    36cc:	cf 91       	pop	r28
    36ce:	df 91       	pop	r29
    36d0:	08 95       	ret

000036d2 <inverse>:
    36d2:	9b 01       	movw	r18, r22
    36d4:	ac 01       	movw	r20, r24
    36d6:	60 e0       	ldi	r22, 0x00	; 0
    36d8:	70 e0       	ldi	r23, 0x00	; 0
    36da:	80 e8       	ldi	r24, 0x80	; 128
    36dc:	9f e3       	ldi	r25, 0x3F	; 63
    36de:	7a cd       	rjmp	.-1292   	; 0x31d4 <__divsf3>
    36e0:	4f ce       	rjmp	.-866    	; 0x3380 <__fp_inf>
    36e2:	c4 cf       	rjmp	.-120    	; 0x366c <__fp_mpack>

000036e4 <ldexp>:
    36e4:	7d de       	rcall	.-774    	; 0x33e0 <__fp_splitA>
    36e6:	e8 f3       	brcs	.-6      	; 0x36e2 <inverse+0x10>
    36e8:	99 23       	and	r25, r25
    36ea:	d9 f3       	breq	.-10     	; 0x36e2 <inverse+0x10>
    36ec:	94 0f       	add	r25, r20
    36ee:	51 1d       	adc	r21, r1
    36f0:	bb f3       	brvs	.-18     	; 0x36e0 <inverse+0xe>
    36f2:	91 50       	subi	r25, 0x01	; 1
    36f4:	50 40       	sbci	r21, 0x00	; 0
    36f6:	94 f0       	brlt	.+36     	; 0x371c <ldexp+0x38>
    36f8:	59 f0       	breq	.+22     	; 0x3710 <ldexp+0x2c>
    36fa:	88 23       	and	r24, r24
    36fc:	32 f0       	brmi	.+12     	; 0x370a <ldexp+0x26>
    36fe:	66 0f       	add	r22, r22
    3700:	77 1f       	adc	r23, r23
    3702:	88 1f       	adc	r24, r24
    3704:	91 50       	subi	r25, 0x01	; 1
    3706:	50 40       	sbci	r21, 0x00	; 0
    3708:	c1 f7       	brne	.-16     	; 0x36fa <ldexp+0x16>
    370a:	9e 3f       	cpi	r25, 0xFE	; 254
    370c:	51 05       	cpc	r21, r1
    370e:	44 f7       	brge	.-48     	; 0x36e0 <inverse+0xe>
    3710:	88 0f       	add	r24, r24
    3712:	91 1d       	adc	r25, r1
    3714:	96 95       	lsr	r25
    3716:	87 95       	ror	r24
    3718:	97 f9       	bld	r25, 7
    371a:	08 95       	ret
    371c:	5f 3f       	cpi	r21, 0xFF	; 255
    371e:	ac f0       	brlt	.+42     	; 0x374a <ldexp+0x66>
    3720:	98 3e       	cpi	r25, 0xE8	; 232
    3722:	9c f0       	brlt	.+38     	; 0x374a <ldexp+0x66>
    3724:	bb 27       	eor	r27, r27
    3726:	86 95       	lsr	r24
    3728:	77 95       	ror	r23
    372a:	67 95       	ror	r22
    372c:	b7 95       	ror	r27
    372e:	08 f4       	brcc	.+2      	; 0x3732 <ldexp+0x4e>
    3730:	b1 60       	ori	r27, 0x01	; 1
    3732:	93 95       	inc	r25
    3734:	c1 f7       	brne	.-16     	; 0x3726 <ldexp+0x42>
    3736:	bb 0f       	add	r27, r27
    3738:	58 f7       	brcc	.-42     	; 0x3710 <ldexp+0x2c>
    373a:	11 f4       	brne	.+4      	; 0x3740 <ldexp+0x5c>
    373c:	60 ff       	sbrs	r22, 0
    373e:	e8 cf       	rjmp	.-48     	; 0x3710 <ldexp+0x2c>
    3740:	6f 5f       	subi	r22, 0xFF	; 255
    3742:	7f 4f       	sbci	r23, 0xFF	; 255
    3744:	8f 4f       	sbci	r24, 0xFF	; 255
    3746:	9f 4f       	sbci	r25, 0xFF	; 255
    3748:	e3 cf       	rjmp	.-58     	; 0x3710 <ldexp+0x2c>
    374a:	65 ce       	rjmp	.-822    	; 0x3416 <__fp_szero>

0000374c <modf>:
    374c:	fa 01       	movw	r30, r20
    374e:	dc 01       	movw	r26, r24
    3750:	aa 0f       	add	r26, r26
    3752:	bb 1f       	adc	r27, r27
    3754:	9b 01       	movw	r18, r22
    3756:	ac 01       	movw	r20, r24
    3758:	bf 57       	subi	r27, 0x7F	; 127
    375a:	28 f4       	brcc	.+10     	; 0x3766 <modf+0x1a>
    375c:	22 27       	eor	r18, r18
    375e:	33 27       	eor	r19, r19
    3760:	44 27       	eor	r20, r20
    3762:	50 78       	andi	r21, 0x80	; 128
    3764:	1f c0       	rjmp	.+62     	; 0x37a4 <modf+0x58>
    3766:	b7 51       	subi	r27, 0x17	; 23
    3768:	88 f4       	brcc	.+34     	; 0x378c <modf+0x40>
    376a:	ab 2f       	mov	r26, r27
    376c:	00 24       	eor	r0, r0
    376e:	46 95       	lsr	r20
    3770:	37 95       	ror	r19
    3772:	27 95       	ror	r18
    3774:	01 1c       	adc	r0, r1
    3776:	a3 95       	inc	r26
    3778:	d2 f3       	brmi	.-12     	; 0x376e <modf+0x22>
    377a:	00 20       	and	r0, r0
    377c:	69 f0       	breq	.+26     	; 0x3798 <modf+0x4c>
    377e:	22 0f       	add	r18, r18
    3780:	33 1f       	adc	r19, r19
    3782:	44 1f       	adc	r20, r20
    3784:	b3 95       	inc	r27
    3786:	da f3       	brmi	.-10     	; 0x377e <modf+0x32>
    3788:	0d d0       	rcall	.+26     	; 0x37a4 <modf+0x58>
    378a:	bf cc       	rjmp	.-1666   	; 0x310a <__subsf3>
    378c:	61 30       	cpi	r22, 0x01	; 1
    378e:	71 05       	cpc	r23, r1
    3790:	a0 e8       	ldi	r26, 0x80	; 128
    3792:	8a 07       	cpc	r24, r26
    3794:	b9 46       	sbci	r27, 0x69	; 105
    3796:	30 f4       	brcc	.+12     	; 0x37a4 <modf+0x58>
    3798:	9b 01       	movw	r18, r22
    379a:	ac 01       	movw	r20, r24
    379c:	66 27       	eor	r22, r22
    379e:	77 27       	eor	r23, r23
    37a0:	88 27       	eor	r24, r24
    37a2:	90 78       	andi	r25, 0x80	; 128
    37a4:	30 96       	adiw	r30, 0x00	; 0
    37a6:	21 f0       	breq	.+8      	; 0x37b0 <modf+0x64>
    37a8:	20 83       	st	Z, r18
    37aa:	31 83       	std	Z+1, r19	; 0x01
    37ac:	42 83       	std	Z+2, r20	; 0x02
    37ae:	53 83       	std	Z+3, r21	; 0x03
    37b0:	08 95       	ret

000037b2 <vfprintf>:
    37b2:	2f 92       	push	r2
    37b4:	3f 92       	push	r3
    37b6:	4f 92       	push	r4
    37b8:	5f 92       	push	r5
    37ba:	6f 92       	push	r6
    37bc:	7f 92       	push	r7
    37be:	8f 92       	push	r8
    37c0:	9f 92       	push	r9
    37c2:	af 92       	push	r10
    37c4:	bf 92       	push	r11
    37c6:	cf 92       	push	r12
    37c8:	df 92       	push	r13
    37ca:	ef 92       	push	r14
    37cc:	ff 92       	push	r15
    37ce:	0f 93       	push	r16
    37d0:	1f 93       	push	r17
    37d2:	cf 93       	push	r28
    37d4:	df 93       	push	r29
    37d6:	cd b7       	in	r28, 0x3d	; 61
    37d8:	de b7       	in	r29, 0x3e	; 62
    37da:	60 97       	sbiw	r28, 0x10	; 16
    37dc:	cd bf       	out	0x3d, r28	; 61
    37de:	de bf       	out	0x3e, r29	; 62
    37e0:	7c 01       	movw	r14, r24
    37e2:	1b 01       	movw	r2, r22
    37e4:	6a 01       	movw	r12, r20
    37e6:	fc 01       	movw	r30, r24
    37e8:	16 82       	std	Z+6, r1	; 0x06
    37ea:	17 82       	std	Z+7, r1	; 0x07
    37ec:	83 81       	ldd	r24, Z+3	; 0x03
    37ee:	81 ff       	sbrs	r24, 1
    37f0:	2a c3       	rjmp	.+1620   	; 0x3e46 <vfprintf+0x694>
    37f2:	9e 01       	movw	r18, r28
    37f4:	2f 5f       	subi	r18, 0xFF	; 255
    37f6:	3f 4f       	sbci	r19, 0xFF	; 255
    37f8:	39 01       	movw	r6, r18
    37fa:	f7 01       	movw	r30, r14
    37fc:	93 81       	ldd	r25, Z+3	; 0x03
    37fe:	f1 01       	movw	r30, r2
    3800:	93 fd       	sbrc	r25, 3
    3802:	85 91       	lpm	r24, Z+
    3804:	93 ff       	sbrs	r25, 3
    3806:	81 91       	ld	r24, Z+
    3808:	1f 01       	movw	r2, r30
    380a:	88 23       	and	r24, r24
    380c:	09 f4       	brne	.+2      	; 0x3810 <vfprintf+0x5e>
    380e:	17 c3       	rjmp	.+1582   	; 0x3e3e <vfprintf+0x68c>
    3810:	85 32       	cpi	r24, 0x25	; 37
    3812:	39 f4       	brne	.+14     	; 0x3822 <vfprintf+0x70>
    3814:	93 fd       	sbrc	r25, 3
    3816:	85 91       	lpm	r24, Z+
    3818:	93 ff       	sbrs	r25, 3
    381a:	81 91       	ld	r24, Z+
    381c:	1f 01       	movw	r2, r30
    381e:	85 32       	cpi	r24, 0x25	; 37
    3820:	31 f4       	brne	.+12     	; 0x382e <vfprintf+0x7c>
    3822:	b7 01       	movw	r22, r14
    3824:	90 e0       	ldi	r25, 0x00	; 0
    3826:	86 d5       	rcall	.+2828   	; 0x4334 <fputc>
    3828:	56 01       	movw	r10, r12
    382a:	65 01       	movw	r12, r10
    382c:	e6 cf       	rjmp	.-52     	; 0x37fa <vfprintf+0x48>
    382e:	10 e0       	ldi	r17, 0x00	; 0
    3830:	51 2c       	mov	r5, r1
    3832:	91 2c       	mov	r9, r1
    3834:	ff e1       	ldi	r31, 0x1F	; 31
    3836:	f9 15       	cp	r31, r9
    3838:	d8 f0       	brcs	.+54     	; 0x3870 <vfprintf+0xbe>
    383a:	8b 32       	cpi	r24, 0x2B	; 43
    383c:	79 f0       	breq	.+30     	; 0x385c <vfprintf+0xaa>
    383e:	38 f4       	brcc	.+14     	; 0x384e <vfprintf+0x9c>
    3840:	80 32       	cpi	r24, 0x20	; 32
    3842:	79 f0       	breq	.+30     	; 0x3862 <vfprintf+0xb0>
    3844:	83 32       	cpi	r24, 0x23	; 35
    3846:	a1 f4       	brne	.+40     	; 0x3870 <vfprintf+0xbe>
    3848:	f9 2d       	mov	r31, r9
    384a:	f0 61       	ori	r31, 0x10	; 16
    384c:	2e c0       	rjmp	.+92     	; 0x38aa <vfprintf+0xf8>
    384e:	8d 32       	cpi	r24, 0x2D	; 45
    3850:	61 f0       	breq	.+24     	; 0x386a <vfprintf+0xb8>
    3852:	80 33       	cpi	r24, 0x30	; 48
    3854:	69 f4       	brne	.+26     	; 0x3870 <vfprintf+0xbe>
    3856:	29 2d       	mov	r18, r9
    3858:	21 60       	ori	r18, 0x01	; 1
    385a:	2d c0       	rjmp	.+90     	; 0x38b6 <vfprintf+0x104>
    385c:	39 2d       	mov	r19, r9
    385e:	32 60       	ori	r19, 0x02	; 2
    3860:	93 2e       	mov	r9, r19
    3862:	89 2d       	mov	r24, r9
    3864:	84 60       	ori	r24, 0x04	; 4
    3866:	98 2e       	mov	r9, r24
    3868:	2a c0       	rjmp	.+84     	; 0x38be <vfprintf+0x10c>
    386a:	e9 2d       	mov	r30, r9
    386c:	e8 60       	ori	r30, 0x08	; 8
    386e:	15 c0       	rjmp	.+42     	; 0x389a <vfprintf+0xe8>
    3870:	97 fc       	sbrc	r9, 7
    3872:	2d c0       	rjmp	.+90     	; 0x38ce <vfprintf+0x11c>
    3874:	20 ed       	ldi	r18, 0xD0	; 208
    3876:	28 0f       	add	r18, r24
    3878:	2a 30       	cpi	r18, 0x0A	; 10
    387a:	88 f4       	brcc	.+34     	; 0x389e <vfprintf+0xec>
    387c:	96 fe       	sbrs	r9, 6
    387e:	06 c0       	rjmp	.+12     	; 0x388c <vfprintf+0xda>
    3880:	3a e0       	ldi	r19, 0x0A	; 10
    3882:	13 9f       	mul	r17, r19
    3884:	20 0d       	add	r18, r0
    3886:	11 24       	eor	r1, r1
    3888:	12 2f       	mov	r17, r18
    388a:	19 c0       	rjmp	.+50     	; 0x38be <vfprintf+0x10c>
    388c:	8a e0       	ldi	r24, 0x0A	; 10
    388e:	58 9e       	mul	r5, r24
    3890:	20 0d       	add	r18, r0
    3892:	11 24       	eor	r1, r1
    3894:	52 2e       	mov	r5, r18
    3896:	e9 2d       	mov	r30, r9
    3898:	e0 62       	ori	r30, 0x20	; 32
    389a:	9e 2e       	mov	r9, r30
    389c:	10 c0       	rjmp	.+32     	; 0x38be <vfprintf+0x10c>
    389e:	8e 32       	cpi	r24, 0x2E	; 46
    38a0:	31 f4       	brne	.+12     	; 0x38ae <vfprintf+0xfc>
    38a2:	96 fc       	sbrc	r9, 6
    38a4:	cc c2       	rjmp	.+1432   	; 0x3e3e <vfprintf+0x68c>
    38a6:	f9 2d       	mov	r31, r9
    38a8:	f0 64       	ori	r31, 0x40	; 64
    38aa:	9f 2e       	mov	r9, r31
    38ac:	08 c0       	rjmp	.+16     	; 0x38be <vfprintf+0x10c>
    38ae:	8c 36       	cpi	r24, 0x6C	; 108
    38b0:	21 f4       	brne	.+8      	; 0x38ba <vfprintf+0x108>
    38b2:	29 2d       	mov	r18, r9
    38b4:	20 68       	ori	r18, 0x80	; 128
    38b6:	92 2e       	mov	r9, r18
    38b8:	02 c0       	rjmp	.+4      	; 0x38be <vfprintf+0x10c>
    38ba:	88 36       	cpi	r24, 0x68	; 104
    38bc:	41 f4       	brne	.+16     	; 0x38ce <vfprintf+0x11c>
    38be:	f1 01       	movw	r30, r2
    38c0:	93 fd       	sbrc	r25, 3
    38c2:	85 91       	lpm	r24, Z+
    38c4:	93 ff       	sbrs	r25, 3
    38c6:	81 91       	ld	r24, Z+
    38c8:	1f 01       	movw	r2, r30
    38ca:	81 11       	cpse	r24, r1
    38cc:	b3 cf       	rjmp	.-154    	; 0x3834 <vfprintf+0x82>
    38ce:	9b eb       	ldi	r25, 0xBB	; 187
    38d0:	98 0f       	add	r25, r24
    38d2:	93 30       	cpi	r25, 0x03	; 3
    38d4:	20 f4       	brcc	.+8      	; 0x38de <vfprintf+0x12c>
    38d6:	99 2d       	mov	r25, r9
    38d8:	90 61       	ori	r25, 0x10	; 16
    38da:	80 5e       	subi	r24, 0xE0	; 224
    38dc:	07 c0       	rjmp	.+14     	; 0x38ec <vfprintf+0x13a>
    38de:	9b e9       	ldi	r25, 0x9B	; 155
    38e0:	98 0f       	add	r25, r24
    38e2:	93 30       	cpi	r25, 0x03	; 3
    38e4:	08 f0       	brcs	.+2      	; 0x38e8 <vfprintf+0x136>
    38e6:	59 c1       	rjmp	.+690    	; 0x3b9a <vfprintf+0x3e8>
    38e8:	99 2d       	mov	r25, r9
    38ea:	9f 7e       	andi	r25, 0xEF	; 239
    38ec:	96 ff       	sbrs	r25, 6
    38ee:	16 e0       	ldi	r17, 0x06	; 6
    38f0:	9f 73       	andi	r25, 0x3F	; 63
    38f2:	99 2e       	mov	r9, r25
    38f4:	85 36       	cpi	r24, 0x65	; 101
    38f6:	19 f4       	brne	.+6      	; 0x38fe <vfprintf+0x14c>
    38f8:	90 64       	ori	r25, 0x40	; 64
    38fa:	99 2e       	mov	r9, r25
    38fc:	08 c0       	rjmp	.+16     	; 0x390e <vfprintf+0x15c>
    38fe:	86 36       	cpi	r24, 0x66	; 102
    3900:	21 f4       	brne	.+8      	; 0x390a <vfprintf+0x158>
    3902:	39 2f       	mov	r19, r25
    3904:	30 68       	ori	r19, 0x80	; 128
    3906:	93 2e       	mov	r9, r19
    3908:	02 c0       	rjmp	.+4      	; 0x390e <vfprintf+0x15c>
    390a:	11 11       	cpse	r17, r1
    390c:	11 50       	subi	r17, 0x01	; 1
    390e:	97 fe       	sbrs	r9, 7
    3910:	07 c0       	rjmp	.+14     	; 0x3920 <vfprintf+0x16e>
    3912:	1c 33       	cpi	r17, 0x3C	; 60
    3914:	50 f4       	brcc	.+20     	; 0x392a <vfprintf+0x178>
    3916:	44 24       	eor	r4, r4
    3918:	43 94       	inc	r4
    391a:	41 0e       	add	r4, r17
    391c:	27 e0       	ldi	r18, 0x07	; 7
    391e:	0b c0       	rjmp	.+22     	; 0x3936 <vfprintf+0x184>
    3920:	18 30       	cpi	r17, 0x08	; 8
    3922:	38 f0       	brcs	.+14     	; 0x3932 <vfprintf+0x180>
    3924:	27 e0       	ldi	r18, 0x07	; 7
    3926:	17 e0       	ldi	r17, 0x07	; 7
    3928:	05 c0       	rjmp	.+10     	; 0x3934 <vfprintf+0x182>
    392a:	27 e0       	ldi	r18, 0x07	; 7
    392c:	9c e3       	ldi	r25, 0x3C	; 60
    392e:	49 2e       	mov	r4, r25
    3930:	02 c0       	rjmp	.+4      	; 0x3936 <vfprintf+0x184>
    3932:	21 2f       	mov	r18, r17
    3934:	41 2c       	mov	r4, r1
    3936:	56 01       	movw	r10, r12
    3938:	84 e0       	ldi	r24, 0x04	; 4
    393a:	a8 0e       	add	r10, r24
    393c:	b1 1c       	adc	r11, r1
    393e:	f6 01       	movw	r30, r12
    3940:	60 81       	ld	r22, Z
    3942:	71 81       	ldd	r23, Z+1	; 0x01
    3944:	82 81       	ldd	r24, Z+2	; 0x02
    3946:	93 81       	ldd	r25, Z+3	; 0x03
    3948:	04 2d       	mov	r16, r4
    394a:	a3 01       	movw	r20, r6
    394c:	bb d3       	rcall	.+1910   	; 0x40c4 <__ftoa_engine>
    394e:	6c 01       	movw	r12, r24
    3950:	f9 81       	ldd	r31, Y+1	; 0x01
    3952:	fc 87       	std	Y+12, r31	; 0x0c
    3954:	f0 ff       	sbrs	r31, 0
    3956:	02 c0       	rjmp	.+4      	; 0x395c <vfprintf+0x1aa>
    3958:	f3 ff       	sbrs	r31, 3
    395a:	06 c0       	rjmp	.+12     	; 0x3968 <vfprintf+0x1b6>
    395c:	91 fc       	sbrc	r9, 1
    395e:	06 c0       	rjmp	.+12     	; 0x396c <vfprintf+0x1ba>
    3960:	92 fe       	sbrs	r9, 2
    3962:	06 c0       	rjmp	.+12     	; 0x3970 <vfprintf+0x1be>
    3964:	00 e2       	ldi	r16, 0x20	; 32
    3966:	05 c0       	rjmp	.+10     	; 0x3972 <vfprintf+0x1c0>
    3968:	0d e2       	ldi	r16, 0x2D	; 45
    396a:	03 c0       	rjmp	.+6      	; 0x3972 <vfprintf+0x1c0>
    396c:	0b e2       	ldi	r16, 0x2B	; 43
    396e:	01 c0       	rjmp	.+2      	; 0x3972 <vfprintf+0x1c0>
    3970:	00 e0       	ldi	r16, 0x00	; 0
    3972:	8c 85       	ldd	r24, Y+12	; 0x0c
    3974:	8c 70       	andi	r24, 0x0C	; 12
    3976:	19 f0       	breq	.+6      	; 0x397e <vfprintf+0x1cc>
    3978:	01 11       	cpse	r16, r1
    397a:	43 c2       	rjmp	.+1158   	; 0x3e02 <vfprintf+0x650>
    397c:	80 c2       	rjmp	.+1280   	; 0x3e7e <vfprintf+0x6cc>
    397e:	97 fe       	sbrs	r9, 7
    3980:	10 c0       	rjmp	.+32     	; 0x39a2 <vfprintf+0x1f0>
    3982:	4c 0c       	add	r4, r12
    3984:	fc 85       	ldd	r31, Y+12	; 0x0c
    3986:	f4 ff       	sbrs	r31, 4
    3988:	04 c0       	rjmp	.+8      	; 0x3992 <vfprintf+0x1e0>
    398a:	8a 81       	ldd	r24, Y+2	; 0x02
    398c:	81 33       	cpi	r24, 0x31	; 49
    398e:	09 f4       	brne	.+2      	; 0x3992 <vfprintf+0x1e0>
    3990:	4a 94       	dec	r4
    3992:	14 14       	cp	r1, r4
    3994:	74 f5       	brge	.+92     	; 0x39f2 <vfprintf+0x240>
    3996:	28 e0       	ldi	r18, 0x08	; 8
    3998:	24 15       	cp	r18, r4
    399a:	78 f5       	brcc	.+94     	; 0x39fa <vfprintf+0x248>
    399c:	88 e0       	ldi	r24, 0x08	; 8
    399e:	48 2e       	mov	r4, r24
    39a0:	2c c0       	rjmp	.+88     	; 0x39fa <vfprintf+0x248>
    39a2:	96 fc       	sbrc	r9, 6
    39a4:	2a c0       	rjmp	.+84     	; 0x39fa <vfprintf+0x248>
    39a6:	81 2f       	mov	r24, r17
    39a8:	90 e0       	ldi	r25, 0x00	; 0
    39aa:	8c 15       	cp	r24, r12
    39ac:	9d 05       	cpc	r25, r13
    39ae:	9c f0       	brlt	.+38     	; 0x39d6 <vfprintf+0x224>
    39b0:	3c ef       	ldi	r19, 0xFC	; 252
    39b2:	c3 16       	cp	r12, r19
    39b4:	3f ef       	ldi	r19, 0xFF	; 255
    39b6:	d3 06       	cpc	r13, r19
    39b8:	74 f0       	brlt	.+28     	; 0x39d6 <vfprintf+0x224>
    39ba:	89 2d       	mov	r24, r9
    39bc:	80 68       	ori	r24, 0x80	; 128
    39be:	98 2e       	mov	r9, r24
    39c0:	0a c0       	rjmp	.+20     	; 0x39d6 <vfprintf+0x224>
    39c2:	e2 e0       	ldi	r30, 0x02	; 2
    39c4:	f0 e0       	ldi	r31, 0x00	; 0
    39c6:	ec 0f       	add	r30, r28
    39c8:	fd 1f       	adc	r31, r29
    39ca:	e1 0f       	add	r30, r17
    39cc:	f1 1d       	adc	r31, r1
    39ce:	80 81       	ld	r24, Z
    39d0:	80 33       	cpi	r24, 0x30	; 48
    39d2:	19 f4       	brne	.+6      	; 0x39da <vfprintf+0x228>
    39d4:	11 50       	subi	r17, 0x01	; 1
    39d6:	11 11       	cpse	r17, r1
    39d8:	f4 cf       	rjmp	.-24     	; 0x39c2 <vfprintf+0x210>
    39da:	97 fe       	sbrs	r9, 7
    39dc:	0e c0       	rjmp	.+28     	; 0x39fa <vfprintf+0x248>
    39de:	44 24       	eor	r4, r4
    39e0:	43 94       	inc	r4
    39e2:	41 0e       	add	r4, r17
    39e4:	81 2f       	mov	r24, r17
    39e6:	90 e0       	ldi	r25, 0x00	; 0
    39e8:	c8 16       	cp	r12, r24
    39ea:	d9 06       	cpc	r13, r25
    39ec:	2c f4       	brge	.+10     	; 0x39f8 <vfprintf+0x246>
    39ee:	1c 19       	sub	r17, r12
    39f0:	04 c0       	rjmp	.+8      	; 0x39fa <vfprintf+0x248>
    39f2:	44 24       	eor	r4, r4
    39f4:	43 94       	inc	r4
    39f6:	01 c0       	rjmp	.+2      	; 0x39fa <vfprintf+0x248>
    39f8:	10 e0       	ldi	r17, 0x00	; 0
    39fa:	97 fe       	sbrs	r9, 7
    39fc:	06 c0       	rjmp	.+12     	; 0x3a0a <vfprintf+0x258>
    39fe:	1c 14       	cp	r1, r12
    3a00:	1d 04       	cpc	r1, r13
    3a02:	34 f4       	brge	.+12     	; 0x3a10 <vfprintf+0x25e>
    3a04:	c6 01       	movw	r24, r12
    3a06:	01 96       	adiw	r24, 0x01	; 1
    3a08:	05 c0       	rjmp	.+10     	; 0x3a14 <vfprintf+0x262>
    3a0a:	85 e0       	ldi	r24, 0x05	; 5
    3a0c:	90 e0       	ldi	r25, 0x00	; 0
    3a0e:	02 c0       	rjmp	.+4      	; 0x3a14 <vfprintf+0x262>
    3a10:	81 e0       	ldi	r24, 0x01	; 1
    3a12:	90 e0       	ldi	r25, 0x00	; 0
    3a14:	01 11       	cpse	r16, r1
    3a16:	01 96       	adiw	r24, 0x01	; 1
    3a18:	11 23       	and	r17, r17
    3a1a:	31 f0       	breq	.+12     	; 0x3a28 <vfprintf+0x276>
    3a1c:	21 2f       	mov	r18, r17
    3a1e:	30 e0       	ldi	r19, 0x00	; 0
    3a20:	2f 5f       	subi	r18, 0xFF	; 255
    3a22:	3f 4f       	sbci	r19, 0xFF	; 255
    3a24:	82 0f       	add	r24, r18
    3a26:	93 1f       	adc	r25, r19
    3a28:	25 2d       	mov	r18, r5
    3a2a:	30 e0       	ldi	r19, 0x00	; 0
    3a2c:	82 17       	cp	r24, r18
    3a2e:	93 07       	cpc	r25, r19
    3a30:	14 f4       	brge	.+4      	; 0x3a36 <vfprintf+0x284>
    3a32:	58 1a       	sub	r5, r24
    3a34:	01 c0       	rjmp	.+2      	; 0x3a38 <vfprintf+0x286>
    3a36:	51 2c       	mov	r5, r1
    3a38:	89 2d       	mov	r24, r9
    3a3a:	89 70       	andi	r24, 0x09	; 9
    3a3c:	41 f4       	brne	.+16     	; 0x3a4e <vfprintf+0x29c>
    3a3e:	55 20       	and	r5, r5
    3a40:	31 f0       	breq	.+12     	; 0x3a4e <vfprintf+0x29c>
    3a42:	b7 01       	movw	r22, r14
    3a44:	80 e2       	ldi	r24, 0x20	; 32
    3a46:	90 e0       	ldi	r25, 0x00	; 0
    3a48:	75 d4       	rcall	.+2282   	; 0x4334 <fputc>
    3a4a:	5a 94       	dec	r5
    3a4c:	f8 cf       	rjmp	.-16     	; 0x3a3e <vfprintf+0x28c>
    3a4e:	00 23       	and	r16, r16
    3a50:	21 f0       	breq	.+8      	; 0x3a5a <vfprintf+0x2a8>
    3a52:	b7 01       	movw	r22, r14
    3a54:	80 2f       	mov	r24, r16
    3a56:	90 e0       	ldi	r25, 0x00	; 0
    3a58:	6d d4       	rcall	.+2266   	; 0x4334 <fputc>
    3a5a:	93 fc       	sbrc	r9, 3
    3a5c:	08 c0       	rjmp	.+16     	; 0x3a6e <vfprintf+0x2bc>
    3a5e:	55 20       	and	r5, r5
    3a60:	31 f0       	breq	.+12     	; 0x3a6e <vfprintf+0x2bc>
    3a62:	b7 01       	movw	r22, r14
    3a64:	80 e3       	ldi	r24, 0x30	; 48
    3a66:	90 e0       	ldi	r25, 0x00	; 0
    3a68:	65 d4       	rcall	.+2250   	; 0x4334 <fputc>
    3a6a:	5a 94       	dec	r5
    3a6c:	f8 cf       	rjmp	.-16     	; 0x3a5e <vfprintf+0x2ac>
    3a6e:	97 fe       	sbrs	r9, 7
    3a70:	4a c0       	rjmp	.+148    	; 0x3b06 <vfprintf+0x354>
    3a72:	46 01       	movw	r8, r12
    3a74:	d7 fe       	sbrs	r13, 7
    3a76:	02 c0       	rjmp	.+4      	; 0x3a7c <vfprintf+0x2ca>
    3a78:	81 2c       	mov	r8, r1
    3a7a:	91 2c       	mov	r9, r1
    3a7c:	c6 01       	movw	r24, r12
    3a7e:	88 19       	sub	r24, r8
    3a80:	99 09       	sbc	r25, r9
    3a82:	f3 01       	movw	r30, r6
    3a84:	e8 0f       	add	r30, r24
    3a86:	f9 1f       	adc	r31, r25
    3a88:	ed 87       	std	Y+13, r30	; 0x0d
    3a8a:	fe 87       	std	Y+14, r31	; 0x0e
    3a8c:	96 01       	movw	r18, r12
    3a8e:	24 19       	sub	r18, r4
    3a90:	31 09       	sbc	r19, r1
    3a92:	2f 87       	std	Y+15, r18	; 0x0f
    3a94:	38 8b       	std	Y+16, r19	; 0x10
    3a96:	01 2f       	mov	r16, r17
    3a98:	10 e0       	ldi	r17, 0x00	; 0
    3a9a:	11 95       	neg	r17
    3a9c:	01 95       	neg	r16
    3a9e:	11 09       	sbc	r17, r1
    3aa0:	3f ef       	ldi	r19, 0xFF	; 255
    3aa2:	83 16       	cp	r8, r19
    3aa4:	93 06       	cpc	r9, r19
    3aa6:	21 f4       	brne	.+8      	; 0x3ab0 <vfprintf+0x2fe>
    3aa8:	b7 01       	movw	r22, r14
    3aaa:	8e e2       	ldi	r24, 0x2E	; 46
    3aac:	90 e0       	ldi	r25, 0x00	; 0
    3aae:	42 d4       	rcall	.+2180   	; 0x4334 <fputc>
    3ab0:	c8 14       	cp	r12, r8
    3ab2:	d9 04       	cpc	r13, r9
    3ab4:	4c f0       	brlt	.+18     	; 0x3ac8 <vfprintf+0x316>
    3ab6:	8f 85       	ldd	r24, Y+15	; 0x0f
    3ab8:	98 89       	ldd	r25, Y+16	; 0x10
    3aba:	88 15       	cp	r24, r8
    3abc:	99 05       	cpc	r25, r9
    3abe:	24 f4       	brge	.+8      	; 0x3ac8 <vfprintf+0x316>
    3ac0:	ed 85       	ldd	r30, Y+13	; 0x0d
    3ac2:	fe 85       	ldd	r31, Y+14	; 0x0e
    3ac4:	81 81       	ldd	r24, Z+1	; 0x01
    3ac6:	01 c0       	rjmp	.+2      	; 0x3aca <vfprintf+0x318>
    3ac8:	80 e3       	ldi	r24, 0x30	; 48
    3aca:	f1 e0       	ldi	r31, 0x01	; 1
    3acc:	8f 1a       	sub	r8, r31
    3ace:	91 08       	sbc	r9, r1
    3ad0:	2d 85       	ldd	r18, Y+13	; 0x0d
    3ad2:	3e 85       	ldd	r19, Y+14	; 0x0e
    3ad4:	2f 5f       	subi	r18, 0xFF	; 255
    3ad6:	3f 4f       	sbci	r19, 0xFF	; 255
    3ad8:	2d 87       	std	Y+13, r18	; 0x0d
    3ada:	3e 87       	std	Y+14, r19	; 0x0e
    3adc:	80 16       	cp	r8, r16
    3ade:	91 06       	cpc	r9, r17
    3ae0:	24 f0       	brlt	.+8      	; 0x3aea <vfprintf+0x338>
    3ae2:	b7 01       	movw	r22, r14
    3ae4:	90 e0       	ldi	r25, 0x00	; 0
    3ae6:	26 d4       	rcall	.+2124   	; 0x4334 <fputc>
    3ae8:	db cf       	rjmp	.-74     	; 0x3aa0 <vfprintf+0x2ee>
    3aea:	c8 14       	cp	r12, r8
    3aec:	d9 04       	cpc	r13, r9
    3aee:	41 f4       	brne	.+16     	; 0x3b00 <vfprintf+0x34e>
    3af0:	9a 81       	ldd	r25, Y+2	; 0x02
    3af2:	96 33       	cpi	r25, 0x36	; 54
    3af4:	20 f4       	brcc	.+8      	; 0x3afe <vfprintf+0x34c>
    3af6:	95 33       	cpi	r25, 0x35	; 53
    3af8:	19 f4       	brne	.+6      	; 0x3b00 <vfprintf+0x34e>
    3afa:	3c 85       	ldd	r19, Y+12	; 0x0c
    3afc:	34 ff       	sbrs	r19, 4
    3afe:	81 e3       	ldi	r24, 0x31	; 49
    3b00:	b7 01       	movw	r22, r14
    3b02:	90 e0       	ldi	r25, 0x00	; 0
    3b04:	48 c0       	rjmp	.+144    	; 0x3b96 <vfprintf+0x3e4>
    3b06:	8a 81       	ldd	r24, Y+2	; 0x02
    3b08:	81 33       	cpi	r24, 0x31	; 49
    3b0a:	19 f0       	breq	.+6      	; 0x3b12 <vfprintf+0x360>
    3b0c:	9c 85       	ldd	r25, Y+12	; 0x0c
    3b0e:	9f 7e       	andi	r25, 0xEF	; 239
    3b10:	9c 87       	std	Y+12, r25	; 0x0c
    3b12:	b7 01       	movw	r22, r14
    3b14:	90 e0       	ldi	r25, 0x00	; 0
    3b16:	0e d4       	rcall	.+2076   	; 0x4334 <fputc>
    3b18:	11 11       	cpse	r17, r1
    3b1a:	05 c0       	rjmp	.+10     	; 0x3b26 <vfprintf+0x374>
    3b1c:	94 fc       	sbrc	r9, 4
    3b1e:	16 c0       	rjmp	.+44     	; 0x3b4c <vfprintf+0x39a>
    3b20:	85 e6       	ldi	r24, 0x65	; 101
    3b22:	90 e0       	ldi	r25, 0x00	; 0
    3b24:	15 c0       	rjmp	.+42     	; 0x3b50 <vfprintf+0x39e>
    3b26:	b7 01       	movw	r22, r14
    3b28:	8e e2       	ldi	r24, 0x2E	; 46
    3b2a:	90 e0       	ldi	r25, 0x00	; 0
    3b2c:	03 d4       	rcall	.+2054   	; 0x4334 <fputc>
    3b2e:	1e 5f       	subi	r17, 0xFE	; 254
    3b30:	82 e0       	ldi	r24, 0x02	; 2
    3b32:	01 e0       	ldi	r16, 0x01	; 1
    3b34:	08 0f       	add	r16, r24
    3b36:	f3 01       	movw	r30, r6
    3b38:	e8 0f       	add	r30, r24
    3b3a:	f1 1d       	adc	r31, r1
    3b3c:	80 81       	ld	r24, Z
    3b3e:	b7 01       	movw	r22, r14
    3b40:	90 e0       	ldi	r25, 0x00	; 0
    3b42:	f8 d3       	rcall	.+2032   	; 0x4334 <fputc>
    3b44:	80 2f       	mov	r24, r16
    3b46:	01 13       	cpse	r16, r17
    3b48:	f4 cf       	rjmp	.-24     	; 0x3b32 <vfprintf+0x380>
    3b4a:	e8 cf       	rjmp	.-48     	; 0x3b1c <vfprintf+0x36a>
    3b4c:	85 e4       	ldi	r24, 0x45	; 69
    3b4e:	90 e0       	ldi	r25, 0x00	; 0
    3b50:	b7 01       	movw	r22, r14
    3b52:	f0 d3       	rcall	.+2016   	; 0x4334 <fputc>
    3b54:	d7 fc       	sbrc	r13, 7
    3b56:	06 c0       	rjmp	.+12     	; 0x3b64 <vfprintf+0x3b2>
    3b58:	c1 14       	cp	r12, r1
    3b5a:	d1 04       	cpc	r13, r1
    3b5c:	41 f4       	brne	.+16     	; 0x3b6e <vfprintf+0x3bc>
    3b5e:	ec 85       	ldd	r30, Y+12	; 0x0c
    3b60:	e4 ff       	sbrs	r30, 4
    3b62:	05 c0       	rjmp	.+10     	; 0x3b6e <vfprintf+0x3bc>
    3b64:	d1 94       	neg	r13
    3b66:	c1 94       	neg	r12
    3b68:	d1 08       	sbc	r13, r1
    3b6a:	8d e2       	ldi	r24, 0x2D	; 45
    3b6c:	01 c0       	rjmp	.+2      	; 0x3b70 <vfprintf+0x3be>
    3b6e:	8b e2       	ldi	r24, 0x2B	; 43
    3b70:	b7 01       	movw	r22, r14
    3b72:	90 e0       	ldi	r25, 0x00	; 0
    3b74:	df d3       	rcall	.+1982   	; 0x4334 <fputc>
    3b76:	80 e3       	ldi	r24, 0x30	; 48
    3b78:	2a e0       	ldi	r18, 0x0A	; 10
    3b7a:	c2 16       	cp	r12, r18
    3b7c:	d1 04       	cpc	r13, r1
    3b7e:	2c f0       	brlt	.+10     	; 0x3b8a <vfprintf+0x3d8>
    3b80:	8f 5f       	subi	r24, 0xFF	; 255
    3b82:	fa e0       	ldi	r31, 0x0A	; 10
    3b84:	cf 1a       	sub	r12, r31
    3b86:	d1 08       	sbc	r13, r1
    3b88:	f7 cf       	rjmp	.-18     	; 0x3b78 <vfprintf+0x3c6>
    3b8a:	b7 01       	movw	r22, r14
    3b8c:	90 e0       	ldi	r25, 0x00	; 0
    3b8e:	d2 d3       	rcall	.+1956   	; 0x4334 <fputc>
    3b90:	b7 01       	movw	r22, r14
    3b92:	c6 01       	movw	r24, r12
    3b94:	c0 96       	adiw	r24, 0x30	; 48
    3b96:	ce d3       	rcall	.+1948   	; 0x4334 <fputc>
    3b98:	49 c1       	rjmp	.+658    	; 0x3e2c <vfprintf+0x67a>
    3b9a:	83 36       	cpi	r24, 0x63	; 99
    3b9c:	31 f0       	breq	.+12     	; 0x3baa <vfprintf+0x3f8>
    3b9e:	83 37       	cpi	r24, 0x73	; 115
    3ba0:	79 f0       	breq	.+30     	; 0x3bc0 <vfprintf+0x40e>
    3ba2:	83 35       	cpi	r24, 0x53	; 83
    3ba4:	09 f0       	breq	.+2      	; 0x3ba8 <vfprintf+0x3f6>
    3ba6:	52 c0       	rjmp	.+164    	; 0x3c4c <vfprintf+0x49a>
    3ba8:	1f c0       	rjmp	.+62     	; 0x3be8 <vfprintf+0x436>
    3baa:	56 01       	movw	r10, r12
    3bac:	32 e0       	ldi	r19, 0x02	; 2
    3bae:	a3 0e       	add	r10, r19
    3bb0:	b1 1c       	adc	r11, r1
    3bb2:	f6 01       	movw	r30, r12
    3bb4:	80 81       	ld	r24, Z
    3bb6:	89 83       	std	Y+1, r24	; 0x01
    3bb8:	01 e0       	ldi	r16, 0x01	; 1
    3bba:	10 e0       	ldi	r17, 0x00	; 0
    3bbc:	63 01       	movw	r12, r6
    3bbe:	11 c0       	rjmp	.+34     	; 0x3be2 <vfprintf+0x430>
    3bc0:	56 01       	movw	r10, r12
    3bc2:	f2 e0       	ldi	r31, 0x02	; 2
    3bc4:	af 0e       	add	r10, r31
    3bc6:	b1 1c       	adc	r11, r1
    3bc8:	f6 01       	movw	r30, r12
    3bca:	c0 80       	ld	r12, Z
    3bcc:	d1 80       	ldd	r13, Z+1	; 0x01
    3bce:	96 fe       	sbrs	r9, 6
    3bd0:	03 c0       	rjmp	.+6      	; 0x3bd8 <vfprintf+0x426>
    3bd2:	61 2f       	mov	r22, r17
    3bd4:	70 e0       	ldi	r23, 0x00	; 0
    3bd6:	02 c0       	rjmp	.+4      	; 0x3bdc <vfprintf+0x42a>
    3bd8:	6f ef       	ldi	r22, 0xFF	; 255
    3bda:	7f ef       	ldi	r23, 0xFF	; 255
    3bdc:	c6 01       	movw	r24, r12
    3bde:	55 d3       	rcall	.+1706   	; 0x428a <strnlen>
    3be0:	8c 01       	movw	r16, r24
    3be2:	f9 2d       	mov	r31, r9
    3be4:	ff 77       	andi	r31, 0x7F	; 127
    3be6:	13 c0       	rjmp	.+38     	; 0x3c0e <vfprintf+0x45c>
    3be8:	56 01       	movw	r10, r12
    3bea:	22 e0       	ldi	r18, 0x02	; 2
    3bec:	a2 0e       	add	r10, r18
    3bee:	b1 1c       	adc	r11, r1
    3bf0:	f6 01       	movw	r30, r12
    3bf2:	c0 80       	ld	r12, Z
    3bf4:	d1 80       	ldd	r13, Z+1	; 0x01
    3bf6:	96 fe       	sbrs	r9, 6
    3bf8:	03 c0       	rjmp	.+6      	; 0x3c00 <vfprintf+0x44e>
    3bfa:	61 2f       	mov	r22, r17
    3bfc:	70 e0       	ldi	r23, 0x00	; 0
    3bfe:	02 c0       	rjmp	.+4      	; 0x3c04 <vfprintf+0x452>
    3c00:	6f ef       	ldi	r22, 0xFF	; 255
    3c02:	7f ef       	ldi	r23, 0xFF	; 255
    3c04:	c6 01       	movw	r24, r12
    3c06:	36 d3       	rcall	.+1644   	; 0x4274 <strnlen_P>
    3c08:	8c 01       	movw	r16, r24
    3c0a:	f9 2d       	mov	r31, r9
    3c0c:	f0 68       	ori	r31, 0x80	; 128
    3c0e:	9f 2e       	mov	r9, r31
    3c10:	f3 fd       	sbrc	r31, 3
    3c12:	18 c0       	rjmp	.+48     	; 0x3c44 <vfprintf+0x492>
    3c14:	85 2d       	mov	r24, r5
    3c16:	90 e0       	ldi	r25, 0x00	; 0
    3c18:	08 17       	cp	r16, r24
    3c1a:	19 07       	cpc	r17, r25
    3c1c:	98 f4       	brcc	.+38     	; 0x3c44 <vfprintf+0x492>
    3c1e:	b7 01       	movw	r22, r14
    3c20:	80 e2       	ldi	r24, 0x20	; 32
    3c22:	90 e0       	ldi	r25, 0x00	; 0
    3c24:	87 d3       	rcall	.+1806   	; 0x4334 <fputc>
    3c26:	5a 94       	dec	r5
    3c28:	f5 cf       	rjmp	.-22     	; 0x3c14 <vfprintf+0x462>
    3c2a:	f6 01       	movw	r30, r12
    3c2c:	97 fc       	sbrc	r9, 7
    3c2e:	85 91       	lpm	r24, Z+
    3c30:	97 fe       	sbrs	r9, 7
    3c32:	81 91       	ld	r24, Z+
    3c34:	6f 01       	movw	r12, r30
    3c36:	b7 01       	movw	r22, r14
    3c38:	90 e0       	ldi	r25, 0x00	; 0
    3c3a:	7c d3       	rcall	.+1784   	; 0x4334 <fputc>
    3c3c:	51 10       	cpse	r5, r1
    3c3e:	5a 94       	dec	r5
    3c40:	01 50       	subi	r16, 0x01	; 1
    3c42:	11 09       	sbc	r17, r1
    3c44:	01 15       	cp	r16, r1
    3c46:	11 05       	cpc	r17, r1
    3c48:	81 f7       	brne	.-32     	; 0x3c2a <vfprintf+0x478>
    3c4a:	f0 c0       	rjmp	.+480    	; 0x3e2c <vfprintf+0x67a>
    3c4c:	84 36       	cpi	r24, 0x64	; 100
    3c4e:	11 f0       	breq	.+4      	; 0x3c54 <vfprintf+0x4a2>
    3c50:	89 36       	cpi	r24, 0x69	; 105
    3c52:	59 f5       	brne	.+86     	; 0x3caa <vfprintf+0x4f8>
    3c54:	56 01       	movw	r10, r12
    3c56:	97 fe       	sbrs	r9, 7
    3c58:	09 c0       	rjmp	.+18     	; 0x3c6c <vfprintf+0x4ba>
    3c5a:	24 e0       	ldi	r18, 0x04	; 4
    3c5c:	a2 0e       	add	r10, r18
    3c5e:	b1 1c       	adc	r11, r1
    3c60:	f6 01       	movw	r30, r12
    3c62:	60 81       	ld	r22, Z
    3c64:	71 81       	ldd	r23, Z+1	; 0x01
    3c66:	82 81       	ldd	r24, Z+2	; 0x02
    3c68:	93 81       	ldd	r25, Z+3	; 0x03
    3c6a:	0a c0       	rjmp	.+20     	; 0x3c80 <vfprintf+0x4ce>
    3c6c:	f2 e0       	ldi	r31, 0x02	; 2
    3c6e:	af 0e       	add	r10, r31
    3c70:	b1 1c       	adc	r11, r1
    3c72:	f6 01       	movw	r30, r12
    3c74:	60 81       	ld	r22, Z
    3c76:	71 81       	ldd	r23, Z+1	; 0x01
    3c78:	07 2e       	mov	r0, r23
    3c7a:	00 0c       	add	r0, r0
    3c7c:	88 0b       	sbc	r24, r24
    3c7e:	99 0b       	sbc	r25, r25
    3c80:	f9 2d       	mov	r31, r9
    3c82:	ff 76       	andi	r31, 0x6F	; 111
    3c84:	9f 2e       	mov	r9, r31
    3c86:	97 ff       	sbrs	r25, 7
    3c88:	09 c0       	rjmp	.+18     	; 0x3c9c <vfprintf+0x4ea>
    3c8a:	90 95       	com	r25
    3c8c:	80 95       	com	r24
    3c8e:	70 95       	com	r23
    3c90:	61 95       	neg	r22
    3c92:	7f 4f       	sbci	r23, 0xFF	; 255
    3c94:	8f 4f       	sbci	r24, 0xFF	; 255
    3c96:	9f 4f       	sbci	r25, 0xFF	; 255
    3c98:	f0 68       	ori	r31, 0x80	; 128
    3c9a:	9f 2e       	mov	r9, r31
    3c9c:	2a e0       	ldi	r18, 0x0A	; 10
    3c9e:	30 e0       	ldi	r19, 0x00	; 0
    3ca0:	a3 01       	movw	r20, r6
    3ca2:	fe d3       	rcall	.+2044   	; 0x44a0 <__ultoa_invert>
    3ca4:	c8 2e       	mov	r12, r24
    3ca6:	c6 18       	sub	r12, r6
    3ca8:	3e c0       	rjmp	.+124    	; 0x3d26 <vfprintf+0x574>
    3caa:	09 2d       	mov	r16, r9
    3cac:	85 37       	cpi	r24, 0x75	; 117
    3cae:	21 f4       	brne	.+8      	; 0x3cb8 <vfprintf+0x506>
    3cb0:	0f 7e       	andi	r16, 0xEF	; 239
    3cb2:	2a e0       	ldi	r18, 0x0A	; 10
    3cb4:	30 e0       	ldi	r19, 0x00	; 0
    3cb6:	1d c0       	rjmp	.+58     	; 0x3cf2 <vfprintf+0x540>
    3cb8:	09 7f       	andi	r16, 0xF9	; 249
    3cba:	8f 36       	cpi	r24, 0x6F	; 111
    3cbc:	91 f0       	breq	.+36     	; 0x3ce2 <vfprintf+0x530>
    3cbe:	18 f4       	brcc	.+6      	; 0x3cc6 <vfprintf+0x514>
    3cc0:	88 35       	cpi	r24, 0x58	; 88
    3cc2:	59 f0       	breq	.+22     	; 0x3cda <vfprintf+0x528>
    3cc4:	bc c0       	rjmp	.+376    	; 0x3e3e <vfprintf+0x68c>
    3cc6:	80 37       	cpi	r24, 0x70	; 112
    3cc8:	19 f0       	breq	.+6      	; 0x3cd0 <vfprintf+0x51e>
    3cca:	88 37       	cpi	r24, 0x78	; 120
    3ccc:	11 f0       	breq	.+4      	; 0x3cd2 <vfprintf+0x520>
    3cce:	b7 c0       	rjmp	.+366    	; 0x3e3e <vfprintf+0x68c>
    3cd0:	00 61       	ori	r16, 0x10	; 16
    3cd2:	04 ff       	sbrs	r16, 4
    3cd4:	09 c0       	rjmp	.+18     	; 0x3ce8 <vfprintf+0x536>
    3cd6:	04 60       	ori	r16, 0x04	; 4
    3cd8:	07 c0       	rjmp	.+14     	; 0x3ce8 <vfprintf+0x536>
    3cda:	94 fe       	sbrs	r9, 4
    3cdc:	08 c0       	rjmp	.+16     	; 0x3cee <vfprintf+0x53c>
    3cde:	06 60       	ori	r16, 0x06	; 6
    3ce0:	06 c0       	rjmp	.+12     	; 0x3cee <vfprintf+0x53c>
    3ce2:	28 e0       	ldi	r18, 0x08	; 8
    3ce4:	30 e0       	ldi	r19, 0x00	; 0
    3ce6:	05 c0       	rjmp	.+10     	; 0x3cf2 <vfprintf+0x540>
    3ce8:	20 e1       	ldi	r18, 0x10	; 16
    3cea:	30 e0       	ldi	r19, 0x00	; 0
    3cec:	02 c0       	rjmp	.+4      	; 0x3cf2 <vfprintf+0x540>
    3cee:	20 e1       	ldi	r18, 0x10	; 16
    3cf0:	32 e0       	ldi	r19, 0x02	; 2
    3cf2:	56 01       	movw	r10, r12
    3cf4:	07 ff       	sbrs	r16, 7
    3cf6:	09 c0       	rjmp	.+18     	; 0x3d0a <vfprintf+0x558>
    3cf8:	84 e0       	ldi	r24, 0x04	; 4
    3cfa:	a8 0e       	add	r10, r24
    3cfc:	b1 1c       	adc	r11, r1
    3cfe:	f6 01       	movw	r30, r12
    3d00:	60 81       	ld	r22, Z
    3d02:	71 81       	ldd	r23, Z+1	; 0x01
    3d04:	82 81       	ldd	r24, Z+2	; 0x02
    3d06:	93 81       	ldd	r25, Z+3	; 0x03
    3d08:	08 c0       	rjmp	.+16     	; 0x3d1a <vfprintf+0x568>
    3d0a:	f2 e0       	ldi	r31, 0x02	; 2
    3d0c:	af 0e       	add	r10, r31
    3d0e:	b1 1c       	adc	r11, r1
    3d10:	f6 01       	movw	r30, r12
    3d12:	60 81       	ld	r22, Z
    3d14:	71 81       	ldd	r23, Z+1	; 0x01
    3d16:	80 e0       	ldi	r24, 0x00	; 0
    3d18:	90 e0       	ldi	r25, 0x00	; 0
    3d1a:	a3 01       	movw	r20, r6
    3d1c:	c1 d3       	rcall	.+1922   	; 0x44a0 <__ultoa_invert>
    3d1e:	c8 2e       	mov	r12, r24
    3d20:	c6 18       	sub	r12, r6
    3d22:	0f 77       	andi	r16, 0x7F	; 127
    3d24:	90 2e       	mov	r9, r16
    3d26:	96 fe       	sbrs	r9, 6
    3d28:	0b c0       	rjmp	.+22     	; 0x3d40 <vfprintf+0x58e>
    3d2a:	09 2d       	mov	r16, r9
    3d2c:	0e 7f       	andi	r16, 0xFE	; 254
    3d2e:	c1 16       	cp	r12, r17
    3d30:	50 f4       	brcc	.+20     	; 0x3d46 <vfprintf+0x594>
    3d32:	94 fe       	sbrs	r9, 4
    3d34:	0a c0       	rjmp	.+20     	; 0x3d4a <vfprintf+0x598>
    3d36:	92 fc       	sbrc	r9, 2
    3d38:	08 c0       	rjmp	.+16     	; 0x3d4a <vfprintf+0x598>
    3d3a:	09 2d       	mov	r16, r9
    3d3c:	0e 7e       	andi	r16, 0xEE	; 238
    3d3e:	05 c0       	rjmp	.+10     	; 0x3d4a <vfprintf+0x598>
    3d40:	dc 2c       	mov	r13, r12
    3d42:	09 2d       	mov	r16, r9
    3d44:	03 c0       	rjmp	.+6      	; 0x3d4c <vfprintf+0x59a>
    3d46:	dc 2c       	mov	r13, r12
    3d48:	01 c0       	rjmp	.+2      	; 0x3d4c <vfprintf+0x59a>
    3d4a:	d1 2e       	mov	r13, r17
    3d4c:	04 ff       	sbrs	r16, 4
    3d4e:	0d c0       	rjmp	.+26     	; 0x3d6a <vfprintf+0x5b8>
    3d50:	fe 01       	movw	r30, r28
    3d52:	ec 0d       	add	r30, r12
    3d54:	f1 1d       	adc	r31, r1
    3d56:	80 81       	ld	r24, Z
    3d58:	80 33       	cpi	r24, 0x30	; 48
    3d5a:	11 f4       	brne	.+4      	; 0x3d60 <vfprintf+0x5ae>
    3d5c:	09 7e       	andi	r16, 0xE9	; 233
    3d5e:	09 c0       	rjmp	.+18     	; 0x3d72 <vfprintf+0x5c0>
    3d60:	02 ff       	sbrs	r16, 2
    3d62:	06 c0       	rjmp	.+12     	; 0x3d70 <vfprintf+0x5be>
    3d64:	d3 94       	inc	r13
    3d66:	d3 94       	inc	r13
    3d68:	04 c0       	rjmp	.+8      	; 0x3d72 <vfprintf+0x5c0>
    3d6a:	80 2f       	mov	r24, r16
    3d6c:	86 78       	andi	r24, 0x86	; 134
    3d6e:	09 f0       	breq	.+2      	; 0x3d72 <vfprintf+0x5c0>
    3d70:	d3 94       	inc	r13
    3d72:	03 fd       	sbrc	r16, 3
    3d74:	10 c0       	rjmp	.+32     	; 0x3d96 <vfprintf+0x5e4>
    3d76:	00 ff       	sbrs	r16, 0
    3d78:	06 c0       	rjmp	.+12     	; 0x3d86 <vfprintf+0x5d4>
    3d7a:	1c 2d       	mov	r17, r12
    3d7c:	d5 14       	cp	r13, r5
    3d7e:	78 f4       	brcc	.+30     	; 0x3d9e <vfprintf+0x5ec>
    3d80:	15 0d       	add	r17, r5
    3d82:	1d 19       	sub	r17, r13
    3d84:	0c c0       	rjmp	.+24     	; 0x3d9e <vfprintf+0x5ec>
    3d86:	d5 14       	cp	r13, r5
    3d88:	50 f4       	brcc	.+20     	; 0x3d9e <vfprintf+0x5ec>
    3d8a:	b7 01       	movw	r22, r14
    3d8c:	80 e2       	ldi	r24, 0x20	; 32
    3d8e:	90 e0       	ldi	r25, 0x00	; 0
    3d90:	d1 d2       	rcall	.+1442   	; 0x4334 <fputc>
    3d92:	d3 94       	inc	r13
    3d94:	f8 cf       	rjmp	.-16     	; 0x3d86 <vfprintf+0x5d4>
    3d96:	d5 14       	cp	r13, r5
    3d98:	10 f4       	brcc	.+4      	; 0x3d9e <vfprintf+0x5ec>
    3d9a:	5d 18       	sub	r5, r13
    3d9c:	01 c0       	rjmp	.+2      	; 0x3da0 <vfprintf+0x5ee>
    3d9e:	51 2c       	mov	r5, r1
    3da0:	04 ff       	sbrs	r16, 4
    3da2:	0f c0       	rjmp	.+30     	; 0x3dc2 <vfprintf+0x610>
    3da4:	b7 01       	movw	r22, r14
    3da6:	80 e3       	ldi	r24, 0x30	; 48
    3da8:	90 e0       	ldi	r25, 0x00	; 0
    3daa:	c4 d2       	rcall	.+1416   	; 0x4334 <fputc>
    3dac:	02 ff       	sbrs	r16, 2
    3dae:	16 c0       	rjmp	.+44     	; 0x3ddc <vfprintf+0x62a>
    3db0:	01 fd       	sbrc	r16, 1
    3db2:	03 c0       	rjmp	.+6      	; 0x3dba <vfprintf+0x608>
    3db4:	88 e7       	ldi	r24, 0x78	; 120
    3db6:	90 e0       	ldi	r25, 0x00	; 0
    3db8:	02 c0       	rjmp	.+4      	; 0x3dbe <vfprintf+0x60c>
    3dba:	88 e5       	ldi	r24, 0x58	; 88
    3dbc:	90 e0       	ldi	r25, 0x00	; 0
    3dbe:	b7 01       	movw	r22, r14
    3dc0:	0c c0       	rjmp	.+24     	; 0x3dda <vfprintf+0x628>
    3dc2:	80 2f       	mov	r24, r16
    3dc4:	86 78       	andi	r24, 0x86	; 134
    3dc6:	51 f0       	breq	.+20     	; 0x3ddc <vfprintf+0x62a>
    3dc8:	01 ff       	sbrs	r16, 1
    3dca:	02 c0       	rjmp	.+4      	; 0x3dd0 <vfprintf+0x61e>
    3dcc:	8b e2       	ldi	r24, 0x2B	; 43
    3dce:	01 c0       	rjmp	.+2      	; 0x3dd2 <vfprintf+0x620>
    3dd0:	80 e2       	ldi	r24, 0x20	; 32
    3dd2:	07 fd       	sbrc	r16, 7
    3dd4:	8d e2       	ldi	r24, 0x2D	; 45
    3dd6:	b7 01       	movw	r22, r14
    3dd8:	90 e0       	ldi	r25, 0x00	; 0
    3dda:	ac d2       	rcall	.+1368   	; 0x4334 <fputc>
    3ddc:	c1 16       	cp	r12, r17
    3dde:	30 f4       	brcc	.+12     	; 0x3dec <vfprintf+0x63a>
    3de0:	b7 01       	movw	r22, r14
    3de2:	80 e3       	ldi	r24, 0x30	; 48
    3de4:	90 e0       	ldi	r25, 0x00	; 0
    3de6:	a6 d2       	rcall	.+1356   	; 0x4334 <fputc>
    3de8:	11 50       	subi	r17, 0x01	; 1
    3dea:	f8 cf       	rjmp	.-16     	; 0x3ddc <vfprintf+0x62a>
    3dec:	ca 94       	dec	r12
    3dee:	f3 01       	movw	r30, r6
    3df0:	ec 0d       	add	r30, r12
    3df2:	f1 1d       	adc	r31, r1
    3df4:	80 81       	ld	r24, Z
    3df6:	b7 01       	movw	r22, r14
    3df8:	90 e0       	ldi	r25, 0x00	; 0
    3dfa:	9c d2       	rcall	.+1336   	; 0x4334 <fputc>
    3dfc:	c1 10       	cpse	r12, r1
    3dfe:	f6 cf       	rjmp	.-20     	; 0x3dec <vfprintf+0x63a>
    3e00:	15 c0       	rjmp	.+42     	; 0x3e2c <vfprintf+0x67a>
    3e02:	f4 e0       	ldi	r31, 0x04	; 4
    3e04:	f5 15       	cp	r31, r5
    3e06:	50 f5       	brcc	.+84     	; 0x3e5c <vfprintf+0x6aa>
    3e08:	84 e0       	ldi	r24, 0x04	; 4
    3e0a:	58 1a       	sub	r5, r24
    3e0c:	93 fe       	sbrs	r9, 3
    3e0e:	1e c0       	rjmp	.+60     	; 0x3e4c <vfprintf+0x69a>
    3e10:	01 11       	cpse	r16, r1
    3e12:	25 c0       	rjmp	.+74     	; 0x3e5e <vfprintf+0x6ac>
    3e14:	2c 85       	ldd	r18, Y+12	; 0x0c
    3e16:	23 ff       	sbrs	r18, 3
    3e18:	27 c0       	rjmp	.+78     	; 0x3e68 <vfprintf+0x6b6>
    3e1a:	0c ef       	ldi	r16, 0xFC	; 252
    3e1c:	12 e0       	ldi	r17, 0x02	; 2
    3e1e:	39 2d       	mov	r19, r9
    3e20:	30 71       	andi	r19, 0x10	; 16
    3e22:	93 2e       	mov	r9, r19
    3e24:	f8 01       	movw	r30, r16
    3e26:	84 91       	lpm	r24, Z
    3e28:	81 11       	cpse	r24, r1
    3e2a:	21 c0       	rjmp	.+66     	; 0x3e6e <vfprintf+0x6bc>
    3e2c:	55 20       	and	r5, r5
    3e2e:	09 f4       	brne	.+2      	; 0x3e32 <vfprintf+0x680>
    3e30:	fc cc       	rjmp	.-1544   	; 0x382a <vfprintf+0x78>
    3e32:	b7 01       	movw	r22, r14
    3e34:	80 e2       	ldi	r24, 0x20	; 32
    3e36:	90 e0       	ldi	r25, 0x00	; 0
    3e38:	7d d2       	rcall	.+1274   	; 0x4334 <fputc>
    3e3a:	5a 94       	dec	r5
    3e3c:	f7 cf       	rjmp	.-18     	; 0x3e2c <vfprintf+0x67a>
    3e3e:	f7 01       	movw	r30, r14
    3e40:	86 81       	ldd	r24, Z+6	; 0x06
    3e42:	97 81       	ldd	r25, Z+7	; 0x07
    3e44:	23 c0       	rjmp	.+70     	; 0x3e8c <vfprintf+0x6da>
    3e46:	8f ef       	ldi	r24, 0xFF	; 255
    3e48:	9f ef       	ldi	r25, 0xFF	; 255
    3e4a:	20 c0       	rjmp	.+64     	; 0x3e8c <vfprintf+0x6da>
    3e4c:	b7 01       	movw	r22, r14
    3e4e:	80 e2       	ldi	r24, 0x20	; 32
    3e50:	90 e0       	ldi	r25, 0x00	; 0
    3e52:	70 d2       	rcall	.+1248   	; 0x4334 <fputc>
    3e54:	5a 94       	dec	r5
    3e56:	51 10       	cpse	r5, r1
    3e58:	f9 cf       	rjmp	.-14     	; 0x3e4c <vfprintf+0x69a>
    3e5a:	da cf       	rjmp	.-76     	; 0x3e10 <vfprintf+0x65e>
    3e5c:	51 2c       	mov	r5, r1
    3e5e:	b7 01       	movw	r22, r14
    3e60:	80 2f       	mov	r24, r16
    3e62:	90 e0       	ldi	r25, 0x00	; 0
    3e64:	67 d2       	rcall	.+1230   	; 0x4334 <fputc>
    3e66:	d6 cf       	rjmp	.-84     	; 0x3e14 <vfprintf+0x662>
    3e68:	00 e0       	ldi	r16, 0x00	; 0
    3e6a:	13 e0       	ldi	r17, 0x03	; 3
    3e6c:	d8 cf       	rjmp	.-80     	; 0x3e1e <vfprintf+0x66c>
    3e6e:	91 10       	cpse	r9, r1
    3e70:	80 52       	subi	r24, 0x20	; 32
    3e72:	b7 01       	movw	r22, r14
    3e74:	90 e0       	ldi	r25, 0x00	; 0
    3e76:	5e d2       	rcall	.+1212   	; 0x4334 <fputc>
    3e78:	0f 5f       	subi	r16, 0xFF	; 255
    3e7a:	1f 4f       	sbci	r17, 0xFF	; 255
    3e7c:	d3 cf       	rjmp	.-90     	; 0x3e24 <vfprintf+0x672>
    3e7e:	23 e0       	ldi	r18, 0x03	; 3
    3e80:	25 15       	cp	r18, r5
    3e82:	10 f4       	brcc	.+4      	; 0x3e88 <vfprintf+0x6d6>
    3e84:	83 e0       	ldi	r24, 0x03	; 3
    3e86:	c1 cf       	rjmp	.-126    	; 0x3e0a <vfprintf+0x658>
    3e88:	51 2c       	mov	r5, r1
    3e8a:	c4 cf       	rjmp	.-120    	; 0x3e14 <vfprintf+0x662>
    3e8c:	60 96       	adiw	r28, 0x10	; 16
    3e8e:	cd bf       	out	0x3d, r28	; 61
    3e90:	de bf       	out	0x3e, r29	; 62
    3e92:	df 91       	pop	r29
    3e94:	cf 91       	pop	r28
    3e96:	1f 91       	pop	r17
    3e98:	0f 91       	pop	r16
    3e9a:	ff 90       	pop	r15
    3e9c:	ef 90       	pop	r14
    3e9e:	df 90       	pop	r13
    3ea0:	cf 90       	pop	r12
    3ea2:	bf 90       	pop	r11
    3ea4:	af 90       	pop	r10
    3ea6:	9f 90       	pop	r9
    3ea8:	8f 90       	pop	r8
    3eaa:	7f 90       	pop	r7
    3eac:	6f 90       	pop	r6
    3eae:	5f 90       	pop	r5
    3eb0:	4f 90       	pop	r4
    3eb2:	3f 90       	pop	r3
    3eb4:	2f 90       	pop	r2
    3eb6:	08 95       	ret

00003eb8 <__udivmodsi4>:
    3eb8:	a1 e2       	ldi	r26, 0x21	; 33
    3eba:	1a 2e       	mov	r1, r26
    3ebc:	aa 1b       	sub	r26, r26
    3ebe:	bb 1b       	sub	r27, r27
    3ec0:	fd 01       	movw	r30, r26
    3ec2:	0d c0       	rjmp	.+26     	; 0x3ede <__udivmodsi4_ep>

00003ec4 <__udivmodsi4_loop>:
    3ec4:	aa 1f       	adc	r26, r26
    3ec6:	bb 1f       	adc	r27, r27
    3ec8:	ee 1f       	adc	r30, r30
    3eca:	ff 1f       	adc	r31, r31
    3ecc:	a2 17       	cp	r26, r18
    3ece:	b3 07       	cpc	r27, r19
    3ed0:	e4 07       	cpc	r30, r20
    3ed2:	f5 07       	cpc	r31, r21
    3ed4:	20 f0       	brcs	.+8      	; 0x3ede <__udivmodsi4_ep>
    3ed6:	a2 1b       	sub	r26, r18
    3ed8:	b3 0b       	sbc	r27, r19
    3eda:	e4 0b       	sbc	r30, r20
    3edc:	f5 0b       	sbc	r31, r21

00003ede <__udivmodsi4_ep>:
    3ede:	66 1f       	adc	r22, r22
    3ee0:	77 1f       	adc	r23, r23
    3ee2:	88 1f       	adc	r24, r24
    3ee4:	99 1f       	adc	r25, r25
    3ee6:	1a 94       	dec	r1
    3ee8:	69 f7       	brne	.-38     	; 0x3ec4 <__udivmodsi4_loop>
    3eea:	60 95       	com	r22
    3eec:	70 95       	com	r23
    3eee:	80 95       	com	r24
    3ef0:	90 95       	com	r25
    3ef2:	9b 01       	movw	r18, r22
    3ef4:	ac 01       	movw	r20, r24
    3ef6:	bd 01       	movw	r22, r26
    3ef8:	cf 01       	movw	r24, r30
    3efa:	08 95       	ret

00003efc <__divmodsi4>:
    3efc:	05 2e       	mov	r0, r21
    3efe:	97 fb       	bst	r25, 7
    3f00:	16 f4       	brtc	.+4      	; 0x3f06 <__divmodsi4+0xa>
    3f02:	00 94       	com	r0
    3f04:	0f d0       	rcall	.+30     	; 0x3f24 <__negsi2>
    3f06:	57 fd       	sbrc	r21, 7
    3f08:	05 d0       	rcall	.+10     	; 0x3f14 <__divmodsi4_neg2>
    3f0a:	d6 df       	rcall	.-84     	; 0x3eb8 <__udivmodsi4>
    3f0c:	07 fc       	sbrc	r0, 7
    3f0e:	02 d0       	rcall	.+4      	; 0x3f14 <__divmodsi4_neg2>
    3f10:	46 f4       	brtc	.+16     	; 0x3f22 <__divmodsi4_exit>
    3f12:	08 c0       	rjmp	.+16     	; 0x3f24 <__negsi2>

00003f14 <__divmodsi4_neg2>:
    3f14:	50 95       	com	r21
    3f16:	40 95       	com	r20
    3f18:	30 95       	com	r19
    3f1a:	21 95       	neg	r18
    3f1c:	3f 4f       	sbci	r19, 0xFF	; 255
    3f1e:	4f 4f       	sbci	r20, 0xFF	; 255
    3f20:	5f 4f       	sbci	r21, 0xFF	; 255

00003f22 <__divmodsi4_exit>:
    3f22:	08 95       	ret

00003f24 <__negsi2>:
    3f24:	90 95       	com	r25
    3f26:	80 95       	com	r24
    3f28:	70 95       	com	r23
    3f2a:	61 95       	neg	r22
    3f2c:	7f 4f       	sbci	r23, 0xFF	; 255
    3f2e:	8f 4f       	sbci	r24, 0xFF	; 255
    3f30:	9f 4f       	sbci	r25, 0xFF	; 255
    3f32:	08 95       	ret

00003f34 <__tablejump2__>:
    3f34:	ee 0f       	add	r30, r30
    3f36:	ff 1f       	adc	r31, r31
    3f38:	88 1f       	adc	r24, r24
    3f3a:	8b bf       	out	0x3b, r24	; 59
    3f3c:	07 90       	elpm	r0, Z+
    3f3e:	f6 91       	elpm	r31, Z
    3f40:	e0 2d       	mov	r30, r0
    3f42:	1b be       	out	0x3b, r1	; 59
    3f44:	19 94       	eijmp

00003f46 <__muluhisi3>:
    3f46:	af d0       	rcall	.+350    	; 0x40a6 <__umulhisi3>
    3f48:	a5 9f       	mul	r26, r21
    3f4a:	90 0d       	add	r25, r0
    3f4c:	b4 9f       	mul	r27, r20
    3f4e:	90 0d       	add	r25, r0
    3f50:	a4 9f       	mul	r26, r20
    3f52:	80 0d       	add	r24, r0
    3f54:	91 1d       	adc	r25, r1
    3f56:	11 24       	eor	r1, r1
    3f58:	08 95       	ret

00003f5a <__muldi3>:
    3f5a:	df 93       	push	r29
    3f5c:	cf 93       	push	r28
    3f5e:	1f 93       	push	r17
    3f60:	0f 93       	push	r16
    3f62:	9a 9d       	mul	r25, r10
    3f64:	f0 2d       	mov	r31, r0
    3f66:	21 9f       	mul	r18, r17
    3f68:	f0 0d       	add	r31, r0
    3f6a:	8b 9d       	mul	r24, r11
    3f6c:	f0 0d       	add	r31, r0
    3f6e:	8a 9d       	mul	r24, r10
    3f70:	e0 2d       	mov	r30, r0
    3f72:	f1 0d       	add	r31, r1
    3f74:	03 9f       	mul	r16, r19
    3f76:	f0 0d       	add	r31, r0
    3f78:	02 9f       	mul	r16, r18
    3f7a:	e0 0d       	add	r30, r0
    3f7c:	f1 1d       	adc	r31, r1
    3f7e:	4e 9d       	mul	r20, r14
    3f80:	e0 0d       	add	r30, r0
    3f82:	f1 1d       	adc	r31, r1
    3f84:	5e 9d       	mul	r21, r14
    3f86:	f0 0d       	add	r31, r0
    3f88:	4f 9d       	mul	r20, r15
    3f8a:	f0 0d       	add	r31, r0
    3f8c:	7f 93       	push	r23
    3f8e:	6f 93       	push	r22
    3f90:	bf 92       	push	r11
    3f92:	af 92       	push	r10
    3f94:	5f 93       	push	r21
    3f96:	4f 93       	push	r20
    3f98:	d5 01       	movw	r26, r10
    3f9a:	85 d0       	rcall	.+266    	; 0x40a6 <__umulhisi3>
    3f9c:	8b 01       	movw	r16, r22
    3f9e:	ac 01       	movw	r20, r24
    3fa0:	d7 01       	movw	r26, r14
    3fa2:	81 d0       	rcall	.+258    	; 0x40a6 <__umulhisi3>
    3fa4:	eb 01       	movw	r28, r22
    3fa6:	e8 0f       	add	r30, r24
    3fa8:	f9 1f       	adc	r31, r25
    3faa:	d6 01       	movw	r26, r12
    3fac:	1f d0       	rcall	.+62     	; 0x3fec <__muldi3_6>
    3fae:	2f 91       	pop	r18
    3fb0:	3f 91       	pop	r19
    3fb2:	d6 01       	movw	r26, r12
    3fb4:	78 d0       	rcall	.+240    	; 0x40a6 <__umulhisi3>
    3fb6:	c6 0f       	add	r28, r22
    3fb8:	d7 1f       	adc	r29, r23
    3fba:	e8 1f       	adc	r30, r24
    3fbc:	f9 1f       	adc	r31, r25
    3fbe:	af 91       	pop	r26
    3fc0:	bf 91       	pop	r27
    3fc2:	14 d0       	rcall	.+40     	; 0x3fec <__muldi3_6>
    3fc4:	2f 91       	pop	r18
    3fc6:	3f 91       	pop	r19
    3fc8:	6e d0       	rcall	.+220    	; 0x40a6 <__umulhisi3>
    3fca:	c6 0f       	add	r28, r22
    3fcc:	d7 1f       	adc	r29, r23
    3fce:	e8 1f       	adc	r30, r24
    3fd0:	f9 1f       	adc	r31, r25
    3fd2:	d6 01       	movw	r26, r12
    3fd4:	68 d0       	rcall	.+208    	; 0x40a6 <__umulhisi3>
    3fd6:	e6 0f       	add	r30, r22
    3fd8:	f7 1f       	adc	r31, r23
    3fda:	98 01       	movw	r18, r16
    3fdc:	be 01       	movw	r22, r28
    3fde:	cf 01       	movw	r24, r30
    3fe0:	11 24       	eor	r1, r1
    3fe2:	0f 91       	pop	r16
    3fe4:	1f 91       	pop	r17
    3fe6:	cf 91       	pop	r28
    3fe8:	df 91       	pop	r29
    3fea:	08 95       	ret

00003fec <__muldi3_6>:
    3fec:	5c d0       	rcall	.+184    	; 0x40a6 <__umulhisi3>
    3fee:	46 0f       	add	r20, r22
    3ff0:	57 1f       	adc	r21, r23
    3ff2:	c8 1f       	adc	r28, r24
    3ff4:	d9 1f       	adc	r29, r25
    3ff6:	08 f4       	brcc	.+2      	; 0x3ffa <__muldi3_6+0xe>
    3ff8:	31 96       	adiw	r30, 0x01	; 1
    3ffa:	08 95       	ret

00003ffc <__ashldi3>:
    3ffc:	0f 93       	push	r16
    3ffe:	08 30       	cpi	r16, 0x08	; 8
    4000:	90 f0       	brcs	.+36     	; 0x4026 <__stack+0x27>
    4002:	98 2f       	mov	r25, r24
    4004:	87 2f       	mov	r24, r23
    4006:	76 2f       	mov	r23, r22
    4008:	65 2f       	mov	r22, r21
    400a:	54 2f       	mov	r21, r20
    400c:	43 2f       	mov	r20, r19
    400e:	32 2f       	mov	r19, r18
    4010:	22 27       	eor	r18, r18
    4012:	08 50       	subi	r16, 0x08	; 8
    4014:	f4 cf       	rjmp	.-24     	; 0x3ffe <__ashldi3+0x2>
    4016:	22 0f       	add	r18, r18
    4018:	33 1f       	adc	r19, r19
    401a:	44 1f       	adc	r20, r20
    401c:	55 1f       	adc	r21, r21
    401e:	66 1f       	adc	r22, r22
    4020:	77 1f       	adc	r23, r23
    4022:	88 1f       	adc	r24, r24
    4024:	99 1f       	adc	r25, r25
    4026:	0a 95       	dec	r16
    4028:	b2 f7       	brpl	.-20     	; 0x4016 <__stack+0x17>
    402a:	0f 91       	pop	r16
    402c:	08 95       	ret

0000402e <__ashrdi3>:
    402e:	97 fb       	bst	r25, 7
    4030:	10 f8       	bld	r1, 0

00004032 <__lshrdi3>:
    4032:	16 94       	lsr	r1
    4034:	00 08       	sbc	r0, r0
    4036:	0f 93       	push	r16
    4038:	08 30       	cpi	r16, 0x08	; 8
    403a:	98 f0       	brcs	.+38     	; 0x4062 <__lshrdi3+0x30>
    403c:	08 50       	subi	r16, 0x08	; 8
    403e:	23 2f       	mov	r18, r19
    4040:	34 2f       	mov	r19, r20
    4042:	45 2f       	mov	r20, r21
    4044:	56 2f       	mov	r21, r22
    4046:	67 2f       	mov	r22, r23
    4048:	78 2f       	mov	r23, r24
    404a:	89 2f       	mov	r24, r25
    404c:	90 2d       	mov	r25, r0
    404e:	f4 cf       	rjmp	.-24     	; 0x4038 <__lshrdi3+0x6>
    4050:	05 94       	asr	r0
    4052:	97 95       	ror	r25
    4054:	87 95       	ror	r24
    4056:	77 95       	ror	r23
    4058:	67 95       	ror	r22
    405a:	57 95       	ror	r21
    405c:	47 95       	ror	r20
    405e:	37 95       	ror	r19
    4060:	27 95       	ror	r18
    4062:	0a 95       	dec	r16
    4064:	aa f7       	brpl	.-22     	; 0x4050 <__lshrdi3+0x1e>
    4066:	0f 91       	pop	r16
    4068:	08 95       	ret

0000406a <__adddi3>:
    406a:	2a 0d       	add	r18, r10
    406c:	3b 1d       	adc	r19, r11
    406e:	4c 1d       	adc	r20, r12
    4070:	5d 1d       	adc	r21, r13
    4072:	6e 1d       	adc	r22, r14
    4074:	7f 1d       	adc	r23, r15
    4076:	80 1f       	adc	r24, r16
    4078:	91 1f       	adc	r25, r17
    407a:	08 95       	ret

0000407c <__subdi3>:
    407c:	2a 19       	sub	r18, r10
    407e:	3b 09       	sbc	r19, r11
    4080:	4c 09       	sbc	r20, r12
    4082:	5d 09       	sbc	r21, r13
    4084:	6e 09       	sbc	r22, r14
    4086:	7f 09       	sbc	r23, r15
    4088:	80 0b       	sbc	r24, r16
    408a:	91 0b       	sbc	r25, r17
    408c:	08 95       	ret

0000408e <__cmpdi2_s8>:
    408e:	00 24       	eor	r0, r0
    4090:	a7 fd       	sbrc	r26, 7
    4092:	00 94       	com	r0
    4094:	2a 17       	cp	r18, r26
    4096:	30 05       	cpc	r19, r0
    4098:	40 05       	cpc	r20, r0
    409a:	50 05       	cpc	r21, r0
    409c:	60 05       	cpc	r22, r0
    409e:	70 05       	cpc	r23, r0
    40a0:	80 05       	cpc	r24, r0
    40a2:	90 05       	cpc	r25, r0
    40a4:	08 95       	ret

000040a6 <__umulhisi3>:
    40a6:	a2 9f       	mul	r26, r18
    40a8:	b0 01       	movw	r22, r0
    40aa:	b3 9f       	mul	r27, r19
    40ac:	c0 01       	movw	r24, r0
    40ae:	a3 9f       	mul	r26, r19
    40b0:	70 0d       	add	r23, r0
    40b2:	81 1d       	adc	r24, r1
    40b4:	11 24       	eor	r1, r1
    40b6:	91 1d       	adc	r25, r1
    40b8:	b2 9f       	mul	r27, r18
    40ba:	70 0d       	add	r23, r0
    40bc:	81 1d       	adc	r24, r1
    40be:	11 24       	eor	r1, r1
    40c0:	91 1d       	adc	r25, r1
    40c2:	08 95       	ret

000040c4 <__ftoa_engine>:
    40c4:	28 30       	cpi	r18, 0x08	; 8
    40c6:	08 f0       	brcs	.+2      	; 0x40ca <__ftoa_engine+0x6>
    40c8:	27 e0       	ldi	r18, 0x07	; 7
    40ca:	33 27       	eor	r19, r19
    40cc:	da 01       	movw	r26, r20
    40ce:	99 0f       	add	r25, r25
    40d0:	31 1d       	adc	r19, r1
    40d2:	87 fd       	sbrc	r24, 7
    40d4:	91 60       	ori	r25, 0x01	; 1
    40d6:	00 96       	adiw	r24, 0x00	; 0
    40d8:	61 05       	cpc	r22, r1
    40da:	71 05       	cpc	r23, r1
    40dc:	39 f4       	brne	.+14     	; 0x40ec <__ftoa_engine+0x28>
    40de:	32 60       	ori	r19, 0x02	; 2
    40e0:	2e 5f       	subi	r18, 0xFE	; 254
    40e2:	3d 93       	st	X+, r19
    40e4:	30 e3       	ldi	r19, 0x30	; 48
    40e6:	2a 95       	dec	r18
    40e8:	e1 f7       	brne	.-8      	; 0x40e2 <__ftoa_engine+0x1e>
    40ea:	08 95       	ret
    40ec:	9f 3f       	cpi	r25, 0xFF	; 255
    40ee:	30 f0       	brcs	.+12     	; 0x40fc <__ftoa_engine+0x38>
    40f0:	80 38       	cpi	r24, 0x80	; 128
    40f2:	71 05       	cpc	r23, r1
    40f4:	61 05       	cpc	r22, r1
    40f6:	09 f0       	breq	.+2      	; 0x40fa <__ftoa_engine+0x36>
    40f8:	3c 5f       	subi	r19, 0xFC	; 252
    40fa:	3c 5f       	subi	r19, 0xFC	; 252
    40fc:	3d 93       	st	X+, r19
    40fe:	91 30       	cpi	r25, 0x01	; 1
    4100:	08 f0       	brcs	.+2      	; 0x4104 <__ftoa_engine+0x40>
    4102:	80 68       	ori	r24, 0x80	; 128
    4104:	91 1d       	adc	r25, r1
    4106:	df 93       	push	r29
    4108:	cf 93       	push	r28
    410a:	1f 93       	push	r17
    410c:	0f 93       	push	r16
    410e:	ff 92       	push	r15
    4110:	ef 92       	push	r14
    4112:	19 2f       	mov	r17, r25
    4114:	98 7f       	andi	r25, 0xF8	; 248
    4116:	96 95       	lsr	r25
    4118:	e9 2f       	mov	r30, r25
    411a:	96 95       	lsr	r25
    411c:	96 95       	lsr	r25
    411e:	e9 0f       	add	r30, r25
    4120:	ff 27       	eor	r31, r31
    4122:	e2 5a       	subi	r30, 0xA2	; 162
    4124:	fc 4f       	sbci	r31, 0xFC	; 252
    4126:	99 27       	eor	r25, r25
    4128:	33 27       	eor	r19, r19
    412a:	ee 24       	eor	r14, r14
    412c:	ff 24       	eor	r15, r15
    412e:	a7 01       	movw	r20, r14
    4130:	e7 01       	movw	r28, r14
    4132:	05 90       	lpm	r0, Z+
    4134:	08 94       	sec
    4136:	07 94       	ror	r0
    4138:	28 f4       	brcc	.+10     	; 0x4144 <__ftoa_engine+0x80>
    413a:	36 0f       	add	r19, r22
    413c:	e7 1e       	adc	r14, r23
    413e:	f8 1e       	adc	r15, r24
    4140:	49 1f       	adc	r20, r25
    4142:	51 1d       	adc	r21, r1
    4144:	66 0f       	add	r22, r22
    4146:	77 1f       	adc	r23, r23
    4148:	88 1f       	adc	r24, r24
    414a:	99 1f       	adc	r25, r25
    414c:	06 94       	lsr	r0
    414e:	a1 f7       	brne	.-24     	; 0x4138 <__ftoa_engine+0x74>
    4150:	05 90       	lpm	r0, Z+
    4152:	07 94       	ror	r0
    4154:	28 f4       	brcc	.+10     	; 0x4160 <__ftoa_engine+0x9c>
    4156:	e7 0e       	add	r14, r23
    4158:	f8 1e       	adc	r15, r24
    415a:	49 1f       	adc	r20, r25
    415c:	56 1f       	adc	r21, r22
    415e:	c1 1d       	adc	r28, r1
    4160:	77 0f       	add	r23, r23
    4162:	88 1f       	adc	r24, r24
    4164:	99 1f       	adc	r25, r25
    4166:	66 1f       	adc	r22, r22
    4168:	06 94       	lsr	r0
    416a:	a1 f7       	brne	.-24     	; 0x4154 <__ftoa_engine+0x90>
    416c:	05 90       	lpm	r0, Z+
    416e:	07 94       	ror	r0
    4170:	28 f4       	brcc	.+10     	; 0x417c <__ftoa_engine+0xb8>
    4172:	f8 0e       	add	r15, r24
    4174:	49 1f       	adc	r20, r25
    4176:	56 1f       	adc	r21, r22
    4178:	c7 1f       	adc	r28, r23
    417a:	d1 1d       	adc	r29, r1
    417c:	88 0f       	add	r24, r24
    417e:	99 1f       	adc	r25, r25
    4180:	66 1f       	adc	r22, r22
    4182:	77 1f       	adc	r23, r23
    4184:	06 94       	lsr	r0
    4186:	a1 f7       	brne	.-24     	; 0x4170 <__ftoa_engine+0xac>
    4188:	05 90       	lpm	r0, Z+
    418a:	07 94       	ror	r0
    418c:	20 f4       	brcc	.+8      	; 0x4196 <__ftoa_engine+0xd2>
    418e:	49 0f       	add	r20, r25
    4190:	56 1f       	adc	r21, r22
    4192:	c7 1f       	adc	r28, r23
    4194:	d8 1f       	adc	r29, r24
    4196:	99 0f       	add	r25, r25
    4198:	66 1f       	adc	r22, r22
    419a:	77 1f       	adc	r23, r23
    419c:	88 1f       	adc	r24, r24
    419e:	06 94       	lsr	r0
    41a0:	a9 f7       	brne	.-22     	; 0x418c <__ftoa_engine+0xc8>
    41a2:	84 91       	lpm	r24, Z
    41a4:	10 95       	com	r17
    41a6:	17 70       	andi	r17, 0x07	; 7
    41a8:	41 f0       	breq	.+16     	; 0x41ba <__ftoa_engine+0xf6>
    41aa:	d6 95       	lsr	r29
    41ac:	c7 95       	ror	r28
    41ae:	57 95       	ror	r21
    41b0:	47 95       	ror	r20
    41b2:	f7 94       	ror	r15
    41b4:	e7 94       	ror	r14
    41b6:	1a 95       	dec	r17
    41b8:	c1 f7       	brne	.-16     	; 0x41aa <__ftoa_engine+0xe6>
    41ba:	e4 e0       	ldi	r30, 0x04	; 4
    41bc:	f3 e0       	ldi	r31, 0x03	; 3
    41be:	68 94       	set
    41c0:	15 90       	lpm	r1, Z+
    41c2:	15 91       	lpm	r17, Z+
    41c4:	35 91       	lpm	r19, Z+
    41c6:	65 91       	lpm	r22, Z+
    41c8:	95 91       	lpm	r25, Z+
    41ca:	05 90       	lpm	r0, Z+
    41cc:	7f e2       	ldi	r23, 0x2F	; 47
    41ce:	73 95       	inc	r23
    41d0:	e1 18       	sub	r14, r1
    41d2:	f1 0a       	sbc	r15, r17
    41d4:	43 0b       	sbc	r20, r19
    41d6:	56 0b       	sbc	r21, r22
    41d8:	c9 0b       	sbc	r28, r25
    41da:	d0 09       	sbc	r29, r0
    41dc:	c0 f7       	brcc	.-16     	; 0x41ce <__ftoa_engine+0x10a>
    41de:	e1 0c       	add	r14, r1
    41e0:	f1 1e       	adc	r15, r17
    41e2:	43 1f       	adc	r20, r19
    41e4:	56 1f       	adc	r21, r22
    41e6:	c9 1f       	adc	r28, r25
    41e8:	d0 1d       	adc	r29, r0
    41ea:	7e f4       	brtc	.+30     	; 0x420a <__ftoa_engine+0x146>
    41ec:	70 33       	cpi	r23, 0x30	; 48
    41ee:	11 f4       	brne	.+4      	; 0x41f4 <__ftoa_engine+0x130>
    41f0:	8a 95       	dec	r24
    41f2:	e6 cf       	rjmp	.-52     	; 0x41c0 <__ftoa_engine+0xfc>
    41f4:	e8 94       	clt
    41f6:	01 50       	subi	r16, 0x01	; 1
    41f8:	30 f0       	brcs	.+12     	; 0x4206 <__ftoa_engine+0x142>
    41fa:	08 0f       	add	r16, r24
    41fc:	0a f4       	brpl	.+2      	; 0x4200 <__ftoa_engine+0x13c>
    41fe:	00 27       	eor	r16, r16
    4200:	02 17       	cp	r16, r18
    4202:	08 f4       	brcc	.+2      	; 0x4206 <__ftoa_engine+0x142>
    4204:	20 2f       	mov	r18, r16
    4206:	23 95       	inc	r18
    4208:	02 2f       	mov	r16, r18
    420a:	7a 33       	cpi	r23, 0x3A	; 58
    420c:	28 f0       	brcs	.+10     	; 0x4218 <__ftoa_engine+0x154>
    420e:	79 e3       	ldi	r23, 0x39	; 57
    4210:	7d 93       	st	X+, r23
    4212:	2a 95       	dec	r18
    4214:	e9 f7       	brne	.-6      	; 0x4210 <__ftoa_engine+0x14c>
    4216:	10 c0       	rjmp	.+32     	; 0x4238 <__ftoa_engine+0x174>
    4218:	7d 93       	st	X+, r23
    421a:	2a 95       	dec	r18
    421c:	89 f6       	brne	.-94     	; 0x41c0 <__ftoa_engine+0xfc>
    421e:	06 94       	lsr	r0
    4220:	97 95       	ror	r25
    4222:	67 95       	ror	r22
    4224:	37 95       	ror	r19
    4226:	17 95       	ror	r17
    4228:	17 94       	ror	r1
    422a:	e1 18       	sub	r14, r1
    422c:	f1 0a       	sbc	r15, r17
    422e:	43 0b       	sbc	r20, r19
    4230:	56 0b       	sbc	r21, r22
    4232:	c9 0b       	sbc	r28, r25
    4234:	d0 09       	sbc	r29, r0
    4236:	98 f0       	brcs	.+38     	; 0x425e <__ftoa_engine+0x19a>
    4238:	23 95       	inc	r18
    423a:	7e 91       	ld	r23, -X
    423c:	73 95       	inc	r23
    423e:	7a 33       	cpi	r23, 0x3A	; 58
    4240:	08 f0       	brcs	.+2      	; 0x4244 <__ftoa_engine+0x180>
    4242:	70 e3       	ldi	r23, 0x30	; 48
    4244:	7c 93       	st	X, r23
    4246:	20 13       	cpse	r18, r16
    4248:	b8 f7       	brcc	.-18     	; 0x4238 <__ftoa_engine+0x174>
    424a:	7e 91       	ld	r23, -X
    424c:	70 61       	ori	r23, 0x10	; 16
    424e:	7d 93       	st	X+, r23
    4250:	30 f0       	brcs	.+12     	; 0x425e <__ftoa_engine+0x19a>
    4252:	83 95       	inc	r24
    4254:	71 e3       	ldi	r23, 0x31	; 49
    4256:	7d 93       	st	X+, r23
    4258:	70 e3       	ldi	r23, 0x30	; 48
    425a:	2a 95       	dec	r18
    425c:	e1 f7       	brne	.-8      	; 0x4256 <__ftoa_engine+0x192>
    425e:	11 24       	eor	r1, r1
    4260:	ef 90       	pop	r14
    4262:	ff 90       	pop	r15
    4264:	0f 91       	pop	r16
    4266:	1f 91       	pop	r17
    4268:	cf 91       	pop	r28
    426a:	df 91       	pop	r29
    426c:	99 27       	eor	r25, r25
    426e:	87 fd       	sbrc	r24, 7
    4270:	90 95       	com	r25
    4272:	08 95       	ret

00004274 <strnlen_P>:
    4274:	fc 01       	movw	r30, r24
    4276:	05 90       	lpm	r0, Z+
    4278:	61 50       	subi	r22, 0x01	; 1
    427a:	70 40       	sbci	r23, 0x00	; 0
    427c:	01 10       	cpse	r0, r1
    427e:	d8 f7       	brcc	.-10     	; 0x4276 <strnlen_P+0x2>
    4280:	80 95       	com	r24
    4282:	90 95       	com	r25
    4284:	8e 0f       	add	r24, r30
    4286:	9f 1f       	adc	r25, r31
    4288:	08 95       	ret

0000428a <strnlen>:
    428a:	fc 01       	movw	r30, r24
    428c:	61 50       	subi	r22, 0x01	; 1
    428e:	70 40       	sbci	r23, 0x00	; 0
    4290:	01 90       	ld	r0, Z+
    4292:	01 10       	cpse	r0, r1
    4294:	d8 f7       	brcc	.-10     	; 0x428c <strnlen+0x2>
    4296:	80 95       	com	r24
    4298:	90 95       	com	r25
    429a:	8e 0f       	add	r24, r30
    429c:	9f 1f       	adc	r25, r31
    429e:	08 95       	ret

000042a0 <fdevopen>:
    42a0:	0f 93       	push	r16
    42a2:	1f 93       	push	r17
    42a4:	cf 93       	push	r28
    42a6:	df 93       	push	r29
    42a8:	00 97       	sbiw	r24, 0x00	; 0
    42aa:	31 f4       	brne	.+12     	; 0x42b8 <fdevopen+0x18>
    42ac:	61 15       	cp	r22, r1
    42ae:	71 05       	cpc	r23, r1
    42b0:	19 f4       	brne	.+6      	; 0x42b8 <fdevopen+0x18>
    42b2:	80 e0       	ldi	r24, 0x00	; 0
    42b4:	90 e0       	ldi	r25, 0x00	; 0
    42b6:	39 c0       	rjmp	.+114    	; 0x432a <fdevopen+0x8a>
    42b8:	8b 01       	movw	r16, r22
    42ba:	ec 01       	movw	r28, r24
    42bc:	6e e0       	ldi	r22, 0x0E	; 14
    42be:	70 e0       	ldi	r23, 0x00	; 0
    42c0:	81 e0       	ldi	r24, 0x01	; 1
    42c2:	90 e0       	ldi	r25, 0x00	; 0
    42c4:	4b d1       	rcall	.+662    	; 0x455c <calloc>
    42c6:	fc 01       	movw	r30, r24
    42c8:	89 2b       	or	r24, r25
    42ca:	99 f3       	breq	.-26     	; 0x42b2 <fdevopen+0x12>
    42cc:	80 e8       	ldi	r24, 0x80	; 128
    42ce:	83 83       	std	Z+3, r24	; 0x03
    42d0:	01 15       	cp	r16, r1
    42d2:	11 05       	cpc	r17, r1
    42d4:	71 f0       	breq	.+28     	; 0x42f2 <fdevopen+0x52>
    42d6:	02 87       	std	Z+10, r16	; 0x0a
    42d8:	13 87       	std	Z+11, r17	; 0x0b
    42da:	81 e8       	ldi	r24, 0x81	; 129
    42dc:	83 83       	std	Z+3, r24	; 0x03
    42de:	80 91 ba 20 	lds	r24, 0x20BA	; 0x8020ba <__iob>
    42e2:	90 91 bb 20 	lds	r25, 0x20BB	; 0x8020bb <__iob+0x1>
    42e6:	89 2b       	or	r24, r25
    42e8:	21 f4       	brne	.+8      	; 0x42f2 <fdevopen+0x52>
    42ea:	e0 93 ba 20 	sts	0x20BA, r30	; 0x8020ba <__iob>
    42ee:	f0 93 bb 20 	sts	0x20BB, r31	; 0x8020bb <__iob+0x1>
    42f2:	20 97       	sbiw	r28, 0x00	; 0
    42f4:	c9 f0       	breq	.+50     	; 0x4328 <fdevopen+0x88>
    42f6:	c0 87       	std	Z+8, r28	; 0x08
    42f8:	d1 87       	std	Z+9, r29	; 0x09
    42fa:	83 81       	ldd	r24, Z+3	; 0x03
    42fc:	82 60       	ori	r24, 0x02	; 2
    42fe:	83 83       	std	Z+3, r24	; 0x03
    4300:	80 91 bc 20 	lds	r24, 0x20BC	; 0x8020bc <__iob+0x2>
    4304:	90 91 bd 20 	lds	r25, 0x20BD	; 0x8020bd <__iob+0x3>
    4308:	89 2b       	or	r24, r25
    430a:	71 f4       	brne	.+28     	; 0x4328 <fdevopen+0x88>
    430c:	e0 93 bc 20 	sts	0x20BC, r30	; 0x8020bc <__iob+0x2>
    4310:	f0 93 bd 20 	sts	0x20BD, r31	; 0x8020bd <__iob+0x3>
    4314:	80 91 be 20 	lds	r24, 0x20BE	; 0x8020be <__iob+0x4>
    4318:	90 91 bf 20 	lds	r25, 0x20BF	; 0x8020bf <__iob+0x5>
    431c:	89 2b       	or	r24, r25
    431e:	21 f4       	brne	.+8      	; 0x4328 <fdevopen+0x88>
    4320:	e0 93 be 20 	sts	0x20BE, r30	; 0x8020be <__iob+0x4>
    4324:	f0 93 bf 20 	sts	0x20BF, r31	; 0x8020bf <__iob+0x5>
    4328:	cf 01       	movw	r24, r30
    432a:	df 91       	pop	r29
    432c:	cf 91       	pop	r28
    432e:	1f 91       	pop	r17
    4330:	0f 91       	pop	r16
    4332:	08 95       	ret

00004334 <fputc>:
    4334:	0f 93       	push	r16
    4336:	1f 93       	push	r17
    4338:	cf 93       	push	r28
    433a:	df 93       	push	r29
    433c:	fb 01       	movw	r30, r22
    433e:	23 81       	ldd	r18, Z+3	; 0x03
    4340:	21 fd       	sbrc	r18, 1
    4342:	03 c0       	rjmp	.+6      	; 0x434a <fputc+0x16>
    4344:	8f ef       	ldi	r24, 0xFF	; 255
    4346:	9f ef       	ldi	r25, 0xFF	; 255
    4348:	2c c0       	rjmp	.+88     	; 0x43a2 <fputc+0x6e>
    434a:	22 ff       	sbrs	r18, 2
    434c:	16 c0       	rjmp	.+44     	; 0x437a <fputc+0x46>
    434e:	46 81       	ldd	r20, Z+6	; 0x06
    4350:	57 81       	ldd	r21, Z+7	; 0x07
    4352:	24 81       	ldd	r18, Z+4	; 0x04
    4354:	35 81       	ldd	r19, Z+5	; 0x05
    4356:	42 17       	cp	r20, r18
    4358:	53 07       	cpc	r21, r19
    435a:	44 f4       	brge	.+16     	; 0x436c <fputc+0x38>
    435c:	a0 81       	ld	r26, Z
    435e:	b1 81       	ldd	r27, Z+1	; 0x01
    4360:	9d 01       	movw	r18, r26
    4362:	2f 5f       	subi	r18, 0xFF	; 255
    4364:	3f 4f       	sbci	r19, 0xFF	; 255
    4366:	20 83       	st	Z, r18
    4368:	31 83       	std	Z+1, r19	; 0x01
    436a:	8c 93       	st	X, r24
    436c:	26 81       	ldd	r18, Z+6	; 0x06
    436e:	37 81       	ldd	r19, Z+7	; 0x07
    4370:	2f 5f       	subi	r18, 0xFF	; 255
    4372:	3f 4f       	sbci	r19, 0xFF	; 255
    4374:	26 83       	std	Z+6, r18	; 0x06
    4376:	37 83       	std	Z+7, r19	; 0x07
    4378:	14 c0       	rjmp	.+40     	; 0x43a2 <fputc+0x6e>
    437a:	8b 01       	movw	r16, r22
    437c:	ec 01       	movw	r28, r24
    437e:	fb 01       	movw	r30, r22
    4380:	00 84       	ldd	r0, Z+8	; 0x08
    4382:	f1 85       	ldd	r31, Z+9	; 0x09
    4384:	e0 2d       	mov	r30, r0
    4386:	19 95       	eicall
    4388:	89 2b       	or	r24, r25
    438a:	e1 f6       	brne	.-72     	; 0x4344 <fputc+0x10>
    438c:	d8 01       	movw	r26, r16
    438e:	16 96       	adiw	r26, 0x06	; 6
    4390:	8d 91       	ld	r24, X+
    4392:	9c 91       	ld	r25, X
    4394:	17 97       	sbiw	r26, 0x07	; 7
    4396:	01 96       	adiw	r24, 0x01	; 1
    4398:	16 96       	adiw	r26, 0x06	; 6
    439a:	8d 93       	st	X+, r24
    439c:	9c 93       	st	X, r25
    439e:	17 97       	sbiw	r26, 0x07	; 7
    43a0:	ce 01       	movw	r24, r28
    43a2:	df 91       	pop	r29
    43a4:	cf 91       	pop	r28
    43a6:	1f 91       	pop	r17
    43a8:	0f 91       	pop	r16
    43aa:	08 95       	ret

000043ac <puts>:
    43ac:	0f 93       	push	r16
    43ae:	1f 93       	push	r17
    43b0:	cf 93       	push	r28
    43b2:	df 93       	push	r29
    43b4:	e0 91 bc 20 	lds	r30, 0x20BC	; 0x8020bc <__iob+0x2>
    43b8:	f0 91 bd 20 	lds	r31, 0x20BD	; 0x8020bd <__iob+0x3>
    43bc:	23 81       	ldd	r18, Z+3	; 0x03
    43be:	21 ff       	sbrs	r18, 1
    43c0:	1b c0       	rjmp	.+54     	; 0x43f8 <puts+0x4c>
    43c2:	8c 01       	movw	r16, r24
    43c4:	d0 e0       	ldi	r29, 0x00	; 0
    43c6:	c0 e0       	ldi	r28, 0x00	; 0
    43c8:	f8 01       	movw	r30, r16
    43ca:	81 91       	ld	r24, Z+
    43cc:	8f 01       	movw	r16, r30
    43ce:	60 91 bc 20 	lds	r22, 0x20BC	; 0x8020bc <__iob+0x2>
    43d2:	70 91 bd 20 	lds	r23, 0x20BD	; 0x8020bd <__iob+0x3>
    43d6:	db 01       	movw	r26, r22
    43d8:	18 96       	adiw	r26, 0x08	; 8
    43da:	ed 91       	ld	r30, X+
    43dc:	fc 91       	ld	r31, X
    43de:	19 97       	sbiw	r26, 0x09	; 9
    43e0:	88 23       	and	r24, r24
    43e2:	31 f0       	breq	.+12     	; 0x43f0 <puts+0x44>
    43e4:	19 95       	eicall
    43e6:	89 2b       	or	r24, r25
    43e8:	79 f3       	breq	.-34     	; 0x43c8 <puts+0x1c>
    43ea:	df ef       	ldi	r29, 0xFF	; 255
    43ec:	cf ef       	ldi	r28, 0xFF	; 255
    43ee:	ec cf       	rjmp	.-40     	; 0x43c8 <puts+0x1c>
    43f0:	8a e0       	ldi	r24, 0x0A	; 10
    43f2:	19 95       	eicall
    43f4:	89 2b       	or	r24, r25
    43f6:	19 f0       	breq	.+6      	; 0x43fe <puts+0x52>
    43f8:	8f ef       	ldi	r24, 0xFF	; 255
    43fa:	9f ef       	ldi	r25, 0xFF	; 255
    43fc:	02 c0       	rjmp	.+4      	; 0x4402 <puts+0x56>
    43fe:	8d 2f       	mov	r24, r29
    4400:	9c 2f       	mov	r25, r28
    4402:	df 91       	pop	r29
    4404:	cf 91       	pop	r28
    4406:	1f 91       	pop	r17
    4408:	0f 91       	pop	r16
    440a:	08 95       	ret

0000440c <sprintf>:
    440c:	0f 93       	push	r16
    440e:	1f 93       	push	r17
    4410:	cf 93       	push	r28
    4412:	df 93       	push	r29
    4414:	cd b7       	in	r28, 0x3d	; 61
    4416:	de b7       	in	r29, 0x3e	; 62
    4418:	2e 97       	sbiw	r28, 0x0e	; 14
    441a:	cd bf       	out	0x3d, r28	; 61
    441c:	de bf       	out	0x3e, r29	; 62
    441e:	0e 89       	ldd	r16, Y+22	; 0x16
    4420:	1f 89       	ldd	r17, Y+23	; 0x17
    4422:	86 e0       	ldi	r24, 0x06	; 6
    4424:	8c 83       	std	Y+4, r24	; 0x04
    4426:	09 83       	std	Y+1, r16	; 0x01
    4428:	1a 83       	std	Y+2, r17	; 0x02
    442a:	8f ef       	ldi	r24, 0xFF	; 255
    442c:	9f e7       	ldi	r25, 0x7F	; 127
    442e:	8d 83       	std	Y+5, r24	; 0x05
    4430:	9e 83       	std	Y+6, r25	; 0x06
    4432:	ae 01       	movw	r20, r28
    4434:	46 5e       	subi	r20, 0xE6	; 230
    4436:	5f 4f       	sbci	r21, 0xFF	; 255
    4438:	68 8d       	ldd	r22, Y+24	; 0x18
    443a:	79 8d       	ldd	r23, Y+25	; 0x19
    443c:	ce 01       	movw	r24, r28
    443e:	01 96       	adiw	r24, 0x01	; 1
    4440:	b8 d9       	rcall	.-3216   	; 0x37b2 <vfprintf>
    4442:	ef 81       	ldd	r30, Y+7	; 0x07
    4444:	f8 85       	ldd	r31, Y+8	; 0x08
    4446:	e0 0f       	add	r30, r16
    4448:	f1 1f       	adc	r31, r17
    444a:	10 82       	st	Z, r1
    444c:	2e 96       	adiw	r28, 0x0e	; 14
    444e:	cd bf       	out	0x3d, r28	; 61
    4450:	de bf       	out	0x3e, r29	; 62
    4452:	df 91       	pop	r29
    4454:	cf 91       	pop	r28
    4456:	1f 91       	pop	r17
    4458:	0f 91       	pop	r16
    445a:	08 95       	ret

0000445c <vsprintf>:
    445c:	0f 93       	push	r16
    445e:	1f 93       	push	r17
    4460:	cf 93       	push	r28
    4462:	df 93       	push	r29
    4464:	cd b7       	in	r28, 0x3d	; 61
    4466:	de b7       	in	r29, 0x3e	; 62
    4468:	2e 97       	sbiw	r28, 0x0e	; 14
    446a:	cd bf       	out	0x3d, r28	; 61
    446c:	de bf       	out	0x3e, r29	; 62
    446e:	8c 01       	movw	r16, r24
    4470:	86 e0       	ldi	r24, 0x06	; 6
    4472:	8c 83       	std	Y+4, r24	; 0x04
    4474:	09 83       	std	Y+1, r16	; 0x01
    4476:	1a 83       	std	Y+2, r17	; 0x02
    4478:	8f ef       	ldi	r24, 0xFF	; 255
    447a:	9f e7       	ldi	r25, 0x7F	; 127
    447c:	8d 83       	std	Y+5, r24	; 0x05
    447e:	9e 83       	std	Y+6, r25	; 0x06
    4480:	ce 01       	movw	r24, r28
    4482:	01 96       	adiw	r24, 0x01	; 1
    4484:	96 d9       	rcall	.-3284   	; 0x37b2 <vfprintf>
    4486:	ef 81       	ldd	r30, Y+7	; 0x07
    4488:	f8 85       	ldd	r31, Y+8	; 0x08
    448a:	e0 0f       	add	r30, r16
    448c:	f1 1f       	adc	r31, r17
    448e:	10 82       	st	Z, r1
    4490:	2e 96       	adiw	r28, 0x0e	; 14
    4492:	cd bf       	out	0x3d, r28	; 61
    4494:	de bf       	out	0x3e, r29	; 62
    4496:	df 91       	pop	r29
    4498:	cf 91       	pop	r28
    449a:	1f 91       	pop	r17
    449c:	0f 91       	pop	r16
    449e:	08 95       	ret

000044a0 <__ultoa_invert>:
    44a0:	fa 01       	movw	r30, r20
    44a2:	aa 27       	eor	r26, r26
    44a4:	28 30       	cpi	r18, 0x08	; 8
    44a6:	51 f1       	breq	.+84     	; 0x44fc <__ultoa_invert+0x5c>
    44a8:	20 31       	cpi	r18, 0x10	; 16
    44aa:	81 f1       	breq	.+96     	; 0x450c <__ultoa_invert+0x6c>
    44ac:	e8 94       	clt
    44ae:	6f 93       	push	r22
    44b0:	6e 7f       	andi	r22, 0xFE	; 254
    44b2:	6e 5f       	subi	r22, 0xFE	; 254
    44b4:	7f 4f       	sbci	r23, 0xFF	; 255
    44b6:	8f 4f       	sbci	r24, 0xFF	; 255
    44b8:	9f 4f       	sbci	r25, 0xFF	; 255
    44ba:	af 4f       	sbci	r26, 0xFF	; 255
    44bc:	b1 e0       	ldi	r27, 0x01	; 1
    44be:	3e d0       	rcall	.+124    	; 0x453c <__ultoa_invert+0x9c>
    44c0:	b4 e0       	ldi	r27, 0x04	; 4
    44c2:	3c d0       	rcall	.+120    	; 0x453c <__ultoa_invert+0x9c>
    44c4:	67 0f       	add	r22, r23
    44c6:	78 1f       	adc	r23, r24
    44c8:	89 1f       	adc	r24, r25
    44ca:	9a 1f       	adc	r25, r26
    44cc:	a1 1d       	adc	r26, r1
    44ce:	68 0f       	add	r22, r24
    44d0:	79 1f       	adc	r23, r25
    44d2:	8a 1f       	adc	r24, r26
    44d4:	91 1d       	adc	r25, r1
    44d6:	a1 1d       	adc	r26, r1
    44d8:	6a 0f       	add	r22, r26
    44da:	71 1d       	adc	r23, r1
    44dc:	81 1d       	adc	r24, r1
    44de:	91 1d       	adc	r25, r1
    44e0:	a1 1d       	adc	r26, r1
    44e2:	20 d0       	rcall	.+64     	; 0x4524 <__ultoa_invert+0x84>
    44e4:	09 f4       	brne	.+2      	; 0x44e8 <__ultoa_invert+0x48>
    44e6:	68 94       	set
    44e8:	3f 91       	pop	r19
    44ea:	2a e0       	ldi	r18, 0x0A	; 10
    44ec:	26 9f       	mul	r18, r22
    44ee:	11 24       	eor	r1, r1
    44f0:	30 19       	sub	r19, r0
    44f2:	30 5d       	subi	r19, 0xD0	; 208
    44f4:	31 93       	st	Z+, r19
    44f6:	de f6       	brtc	.-74     	; 0x44ae <__ultoa_invert+0xe>
    44f8:	cf 01       	movw	r24, r30
    44fa:	08 95       	ret
    44fc:	46 2f       	mov	r20, r22
    44fe:	47 70       	andi	r20, 0x07	; 7
    4500:	40 5d       	subi	r20, 0xD0	; 208
    4502:	41 93       	st	Z+, r20
    4504:	b3 e0       	ldi	r27, 0x03	; 3
    4506:	0f d0       	rcall	.+30     	; 0x4526 <__ultoa_invert+0x86>
    4508:	c9 f7       	brne	.-14     	; 0x44fc <__ultoa_invert+0x5c>
    450a:	f6 cf       	rjmp	.-20     	; 0x44f8 <__ultoa_invert+0x58>
    450c:	46 2f       	mov	r20, r22
    450e:	4f 70       	andi	r20, 0x0F	; 15
    4510:	40 5d       	subi	r20, 0xD0	; 208
    4512:	4a 33       	cpi	r20, 0x3A	; 58
    4514:	18 f0       	brcs	.+6      	; 0x451c <__ultoa_invert+0x7c>
    4516:	49 5d       	subi	r20, 0xD9	; 217
    4518:	31 fd       	sbrc	r19, 1
    451a:	40 52       	subi	r20, 0x20	; 32
    451c:	41 93       	st	Z+, r20
    451e:	02 d0       	rcall	.+4      	; 0x4524 <__ultoa_invert+0x84>
    4520:	a9 f7       	brne	.-22     	; 0x450c <__ultoa_invert+0x6c>
    4522:	ea cf       	rjmp	.-44     	; 0x44f8 <__ultoa_invert+0x58>
    4524:	b4 e0       	ldi	r27, 0x04	; 4
    4526:	a6 95       	lsr	r26
    4528:	97 95       	ror	r25
    452a:	87 95       	ror	r24
    452c:	77 95       	ror	r23
    452e:	67 95       	ror	r22
    4530:	ba 95       	dec	r27
    4532:	c9 f7       	brne	.-14     	; 0x4526 <__ultoa_invert+0x86>
    4534:	00 97       	sbiw	r24, 0x00	; 0
    4536:	61 05       	cpc	r22, r1
    4538:	71 05       	cpc	r23, r1
    453a:	08 95       	ret
    453c:	9b 01       	movw	r18, r22
    453e:	ac 01       	movw	r20, r24
    4540:	0a 2e       	mov	r0, r26
    4542:	06 94       	lsr	r0
    4544:	57 95       	ror	r21
    4546:	47 95       	ror	r20
    4548:	37 95       	ror	r19
    454a:	27 95       	ror	r18
    454c:	ba 95       	dec	r27
    454e:	c9 f7       	brne	.-14     	; 0x4542 <__ultoa_invert+0xa2>
    4550:	62 0f       	add	r22, r18
    4552:	73 1f       	adc	r23, r19
    4554:	84 1f       	adc	r24, r20
    4556:	95 1f       	adc	r25, r21
    4558:	a0 1d       	adc	r26, r0
    455a:	08 95       	ret

0000455c <calloc>:
    455c:	0f 93       	push	r16
    455e:	1f 93       	push	r17
    4560:	cf 93       	push	r28
    4562:	df 93       	push	r29
    4564:	86 9f       	mul	r24, r22
    4566:	80 01       	movw	r16, r0
    4568:	87 9f       	mul	r24, r23
    456a:	10 0d       	add	r17, r0
    456c:	96 9f       	mul	r25, r22
    456e:	10 0d       	add	r17, r0
    4570:	11 24       	eor	r1, r1
    4572:	c8 01       	movw	r24, r16
    4574:	0d d0       	rcall	.+26     	; 0x4590 <malloc>
    4576:	ec 01       	movw	r28, r24
    4578:	00 97       	sbiw	r24, 0x00	; 0
    457a:	21 f0       	breq	.+8      	; 0x4584 <calloc+0x28>
    457c:	a8 01       	movw	r20, r16
    457e:	60 e0       	ldi	r22, 0x00	; 0
    4580:	70 e0       	ldi	r23, 0x00	; 0
    4582:	27 d1       	rcall	.+590    	; 0x47d2 <memset>
    4584:	ce 01       	movw	r24, r28
    4586:	df 91       	pop	r29
    4588:	cf 91       	pop	r28
    458a:	1f 91       	pop	r17
    458c:	0f 91       	pop	r16
    458e:	08 95       	ret

00004590 <malloc>:
    4590:	0f 93       	push	r16
    4592:	1f 93       	push	r17
    4594:	cf 93       	push	r28
    4596:	df 93       	push	r29
    4598:	82 30       	cpi	r24, 0x02	; 2
    459a:	91 05       	cpc	r25, r1
    459c:	10 f4       	brcc	.+4      	; 0x45a2 <malloc+0x12>
    459e:	82 e0       	ldi	r24, 0x02	; 2
    45a0:	90 e0       	ldi	r25, 0x00	; 0
    45a2:	e0 91 c2 20 	lds	r30, 0x20C2	; 0x8020c2 <__flp>
    45a6:	f0 91 c3 20 	lds	r31, 0x20C3	; 0x8020c3 <__flp+0x1>
    45aa:	20 e0       	ldi	r18, 0x00	; 0
    45ac:	30 e0       	ldi	r19, 0x00	; 0
    45ae:	a0 e0       	ldi	r26, 0x00	; 0
    45b0:	b0 e0       	ldi	r27, 0x00	; 0
    45b2:	30 97       	sbiw	r30, 0x00	; 0
    45b4:	19 f1       	breq	.+70     	; 0x45fc <malloc+0x6c>
    45b6:	40 81       	ld	r20, Z
    45b8:	51 81       	ldd	r21, Z+1	; 0x01
    45ba:	02 81       	ldd	r16, Z+2	; 0x02
    45bc:	13 81       	ldd	r17, Z+3	; 0x03
    45be:	48 17       	cp	r20, r24
    45c0:	59 07       	cpc	r21, r25
    45c2:	c8 f0       	brcs	.+50     	; 0x45f6 <malloc+0x66>
    45c4:	84 17       	cp	r24, r20
    45c6:	95 07       	cpc	r25, r21
    45c8:	69 f4       	brne	.+26     	; 0x45e4 <malloc+0x54>
    45ca:	10 97       	sbiw	r26, 0x00	; 0
    45cc:	31 f0       	breq	.+12     	; 0x45da <malloc+0x4a>
    45ce:	12 96       	adiw	r26, 0x02	; 2
    45d0:	0c 93       	st	X, r16
    45d2:	12 97       	sbiw	r26, 0x02	; 2
    45d4:	13 96       	adiw	r26, 0x03	; 3
    45d6:	1c 93       	st	X, r17
    45d8:	27 c0       	rjmp	.+78     	; 0x4628 <malloc+0x98>
    45da:	00 93 c2 20 	sts	0x20C2, r16	; 0x8020c2 <__flp>
    45de:	10 93 c3 20 	sts	0x20C3, r17	; 0x8020c3 <__flp+0x1>
    45e2:	22 c0       	rjmp	.+68     	; 0x4628 <malloc+0x98>
    45e4:	21 15       	cp	r18, r1
    45e6:	31 05       	cpc	r19, r1
    45e8:	19 f0       	breq	.+6      	; 0x45f0 <malloc+0x60>
    45ea:	42 17       	cp	r20, r18
    45ec:	53 07       	cpc	r21, r19
    45ee:	18 f4       	brcc	.+6      	; 0x45f6 <malloc+0x66>
    45f0:	9a 01       	movw	r18, r20
    45f2:	bd 01       	movw	r22, r26
    45f4:	ef 01       	movw	r28, r30
    45f6:	df 01       	movw	r26, r30
    45f8:	f8 01       	movw	r30, r16
    45fa:	db cf       	rjmp	.-74     	; 0x45b2 <malloc+0x22>
    45fc:	21 15       	cp	r18, r1
    45fe:	31 05       	cpc	r19, r1
    4600:	f9 f0       	breq	.+62     	; 0x4640 <malloc+0xb0>
    4602:	28 1b       	sub	r18, r24
    4604:	39 0b       	sbc	r19, r25
    4606:	24 30       	cpi	r18, 0x04	; 4
    4608:	31 05       	cpc	r19, r1
    460a:	80 f4       	brcc	.+32     	; 0x462c <malloc+0x9c>
    460c:	8a 81       	ldd	r24, Y+2	; 0x02
    460e:	9b 81       	ldd	r25, Y+3	; 0x03
    4610:	61 15       	cp	r22, r1
    4612:	71 05       	cpc	r23, r1
    4614:	21 f0       	breq	.+8      	; 0x461e <malloc+0x8e>
    4616:	fb 01       	movw	r30, r22
    4618:	82 83       	std	Z+2, r24	; 0x02
    461a:	93 83       	std	Z+3, r25	; 0x03
    461c:	04 c0       	rjmp	.+8      	; 0x4626 <malloc+0x96>
    461e:	80 93 c2 20 	sts	0x20C2, r24	; 0x8020c2 <__flp>
    4622:	90 93 c3 20 	sts	0x20C3, r25	; 0x8020c3 <__flp+0x1>
    4626:	fe 01       	movw	r30, r28
    4628:	32 96       	adiw	r30, 0x02	; 2
    462a:	44 c0       	rjmp	.+136    	; 0x46b4 <malloc+0x124>
    462c:	fe 01       	movw	r30, r28
    462e:	e2 0f       	add	r30, r18
    4630:	f3 1f       	adc	r31, r19
    4632:	81 93       	st	Z+, r24
    4634:	91 93       	st	Z+, r25
    4636:	22 50       	subi	r18, 0x02	; 2
    4638:	31 09       	sbc	r19, r1
    463a:	28 83       	st	Y, r18
    463c:	39 83       	std	Y+1, r19	; 0x01
    463e:	3a c0       	rjmp	.+116    	; 0x46b4 <malloc+0x124>
    4640:	20 91 c0 20 	lds	r18, 0x20C0	; 0x8020c0 <__brkval>
    4644:	30 91 c1 20 	lds	r19, 0x20C1	; 0x8020c1 <__brkval+0x1>
    4648:	23 2b       	or	r18, r19
    464a:	41 f4       	brne	.+16     	; 0x465c <malloc+0xcc>
    464c:	20 91 02 20 	lds	r18, 0x2002	; 0x802002 <__malloc_heap_start>
    4650:	30 91 03 20 	lds	r19, 0x2003	; 0x802003 <__malloc_heap_start+0x1>
    4654:	20 93 c0 20 	sts	0x20C0, r18	; 0x8020c0 <__brkval>
    4658:	30 93 c1 20 	sts	0x20C1, r19	; 0x8020c1 <__brkval+0x1>
    465c:	20 91 00 20 	lds	r18, 0x2000	; 0x802000 <__data_start>
    4660:	30 91 01 20 	lds	r19, 0x2001	; 0x802001 <__data_start+0x1>
    4664:	21 15       	cp	r18, r1
    4666:	31 05       	cpc	r19, r1
    4668:	41 f4       	brne	.+16     	; 0x467a <malloc+0xea>
    466a:	2d b7       	in	r18, 0x3d	; 61
    466c:	3e b7       	in	r19, 0x3e	; 62
    466e:	40 91 04 20 	lds	r20, 0x2004	; 0x802004 <__malloc_margin>
    4672:	50 91 05 20 	lds	r21, 0x2005	; 0x802005 <__malloc_margin+0x1>
    4676:	24 1b       	sub	r18, r20
    4678:	35 0b       	sbc	r19, r21
    467a:	e0 91 c0 20 	lds	r30, 0x20C0	; 0x8020c0 <__brkval>
    467e:	f0 91 c1 20 	lds	r31, 0x20C1	; 0x8020c1 <__brkval+0x1>
    4682:	e2 17       	cp	r30, r18
    4684:	f3 07       	cpc	r31, r19
    4686:	a0 f4       	brcc	.+40     	; 0x46b0 <malloc+0x120>
    4688:	2e 1b       	sub	r18, r30
    468a:	3f 0b       	sbc	r19, r31
    468c:	28 17       	cp	r18, r24
    468e:	39 07       	cpc	r19, r25
    4690:	78 f0       	brcs	.+30     	; 0x46b0 <malloc+0x120>
    4692:	ac 01       	movw	r20, r24
    4694:	4e 5f       	subi	r20, 0xFE	; 254
    4696:	5f 4f       	sbci	r21, 0xFF	; 255
    4698:	24 17       	cp	r18, r20
    469a:	35 07       	cpc	r19, r21
    469c:	48 f0       	brcs	.+18     	; 0x46b0 <malloc+0x120>
    469e:	4e 0f       	add	r20, r30
    46a0:	5f 1f       	adc	r21, r31
    46a2:	40 93 c0 20 	sts	0x20C0, r20	; 0x8020c0 <__brkval>
    46a6:	50 93 c1 20 	sts	0x20C1, r21	; 0x8020c1 <__brkval+0x1>
    46aa:	81 93       	st	Z+, r24
    46ac:	91 93       	st	Z+, r25
    46ae:	02 c0       	rjmp	.+4      	; 0x46b4 <malloc+0x124>
    46b0:	e0 e0       	ldi	r30, 0x00	; 0
    46b2:	f0 e0       	ldi	r31, 0x00	; 0
    46b4:	cf 01       	movw	r24, r30
    46b6:	df 91       	pop	r29
    46b8:	cf 91       	pop	r28
    46ba:	1f 91       	pop	r17
    46bc:	0f 91       	pop	r16
    46be:	08 95       	ret

000046c0 <free>:
    46c0:	cf 93       	push	r28
    46c2:	df 93       	push	r29
    46c4:	00 97       	sbiw	r24, 0x00	; 0
    46c6:	09 f4       	brne	.+2      	; 0x46ca <free+0xa>
    46c8:	81 c0       	rjmp	.+258    	; 0x47cc <free+0x10c>
    46ca:	fc 01       	movw	r30, r24
    46cc:	32 97       	sbiw	r30, 0x02	; 2
    46ce:	12 82       	std	Z+2, r1	; 0x02
    46d0:	13 82       	std	Z+3, r1	; 0x03
    46d2:	a0 91 c2 20 	lds	r26, 0x20C2	; 0x8020c2 <__flp>
    46d6:	b0 91 c3 20 	lds	r27, 0x20C3	; 0x8020c3 <__flp+0x1>
    46da:	10 97       	sbiw	r26, 0x00	; 0
    46dc:	81 f4       	brne	.+32     	; 0x46fe <free+0x3e>
    46de:	20 81       	ld	r18, Z
    46e0:	31 81       	ldd	r19, Z+1	; 0x01
    46e2:	82 0f       	add	r24, r18
    46e4:	93 1f       	adc	r25, r19
    46e6:	20 91 c0 20 	lds	r18, 0x20C0	; 0x8020c0 <__brkval>
    46ea:	30 91 c1 20 	lds	r19, 0x20C1	; 0x8020c1 <__brkval+0x1>
    46ee:	28 17       	cp	r18, r24
    46f0:	39 07       	cpc	r19, r25
    46f2:	51 f5       	brne	.+84     	; 0x4748 <free+0x88>
    46f4:	e0 93 c0 20 	sts	0x20C0, r30	; 0x8020c0 <__brkval>
    46f8:	f0 93 c1 20 	sts	0x20C1, r31	; 0x8020c1 <__brkval+0x1>
    46fc:	67 c0       	rjmp	.+206    	; 0x47cc <free+0x10c>
    46fe:	ed 01       	movw	r28, r26
    4700:	20 e0       	ldi	r18, 0x00	; 0
    4702:	30 e0       	ldi	r19, 0x00	; 0
    4704:	ce 17       	cp	r28, r30
    4706:	df 07       	cpc	r29, r31
    4708:	40 f4       	brcc	.+16     	; 0x471a <free+0x5a>
    470a:	4a 81       	ldd	r20, Y+2	; 0x02
    470c:	5b 81       	ldd	r21, Y+3	; 0x03
    470e:	9e 01       	movw	r18, r28
    4710:	41 15       	cp	r20, r1
    4712:	51 05       	cpc	r21, r1
    4714:	f1 f0       	breq	.+60     	; 0x4752 <free+0x92>
    4716:	ea 01       	movw	r28, r20
    4718:	f5 cf       	rjmp	.-22     	; 0x4704 <free+0x44>
    471a:	c2 83       	std	Z+2, r28	; 0x02
    471c:	d3 83       	std	Z+3, r29	; 0x03
    471e:	40 81       	ld	r20, Z
    4720:	51 81       	ldd	r21, Z+1	; 0x01
    4722:	84 0f       	add	r24, r20
    4724:	95 1f       	adc	r25, r21
    4726:	c8 17       	cp	r28, r24
    4728:	d9 07       	cpc	r29, r25
    472a:	59 f4       	brne	.+22     	; 0x4742 <free+0x82>
    472c:	88 81       	ld	r24, Y
    472e:	99 81       	ldd	r25, Y+1	; 0x01
    4730:	84 0f       	add	r24, r20
    4732:	95 1f       	adc	r25, r21
    4734:	02 96       	adiw	r24, 0x02	; 2
    4736:	80 83       	st	Z, r24
    4738:	91 83       	std	Z+1, r25	; 0x01
    473a:	8a 81       	ldd	r24, Y+2	; 0x02
    473c:	9b 81       	ldd	r25, Y+3	; 0x03
    473e:	82 83       	std	Z+2, r24	; 0x02
    4740:	93 83       	std	Z+3, r25	; 0x03
    4742:	21 15       	cp	r18, r1
    4744:	31 05       	cpc	r19, r1
    4746:	29 f4       	brne	.+10     	; 0x4752 <free+0x92>
    4748:	e0 93 c2 20 	sts	0x20C2, r30	; 0x8020c2 <__flp>
    474c:	f0 93 c3 20 	sts	0x20C3, r31	; 0x8020c3 <__flp+0x1>
    4750:	3d c0       	rjmp	.+122    	; 0x47cc <free+0x10c>
    4752:	e9 01       	movw	r28, r18
    4754:	ea 83       	std	Y+2, r30	; 0x02
    4756:	fb 83       	std	Y+3, r31	; 0x03
    4758:	49 91       	ld	r20, Y+
    475a:	59 91       	ld	r21, Y+
    475c:	c4 0f       	add	r28, r20
    475e:	d5 1f       	adc	r29, r21
    4760:	ec 17       	cp	r30, r28
    4762:	fd 07       	cpc	r31, r29
    4764:	61 f4       	brne	.+24     	; 0x477e <free+0xbe>
    4766:	80 81       	ld	r24, Z
    4768:	91 81       	ldd	r25, Z+1	; 0x01
    476a:	84 0f       	add	r24, r20
    476c:	95 1f       	adc	r25, r21
    476e:	02 96       	adiw	r24, 0x02	; 2
    4770:	e9 01       	movw	r28, r18
    4772:	88 83       	st	Y, r24
    4774:	99 83       	std	Y+1, r25	; 0x01
    4776:	82 81       	ldd	r24, Z+2	; 0x02
    4778:	93 81       	ldd	r25, Z+3	; 0x03
    477a:	8a 83       	std	Y+2, r24	; 0x02
    477c:	9b 83       	std	Y+3, r25	; 0x03
    477e:	e0 e0       	ldi	r30, 0x00	; 0
    4780:	f0 e0       	ldi	r31, 0x00	; 0
    4782:	12 96       	adiw	r26, 0x02	; 2
    4784:	8d 91       	ld	r24, X+
    4786:	9c 91       	ld	r25, X
    4788:	13 97       	sbiw	r26, 0x03	; 3
    478a:	00 97       	sbiw	r24, 0x00	; 0
    478c:	19 f0       	breq	.+6      	; 0x4794 <free+0xd4>
    478e:	fd 01       	movw	r30, r26
    4790:	dc 01       	movw	r26, r24
    4792:	f7 cf       	rjmp	.-18     	; 0x4782 <free+0xc2>
    4794:	8d 91       	ld	r24, X+
    4796:	9c 91       	ld	r25, X
    4798:	11 97       	sbiw	r26, 0x01	; 1
    479a:	9d 01       	movw	r18, r26
    479c:	2e 5f       	subi	r18, 0xFE	; 254
    479e:	3f 4f       	sbci	r19, 0xFF	; 255
    47a0:	82 0f       	add	r24, r18
    47a2:	93 1f       	adc	r25, r19
    47a4:	20 91 c0 20 	lds	r18, 0x20C0	; 0x8020c0 <__brkval>
    47a8:	30 91 c1 20 	lds	r19, 0x20C1	; 0x8020c1 <__brkval+0x1>
    47ac:	28 17       	cp	r18, r24
    47ae:	39 07       	cpc	r19, r25
    47b0:	69 f4       	brne	.+26     	; 0x47cc <free+0x10c>
    47b2:	30 97       	sbiw	r30, 0x00	; 0
    47b4:	29 f4       	brne	.+10     	; 0x47c0 <free+0x100>
    47b6:	10 92 c2 20 	sts	0x20C2, r1	; 0x8020c2 <__flp>
    47ba:	10 92 c3 20 	sts	0x20C3, r1	; 0x8020c3 <__flp+0x1>
    47be:	02 c0       	rjmp	.+4      	; 0x47c4 <free+0x104>
    47c0:	12 82       	std	Z+2, r1	; 0x02
    47c2:	13 82       	std	Z+3, r1	; 0x03
    47c4:	a0 93 c0 20 	sts	0x20C0, r26	; 0x8020c0 <__brkval>
    47c8:	b0 93 c1 20 	sts	0x20C1, r27	; 0x8020c1 <__brkval+0x1>
    47cc:	df 91       	pop	r29
    47ce:	cf 91       	pop	r28
    47d0:	08 95       	ret

000047d2 <memset>:
    47d2:	dc 01       	movw	r26, r24
    47d4:	01 c0       	rjmp	.+2      	; 0x47d8 <memset+0x6>
    47d6:	6d 93       	st	X+, r22
    47d8:	41 50       	subi	r20, 0x01	; 1
    47da:	50 40       	sbci	r21, 0x00	; 0
    47dc:	e0 f7       	brcc	.-8      	; 0x47d6 <memset+0x4>
    47de:	08 95       	ret

000047e0 <_exit>:
    47e0:	f8 94       	cli

000047e2 <__stop_program>:
    47e2:	ff cf       	rjmp	.-2      	; 0x47e2 <__stop_program>
