
CanSat Probe Code.elf:     file format elf32-avr

Sections:
Idx Name          Size      VMA       LMA       File off  Algn
  0 .text         00004788  00000000  00000000  00000094  2**1
                  CONTENTS, ALLOC, LOAD, READONLY, CODE
  1 .data         00000126  00802000  00004788  0000481c  2**0
                  CONTENTS, ALLOC, LOAD, DATA
  2 .bss          00000080  00802126  00802126  00004942  2**0
                  ALLOC
  3 .comment      0000005c  00000000  00000000  00004942  2**0
                  CONTENTS, READONLY
  4 .note.gnu.avr.deviceinfo 00000040  00000000  00000000  000049a0  2**2
                  CONTENTS, READONLY
  5 .debug_aranges 00000598  00000000  00000000  000049e0  2**3
                  CONTENTS, READONLY, DEBUGGING
  6 .debug_info   00010e75  00000000  00000000  00004f78  2**0
                  CONTENTS, READONLY, DEBUGGING
  7 .debug_abbrev 00005e0d  00000000  00000000  00015ded  2**0
                  CONTENTS, READONLY, DEBUGGING
  8 .debug_line   00009115  00000000  00000000  0001bbfa  2**0
                  CONTENTS, READONLY, DEBUGGING
  9 .debug_frame  00001c38  00000000  00000000  00024d10  2**2
                  CONTENTS, READONLY, DEBUGGING
 10 .debug_str    00034c0f  00000000  00000000  00026948  2**0
                  CONTENTS, READONLY, DEBUGGING
 11 .debug_loc    00005fbe  00000000  00000000  0005b557  2**0
                  CONTENTS, READONLY, DEBUGGING
 12 .debug_ranges 00000500  00000000  00000000  00061518  2**3
                  CONTENTS, READONLY, DEBUGGING
 13 .debug_macro  0000c262  00000000  00000000  00061a18  2**0
                  CONTENTS, READONLY, DEBUGGING

Disassembly of section .text:

00000000 <__vectors>:
       0:	fe c1       	rjmp	.+1020   	; 0x3fe <__ctors_end>
       2:	00 00       	nop
       4:	22 c2       	rjmp	.+1092   	; 0x44a <__bad_interrupt>
       6:	00 00       	nop
       8:	20 c2       	rjmp	.+1088   	; 0x44a <__bad_interrupt>
       a:	00 00       	nop
       c:	1e c2       	rjmp	.+1084   	; 0x44a <__bad_interrupt>
       e:	00 00       	nop
      10:	1c c2       	rjmp	.+1080   	; 0x44a <__bad_interrupt>
      12:	00 00       	nop
      14:	1a c2       	rjmp	.+1076   	; 0x44a <__bad_interrupt>
      16:	00 00       	nop
      18:	18 c2       	rjmp	.+1072   	; 0x44a <__bad_interrupt>
      1a:	00 00       	nop
      1c:	16 c2       	rjmp	.+1068   	; 0x44a <__bad_interrupt>
      1e:	00 00       	nop
      20:	14 c2       	rjmp	.+1064   	; 0x44a <__bad_interrupt>
      22:	00 00       	nop
      24:	12 c2       	rjmp	.+1060   	; 0x44a <__bad_interrupt>
      26:	00 00       	nop
      28:	10 c2       	rjmp	.+1056   	; 0x44a <__bad_interrupt>
      2a:	00 00       	nop
      2c:	0e c2       	rjmp	.+1052   	; 0x44a <__bad_interrupt>
      2e:	00 00       	nop
      30:	0c c2       	rjmp	.+1048   	; 0x44a <__bad_interrupt>
      32:	00 00       	nop
      34:	a2 c2       	rjmp	.+1348   	; 0x57a <__vector_13>
      36:	00 00       	nop
      38:	ea c5       	rjmp	.+3028   	; 0xc0e <__vector_14>
      3a:	00 00       	nop
      3c:	20 c6       	rjmp	.+3136   	; 0xc7e <__vector_15>
      3e:	00 00       	nop
      40:	56 c6       	rjmp	.+3244   	; 0xcee <__vector_16>
      42:	00 00       	nop
      44:	8c c6       	rjmp	.+3352   	; 0xd5e <__vector_17>
      46:	00 00       	nop
      48:	c2 c6       	rjmp	.+3460   	; 0xdce <__vector_18>
      4a:	00 00       	nop
      4c:	f8 c6       	rjmp	.+3568   	; 0xe3e <__vector_19>
      4e:	00 00       	nop
      50:	2e c7       	rjmp	.+3676   	; 0xeae <__vector_20>
      52:	00 00       	nop
      54:	64 c7       	rjmp	.+3784   	; 0xf1e <__vector_21>
      56:	00 00       	nop
      58:	9a c7       	rjmp	.+3892   	; 0xf8e <__vector_22>
      5a:	00 00       	nop
      5c:	d0 c7       	rjmp	.+4000   	; 0xffe <__vector_23>
      5e:	00 00       	nop
      60:	f4 c1       	rjmp	.+1000   	; 0x44a <__bad_interrupt>
      62:	00 00       	nop
      64:	0c 94 9c 15 	jmp	0x2b38	; 0x2b38 <__vector_25>
      68:	f0 c1       	rjmp	.+992    	; 0x44a <__bad_interrupt>
      6a:	00 00       	nop
      6c:	ee c1       	rjmp	.+988    	; 0x44a <__bad_interrupt>
      6e:	00 00       	nop
      70:	ec c1       	rjmp	.+984    	; 0x44a <__bad_interrupt>
      72:	00 00       	nop
      74:	ea c1       	rjmp	.+980    	; 0x44a <__bad_interrupt>
      76:	00 00       	nop
      78:	e8 c1       	rjmp	.+976    	; 0x44a <__bad_interrupt>
      7a:	00 00       	nop
      7c:	e6 c1       	rjmp	.+972    	; 0x44a <__bad_interrupt>
      7e:	00 00       	nop
      80:	e4 c1       	rjmp	.+968    	; 0x44a <__bad_interrupt>
      82:	00 00       	nop
      84:	e2 c1       	rjmp	.+964    	; 0x44a <__bad_interrupt>
      86:	00 00       	nop
      88:	e0 c1       	rjmp	.+960    	; 0x44a <__bad_interrupt>
      8a:	00 00       	nop
      8c:	de c1       	rjmp	.+956    	; 0x44a <__bad_interrupt>
      8e:	00 00       	nop
      90:	dc c1       	rjmp	.+952    	; 0x44a <__bad_interrupt>
      92:	00 00       	nop
      94:	da c1       	rjmp	.+948    	; 0x44a <__bad_interrupt>
      96:	00 00       	nop
      98:	d8 c1       	rjmp	.+944    	; 0x44a <__bad_interrupt>
      9a:	00 00       	nop
      9c:	b4 c4       	rjmp	.+2408   	; 0xa06 <__vector_39>
      9e:	00 00       	nop
      a0:	ef c4       	rjmp	.+2526   	; 0xa80 <__vector_40>
      a2:	00 00       	nop
      a4:	2a c5       	rjmp	.+2644   	; 0xafa <__vector_41>
      a6:	00 00       	nop
      a8:	65 c5       	rjmp	.+2762   	; 0xb74 <__vector_42>
      aa:	00 00       	nop
      ac:	ce c1       	rjmp	.+924    	; 0x44a <__bad_interrupt>
      ae:	00 00       	nop
      b0:	cc c1       	rjmp	.+920    	; 0x44a <__bad_interrupt>
      b2:	00 00       	nop
      b4:	ca c1       	rjmp	.+916    	; 0x44a <__bad_interrupt>
      b6:	00 00       	nop
      b8:	c4 c2       	rjmp	.+1416   	; 0x642 <__vector_46>
      ba:	00 00       	nop
      bc:	0c 94 67 0a 	jmp	0x14ce	; 0x14ce <__vector_47>
      c0:	0c 94 9f 0a 	jmp	0x153e	; 0x153e <__vector_48>
      c4:	0c 94 d7 0a 	jmp	0x15ae	; 0x15ae <__vector_49>
      c8:	0c 94 0f 0b 	jmp	0x161e	; 0x161e <__vector_50>
      cc:	0c 94 47 0b 	jmp	0x168e	; 0x168e <__vector_51>
      d0:	0c 94 7f 0b 	jmp	0x16fe	; 0x16fe <__vector_52>
      d4:	0c 94 b7 0b 	jmp	0x176e	; 0x176e <__vector_53>
      d8:	0c 94 ef 0b 	jmp	0x17de	; 0x17de <__vector_54>
      dc:	0c 94 27 0c 	jmp	0x184e	; 0x184e <__vector_55>
      e0:	0c 94 5f 0c 	jmp	0x18be	; 0x18be <__vector_56>
      e4:	b2 c1       	rjmp	.+868    	; 0x44a <__bad_interrupt>
      e6:	00 00       	nop
      e8:	b0 c1       	rjmp	.+864    	; 0x44a <__bad_interrupt>
      ea:	00 00       	nop
      ec:	ae c1       	rjmp	.+860    	; 0x44a <__bad_interrupt>
      ee:	00 00       	nop
      f0:	ac c1       	rjmp	.+856    	; 0x44a <__bad_interrupt>
      f2:	00 00       	nop
      f4:	aa c1       	rjmp	.+852    	; 0x44a <__bad_interrupt>
      f6:	00 00       	nop
      f8:	a8 c1       	rjmp	.+848    	; 0x44a <__bad_interrupt>
      fa:	00 00       	nop
      fc:	a6 c1       	rjmp	.+844    	; 0x44a <__bad_interrupt>
      fe:	00 00       	nop
     100:	a4 c1       	rjmp	.+840    	; 0x44a <__bad_interrupt>
     102:	00 00       	nop
     104:	a2 c1       	rjmp	.+836    	; 0x44a <__bad_interrupt>
     106:	00 00       	nop
     108:	a0 c1       	rjmp	.+832    	; 0x44a <__bad_interrupt>
     10a:	00 00       	nop
     10c:	9e c1       	rjmp	.+828    	; 0x44a <__bad_interrupt>
     10e:	00 00       	nop
     110:	9c c1       	rjmp	.+824    	; 0x44a <__bad_interrupt>
     112:	00 00       	nop
     114:	9a c1       	rjmp	.+820    	; 0x44a <__bad_interrupt>
     116:	00 00       	nop
     118:	98 c1       	rjmp	.+816    	; 0x44a <__bad_interrupt>
     11a:	00 00       	nop
     11c:	80 c3       	rjmp	.+1792   	; 0x81e <__vector_71>
     11e:	00 00       	nop
     120:	bb c3       	rjmp	.+1910   	; 0x898 <__vector_72>
     122:	00 00       	nop
     124:	f6 c3       	rjmp	.+2028   	; 0x912 <__vector_73>
     126:	00 00       	nop
     128:	31 c4       	rjmp	.+2146   	; 0x98c <__vector_74>
     12a:	00 00       	nop
     12c:	8e c1       	rjmp	.+796    	; 0x44a <__bad_interrupt>
     12e:	00 00       	nop
     130:	56 c2       	rjmp	.+1196   	; 0x5de <__vector_76>
     132:	00 00       	nop
     134:	9c c7       	rjmp	.+3896   	; 0x106e <__vector_77>
     136:	00 00       	nop
     138:	d2 c7       	rjmp	.+4004   	; 0x10de <__vector_78>
     13a:	00 00       	nop
     13c:	0c 94 a7 08 	jmp	0x114e	; 0x114e <__vector_79>
     140:	0c 94 df 08 	jmp	0x11be	; 0x11be <__vector_80>
     144:	0c 94 17 09 	jmp	0x122e	; 0x122e <__vector_81>
     148:	0c 94 4f 09 	jmp	0x129e	; 0x129e <__vector_82>
     14c:	0c 94 87 09 	jmp	0x130e	; 0x130e <__vector_83>
     150:	0c 94 bf 09 	jmp	0x137e	; 0x137e <__vector_84>
     154:	0c 94 f7 09 	jmp	0x13ee	; 0x13ee <__vector_85>
     158:	0c 94 2f 0a 	jmp	0x145e	; 0x145e <__vector_86>
     15c:	76 c1       	rjmp	.+748    	; 0x44a <__bad_interrupt>
     15e:	00 00       	nop
     160:	74 c1       	rjmp	.+744    	; 0x44a <__bad_interrupt>
     162:	00 00       	nop
     164:	72 c1       	rjmp	.+740    	; 0x44a <__bad_interrupt>
     166:	00 00       	nop
     168:	70 c1       	rjmp	.+736    	; 0x44a <__bad_interrupt>
     16a:	00 00       	nop
     16c:	6e c1       	rjmp	.+732    	; 0x44a <__bad_interrupt>
     16e:	00 00       	nop
     170:	6c c1       	rjmp	.+728    	; 0x44a <__bad_interrupt>
     172:	00 00       	nop
     174:	6a c1       	rjmp	.+724    	; 0x44a <__bad_interrupt>
     176:	00 00       	nop
     178:	68 c1       	rjmp	.+720    	; 0x44a <__bad_interrupt>
     17a:	00 00       	nop
     17c:	66 c1       	rjmp	.+716    	; 0x44a <__bad_interrupt>
     17e:	00 00       	nop
     180:	64 c1       	rjmp	.+712    	; 0x44a <__bad_interrupt>
     182:	00 00       	nop
     184:	62 c1       	rjmp	.+708    	; 0x44a <__bad_interrupt>
     186:	00 00       	nop
     188:	60 c1       	rjmp	.+704    	; 0x44a <__bad_interrupt>
     18a:	00 00       	nop
     18c:	5e c1       	rjmp	.+700    	; 0x44a <__bad_interrupt>
     18e:	00 00       	nop
     190:	5c c1       	rjmp	.+696    	; 0x44a <__bad_interrupt>
     192:	00 00       	nop
     194:	5a c1       	rjmp	.+692    	; 0x44a <__bad_interrupt>
     196:	00 00       	nop
     198:	58 c1       	rjmp	.+688    	; 0x44a <__bad_interrupt>
     19a:	00 00       	nop
     19c:	56 c1       	rjmp	.+684    	; 0x44a <__bad_interrupt>
     19e:	00 00       	nop
     1a0:	54 c1       	rjmp	.+680    	; 0x44a <__bad_interrupt>
     1a2:	00 00       	nop
     1a4:	52 c1       	rjmp	.+676    	; 0x44a <__bad_interrupt>
     1a6:	00 00       	nop
     1a8:	50 c1       	rjmp	.+672    	; 0x44a <__bad_interrupt>
     1aa:	00 00       	nop
     1ac:	7c c2       	rjmp	.+1272   	; 0x6a6 <__vector_107>
     1ae:	00 00       	nop
     1b0:	0c 94 97 0c 	jmp	0x192e	; 0x192e <__vector_108>
     1b4:	0c 94 cf 0c 	jmp	0x199e	; 0x199e <__vector_109>
     1b8:	0c 94 07 0d 	jmp	0x1a0e	; 0x1a0e <__vector_110>
     1bc:	0c 94 3f 0d 	jmp	0x1a7e	; 0x1a7e <__vector_111>
     1c0:	0c 94 77 0d 	jmp	0x1aee	; 0x1aee <__vector_112>
     1c4:	0c 94 af 0d 	jmp	0x1b5e	; 0x1b5e <__vector_113>
     1c8:	0c 94 e7 0d 	jmp	0x1bce	; 0x1bce <__vector_114>
     1cc:	0c 94 1f 0e 	jmp	0x1c3e	; 0x1c3e <__vector_115>
     1d0:	0c 94 57 0e 	jmp	0x1cae	; 0x1cae <__vector_116>
     1d4:	0c 94 8f 0e 	jmp	0x1d1e	; 0x1d1e <__vector_117>
     1d8:	38 c1       	rjmp	.+624    	; 0x44a <__bad_interrupt>
     1da:	00 00       	nop
     1dc:	36 c1       	rjmp	.+620    	; 0x44a <__bad_interrupt>
     1de:	00 00       	nop
     1e0:	34 c1       	rjmp	.+616    	; 0x44a <__bad_interrupt>
     1e2:	00 00       	nop
     1e4:	32 c1       	rjmp	.+612    	; 0x44a <__bad_interrupt>
     1e6:	00 00       	nop
     1e8:	30 c1       	rjmp	.+608    	; 0x44a <__bad_interrupt>
     1ea:	00 00       	nop
     1ec:	2e c1       	rjmp	.+604    	; 0x44a <__bad_interrupt>
     1ee:	00 00       	nop
     1f0:	2c c1       	rjmp	.+600    	; 0x44a <__bad_interrupt>
     1f2:	00 00       	nop
     1f4:	2a c1       	rjmp	.+596    	; 0x44a <__bad_interrupt>
     1f6:	00 00       	nop
     1f8:	28 c1       	rjmp	.+592    	; 0x44a <__bad_interrupt>
     1fa:	00 00       	nop
     1fc:	cd 15       	cp	r28, r13
     1fe:	db 15       	cp	r29, r11
     200:	db 15       	cp	r29, r11
     202:	db 15       	cp	r29, r11
     204:	db 15       	cp	r29, r11
     206:	d2 15       	cp	r29, r2
     208:	db 15       	cp	r29, r11
     20a:	d6 15       	cp	r29, r6
     20c:	d8 15       	cp	r29, r8
     20e:	d4 15       	cp	r29, r4
     210:	db 15       	cp	r29, r11
     212:	db 15       	cp	r29, r11
     214:	db 15       	cp	r29, r11
     216:	db 15       	cp	r29, r11
     218:	db 15       	cp	r29, r11
     21a:	db 15       	cp	r29, r11
     21c:	db 15       	cp	r29, r11
     21e:	db 15       	cp	r29, r11
     220:	db 15       	cp	r29, r11
     222:	db 15       	cp	r29, r11
     224:	db 15       	cp	r29, r11
     226:	db 15       	cp	r29, r11
     228:	db 15       	cp	r29, r11
     22a:	db 15       	cp	r29, r11
     22c:	db 15       	cp	r29, r11
     22e:	db 15       	cp	r29, r11
     230:	db 15       	cp	r29, r11
     232:	db 15       	cp	r29, r11
     234:	db 15       	cp	r29, r11
     236:	db 15       	cp	r29, r11
     238:	db 15       	cp	r29, r11
     23a:	db 15       	cp	r29, r11
     23c:	db 15       	cp	r29, r11
     23e:	db 15       	cp	r29, r11
     240:	db 15       	cp	r29, r11
     242:	db 15       	cp	r29, r11
     244:	db 15       	cp	r29, r11
     246:	db 15       	cp	r29, r11
     248:	db 15       	cp	r29, r11
     24a:	db 15       	cp	r29, r11
     24c:	db 15       	cp	r29, r11
     24e:	db 15       	cp	r29, r11
     250:	db 15       	cp	r29, r11
     252:	db 15       	cp	r29, r11
     254:	db 15       	cp	r29, r11
     256:	db 15       	cp	r29, r11
     258:	db 15       	cp	r29, r11
     25a:	db 15       	cp	r29, r11
     25c:	db 15       	cp	r29, r11
     25e:	db 15       	cp	r29, r11
     260:	db 15       	cp	r29, r11
     262:	db 15       	cp	r29, r11
     264:	db 15       	cp	r29, r11
     266:	db 15       	cp	r29, r11
     268:	db 15       	cp	r29, r11
     26a:	db 15       	cp	r29, r11
     26c:	db 15       	cp	r29, r11
     26e:	db 15       	cp	r29, r11
     270:	db 15       	cp	r29, r11
     272:	db 15       	cp	r29, r11
     274:	db 15       	cp	r29, r11
     276:	d0 15       	cp	r29, r0
     278:	da 15       	cp	r29, r10
     27a:	08 00       	.word	0x0008	; ????
     27c:	00 00       	nop
     27e:	be 92       	st	-X, r11
     280:	24 49       	sbci	r18, 0x94	; 148
     282:	12 3e       	cpi	r17, 0xE2	; 226
     284:	ab aa       	std	Y+51, r10	; 0x33
     286:	aa 2a       	or	r10, r26
     288:	be cd       	rjmp	.-1156   	; 0xfffffe06 <__eeprom_end+0xff7efe06>
     28a:	cc cc       	rjmp	.-1640   	; 0xfffffc24 <__eeprom_end+0xff7efc24>
     28c:	4c 3e       	cpi	r20, 0xEC	; 236
     28e:	00 00       	nop
     290:	00 80       	ld	r0, Z
     292:	be ab       	std	Y+54, r27	; 0x36
     294:	aa aa       	std	Y+50, r10	; 0x32
     296:	aa 3e       	cpi	r26, 0xEA	; 234
     298:	00 00       	nop
     29a:	00 00       	nop
     29c:	bf 00       	.word	0x00bf	; ????
     29e:	00 00       	nop
     2a0:	80 3f       	cpi	r24, 0xF0	; 240
     2a2:	00 00       	nop
     2a4:	00 00       	nop
     2a6:	00 08       	sbc	r0, r0
     2a8:	41 78       	andi	r20, 0x81	; 129
     2aa:	d3 bb       	out	0x13, r29	; 19
     2ac:	43 87       	std	Z+11, r20	; 0x0b
     2ae:	d1 13       	cpse	r29, r17
     2b0:	3d 19       	sub	r19, r13
     2b2:	0e 3c       	cpi	r16, 0xCE	; 206
     2b4:	c3 bd       	out	0x23, r28	; 35
     2b6:	42 82       	std	Z+2, r4	; 0x02
     2b8:	ad 2b       	or	r26, r29
     2ba:	3e 68       	ori	r19, 0x8E	; 142
     2bc:	ec 82       	std	Y+4, r14	; 0x04
     2be:	76 be       	out	0x36, r7	; 54
     2c0:	d9 8f       	std	Y+25, r29	; 0x19
     2c2:	e1 a9       	ldd	r30, Z+49	; 0x31
     2c4:	3e 4c       	sbci	r19, 0xCE	; 206
     2c6:	80 ef       	ldi	r24, 0xF0	; 240
     2c8:	ff be       	out	0x3f, r15	; 63
     2ca:	01 c4       	rjmp	.+2050   	; 0xace <__vector_40+0x4e>
     2cc:	ff 7f       	andi	r31, 0xFF	; 255
     2ce:	3f 00       	.word	0x003f	; ????
     2d0:	00 00       	nop
     2d2:	00 00       	nop
     2d4:	07 63       	ori	r16, 0x37	; 55
     2d6:	42 36       	cpi	r20, 0x62	; 98
     2d8:	b7 9b       	sbis	0x16, 7	; 22
     2da:	d8 a7       	std	Y+40, r29	; 0x28
     2dc:	1a 39       	cpi	r17, 0x9A	; 154
     2de:	68 56       	subi	r22, 0x68	; 104
     2e0:	18 ae       	std	Y+56, r1	; 0x38
     2e2:	ba ab       	std	Y+50, r27	; 0x32
     2e4:	55 8c       	ldd	r5, Z+29	; 0x1d
     2e6:	1d 3c       	cpi	r17, 0xCD	; 205
     2e8:	b7 cc       	rjmp	.-1682   	; 0xfffffc58 <__eeprom_end+0xff7efc58>
     2ea:	57 63       	ori	r21, 0x37	; 55
     2ec:	bd 6d       	ori	r27, 0xDD	; 221
     2ee:	ed fd       	.word	0xfded	; ????
     2f0:	75 3e       	cpi	r23, 0xE5	; 229
     2f2:	f6 17       	cp	r31, r22
     2f4:	72 31       	cpi	r23, 0x12	; 18
     2f6:	bf 00       	.word	0x00bf	; ????
     2f8:	00 00       	nop
     2fa:	80 3f       	cpi	r24, 0xF0	; 240

000002fc <__trampolines_end>:
     2fc:	6e 61       	ori	r22, 0x1E	; 30
     2fe:	6e 00       	.word	0x006e	; ????

00000300 <__c.2332>:
     300:	69 6e 66 00 00 40 7a 10 f3 5a 00 a0 72 4e 18 09     inf..@z..Z..rN..
     310:	00 10 a5 d4 e8 00 00 e8 76 48 17 00 00 e4 0b 54     ........vH.....T
     320:	02 00 00 ca 9a 3b 00 00 00 e1 f5 05 00 00 80 96     .....;..........
     330:	98 00 00 00 40 42 0f 00 00 00 a0 86 01 00 00 00     ....@B..........
     340:	10 27 00 00 00 00 e8 03 00 00 00 00 64 00 00 00     .'..........d...
     350:	00 00 0a 00 00 00 00 00 01 00 00 00 00 00 2c 76     ..............,v
     360:	d8 88 dc 67 4f 08 23 df c1 df ae 59 e1 b1 b7 96     ...gO.#....Y....
     370:	e5 e3 e4 53 c6 3a e6 51 99 76 96 e8 e6 c2 84 26     ...S.:.Q.v.....&
     380:	eb 89 8c 9b 62 ed 40 7c 6f fc ef bc 9c 9f 40 f2     ....b.@|o.....@.
     390:	ba a5 6f a5 f4 90 05 5a 2a f7 5c 93 6b 6c f9 67     ..o....Z*.\.kl.g
     3a0:	6d c1 1b fc e0 e4 0d 47 fe f5 20 e6 b5 00 d0 ed     m......G.. .....
     3b0:	90 2e 03 00 94 35 77 05 00 80 84 1e 08 00 00 20     .....5w........ 
     3c0:	4e 0a 00 00 00 c8 0c 33 33 33 33 0f 98 6e 12 83     N......3333..n..
     3d0:	11 41 ef 8d 21 14 89 3b e6 55 16 cf fe e6 db 18     .A..!..;.U......
     3e0:	d1 84 4b 38 1b f7 7c 1d 90 1d a4 bb e4 24 20 32     ..K8..|......$ 2
     3f0:	84 72 5e 22 81 00 c9 f1 24 ec a1 e5 3d 27           .r^"....$...='

000003fe <__ctors_end>:
     3fe:	11 24       	eor	r1, r1
     400:	1f be       	out	0x3f, r1	; 63
     402:	cf ef       	ldi	r28, 0xFF	; 255
     404:	cd bf       	out	0x3d, r28	; 61
     406:	df e3       	ldi	r29, 0x3F	; 63
     408:	de bf       	out	0x3e, r29	; 62
     40a:	00 e0       	ldi	r16, 0x00	; 0
     40c:	0c bf       	out	0x3c, r16	; 60
     40e:	18 be       	out	0x38, r1	; 56
     410:	19 be       	out	0x39, r1	; 57
     412:	1a be       	out	0x3a, r1	; 58
     414:	1b be       	out	0x3b, r1	; 59

00000416 <__do_copy_data>:
     416:	11 e2       	ldi	r17, 0x21	; 33
     418:	a0 e0       	ldi	r26, 0x00	; 0
     41a:	b0 e2       	ldi	r27, 0x20	; 32
     41c:	e8 e8       	ldi	r30, 0x88	; 136
     41e:	f7 e4       	ldi	r31, 0x47	; 71
     420:	00 e0       	ldi	r16, 0x00	; 0
     422:	0b bf       	out	0x3b, r16	; 59
     424:	02 c0       	rjmp	.+4      	; 0x42a <__do_copy_data+0x14>
     426:	07 90       	elpm	r0, Z+
     428:	0d 92       	st	X+, r0
     42a:	a6 32       	cpi	r26, 0x26	; 38
     42c:	b1 07       	cpc	r27, r17
     42e:	d9 f7       	brne	.-10     	; 0x426 <__do_copy_data+0x10>
     430:	1b be       	out	0x3b, r1	; 59

00000432 <__do_clear_bss>:
     432:	21 e2       	ldi	r18, 0x21	; 33
     434:	a6 e2       	ldi	r26, 0x26	; 38
     436:	b1 e2       	ldi	r27, 0x21	; 33
     438:	01 c0       	rjmp	.+2      	; 0x43c <.do_clear_bss_start>

0000043a <.do_clear_bss_loop>:
     43a:	1d 92       	st	X+, r1

0000043c <.do_clear_bss_start>:
     43c:	a6 3a       	cpi	r26, 0xA6	; 166
     43e:	b2 07       	cpc	r27, r18
     440:	e1 f7       	brne	.-8      	; 0x43a <.do_clear_bss_loop>
     442:	0e 94 5d 17 	call	0x2eba	; 0x2eba <main>
     446:	0c 94 c2 23 	jmp	0x4784	; 0x4784 <_exit>

0000044a <__bad_interrupt>:
     44a:	da cd       	rjmp	.-1100   	; 0x0 <__vectors>

0000044c <twim_interrupt_handler>:
 * \brief Common TWI master interrupt service routine.
 *
 *  Check current status and calls the appropriate handler.
 */
static void twim_interrupt_handler(void)
{
     44c:	cf 93       	push	r28
     44e:	df 93       	push	r29
	uint8_t const master_status = transfer.bus->MASTER.STATUS;
     450:	e0 91 26 21 	lds	r30, 0x2126	; 0x802126 <__data_end>
     454:	f0 91 27 21 	lds	r31, 0x2127	; 0x802127 <__data_end+0x1>
     458:	84 81       	ldd	r24, Z+4	; 0x04

	if (master_status & TWI_MASTER_ARBLOST_bm) {
     45a:	83 ff       	sbrs	r24, 3
     45c:	08 c0       	rjmp	.+16     	; 0x46e <twim_interrupt_handler+0x22>

		transfer.bus->MASTER.STATUS = master_status | TWI_MASTER_ARBLOST_bm;
     45e:	88 60       	ori	r24, 0x08	; 8
     460:	84 83       	std	Z+4, r24	; 0x04
		transfer.bus->MASTER.CTRLC  = TWI_MASTER_CMD_STOP_gc;
     462:	83 e0       	ldi	r24, 0x03	; 3
     464:	83 83       	std	Z+3, r24	; 0x03
		transfer.status = ERR_BUSY;
     466:	86 ef       	ldi	r24, 0xF6	; 246
     468:	80 93 30 21 	sts	0x2130, r24	; 0x802130 <__data_end+0xa>
     46c:	83 c0       	rjmp	.+262    	; 0x574 <twim_interrupt_handler+0x128>

	} else if ((master_status & TWI_MASTER_BUSERR_bm) ||
     46e:	98 2f       	mov	r25, r24
     470:	94 71       	andi	r25, 0x14	; 20
     472:	31 f0       	breq	.+12     	; 0x480 <twim_interrupt_handler+0x34>
		(master_status & TWI_MASTER_RXACK_bm)) {

		transfer.bus->MASTER.CTRLC = TWI_MASTER_CMD_STOP_gc;
     474:	83 e0       	ldi	r24, 0x03	; 3
     476:	83 83       	std	Z+3, r24	; 0x03
		transfer.status = ERR_IO_ERROR;
     478:	8f ef       	ldi	r24, 0xFF	; 255
     47a:	80 93 30 21 	sts	0x2130, r24	; 0x802130 <__data_end+0xa>
     47e:	7a c0       	rjmp	.+244    	; 0x574 <twim_interrupt_handler+0x128>

	} else if (master_status & TWI_MASTER_WIF_bm) {
     480:	86 ff       	sbrs	r24, 6
     482:	43 c0       	rjmp	.+134    	; 0x50a <twim_interrupt_handler+0xbe>
 *  Handles TWI transactions (master write) and responses to (N)ACK.
 */
static inline void twim_write_handler(void)
{
	TWI_t * const         bus = transfer.bus;
	twi_package_t * const pkg = transfer.pkg;
     484:	c6 e2       	ldi	r28, 0x26	; 38
     486:	d1 e2       	ldi	r29, 0x21	; 33
     488:	aa 81       	ldd	r26, Y+2	; 0x02
     48a:	bb 81       	ldd	r27, Y+3	; 0x03

	if (transfer.addr_count < pkg->addr_length) {
     48c:	8c 81       	ldd	r24, Y+4	; 0x04
     48e:	9d 81       	ldd	r25, Y+5	; 0x05
     490:	14 96       	adiw	r26, 0x04	; 4
     492:	2d 91       	ld	r18, X+
     494:	3c 91       	ld	r19, X
     496:	15 97       	sbiw	r26, 0x05	; 5
     498:	82 17       	cp	r24, r18
     49a:	93 07       	cpc	r25, r19
     49c:	6c f4       	brge	.+26     	; 0x4b8 <twim_interrupt_handler+0x6c>

		const uint8_t * const data = pkg->addr;
		bus->MASTER.DATA = data[transfer.addr_count++];
     49e:	9c 01       	movw	r18, r24
     4a0:	2f 5f       	subi	r18, 0xFF	; 255
     4a2:	3f 4f       	sbci	r19, 0xFF	; 255
     4a4:	20 93 2a 21 	sts	0x212A, r18	; 0x80212a <__data_end+0x4>
     4a8:	30 93 2b 21 	sts	0x212B, r19	; 0x80212b <__data_end+0x5>
     4ac:	a8 0f       	add	r26, r24
     4ae:	b9 1f       	adc	r27, r25
     4b0:	11 96       	adiw	r26, 0x01	; 1
     4b2:	8c 91       	ld	r24, X
     4b4:	87 83       	std	Z+7, r24	; 0x07
     4b6:	5e c0       	rjmp	.+188    	; 0x574 <twim_interrupt_handler+0x128>

	} else if (transfer.data_count < pkg->length) {
     4b8:	80 91 2c 21 	lds	r24, 0x212C	; 0x80212c <__data_end+0x6>
     4bc:	90 91 2d 21 	lds	r25, 0x212D	; 0x80212d <__data_end+0x7>
     4c0:	18 96       	adiw	r26, 0x08	; 8
     4c2:	2d 91       	ld	r18, X+
     4c4:	3c 91       	ld	r19, X
     4c6:	19 97       	sbiw	r26, 0x09	; 9
     4c8:	82 17       	cp	r24, r18
     4ca:	93 07       	cpc	r25, r19
     4cc:	c8 f4       	brcc	.+50     	; 0x500 <twim_interrupt_handler+0xb4>

		if (transfer.read) {
     4ce:	20 91 2e 21 	lds	r18, 0x212E	; 0x80212e <__data_end+0x8>
     4d2:	22 23       	and	r18, r18
     4d4:	21 f0       	breq	.+8      	; 0x4de <twim_interrupt_handler+0x92>

			/* Send repeated START condition (Address|R/W=1). */

			bus->MASTER.ADDR |= 0x01;
     4d6:	86 81       	ldd	r24, Z+6	; 0x06
     4d8:	81 60       	ori	r24, 0x01	; 1
     4da:	86 83       	std	Z+6, r24	; 0x06
     4dc:	4b c0       	rjmp	.+150    	; 0x574 <twim_interrupt_handler+0x128>

		} else {
			const uint8_t * const data = pkg->buffer;
     4de:	16 96       	adiw	r26, 0x06	; 6
     4e0:	2d 91       	ld	r18, X+
     4e2:	3c 91       	ld	r19, X
     4e4:	17 97       	sbiw	r26, 0x07	; 7
			bus->MASTER.DATA = data[transfer.data_count++];
     4e6:	ac 01       	movw	r20, r24
     4e8:	4f 5f       	subi	r20, 0xFF	; 255
     4ea:	5f 4f       	sbci	r21, 0xFF	; 255
     4ec:	40 93 2c 21 	sts	0x212C, r20	; 0x80212c <__data_end+0x6>
     4f0:	50 93 2d 21 	sts	0x212D, r21	; 0x80212d <__data_end+0x7>
     4f4:	d9 01       	movw	r26, r18
     4f6:	a8 0f       	add	r26, r24
     4f8:	b9 1f       	adc	r27, r25
     4fa:	8c 91       	ld	r24, X
     4fc:	87 83       	std	Z+7, r24	; 0x07
     4fe:	3a c0       	rjmp	.+116    	; 0x574 <twim_interrupt_handler+0x128>

	} else {

		/* Send STOP condition to complete the transaction. */

		bus->MASTER.CTRLC = TWI_MASTER_CMD_STOP_gc;
     500:	83 e0       	ldi	r24, 0x03	; 3
     502:	83 83       	std	Z+3, r24	; 0x03
		transfer.status = STATUS_OK;
     504:	10 92 30 21 	sts	0x2130, r1	; 0x802130 <__data_end+0xa>
     508:	35 c0       	rjmp	.+106    	; 0x574 <twim_interrupt_handler+0x128>

	} else if (master_status & TWI_MASTER_WIF_bm) {

		twim_write_handler();

	} else if (master_status & TWI_MASTER_RIF_bm) {
     50a:	88 23       	and	r24, r24
     50c:	84 f5       	brge	.+96     	; 0x56e <twim_interrupt_handler+0x122>
 *  reading bytes from the TWI slave.
 */
static inline void twim_read_handler(void)
{
	TWI_t * const         bus = transfer.bus;
	twi_package_t * const pkg = transfer.pkg;
     50e:	a6 e2       	ldi	r26, 0x26	; 38
     510:	b1 e2       	ldi	r27, 0x21	; 33
     512:	12 96       	adiw	r26, 0x02	; 2
     514:	cd 91       	ld	r28, X+
     516:	dc 91       	ld	r29, X
     518:	13 97       	sbiw	r26, 0x03	; 3

	if (transfer.data_count < pkg->length) {
     51a:	16 96       	adiw	r26, 0x06	; 6
     51c:	8d 91       	ld	r24, X+
     51e:	9c 91       	ld	r25, X
     520:	17 97       	sbiw	r26, 0x07	; 7
     522:	28 85       	ldd	r18, Y+8	; 0x08
     524:	39 85       	ldd	r19, Y+9	; 0x09
     526:	82 17       	cp	r24, r18
     528:	93 07       	cpc	r25, r19
     52a:	d8 f4       	brcc	.+54     	; 0x562 <twim_interrupt_handler+0x116>

		uint8_t * const data = pkg->buffer;
     52c:	6e 81       	ldd	r22, Y+6	; 0x06
     52e:	7f 81       	ldd	r23, Y+7	; 0x07
		data[transfer.data_count++] = bus->MASTER.DATA;
     530:	9c 01       	movw	r18, r24
     532:	2f 5f       	subi	r18, 0xFF	; 255
     534:	3f 4f       	sbci	r19, 0xFF	; 255
     536:	20 93 2c 21 	sts	0x212C, r18	; 0x80212c <__data_end+0x6>
     53a:	30 93 2d 21 	sts	0x212D, r19	; 0x80212d <__data_end+0x7>
     53e:	47 81       	ldd	r20, Z+7	; 0x07
     540:	db 01       	movw	r26, r22
     542:	a8 0f       	add	r26, r24
     544:	b9 1f       	adc	r27, r25
     546:	4c 93       	st	X, r20

		/* If there is more to read, issue ACK and start a byte read.
		 * Otherwise, issue NACK and STOP to complete the transaction.
		 */
		if (transfer.data_count < pkg->length) {
     548:	88 85       	ldd	r24, Y+8	; 0x08
     54a:	99 85       	ldd	r25, Y+9	; 0x09
     54c:	28 17       	cp	r18, r24
     54e:	39 07       	cpc	r19, r25
     550:	18 f4       	brcc	.+6      	; 0x558 <twim_interrupt_handler+0x10c>

			bus->MASTER.CTRLC = TWI_MASTER_CMD_RECVTRANS_gc;
     552:	82 e0       	ldi	r24, 0x02	; 2
     554:	83 83       	std	Z+3, r24	; 0x03
     556:	0e c0       	rjmp	.+28     	; 0x574 <twim_interrupt_handler+0x128>

		} else {

			bus->MASTER.CTRLC = TWI_MASTER_ACKACT_bm | TWI_MASTER_CMD_STOP_gc;
     558:	87 e0       	ldi	r24, 0x07	; 7
     55a:	83 83       	std	Z+3, r24	; 0x03
			transfer.status = STATUS_OK;
     55c:	10 92 30 21 	sts	0x2130, r1	; 0x802130 <__data_end+0xa>
     560:	09 c0       	rjmp	.+18     	; 0x574 <twim_interrupt_handler+0x128>

	} else {

		/* Issue STOP and buffer overflow condition. */

		bus->MASTER.CTRLC = TWI_MASTER_CMD_STOP_gc;
     562:	83 e0       	ldi	r24, 0x03	; 3
     564:	83 83       	std	Z+3, r24	; 0x03
		transfer.status = ERR_NO_MEMORY;
     566:	89 ef       	ldi	r24, 0xF9	; 249
     568:	80 93 30 21 	sts	0x2130, r24	; 0x802130 <__data_end+0xa>
     56c:	03 c0       	rjmp	.+6      	; 0x574 <twim_interrupt_handler+0x128>

		twim_read_handler();

	} else {

		transfer.status = ERR_PROTOCOL;
     56e:	8b ef       	ldi	r24, 0xFB	; 251
     570:	80 93 30 21 	sts	0x2130, r24	; 0x802130 <__data_end+0xa>
	}
}
     574:	df 91       	pop	r29
     576:	cf 91       	pop	r28
     578:	08 95       	ret

0000057a <__vector_13>:
 * parameters specified in the global \c transfer structure.
 */
static void twim_interrupt_handler(void);

#ifdef TWIC
ISR(TWIC_TWIM_vect) { twim_interrupt_handler(); }
     57a:	1f 92       	push	r1
     57c:	0f 92       	push	r0
     57e:	0f b6       	in	r0, 0x3f	; 63
     580:	0f 92       	push	r0
     582:	11 24       	eor	r1, r1
     584:	08 b6       	in	r0, 0x38	; 56
     586:	0f 92       	push	r0
     588:	18 be       	out	0x38, r1	; 56
     58a:	09 b6       	in	r0, 0x39	; 57
     58c:	0f 92       	push	r0
     58e:	19 be       	out	0x39, r1	; 57
     590:	0b b6       	in	r0, 0x3b	; 59
     592:	0f 92       	push	r0
     594:	1b be       	out	0x3b, r1	; 59
     596:	2f 93       	push	r18
     598:	3f 93       	push	r19
     59a:	4f 93       	push	r20
     59c:	5f 93       	push	r21
     59e:	6f 93       	push	r22
     5a0:	7f 93       	push	r23
     5a2:	8f 93       	push	r24
     5a4:	9f 93       	push	r25
     5a6:	af 93       	push	r26
     5a8:	bf 93       	push	r27
     5aa:	ef 93       	push	r30
     5ac:	ff 93       	push	r31
     5ae:	4e df       	rcall	.-356    	; 0x44c <twim_interrupt_handler>
     5b0:	ff 91       	pop	r31
     5b2:	ef 91       	pop	r30
     5b4:	bf 91       	pop	r27
     5b6:	af 91       	pop	r26
     5b8:	9f 91       	pop	r25
     5ba:	8f 91       	pop	r24
     5bc:	7f 91       	pop	r23
     5be:	6f 91       	pop	r22
     5c0:	5f 91       	pop	r21
     5c2:	4f 91       	pop	r20
     5c4:	3f 91       	pop	r19
     5c6:	2f 91       	pop	r18
     5c8:	0f 90       	pop	r0
     5ca:	0b be       	out	0x3b, r0	; 59
     5cc:	0f 90       	pop	r0
     5ce:	09 be       	out	0x39, r0	; 57
     5d0:	0f 90       	pop	r0
     5d2:	08 be       	out	0x38, r0	; 56
     5d4:	0f 90       	pop	r0
     5d6:	0f be       	out	0x3f, r0	; 63
     5d8:	0f 90       	pop	r0
     5da:	1f 90       	pop	r1
     5dc:	18 95       	reti

000005de <__vector_76>:
#endif
#ifdef TWID
ISR(TWID_TWIM_vect) { twim_interrupt_handler(); }
     5de:	1f 92       	push	r1
     5e0:	0f 92       	push	r0
     5e2:	0f b6       	in	r0, 0x3f	; 63
     5e4:	0f 92       	push	r0
     5e6:	11 24       	eor	r1, r1
     5e8:	08 b6       	in	r0, 0x38	; 56
     5ea:	0f 92       	push	r0
     5ec:	18 be       	out	0x38, r1	; 56
     5ee:	09 b6       	in	r0, 0x39	; 57
     5f0:	0f 92       	push	r0
     5f2:	19 be       	out	0x39, r1	; 57
     5f4:	0b b6       	in	r0, 0x3b	; 59
     5f6:	0f 92       	push	r0
     5f8:	1b be       	out	0x3b, r1	; 59
     5fa:	2f 93       	push	r18
     5fc:	3f 93       	push	r19
     5fe:	4f 93       	push	r20
     600:	5f 93       	push	r21
     602:	6f 93       	push	r22
     604:	7f 93       	push	r23
     606:	8f 93       	push	r24
     608:	9f 93       	push	r25
     60a:	af 93       	push	r26
     60c:	bf 93       	push	r27
     60e:	ef 93       	push	r30
     610:	ff 93       	push	r31
     612:	1c df       	rcall	.-456    	; 0x44c <twim_interrupt_handler>
     614:	ff 91       	pop	r31
     616:	ef 91       	pop	r30
     618:	bf 91       	pop	r27
     61a:	af 91       	pop	r26
     61c:	9f 91       	pop	r25
     61e:	8f 91       	pop	r24
     620:	7f 91       	pop	r23
     622:	6f 91       	pop	r22
     624:	5f 91       	pop	r21
     626:	4f 91       	pop	r20
     628:	3f 91       	pop	r19
     62a:	2f 91       	pop	r18
     62c:	0f 90       	pop	r0
     62e:	0b be       	out	0x3b, r0	; 59
     630:	0f 90       	pop	r0
     632:	09 be       	out	0x39, r0	; 57
     634:	0f 90       	pop	r0
     636:	08 be       	out	0x38, r0	; 56
     638:	0f 90       	pop	r0
     63a:	0f be       	out	0x3f, r0	; 63
     63c:	0f 90       	pop	r0
     63e:	1f 90       	pop	r1
     640:	18 95       	reti

00000642 <__vector_46>:
#endif
#ifdef TWIE
ISR(TWIE_TWIM_vect) { twim_interrupt_handler(); }
     642:	1f 92       	push	r1
     644:	0f 92       	push	r0
     646:	0f b6       	in	r0, 0x3f	; 63
     648:	0f 92       	push	r0
     64a:	11 24       	eor	r1, r1
     64c:	08 b6       	in	r0, 0x38	; 56
     64e:	0f 92       	push	r0
     650:	18 be       	out	0x38, r1	; 56
     652:	09 b6       	in	r0, 0x39	; 57
     654:	0f 92       	push	r0
     656:	19 be       	out	0x39, r1	; 57
     658:	0b b6       	in	r0, 0x3b	; 59
     65a:	0f 92       	push	r0
     65c:	1b be       	out	0x3b, r1	; 59
     65e:	2f 93       	push	r18
     660:	3f 93       	push	r19
     662:	4f 93       	push	r20
     664:	5f 93       	push	r21
     666:	6f 93       	push	r22
     668:	7f 93       	push	r23
     66a:	8f 93       	push	r24
     66c:	9f 93       	push	r25
     66e:	af 93       	push	r26
     670:	bf 93       	push	r27
     672:	ef 93       	push	r30
     674:	ff 93       	push	r31
     676:	ea de       	rcall	.-556    	; 0x44c <twim_interrupt_handler>
     678:	ff 91       	pop	r31
     67a:	ef 91       	pop	r30
     67c:	bf 91       	pop	r27
     67e:	af 91       	pop	r26
     680:	9f 91       	pop	r25
     682:	8f 91       	pop	r24
     684:	7f 91       	pop	r23
     686:	6f 91       	pop	r22
     688:	5f 91       	pop	r21
     68a:	4f 91       	pop	r20
     68c:	3f 91       	pop	r19
     68e:	2f 91       	pop	r18
     690:	0f 90       	pop	r0
     692:	0b be       	out	0x3b, r0	; 59
     694:	0f 90       	pop	r0
     696:	09 be       	out	0x39, r0	; 57
     698:	0f 90       	pop	r0
     69a:	08 be       	out	0x38, r0	; 56
     69c:	0f 90       	pop	r0
     69e:	0f be       	out	0x3f, r0	; 63
     6a0:	0f 90       	pop	r0
     6a2:	1f 90       	pop	r1
     6a4:	18 95       	reti

000006a6 <__vector_107>:
#endif
#ifdef TWIF
ISR(TWIF_TWIM_vect) { twim_interrupt_handler(); }
     6a6:	1f 92       	push	r1
     6a8:	0f 92       	push	r0
     6aa:	0f b6       	in	r0, 0x3f	; 63
     6ac:	0f 92       	push	r0
     6ae:	11 24       	eor	r1, r1
     6b0:	08 b6       	in	r0, 0x38	; 56
     6b2:	0f 92       	push	r0
     6b4:	18 be       	out	0x38, r1	; 56
     6b6:	09 b6       	in	r0, 0x39	; 57
     6b8:	0f 92       	push	r0
     6ba:	19 be       	out	0x39, r1	; 57
     6bc:	0b b6       	in	r0, 0x3b	; 59
     6be:	0f 92       	push	r0
     6c0:	1b be       	out	0x3b, r1	; 59
     6c2:	2f 93       	push	r18
     6c4:	3f 93       	push	r19
     6c6:	4f 93       	push	r20
     6c8:	5f 93       	push	r21
     6ca:	6f 93       	push	r22
     6cc:	7f 93       	push	r23
     6ce:	8f 93       	push	r24
     6d0:	9f 93       	push	r25
     6d2:	af 93       	push	r26
     6d4:	bf 93       	push	r27
     6d6:	ef 93       	push	r30
     6d8:	ff 93       	push	r31
     6da:	b8 de       	rcall	.-656    	; 0x44c <twim_interrupt_handler>
     6dc:	ff 91       	pop	r31
     6de:	ef 91       	pop	r30
     6e0:	bf 91       	pop	r27
     6e2:	af 91       	pop	r26
     6e4:	9f 91       	pop	r25
     6e6:	8f 91       	pop	r24
     6e8:	7f 91       	pop	r23
     6ea:	6f 91       	pop	r22
     6ec:	5f 91       	pop	r21
     6ee:	4f 91       	pop	r20
     6f0:	3f 91       	pop	r19
     6f2:	2f 91       	pop	r18
     6f4:	0f 90       	pop	r0
     6f6:	0b be       	out	0x3b, r0	; 59
     6f8:	0f 90       	pop	r0
     6fa:	09 be       	out	0x39, r0	; 57
     6fc:	0f 90       	pop	r0
     6fe:	08 be       	out	0x38, r0	; 56
     700:	0f 90       	pop	r0
     702:	0f be       	out	0x3f, r0	; 63
     704:	0f 90       	pop	r0
     706:	1f 90       	pop	r1
     708:	18 95       	reti

0000070a <wdt_reset_mcu>:
uint8_t temp;
	/*
	 * WDT enabled (minimum timeout period for max. security)
	 */
	temp = WDT_PER_8CLK_gc | (1 << WDT_ENABLE_bp) | (1 << WDT_CEN_bp);
	ccp_write_io((void *)&WDT.CTRL, temp);
     70a:	63 e0       	ldi	r22, 0x03	; 3
     70c:	80 e8       	ldi	r24, 0x80	; 128
     70e:	90 e0       	ldi	r25, 0x00	; 0
     710:	6e d2       	rcall	.+1244   	; 0xbee <ccp_write_io>
/*! \brief Wait until WD settings are synchronized to the WD clock domain.
 *
 */
static inline void wdt_wait_while_busy(void)
{
	while ((WDT.STATUS & WDT_SYNCBUSY_bm) == WDT_SYNCBUSY_bm) {
     712:	e0 e8       	ldi	r30, 0x80	; 128
     714:	f0 e0       	ldi	r31, 0x00	; 0
     716:	82 81       	ldd	r24, Z+2	; 0x02
     718:	80 fd       	sbrc	r24, 0
     71a:	fd cf       	rjmp	.-6      	; 0x716 <wdt_reset_mcu+0xc>
	wdt_wait_while_busy();
	/*
	 * WDT enabled (maximum window period for max. security)
	 */
	temp = WDT_WPER_8KCLK_gc | (1 << WDT_WEN_bp) | (1 << WDT_WCEN_bp);
	ccp_write_io((void *)&WDT.WINCTRL, temp);
     71c:	6b e2       	ldi	r22, 0x2B	; 43
     71e:	81 e8       	ldi	r24, 0x81	; 129
     720:	90 e0       	ldi	r25, 0x00	; 0
     722:	65 d2       	rcall	.+1226   	; 0xbee <ccp_write_io>
     724:	e0 e8       	ldi	r30, 0x80	; 128
     726:	f0 e0       	ldi	r31, 0x00	; 0
     728:	82 81       	ldd	r24, Z+2	; 0x02
     72a:	80 fd       	sbrc	r24, 0
     72c:	fd cf       	rjmp	.-6      	; 0x728 <wdt_reset_mcu+0x1e>
	wdt_wait_while_busy();
	/*
	 * WDT Reset during window => WDT generates an Hard Reset.
	 */
	wdt_reset();
     72e:	a8 95       	wdr
     730:	ff cf       	rjmp	.-2      	; 0x730 <wdt_reset_mcu+0x26>

00000732 <sysclk_init>:
#  include <nvm.h>
#endif


void sysclk_init(void)
{
     732:	cf 93       	push	r28
     734:	df 93       	push	r29
     736:	1f 92       	push	r1
     738:	1f 92       	push	r1
     73a:	cd b7       	in	r28, 0x3d	; 61
     73c:	de b7       	in	r29, 0x3e	; 62
#endif
	bool need_rc2mhz = false;

	/* Turn off all peripheral clocks that can be turned off. */
	for (i = 0; i <= SYSCLK_PORT_F; i++) {
		*(reg++) = 0xff;
     73e:	8f ef       	ldi	r24, 0xFF	; 255
     740:	80 93 70 00 	sts	0x0070, r24	; 0x800070 <__TEXT_REGION_LENGTH__+0x700070>
     744:	80 93 71 00 	sts	0x0071, r24	; 0x800071 <__TEXT_REGION_LENGTH__+0x700071>
     748:	80 93 72 00 	sts	0x0072, r24	; 0x800072 <__TEXT_REGION_LENGTH__+0x700072>
     74c:	80 93 73 00 	sts	0x0073, r24	; 0x800073 <__TEXT_REGION_LENGTH__+0x700073>
     750:	80 93 74 00 	sts	0x0074, r24	; 0x800074 <__TEXT_REGION_LENGTH__+0x700074>
     754:	80 93 75 00 	sts	0x0075, r24	; 0x800075 <__TEXT_REGION_LENGTH__+0x700075>
     758:	80 93 76 00 	sts	0x0076, r24	; 0x800076 <__TEXT_REGION_LENGTH__+0x700076>

typedef uint8_t irqflags_t;

static inline irqflags_t cpu_irq_save(void)
{
	volatile irqflags_t flags = SREG;
     75c:	8f b7       	in	r24, 0x3f	; 63
     75e:	8a 83       	std	Y+2, r24	; 0x02
	cpu_irq_disable();
     760:	f8 94       	cli
	return flags;
     762:	9a 81       	ldd	r25, Y+2	; 0x02
	irqflags_t flags;

	Assert(id != OSC_ID_USBSOF);

	flags = cpu_irq_save();
	OSC.CTRL |= id;
     764:	e0 e5       	ldi	r30, 0x50	; 80
     766:	f0 e0       	ldi	r31, 0x00	; 0
     768:	80 81       	ld	r24, Z
     76a:	82 60       	ori	r24, 0x02	; 2
     76c:	80 83       	st	Z, r24
}

static inline void cpu_irq_restore(irqflags_t flags)
{
	barrier();
	SREG = flags;
     76e:	9f bf       	out	0x3f, r25	; 63

static inline bool osc_is_ready(uint8_t id)
{
	Assert(id != OSC_ID_USBSOF);

	return OSC.STATUS & id;
     770:	81 81       	ldd	r24, Z+1	; 0x01
 *
 * \param id A number identifying the oscillator to wait for.
 */
static inline void osc_wait_ready(uint8_t id)
{
	while (!osc_is_ready(id)) {
     772:	81 ff       	sbrs	r24, 1
     774:	fd cf       	rjmp	.-6      	; 0x770 <sysclk_init+0x3e>
		default:
			//unhandled_case(CONFIG_SYSCLK_SOURCE);
			return;
		}

		ccp_write_io((uint8_t *)&CLK.CTRL, CONFIG_SYSCLK_SOURCE);
     776:	61 e0       	ldi	r22, 0x01	; 1
     778:	80 e4       	ldi	r24, 0x40	; 64
     77a:	90 e0       	ldi	r25, 0x00	; 0
     77c:	38 d2       	rcall	.+1136   	; 0xbee <ccp_write_io>

typedef uint8_t irqflags_t;

static inline irqflags_t cpu_irq_save(void)
{
	volatile irqflags_t flags = SREG;
     77e:	8f b7       	in	r24, 0x3f	; 63
     780:	89 83       	std	Y+1, r24	; 0x01
	cpu_irq_disable();
     782:	f8 94       	cli
	return flags;
     784:	99 81       	ldd	r25, Y+1	; 0x01
	irqflags_t flags;

	Assert(id != OSC_ID_USBSOF);

	flags = cpu_irq_save();
	OSC.CTRL &= ~id;
     786:	e0 e5       	ldi	r30, 0x50	; 80
     788:	f0 e0       	ldi	r31, 0x00	; 0
     78a:	80 81       	ld	r24, Z
     78c:	8e 7f       	andi	r24, 0xFE	; 254
     78e:	80 83       	st	Z, r24
}

static inline void cpu_irq_restore(irqflags_t flags)
{
	barrier();
	SREG = flags;
     790:	9f bf       	out	0x3f, r25	; 63
	}

#ifdef CONFIG_RTC_SOURCE
	sysclk_rtcsrc_enable(CONFIG_RTC_SOURCE);
#endif
}
     792:	0f 90       	pop	r0
     794:	0f 90       	pop	r0
     796:	df 91       	pop	r29
     798:	cf 91       	pop	r28
     79a:	08 95       	ret

0000079c <sysclk_enable_module>:

void sysclk_enable_module(enum sysclk_port_id port, uint8_t id)
{
     79c:	cf 93       	push	r28
     79e:	df 93       	push	r29
     7a0:	1f 92       	push	r1
     7a2:	cd b7       	in	r28, 0x3d	; 61
     7a4:	de b7       	in	r29, 0x3e	; 62

typedef uint8_t irqflags_t;

static inline irqflags_t cpu_irq_save(void)
{
	volatile irqflags_t flags = SREG;
     7a6:	9f b7       	in	r25, 0x3f	; 63
     7a8:	99 83       	std	Y+1, r25	; 0x01
	cpu_irq_disable();
     7aa:	f8 94       	cli
	return flags;
     7ac:	99 81       	ldd	r25, Y+1	; 0x01
	irqflags_t flags = cpu_irq_save();

	*((uint8_t *)&PR.PRGEN + port) &= ~id;
     7ae:	e8 2f       	mov	r30, r24
     7b0:	f0 e0       	ldi	r31, 0x00	; 0
     7b2:	e0 59       	subi	r30, 0x90	; 144
     7b4:	ff 4f       	sbci	r31, 0xFF	; 255
     7b6:	60 95       	com	r22
     7b8:	80 81       	ld	r24, Z
     7ba:	68 23       	and	r22, r24
     7bc:	60 83       	st	Z, r22
}

static inline void cpu_irq_restore(irqflags_t flags)
{
	barrier();
	SREG = flags;
     7be:	9f bf       	out	0x3f, r25	; 63

	cpu_irq_restore(flags);
}
     7c0:	0f 90       	pop	r0
     7c2:	df 91       	pop	r29
     7c4:	cf 91       	pop	r28
     7c6:	08 95       	ret

000007c8 <_read>:
#elif (defined(__GNUC__) && (XMEGA || MEGA) )

int _read (int *f); // Remove GCC compiler warning

int _read (int *f)
{
     7c8:	cf 93       	push	r28
     7ca:	df 93       	push	r29
     7cc:	1f 92       	push	r1
     7ce:	cd b7       	in	r28, 0x3d	; 61
     7d0:	de b7       	in	r29, 0x3e	; 62
	char c;
	ptr_get(stdio_base,&c);
     7d2:	80 91 85 21 	lds	r24, 0x2185	; 0x802185 <stdio_base>
     7d6:	90 91 86 21 	lds	r25, 0x2186	; 0x802186 <stdio_base+0x1>
     7da:	e0 91 81 21 	lds	r30, 0x2181	; 0x802181 <ptr_get>
     7de:	f0 91 82 21 	lds	r31, 0x2182	; 0x802182 <ptr_get+0x1>
     7e2:	be 01       	movw	r22, r28
     7e4:	6f 5f       	subi	r22, 0xFF	; 255
     7e6:	7f 4f       	sbci	r23, 0xFF	; 255
     7e8:	19 95       	eicall
	return c;
     7ea:	89 81       	ldd	r24, Y+1	; 0x01
}
     7ec:	08 2e       	mov	r0, r24
     7ee:	00 0c       	add	r0, r0
     7f0:	99 0b       	sbc	r25, r25
     7f2:	0f 90       	pop	r0
     7f4:	df 91       	pop	r29
     7f6:	cf 91       	pop	r28
     7f8:	08 95       	ret

000007fa <_write>:
#elif (defined(__GNUC__) && (XMEGA || MEGA))

int _write (char c, int *f);

int _write (char c, int *f)
{
     7fa:	68 2f       	mov	r22, r24
	if (ptr_put(stdio_base, c) < 0) {
     7fc:	80 91 85 21 	lds	r24, 0x2185	; 0x802185 <stdio_base>
     800:	90 91 86 21 	lds	r25, 0x2186	; 0x802186 <stdio_base+0x1>
     804:	e0 91 83 21 	lds	r30, 0x2183	; 0x802183 <ptr_put>
     808:	f0 91 84 21 	lds	r31, 0x2184	; 0x802184 <ptr_put+0x1>
     80c:	19 95       	eicall
     80e:	99 23       	and	r25, r25
     810:	1c f0       	brlt	.+6      	; 0x818 <_write+0x1e>
		return -1;
	}
	return 1;
     812:	81 e0       	ldi	r24, 0x01	; 1
     814:	90 e0       	ldi	r25, 0x00	; 0
     816:	08 95       	ret
int _write (char c, int *f);

int _write (char c, int *f)
{
	if (ptr_put(stdio_base, c) < 0) {
		return -1;
     818:	8f ef       	ldi	r24, 0xFF	; 255
     81a:	9f ef       	ldi	r25, 0xFF	; 255
	}
	return 1;
}
     81c:	08 95       	ret

0000081e <__vector_71>:
 *
 * Calls the callback function that has been set for the ADC when the channel's
 * interrupt flag is set, if its interrupt has been enabled.
 */
ISR(ADCA_CH0_vect)
{
     81e:	1f 92       	push	r1
     820:	0f 92       	push	r0
     822:	0f b6       	in	r0, 0x3f	; 63
     824:	0f 92       	push	r0
     826:	11 24       	eor	r1, r1
     828:	08 b6       	in	r0, 0x38	; 56
     82a:	0f 92       	push	r0
     82c:	18 be       	out	0x38, r1	; 56
     82e:	09 b6       	in	r0, 0x39	; 57
     830:	0f 92       	push	r0
     832:	19 be       	out	0x39, r1	; 57
     834:	0b b6       	in	r0, 0x3b	; 59
     836:	0f 92       	push	r0
     838:	1b be       	out	0x3b, r1	; 59
     83a:	2f 93       	push	r18
     83c:	3f 93       	push	r19
     83e:	4f 93       	push	r20
     840:	5f 93       	push	r21
     842:	6f 93       	push	r22
     844:	7f 93       	push	r23
     846:	8f 93       	push	r24
     848:	9f 93       	push	r25
     84a:	af 93       	push	r26
     84c:	bf 93       	push	r27
     84e:	ef 93       	push	r30
     850:	ff 93       	push	r31
	adca_callback(&ADCA, ADC_CH0, adc_get_result(&ADCA, ADC_CH0));
     852:	40 91 24 02 	lds	r20, 0x0224	; 0x800224 <__TEXT_REGION_LENGTH__+0x700224>
     856:	50 91 25 02 	lds	r21, 0x0225	; 0x800225 <__TEXT_REGION_LENGTH__+0x700225>
     85a:	e0 91 89 21 	lds	r30, 0x2189	; 0x802189 <adca_callback>
     85e:	f0 91 8a 21 	lds	r31, 0x218A	; 0x80218a <adca_callback+0x1>
     862:	61 e0       	ldi	r22, 0x01	; 1
     864:	80 e0       	ldi	r24, 0x00	; 0
     866:	92 e0       	ldi	r25, 0x02	; 2
     868:	19 95       	eicall
}
     86a:	ff 91       	pop	r31
     86c:	ef 91       	pop	r30
     86e:	bf 91       	pop	r27
     870:	af 91       	pop	r26
     872:	9f 91       	pop	r25
     874:	8f 91       	pop	r24
     876:	7f 91       	pop	r23
     878:	6f 91       	pop	r22
     87a:	5f 91       	pop	r21
     87c:	4f 91       	pop	r20
     87e:	3f 91       	pop	r19
     880:	2f 91       	pop	r18
     882:	0f 90       	pop	r0
     884:	0b be       	out	0x3b, r0	; 59
     886:	0f 90       	pop	r0
     888:	09 be       	out	0x39, r0	; 57
     88a:	0f 90       	pop	r0
     88c:	08 be       	out	0x38, r0	; 56
     88e:	0f 90       	pop	r0
     890:	0f be       	out	0x3f, r0	; 63
     892:	0f 90       	pop	r0
     894:	1f 90       	pop	r1
     896:	18 95       	reti

00000898 <__vector_72>:
 *
 * Calls the callback function that has been set for the ADC when the channel's
 * interrupt flag is set, if its interrupt has been enabled.
 */
ISR(ADCA_CH1_vect)
{
     898:	1f 92       	push	r1
     89a:	0f 92       	push	r0
     89c:	0f b6       	in	r0, 0x3f	; 63
     89e:	0f 92       	push	r0
     8a0:	11 24       	eor	r1, r1
     8a2:	08 b6       	in	r0, 0x38	; 56
     8a4:	0f 92       	push	r0
     8a6:	18 be       	out	0x38, r1	; 56
     8a8:	09 b6       	in	r0, 0x39	; 57
     8aa:	0f 92       	push	r0
     8ac:	19 be       	out	0x39, r1	; 57
     8ae:	0b b6       	in	r0, 0x3b	; 59
     8b0:	0f 92       	push	r0
     8b2:	1b be       	out	0x3b, r1	; 59
     8b4:	2f 93       	push	r18
     8b6:	3f 93       	push	r19
     8b8:	4f 93       	push	r20
     8ba:	5f 93       	push	r21
     8bc:	6f 93       	push	r22
     8be:	7f 93       	push	r23
     8c0:	8f 93       	push	r24
     8c2:	9f 93       	push	r25
     8c4:	af 93       	push	r26
     8c6:	bf 93       	push	r27
     8c8:	ef 93       	push	r30
     8ca:	ff 93       	push	r31
	adca_callback(&ADCA, ADC_CH1, adc_get_result(&ADCA, ADC_CH1));
     8cc:	40 91 2c 02 	lds	r20, 0x022C	; 0x80022c <__TEXT_REGION_LENGTH__+0x70022c>
     8d0:	50 91 2d 02 	lds	r21, 0x022D	; 0x80022d <__TEXT_REGION_LENGTH__+0x70022d>
     8d4:	e0 91 89 21 	lds	r30, 0x2189	; 0x802189 <adca_callback>
     8d8:	f0 91 8a 21 	lds	r31, 0x218A	; 0x80218a <adca_callback+0x1>
     8dc:	62 e0       	ldi	r22, 0x02	; 2
     8de:	80 e0       	ldi	r24, 0x00	; 0
     8e0:	92 e0       	ldi	r25, 0x02	; 2
     8e2:	19 95       	eicall
}
     8e4:	ff 91       	pop	r31
     8e6:	ef 91       	pop	r30
     8e8:	bf 91       	pop	r27
     8ea:	af 91       	pop	r26
     8ec:	9f 91       	pop	r25
     8ee:	8f 91       	pop	r24
     8f0:	7f 91       	pop	r23
     8f2:	6f 91       	pop	r22
     8f4:	5f 91       	pop	r21
     8f6:	4f 91       	pop	r20
     8f8:	3f 91       	pop	r19
     8fa:	2f 91       	pop	r18
     8fc:	0f 90       	pop	r0
     8fe:	0b be       	out	0x3b, r0	; 59
     900:	0f 90       	pop	r0
     902:	09 be       	out	0x39, r0	; 57
     904:	0f 90       	pop	r0
     906:	08 be       	out	0x38, r0	; 56
     908:	0f 90       	pop	r0
     90a:	0f be       	out	0x3f, r0	; 63
     90c:	0f 90       	pop	r0
     90e:	1f 90       	pop	r1
     910:	18 95       	reti

00000912 <__vector_73>:
 *
 * Calls the callback function that has been set for the ADC when the channel's
 * interrupt flag is set, if its interrupt has been enabled.
 */
ISR(ADCA_CH2_vect)
{
     912:	1f 92       	push	r1
     914:	0f 92       	push	r0
     916:	0f b6       	in	r0, 0x3f	; 63
     918:	0f 92       	push	r0
     91a:	11 24       	eor	r1, r1
     91c:	08 b6       	in	r0, 0x38	; 56
     91e:	0f 92       	push	r0
     920:	18 be       	out	0x38, r1	; 56
     922:	09 b6       	in	r0, 0x39	; 57
     924:	0f 92       	push	r0
     926:	19 be       	out	0x39, r1	; 57
     928:	0b b6       	in	r0, 0x3b	; 59
     92a:	0f 92       	push	r0
     92c:	1b be       	out	0x3b, r1	; 59
     92e:	2f 93       	push	r18
     930:	3f 93       	push	r19
     932:	4f 93       	push	r20
     934:	5f 93       	push	r21
     936:	6f 93       	push	r22
     938:	7f 93       	push	r23
     93a:	8f 93       	push	r24
     93c:	9f 93       	push	r25
     93e:	af 93       	push	r26
     940:	bf 93       	push	r27
     942:	ef 93       	push	r30
     944:	ff 93       	push	r31
	adca_callback(&ADCA, ADC_CH2, adc_get_result(&ADCA, ADC_CH2));
     946:	40 91 34 02 	lds	r20, 0x0234	; 0x800234 <__TEXT_REGION_LENGTH__+0x700234>
     94a:	50 91 35 02 	lds	r21, 0x0235	; 0x800235 <__TEXT_REGION_LENGTH__+0x700235>
     94e:	e0 91 89 21 	lds	r30, 0x2189	; 0x802189 <adca_callback>
     952:	f0 91 8a 21 	lds	r31, 0x218A	; 0x80218a <adca_callback+0x1>
     956:	64 e0       	ldi	r22, 0x04	; 4
     958:	80 e0       	ldi	r24, 0x00	; 0
     95a:	92 e0       	ldi	r25, 0x02	; 2
     95c:	19 95       	eicall
}
     95e:	ff 91       	pop	r31
     960:	ef 91       	pop	r30
     962:	bf 91       	pop	r27
     964:	af 91       	pop	r26
     966:	9f 91       	pop	r25
     968:	8f 91       	pop	r24
     96a:	7f 91       	pop	r23
     96c:	6f 91       	pop	r22
     96e:	5f 91       	pop	r21
     970:	4f 91       	pop	r20
     972:	3f 91       	pop	r19
     974:	2f 91       	pop	r18
     976:	0f 90       	pop	r0
     978:	0b be       	out	0x3b, r0	; 59
     97a:	0f 90       	pop	r0
     97c:	09 be       	out	0x39, r0	; 57
     97e:	0f 90       	pop	r0
     980:	08 be       	out	0x38, r0	; 56
     982:	0f 90       	pop	r0
     984:	0f be       	out	0x3f, r0	; 63
     986:	0f 90       	pop	r0
     988:	1f 90       	pop	r1
     98a:	18 95       	reti

0000098c <__vector_74>:
 *
 * Calls the callback function that has been set for the ADC when the channel's
 * interrupt flag is set, if its interrupt has been enabled.
 */
ISR(ADCA_CH3_vect)
{
     98c:	1f 92       	push	r1
     98e:	0f 92       	push	r0
     990:	0f b6       	in	r0, 0x3f	; 63
     992:	0f 92       	push	r0
     994:	11 24       	eor	r1, r1
     996:	08 b6       	in	r0, 0x38	; 56
     998:	0f 92       	push	r0
     99a:	18 be       	out	0x38, r1	; 56
     99c:	09 b6       	in	r0, 0x39	; 57
     99e:	0f 92       	push	r0
     9a0:	19 be       	out	0x39, r1	; 57
     9a2:	0b b6       	in	r0, 0x3b	; 59
     9a4:	0f 92       	push	r0
     9a6:	1b be       	out	0x3b, r1	; 59
     9a8:	2f 93       	push	r18
     9aa:	3f 93       	push	r19
     9ac:	4f 93       	push	r20
     9ae:	5f 93       	push	r21
     9b0:	6f 93       	push	r22
     9b2:	7f 93       	push	r23
     9b4:	8f 93       	push	r24
     9b6:	9f 93       	push	r25
     9b8:	af 93       	push	r26
     9ba:	bf 93       	push	r27
     9bc:	ef 93       	push	r30
     9be:	ff 93       	push	r31
	adca_callback(&ADCA, ADC_CH3, adc_get_result(&ADCA, ADC_CH3));
     9c0:	40 91 3c 02 	lds	r20, 0x023C	; 0x80023c <__TEXT_REGION_LENGTH__+0x70023c>
     9c4:	50 91 3d 02 	lds	r21, 0x023D	; 0x80023d <__TEXT_REGION_LENGTH__+0x70023d>
     9c8:	e0 91 89 21 	lds	r30, 0x2189	; 0x802189 <adca_callback>
     9cc:	f0 91 8a 21 	lds	r31, 0x218A	; 0x80218a <adca_callback+0x1>
     9d0:	68 e0       	ldi	r22, 0x08	; 8
     9d2:	80 e0       	ldi	r24, 0x00	; 0
     9d4:	92 e0       	ldi	r25, 0x02	; 2
     9d6:	19 95       	eicall
}
     9d8:	ff 91       	pop	r31
     9da:	ef 91       	pop	r30
     9dc:	bf 91       	pop	r27
     9de:	af 91       	pop	r26
     9e0:	9f 91       	pop	r25
     9e2:	8f 91       	pop	r24
     9e4:	7f 91       	pop	r23
     9e6:	6f 91       	pop	r22
     9e8:	5f 91       	pop	r21
     9ea:	4f 91       	pop	r20
     9ec:	3f 91       	pop	r19
     9ee:	2f 91       	pop	r18
     9f0:	0f 90       	pop	r0
     9f2:	0b be       	out	0x3b, r0	; 59
     9f4:	0f 90       	pop	r0
     9f6:	09 be       	out	0x39, r0	; 57
     9f8:	0f 90       	pop	r0
     9fa:	08 be       	out	0x38, r0	; 56
     9fc:	0f 90       	pop	r0
     9fe:	0f be       	out	0x3f, r0	; 63
     a00:	0f 90       	pop	r0
     a02:	1f 90       	pop	r1
     a04:	18 95       	reti

00000a06 <__vector_39>:
 *
 * Calls the callback function that has been set for the ADC when the channel's
 * interrupt flag is set, if its interrupt has been enabled.
 */
ISR(ADCB_CH0_vect)
{
     a06:	1f 92       	push	r1
     a08:	0f 92       	push	r0
     a0a:	0f b6       	in	r0, 0x3f	; 63
     a0c:	0f 92       	push	r0
     a0e:	11 24       	eor	r1, r1
     a10:	08 b6       	in	r0, 0x38	; 56
     a12:	0f 92       	push	r0
     a14:	18 be       	out	0x38, r1	; 56
     a16:	09 b6       	in	r0, 0x39	; 57
     a18:	0f 92       	push	r0
     a1a:	19 be       	out	0x39, r1	; 57
     a1c:	0b b6       	in	r0, 0x3b	; 59
     a1e:	0f 92       	push	r0
     a20:	1b be       	out	0x3b, r1	; 59
     a22:	2f 93       	push	r18
     a24:	3f 93       	push	r19
     a26:	4f 93       	push	r20
     a28:	5f 93       	push	r21
     a2a:	6f 93       	push	r22
     a2c:	7f 93       	push	r23
     a2e:	8f 93       	push	r24
     a30:	9f 93       	push	r25
     a32:	af 93       	push	r26
     a34:	bf 93       	push	r27
     a36:	ef 93       	push	r30
     a38:	ff 93       	push	r31
	adcb_callback(&ADCB, ADC_CH0, adc_get_result(&ADCB, ADC_CH0));
     a3a:	40 91 64 02 	lds	r20, 0x0264	; 0x800264 <__TEXT_REGION_LENGTH__+0x700264>
     a3e:	50 91 65 02 	lds	r21, 0x0265	; 0x800265 <__TEXT_REGION_LENGTH__+0x700265>
     a42:	e0 91 87 21 	lds	r30, 0x2187	; 0x802187 <adcb_callback>
     a46:	f0 91 88 21 	lds	r31, 0x2188	; 0x802188 <adcb_callback+0x1>
     a4a:	61 e0       	ldi	r22, 0x01	; 1
     a4c:	80 e4       	ldi	r24, 0x40	; 64
     a4e:	92 e0       	ldi	r25, 0x02	; 2
     a50:	19 95       	eicall
}
     a52:	ff 91       	pop	r31
     a54:	ef 91       	pop	r30
     a56:	bf 91       	pop	r27
     a58:	af 91       	pop	r26
     a5a:	9f 91       	pop	r25
     a5c:	8f 91       	pop	r24
     a5e:	7f 91       	pop	r23
     a60:	6f 91       	pop	r22
     a62:	5f 91       	pop	r21
     a64:	4f 91       	pop	r20
     a66:	3f 91       	pop	r19
     a68:	2f 91       	pop	r18
     a6a:	0f 90       	pop	r0
     a6c:	0b be       	out	0x3b, r0	; 59
     a6e:	0f 90       	pop	r0
     a70:	09 be       	out	0x39, r0	; 57
     a72:	0f 90       	pop	r0
     a74:	08 be       	out	0x38, r0	; 56
     a76:	0f 90       	pop	r0
     a78:	0f be       	out	0x3f, r0	; 63
     a7a:	0f 90       	pop	r0
     a7c:	1f 90       	pop	r1
     a7e:	18 95       	reti

00000a80 <__vector_40>:
 *
 * Calls the callback function that has been set for the ADC when the channel's
 * interrupt flag is set, if its interrupt has been enabled.
 */
ISR(ADCB_CH1_vect)
{
     a80:	1f 92       	push	r1
     a82:	0f 92       	push	r0
     a84:	0f b6       	in	r0, 0x3f	; 63
     a86:	0f 92       	push	r0
     a88:	11 24       	eor	r1, r1
     a8a:	08 b6       	in	r0, 0x38	; 56
     a8c:	0f 92       	push	r0
     a8e:	18 be       	out	0x38, r1	; 56
     a90:	09 b6       	in	r0, 0x39	; 57
     a92:	0f 92       	push	r0
     a94:	19 be       	out	0x39, r1	; 57
     a96:	0b b6       	in	r0, 0x3b	; 59
     a98:	0f 92       	push	r0
     a9a:	1b be       	out	0x3b, r1	; 59
     a9c:	2f 93       	push	r18
     a9e:	3f 93       	push	r19
     aa0:	4f 93       	push	r20
     aa2:	5f 93       	push	r21
     aa4:	6f 93       	push	r22
     aa6:	7f 93       	push	r23
     aa8:	8f 93       	push	r24
     aaa:	9f 93       	push	r25
     aac:	af 93       	push	r26
     aae:	bf 93       	push	r27
     ab0:	ef 93       	push	r30
     ab2:	ff 93       	push	r31
	adcb_callback(&ADCB, ADC_CH1, adc_get_result(&ADCB, ADC_CH1));
     ab4:	40 91 6c 02 	lds	r20, 0x026C	; 0x80026c <__TEXT_REGION_LENGTH__+0x70026c>
     ab8:	50 91 6d 02 	lds	r21, 0x026D	; 0x80026d <__TEXT_REGION_LENGTH__+0x70026d>
     abc:	e0 91 87 21 	lds	r30, 0x2187	; 0x802187 <adcb_callback>
     ac0:	f0 91 88 21 	lds	r31, 0x2188	; 0x802188 <adcb_callback+0x1>
     ac4:	62 e0       	ldi	r22, 0x02	; 2
     ac6:	80 e4       	ldi	r24, 0x40	; 64
     ac8:	92 e0       	ldi	r25, 0x02	; 2
     aca:	19 95       	eicall
}
     acc:	ff 91       	pop	r31
     ace:	ef 91       	pop	r30
     ad0:	bf 91       	pop	r27
     ad2:	af 91       	pop	r26
     ad4:	9f 91       	pop	r25
     ad6:	8f 91       	pop	r24
     ad8:	7f 91       	pop	r23
     ada:	6f 91       	pop	r22
     adc:	5f 91       	pop	r21
     ade:	4f 91       	pop	r20
     ae0:	3f 91       	pop	r19
     ae2:	2f 91       	pop	r18
     ae4:	0f 90       	pop	r0
     ae6:	0b be       	out	0x3b, r0	; 59
     ae8:	0f 90       	pop	r0
     aea:	09 be       	out	0x39, r0	; 57
     aec:	0f 90       	pop	r0
     aee:	08 be       	out	0x38, r0	; 56
     af0:	0f 90       	pop	r0
     af2:	0f be       	out	0x3f, r0	; 63
     af4:	0f 90       	pop	r0
     af6:	1f 90       	pop	r1
     af8:	18 95       	reti

00000afa <__vector_41>:
 *
 * Calls the callback function that has been set for the ADC when the channel's
 * interrupt flag is set, if its interrupt has been enabled.
 */
ISR(ADCB_CH2_vect)
{
     afa:	1f 92       	push	r1
     afc:	0f 92       	push	r0
     afe:	0f b6       	in	r0, 0x3f	; 63
     b00:	0f 92       	push	r0
     b02:	11 24       	eor	r1, r1
     b04:	08 b6       	in	r0, 0x38	; 56
     b06:	0f 92       	push	r0
     b08:	18 be       	out	0x38, r1	; 56
     b0a:	09 b6       	in	r0, 0x39	; 57
     b0c:	0f 92       	push	r0
     b0e:	19 be       	out	0x39, r1	; 57
     b10:	0b b6       	in	r0, 0x3b	; 59
     b12:	0f 92       	push	r0
     b14:	1b be       	out	0x3b, r1	; 59
     b16:	2f 93       	push	r18
     b18:	3f 93       	push	r19
     b1a:	4f 93       	push	r20
     b1c:	5f 93       	push	r21
     b1e:	6f 93       	push	r22
     b20:	7f 93       	push	r23
     b22:	8f 93       	push	r24
     b24:	9f 93       	push	r25
     b26:	af 93       	push	r26
     b28:	bf 93       	push	r27
     b2a:	ef 93       	push	r30
     b2c:	ff 93       	push	r31
	adcb_callback(&ADCB, ADC_CH2, adc_get_result(&ADCB, ADC_CH2));
     b2e:	40 91 74 02 	lds	r20, 0x0274	; 0x800274 <__TEXT_REGION_LENGTH__+0x700274>
     b32:	50 91 75 02 	lds	r21, 0x0275	; 0x800275 <__TEXT_REGION_LENGTH__+0x700275>
     b36:	e0 91 87 21 	lds	r30, 0x2187	; 0x802187 <adcb_callback>
     b3a:	f0 91 88 21 	lds	r31, 0x2188	; 0x802188 <adcb_callback+0x1>
     b3e:	64 e0       	ldi	r22, 0x04	; 4
     b40:	80 e4       	ldi	r24, 0x40	; 64
     b42:	92 e0       	ldi	r25, 0x02	; 2
     b44:	19 95       	eicall
}
     b46:	ff 91       	pop	r31
     b48:	ef 91       	pop	r30
     b4a:	bf 91       	pop	r27
     b4c:	af 91       	pop	r26
     b4e:	9f 91       	pop	r25
     b50:	8f 91       	pop	r24
     b52:	7f 91       	pop	r23
     b54:	6f 91       	pop	r22
     b56:	5f 91       	pop	r21
     b58:	4f 91       	pop	r20
     b5a:	3f 91       	pop	r19
     b5c:	2f 91       	pop	r18
     b5e:	0f 90       	pop	r0
     b60:	0b be       	out	0x3b, r0	; 59
     b62:	0f 90       	pop	r0
     b64:	09 be       	out	0x39, r0	; 57
     b66:	0f 90       	pop	r0
     b68:	08 be       	out	0x38, r0	; 56
     b6a:	0f 90       	pop	r0
     b6c:	0f be       	out	0x3f, r0	; 63
     b6e:	0f 90       	pop	r0
     b70:	1f 90       	pop	r1
     b72:	18 95       	reti

00000b74 <__vector_42>:
 *
 * Calls the callback function that has been set for the ADC when the channel's
 * interrupt flag is set, if its interrupt has been enabled.
 */
ISR(ADCB_CH3_vect)
{
     b74:	1f 92       	push	r1
     b76:	0f 92       	push	r0
     b78:	0f b6       	in	r0, 0x3f	; 63
     b7a:	0f 92       	push	r0
     b7c:	11 24       	eor	r1, r1
     b7e:	08 b6       	in	r0, 0x38	; 56
     b80:	0f 92       	push	r0
     b82:	18 be       	out	0x38, r1	; 56
     b84:	09 b6       	in	r0, 0x39	; 57
     b86:	0f 92       	push	r0
     b88:	19 be       	out	0x39, r1	; 57
     b8a:	0b b6       	in	r0, 0x3b	; 59
     b8c:	0f 92       	push	r0
     b8e:	1b be       	out	0x3b, r1	; 59
     b90:	2f 93       	push	r18
     b92:	3f 93       	push	r19
     b94:	4f 93       	push	r20
     b96:	5f 93       	push	r21
     b98:	6f 93       	push	r22
     b9a:	7f 93       	push	r23
     b9c:	8f 93       	push	r24
     b9e:	9f 93       	push	r25
     ba0:	af 93       	push	r26
     ba2:	bf 93       	push	r27
     ba4:	ef 93       	push	r30
     ba6:	ff 93       	push	r31
	adcb_callback(&ADCB, ADC_CH3, adc_get_result(&ADCB, ADC_CH3));
     ba8:	40 91 7c 02 	lds	r20, 0x027C	; 0x80027c <__TEXT_REGION_LENGTH__+0x70027c>
     bac:	50 91 7d 02 	lds	r21, 0x027D	; 0x80027d <__TEXT_REGION_LENGTH__+0x70027d>
     bb0:	e0 91 87 21 	lds	r30, 0x2187	; 0x802187 <adcb_callback>
     bb4:	f0 91 88 21 	lds	r31, 0x2188	; 0x802188 <adcb_callback+0x1>
     bb8:	68 e0       	ldi	r22, 0x08	; 8
     bba:	80 e4       	ldi	r24, 0x40	; 64
     bbc:	92 e0       	ldi	r25, 0x02	; 2
     bbe:	19 95       	eicall
}
     bc0:	ff 91       	pop	r31
     bc2:	ef 91       	pop	r30
     bc4:	bf 91       	pop	r27
     bc6:	af 91       	pop	r26
     bc8:	9f 91       	pop	r25
     bca:	8f 91       	pop	r24
     bcc:	7f 91       	pop	r23
     bce:	6f 91       	pop	r22
     bd0:	5f 91       	pop	r21
     bd2:	4f 91       	pop	r20
     bd4:	3f 91       	pop	r19
     bd6:	2f 91       	pop	r18
     bd8:	0f 90       	pop	r0
     bda:	0b be       	out	0x3b, r0	; 59
     bdc:	0f 90       	pop	r0
     bde:	09 be       	out	0x39, r0	; 57
     be0:	0f 90       	pop	r0
     be2:	08 be       	out	0x38, r0	; 56
     be4:	0f 90       	pop	r0
     be6:	0f be       	out	0x3f, r0	; 63
     be8:	0f 90       	pop	r0
     bea:	1f 90       	pop	r1
     bec:	18 95       	reti

00000bee <ccp_write_io>:

	PUBLIC_FUNCTION(ccp_write_io)

#if defined(__GNUC__)

	out     RAMPZ, r1               // Reset bits 23:16 of Z
     bee:	1b be       	out	0x3b, r1	; 59
	movw    r30, r24                // Load addr into Z
     bf0:	fc 01       	movw	r30, r24
	ldi     r18, CCP_IOREG          // Load magic CCP value
     bf2:	28 ed       	ldi	r18, 0xD8	; 216
	out     CCP, r18                // Start CCP handshake
     bf4:	24 bf       	out	0x34, r18	; 52
	st      Z, r22                  // Write value to I/O register
     bf6:	60 83       	st	Z, r22
	ret                             // Return to caller
     bf8:	08 95       	ret

00000bfa <nvm_read_byte>:
#endif

#ifndef __DOXYGEN__
	PUBLIC_FUNCTION(nvm_read_byte)
#if defined(__GNUC__)
	lds r20, NVM_CMD          ; Store NVM command register
     bfa:	40 91 ca 01 	lds	r20, 0x01CA	; 0x8001ca <__TEXT_REGION_LENGTH__+0x7001ca>
	mov ZL, r22               ; Load byte index into low byte of Z.
     bfe:	e6 2f       	mov	r30, r22
	mov ZH, r23               ; Load high byte into Z.
     c00:	f7 2f       	mov	r31, r23
	sts NVM_CMD, r24          ; Load prepared command into NVM Command register.
     c02:	80 93 ca 01 	sts	0x01CA, r24	; 0x8001ca <__TEXT_REGION_LENGTH__+0x7001ca>
	lpm r24, Z                ; Perform an LPM to read out byte
     c06:	84 91       	lpm	r24, Z
	sts NVM_CMD, r20          ; Restore NVM command register
     c08:	40 93 ca 01 	sts	0x01CA, r20	; 0x8001ca <__TEXT_REGION_LENGTH__+0x7001ca>
	sts NVM_CMD, r16          ; Load prepared command into NVM Command register.
	lpm r16, Z                ; Perform an LPM to read out byte
	sts NVM_CMD, r20          ; Restore NVM command register
#endif

	ret
     c0c:	08 95       	ret

00000c0e <__vector_14>:
 *
 * This function will handle interrupt on Timer Counter CO overflow and
 * call the callback function.
 */
ISR(TCC0_OVF_vect)
{
     c0e:	1f 92       	push	r1
     c10:	0f 92       	push	r0
     c12:	0f b6       	in	r0, 0x3f	; 63
     c14:	0f 92       	push	r0
     c16:	11 24       	eor	r1, r1
     c18:	08 b6       	in	r0, 0x38	; 56
     c1a:	0f 92       	push	r0
     c1c:	18 be       	out	0x38, r1	; 56
     c1e:	09 b6       	in	r0, 0x39	; 57
     c20:	0f 92       	push	r0
     c22:	19 be       	out	0x39, r1	; 57
     c24:	0b b6       	in	r0, 0x3b	; 59
     c26:	0f 92       	push	r0
     c28:	1b be       	out	0x3b, r1	; 59
     c2a:	2f 93       	push	r18
     c2c:	3f 93       	push	r19
     c2e:	4f 93       	push	r20
     c30:	5f 93       	push	r21
     c32:	6f 93       	push	r22
     c34:	7f 93       	push	r23
     c36:	8f 93       	push	r24
     c38:	9f 93       	push	r25
     c3a:	af 93       	push	r26
     c3c:	bf 93       	push	r27
     c3e:	ef 93       	push	r30
     c40:	ff 93       	push	r31
	if (tc_tcc0_ovf_callback) {
     c42:	e0 91 7f 21 	lds	r30, 0x217F	; 0x80217f <tc_tcc0_ovf_callback>
     c46:	f0 91 80 21 	lds	r31, 0x2180	; 0x802180 <tc_tcc0_ovf_callback+0x1>
     c4a:	30 97       	sbiw	r30, 0x00	; 0
     c4c:	09 f0       	breq	.+2      	; 0xc50 <__vector_14+0x42>
		tc_tcc0_ovf_callback();
     c4e:	19 95       	eicall
	}
}
     c50:	ff 91       	pop	r31
     c52:	ef 91       	pop	r30
     c54:	bf 91       	pop	r27
     c56:	af 91       	pop	r26
     c58:	9f 91       	pop	r25
     c5a:	8f 91       	pop	r24
     c5c:	7f 91       	pop	r23
     c5e:	6f 91       	pop	r22
     c60:	5f 91       	pop	r21
     c62:	4f 91       	pop	r20
     c64:	3f 91       	pop	r19
     c66:	2f 91       	pop	r18
     c68:	0f 90       	pop	r0
     c6a:	0b be       	out	0x3b, r0	; 59
     c6c:	0f 90       	pop	r0
     c6e:	09 be       	out	0x39, r0	; 57
     c70:	0f 90       	pop	r0
     c72:	08 be       	out	0x38, r0	; 56
     c74:	0f 90       	pop	r0
     c76:	0f be       	out	0x3f, r0	; 63
     c78:	0f 90       	pop	r0
     c7a:	1f 90       	pop	r1
     c7c:	18 95       	reti

00000c7e <__vector_15>:
 *
 * This function will handle interrupt on Timer Counter CO error and
 * call the callback function.
 */
ISR(TCC0_ERR_vect)
{
     c7e:	1f 92       	push	r1
     c80:	0f 92       	push	r0
     c82:	0f b6       	in	r0, 0x3f	; 63
     c84:	0f 92       	push	r0
     c86:	11 24       	eor	r1, r1
     c88:	08 b6       	in	r0, 0x38	; 56
     c8a:	0f 92       	push	r0
     c8c:	18 be       	out	0x38, r1	; 56
     c8e:	09 b6       	in	r0, 0x39	; 57
     c90:	0f 92       	push	r0
     c92:	19 be       	out	0x39, r1	; 57
     c94:	0b b6       	in	r0, 0x3b	; 59
     c96:	0f 92       	push	r0
     c98:	1b be       	out	0x3b, r1	; 59
     c9a:	2f 93       	push	r18
     c9c:	3f 93       	push	r19
     c9e:	4f 93       	push	r20
     ca0:	5f 93       	push	r21
     ca2:	6f 93       	push	r22
     ca4:	7f 93       	push	r23
     ca6:	8f 93       	push	r24
     ca8:	9f 93       	push	r25
     caa:	af 93       	push	r26
     cac:	bf 93       	push	r27
     cae:	ef 93       	push	r30
     cb0:	ff 93       	push	r31
	if (tc_tcc0_err_callback) {
     cb2:	e0 91 7d 21 	lds	r30, 0x217D	; 0x80217d <tc_tcc0_err_callback>
     cb6:	f0 91 7e 21 	lds	r31, 0x217E	; 0x80217e <tc_tcc0_err_callback+0x1>
     cba:	30 97       	sbiw	r30, 0x00	; 0
     cbc:	09 f0       	breq	.+2      	; 0xcc0 <__vector_15+0x42>
		tc_tcc0_err_callback();
     cbe:	19 95       	eicall
	}
}
     cc0:	ff 91       	pop	r31
     cc2:	ef 91       	pop	r30
     cc4:	bf 91       	pop	r27
     cc6:	af 91       	pop	r26
     cc8:	9f 91       	pop	r25
     cca:	8f 91       	pop	r24
     ccc:	7f 91       	pop	r23
     cce:	6f 91       	pop	r22
     cd0:	5f 91       	pop	r21
     cd2:	4f 91       	pop	r20
     cd4:	3f 91       	pop	r19
     cd6:	2f 91       	pop	r18
     cd8:	0f 90       	pop	r0
     cda:	0b be       	out	0x3b, r0	; 59
     cdc:	0f 90       	pop	r0
     cde:	09 be       	out	0x39, r0	; 57
     ce0:	0f 90       	pop	r0
     ce2:	08 be       	out	0x38, r0	; 56
     ce4:	0f 90       	pop	r0
     ce6:	0f be       	out	0x3f, r0	; 63
     ce8:	0f 90       	pop	r0
     cea:	1f 90       	pop	r1
     cec:	18 95       	reti

00000cee <__vector_16>:
 *
 * This function will handle interrupt on Timer Counter CO Compare/CaptureA and
 * call the callback function.
 */
ISR(TCC0_CCA_vect)
{
     cee:	1f 92       	push	r1
     cf0:	0f 92       	push	r0
     cf2:	0f b6       	in	r0, 0x3f	; 63
     cf4:	0f 92       	push	r0
     cf6:	11 24       	eor	r1, r1
     cf8:	08 b6       	in	r0, 0x38	; 56
     cfa:	0f 92       	push	r0
     cfc:	18 be       	out	0x38, r1	; 56
     cfe:	09 b6       	in	r0, 0x39	; 57
     d00:	0f 92       	push	r0
     d02:	19 be       	out	0x39, r1	; 57
     d04:	0b b6       	in	r0, 0x3b	; 59
     d06:	0f 92       	push	r0
     d08:	1b be       	out	0x3b, r1	; 59
     d0a:	2f 93       	push	r18
     d0c:	3f 93       	push	r19
     d0e:	4f 93       	push	r20
     d10:	5f 93       	push	r21
     d12:	6f 93       	push	r22
     d14:	7f 93       	push	r23
     d16:	8f 93       	push	r24
     d18:	9f 93       	push	r25
     d1a:	af 93       	push	r26
     d1c:	bf 93       	push	r27
     d1e:	ef 93       	push	r30
     d20:	ff 93       	push	r31
	if (tc_tcc0_cca_callback) {
     d22:	e0 91 7b 21 	lds	r30, 0x217B	; 0x80217b <tc_tcc0_cca_callback>
     d26:	f0 91 7c 21 	lds	r31, 0x217C	; 0x80217c <tc_tcc0_cca_callback+0x1>
     d2a:	30 97       	sbiw	r30, 0x00	; 0
     d2c:	09 f0       	breq	.+2      	; 0xd30 <__vector_16+0x42>
		tc_tcc0_cca_callback();
     d2e:	19 95       	eicall
	}
}
     d30:	ff 91       	pop	r31
     d32:	ef 91       	pop	r30
     d34:	bf 91       	pop	r27
     d36:	af 91       	pop	r26
     d38:	9f 91       	pop	r25
     d3a:	8f 91       	pop	r24
     d3c:	7f 91       	pop	r23
     d3e:	6f 91       	pop	r22
     d40:	5f 91       	pop	r21
     d42:	4f 91       	pop	r20
     d44:	3f 91       	pop	r19
     d46:	2f 91       	pop	r18
     d48:	0f 90       	pop	r0
     d4a:	0b be       	out	0x3b, r0	; 59
     d4c:	0f 90       	pop	r0
     d4e:	09 be       	out	0x39, r0	; 57
     d50:	0f 90       	pop	r0
     d52:	08 be       	out	0x38, r0	; 56
     d54:	0f 90       	pop	r0
     d56:	0f be       	out	0x3f, r0	; 63
     d58:	0f 90       	pop	r0
     d5a:	1f 90       	pop	r1
     d5c:	18 95       	reti

00000d5e <__vector_17>:
 *
 * This function will handle interrupt on Timer Counter CO Compare/CaptureB and
 * call the callback function.
 */
ISR(TCC0_CCB_vect)
{
     d5e:	1f 92       	push	r1
     d60:	0f 92       	push	r0
     d62:	0f b6       	in	r0, 0x3f	; 63
     d64:	0f 92       	push	r0
     d66:	11 24       	eor	r1, r1
     d68:	08 b6       	in	r0, 0x38	; 56
     d6a:	0f 92       	push	r0
     d6c:	18 be       	out	0x38, r1	; 56
     d6e:	09 b6       	in	r0, 0x39	; 57
     d70:	0f 92       	push	r0
     d72:	19 be       	out	0x39, r1	; 57
     d74:	0b b6       	in	r0, 0x3b	; 59
     d76:	0f 92       	push	r0
     d78:	1b be       	out	0x3b, r1	; 59
     d7a:	2f 93       	push	r18
     d7c:	3f 93       	push	r19
     d7e:	4f 93       	push	r20
     d80:	5f 93       	push	r21
     d82:	6f 93       	push	r22
     d84:	7f 93       	push	r23
     d86:	8f 93       	push	r24
     d88:	9f 93       	push	r25
     d8a:	af 93       	push	r26
     d8c:	bf 93       	push	r27
     d8e:	ef 93       	push	r30
     d90:	ff 93       	push	r31
	if (tc_tcc0_ccb_callback) {
     d92:	e0 91 79 21 	lds	r30, 0x2179	; 0x802179 <tc_tcc0_ccb_callback>
     d96:	f0 91 7a 21 	lds	r31, 0x217A	; 0x80217a <tc_tcc0_ccb_callback+0x1>
     d9a:	30 97       	sbiw	r30, 0x00	; 0
     d9c:	09 f0       	breq	.+2      	; 0xda0 <__vector_17+0x42>
		tc_tcc0_ccb_callback();
     d9e:	19 95       	eicall
	}
}
     da0:	ff 91       	pop	r31
     da2:	ef 91       	pop	r30
     da4:	bf 91       	pop	r27
     da6:	af 91       	pop	r26
     da8:	9f 91       	pop	r25
     daa:	8f 91       	pop	r24
     dac:	7f 91       	pop	r23
     dae:	6f 91       	pop	r22
     db0:	5f 91       	pop	r21
     db2:	4f 91       	pop	r20
     db4:	3f 91       	pop	r19
     db6:	2f 91       	pop	r18
     db8:	0f 90       	pop	r0
     dba:	0b be       	out	0x3b, r0	; 59
     dbc:	0f 90       	pop	r0
     dbe:	09 be       	out	0x39, r0	; 57
     dc0:	0f 90       	pop	r0
     dc2:	08 be       	out	0x38, r0	; 56
     dc4:	0f 90       	pop	r0
     dc6:	0f be       	out	0x3f, r0	; 63
     dc8:	0f 90       	pop	r0
     dca:	1f 90       	pop	r1
     dcc:	18 95       	reti

00000dce <__vector_18>:
 *
 * This function will handle interrupt on Timer Counter CO Compare/CaptureC and
 * call the callback function.
 */
ISR(TCC0_CCC_vect)
{
     dce:	1f 92       	push	r1
     dd0:	0f 92       	push	r0
     dd2:	0f b6       	in	r0, 0x3f	; 63
     dd4:	0f 92       	push	r0
     dd6:	11 24       	eor	r1, r1
     dd8:	08 b6       	in	r0, 0x38	; 56
     dda:	0f 92       	push	r0
     ddc:	18 be       	out	0x38, r1	; 56
     dde:	09 b6       	in	r0, 0x39	; 57
     de0:	0f 92       	push	r0
     de2:	19 be       	out	0x39, r1	; 57
     de4:	0b b6       	in	r0, 0x3b	; 59
     de6:	0f 92       	push	r0
     de8:	1b be       	out	0x3b, r1	; 59
     dea:	2f 93       	push	r18
     dec:	3f 93       	push	r19
     dee:	4f 93       	push	r20
     df0:	5f 93       	push	r21
     df2:	6f 93       	push	r22
     df4:	7f 93       	push	r23
     df6:	8f 93       	push	r24
     df8:	9f 93       	push	r25
     dfa:	af 93       	push	r26
     dfc:	bf 93       	push	r27
     dfe:	ef 93       	push	r30
     e00:	ff 93       	push	r31
	if (tc_tcc0_ccc_callback) {
     e02:	e0 91 77 21 	lds	r30, 0x2177	; 0x802177 <tc_tcc0_ccc_callback>
     e06:	f0 91 78 21 	lds	r31, 0x2178	; 0x802178 <tc_tcc0_ccc_callback+0x1>
     e0a:	30 97       	sbiw	r30, 0x00	; 0
     e0c:	09 f0       	breq	.+2      	; 0xe10 <__vector_18+0x42>
		tc_tcc0_ccc_callback();
     e0e:	19 95       	eicall
	}
}
     e10:	ff 91       	pop	r31
     e12:	ef 91       	pop	r30
     e14:	bf 91       	pop	r27
     e16:	af 91       	pop	r26
     e18:	9f 91       	pop	r25
     e1a:	8f 91       	pop	r24
     e1c:	7f 91       	pop	r23
     e1e:	6f 91       	pop	r22
     e20:	5f 91       	pop	r21
     e22:	4f 91       	pop	r20
     e24:	3f 91       	pop	r19
     e26:	2f 91       	pop	r18
     e28:	0f 90       	pop	r0
     e2a:	0b be       	out	0x3b, r0	; 59
     e2c:	0f 90       	pop	r0
     e2e:	09 be       	out	0x39, r0	; 57
     e30:	0f 90       	pop	r0
     e32:	08 be       	out	0x38, r0	; 56
     e34:	0f 90       	pop	r0
     e36:	0f be       	out	0x3f, r0	; 63
     e38:	0f 90       	pop	r0
     e3a:	1f 90       	pop	r1
     e3c:	18 95       	reti

00000e3e <__vector_19>:
 *
 * This function will handle interrupt on Timer Counter CO Compare/CaptureD and
 * call the callback function.
 */
ISR(TCC0_CCD_vect)
{
     e3e:	1f 92       	push	r1
     e40:	0f 92       	push	r0
     e42:	0f b6       	in	r0, 0x3f	; 63
     e44:	0f 92       	push	r0
     e46:	11 24       	eor	r1, r1
     e48:	08 b6       	in	r0, 0x38	; 56
     e4a:	0f 92       	push	r0
     e4c:	18 be       	out	0x38, r1	; 56
     e4e:	09 b6       	in	r0, 0x39	; 57
     e50:	0f 92       	push	r0
     e52:	19 be       	out	0x39, r1	; 57
     e54:	0b b6       	in	r0, 0x3b	; 59
     e56:	0f 92       	push	r0
     e58:	1b be       	out	0x3b, r1	; 59
     e5a:	2f 93       	push	r18
     e5c:	3f 93       	push	r19
     e5e:	4f 93       	push	r20
     e60:	5f 93       	push	r21
     e62:	6f 93       	push	r22
     e64:	7f 93       	push	r23
     e66:	8f 93       	push	r24
     e68:	9f 93       	push	r25
     e6a:	af 93       	push	r26
     e6c:	bf 93       	push	r27
     e6e:	ef 93       	push	r30
     e70:	ff 93       	push	r31
	if (tc_tcc0_ccd_callback) {
     e72:	e0 91 75 21 	lds	r30, 0x2175	; 0x802175 <tc_tcc0_ccd_callback>
     e76:	f0 91 76 21 	lds	r31, 0x2176	; 0x802176 <tc_tcc0_ccd_callback+0x1>
     e7a:	30 97       	sbiw	r30, 0x00	; 0
     e7c:	09 f0       	breq	.+2      	; 0xe80 <__vector_19+0x42>
		tc_tcc0_ccd_callback();
     e7e:	19 95       	eicall
	}
}
     e80:	ff 91       	pop	r31
     e82:	ef 91       	pop	r30
     e84:	bf 91       	pop	r27
     e86:	af 91       	pop	r26
     e88:	9f 91       	pop	r25
     e8a:	8f 91       	pop	r24
     e8c:	7f 91       	pop	r23
     e8e:	6f 91       	pop	r22
     e90:	5f 91       	pop	r21
     e92:	4f 91       	pop	r20
     e94:	3f 91       	pop	r19
     e96:	2f 91       	pop	r18
     e98:	0f 90       	pop	r0
     e9a:	0b be       	out	0x3b, r0	; 59
     e9c:	0f 90       	pop	r0
     e9e:	09 be       	out	0x39, r0	; 57
     ea0:	0f 90       	pop	r0
     ea2:	08 be       	out	0x38, r0	; 56
     ea4:	0f 90       	pop	r0
     ea6:	0f be       	out	0x3f, r0	; 63
     ea8:	0f 90       	pop	r0
     eaa:	1f 90       	pop	r1
     eac:	18 95       	reti

00000eae <__vector_20>:
 *
 * This function will handle interrupt on Timer Counter C1 overflow and
 * call the callback function.
 */
ISR(TCC1_OVF_vect)
{
     eae:	1f 92       	push	r1
     eb0:	0f 92       	push	r0
     eb2:	0f b6       	in	r0, 0x3f	; 63
     eb4:	0f 92       	push	r0
     eb6:	11 24       	eor	r1, r1
     eb8:	08 b6       	in	r0, 0x38	; 56
     eba:	0f 92       	push	r0
     ebc:	18 be       	out	0x38, r1	; 56
     ebe:	09 b6       	in	r0, 0x39	; 57
     ec0:	0f 92       	push	r0
     ec2:	19 be       	out	0x39, r1	; 57
     ec4:	0b b6       	in	r0, 0x3b	; 59
     ec6:	0f 92       	push	r0
     ec8:	1b be       	out	0x3b, r1	; 59
     eca:	2f 93       	push	r18
     ecc:	3f 93       	push	r19
     ece:	4f 93       	push	r20
     ed0:	5f 93       	push	r21
     ed2:	6f 93       	push	r22
     ed4:	7f 93       	push	r23
     ed6:	8f 93       	push	r24
     ed8:	9f 93       	push	r25
     eda:	af 93       	push	r26
     edc:	bf 93       	push	r27
     ede:	ef 93       	push	r30
     ee0:	ff 93       	push	r31
	if (tc_tcc1_ovf_callback) {
     ee2:	e0 91 73 21 	lds	r30, 0x2173	; 0x802173 <tc_tcc1_ovf_callback>
     ee6:	f0 91 74 21 	lds	r31, 0x2174	; 0x802174 <tc_tcc1_ovf_callback+0x1>
     eea:	30 97       	sbiw	r30, 0x00	; 0
     eec:	09 f0       	breq	.+2      	; 0xef0 <__vector_20+0x42>
		tc_tcc1_ovf_callback();
     eee:	19 95       	eicall
	}
}
     ef0:	ff 91       	pop	r31
     ef2:	ef 91       	pop	r30
     ef4:	bf 91       	pop	r27
     ef6:	af 91       	pop	r26
     ef8:	9f 91       	pop	r25
     efa:	8f 91       	pop	r24
     efc:	7f 91       	pop	r23
     efe:	6f 91       	pop	r22
     f00:	5f 91       	pop	r21
     f02:	4f 91       	pop	r20
     f04:	3f 91       	pop	r19
     f06:	2f 91       	pop	r18
     f08:	0f 90       	pop	r0
     f0a:	0b be       	out	0x3b, r0	; 59
     f0c:	0f 90       	pop	r0
     f0e:	09 be       	out	0x39, r0	; 57
     f10:	0f 90       	pop	r0
     f12:	08 be       	out	0x38, r0	; 56
     f14:	0f 90       	pop	r0
     f16:	0f be       	out	0x3f, r0	; 63
     f18:	0f 90       	pop	r0
     f1a:	1f 90       	pop	r1
     f1c:	18 95       	reti

00000f1e <__vector_21>:
 *
 * This function will handle interrupt on Timer Counter C1 error and
 * call the callback function.
 */
ISR(TCC1_ERR_vect)
{
     f1e:	1f 92       	push	r1
     f20:	0f 92       	push	r0
     f22:	0f b6       	in	r0, 0x3f	; 63
     f24:	0f 92       	push	r0
     f26:	11 24       	eor	r1, r1
     f28:	08 b6       	in	r0, 0x38	; 56
     f2a:	0f 92       	push	r0
     f2c:	18 be       	out	0x38, r1	; 56
     f2e:	09 b6       	in	r0, 0x39	; 57
     f30:	0f 92       	push	r0
     f32:	19 be       	out	0x39, r1	; 57
     f34:	0b b6       	in	r0, 0x3b	; 59
     f36:	0f 92       	push	r0
     f38:	1b be       	out	0x3b, r1	; 59
     f3a:	2f 93       	push	r18
     f3c:	3f 93       	push	r19
     f3e:	4f 93       	push	r20
     f40:	5f 93       	push	r21
     f42:	6f 93       	push	r22
     f44:	7f 93       	push	r23
     f46:	8f 93       	push	r24
     f48:	9f 93       	push	r25
     f4a:	af 93       	push	r26
     f4c:	bf 93       	push	r27
     f4e:	ef 93       	push	r30
     f50:	ff 93       	push	r31
	if (tc_tcc1_err_callback) {
     f52:	e0 91 71 21 	lds	r30, 0x2171	; 0x802171 <tc_tcc1_err_callback>
     f56:	f0 91 72 21 	lds	r31, 0x2172	; 0x802172 <tc_tcc1_err_callback+0x1>
     f5a:	30 97       	sbiw	r30, 0x00	; 0
     f5c:	09 f0       	breq	.+2      	; 0xf60 <__vector_21+0x42>
		tc_tcc1_err_callback();
     f5e:	19 95       	eicall
	}
}
     f60:	ff 91       	pop	r31
     f62:	ef 91       	pop	r30
     f64:	bf 91       	pop	r27
     f66:	af 91       	pop	r26
     f68:	9f 91       	pop	r25
     f6a:	8f 91       	pop	r24
     f6c:	7f 91       	pop	r23
     f6e:	6f 91       	pop	r22
     f70:	5f 91       	pop	r21
     f72:	4f 91       	pop	r20
     f74:	3f 91       	pop	r19
     f76:	2f 91       	pop	r18
     f78:	0f 90       	pop	r0
     f7a:	0b be       	out	0x3b, r0	; 59
     f7c:	0f 90       	pop	r0
     f7e:	09 be       	out	0x39, r0	; 57
     f80:	0f 90       	pop	r0
     f82:	08 be       	out	0x38, r0	; 56
     f84:	0f 90       	pop	r0
     f86:	0f be       	out	0x3f, r0	; 63
     f88:	0f 90       	pop	r0
     f8a:	1f 90       	pop	r1
     f8c:	18 95       	reti

00000f8e <__vector_22>:
 *
 * This function will handle interrupt on Timer Counter C1 Compare/CaptureA and
 * call the callback function.
 */
ISR(TCC1_CCA_vect)
{
     f8e:	1f 92       	push	r1
     f90:	0f 92       	push	r0
     f92:	0f b6       	in	r0, 0x3f	; 63
     f94:	0f 92       	push	r0
     f96:	11 24       	eor	r1, r1
     f98:	08 b6       	in	r0, 0x38	; 56
     f9a:	0f 92       	push	r0
     f9c:	18 be       	out	0x38, r1	; 56
     f9e:	09 b6       	in	r0, 0x39	; 57
     fa0:	0f 92       	push	r0
     fa2:	19 be       	out	0x39, r1	; 57
     fa4:	0b b6       	in	r0, 0x3b	; 59
     fa6:	0f 92       	push	r0
     fa8:	1b be       	out	0x3b, r1	; 59
     faa:	2f 93       	push	r18
     fac:	3f 93       	push	r19
     fae:	4f 93       	push	r20
     fb0:	5f 93       	push	r21
     fb2:	6f 93       	push	r22
     fb4:	7f 93       	push	r23
     fb6:	8f 93       	push	r24
     fb8:	9f 93       	push	r25
     fba:	af 93       	push	r26
     fbc:	bf 93       	push	r27
     fbe:	ef 93       	push	r30
     fc0:	ff 93       	push	r31
	if (tc_tcc1_cca_callback) {
     fc2:	e0 91 6f 21 	lds	r30, 0x216F	; 0x80216f <tc_tcc1_cca_callback>
     fc6:	f0 91 70 21 	lds	r31, 0x2170	; 0x802170 <tc_tcc1_cca_callback+0x1>
     fca:	30 97       	sbiw	r30, 0x00	; 0
     fcc:	09 f0       	breq	.+2      	; 0xfd0 <__vector_22+0x42>
		tc_tcc1_cca_callback();
     fce:	19 95       	eicall
	}
}
     fd0:	ff 91       	pop	r31
     fd2:	ef 91       	pop	r30
     fd4:	bf 91       	pop	r27
     fd6:	af 91       	pop	r26
     fd8:	9f 91       	pop	r25
     fda:	8f 91       	pop	r24
     fdc:	7f 91       	pop	r23
     fde:	6f 91       	pop	r22
     fe0:	5f 91       	pop	r21
     fe2:	4f 91       	pop	r20
     fe4:	3f 91       	pop	r19
     fe6:	2f 91       	pop	r18
     fe8:	0f 90       	pop	r0
     fea:	0b be       	out	0x3b, r0	; 59
     fec:	0f 90       	pop	r0
     fee:	09 be       	out	0x39, r0	; 57
     ff0:	0f 90       	pop	r0
     ff2:	08 be       	out	0x38, r0	; 56
     ff4:	0f 90       	pop	r0
     ff6:	0f be       	out	0x3f, r0	; 63
     ff8:	0f 90       	pop	r0
     ffa:	1f 90       	pop	r1
     ffc:	18 95       	reti

00000ffe <__vector_23>:
 *
 * This function will handle interrupt on Timer Counter C1 Compare/CaptureB and
 * call the callback function.
 */
ISR(TCC1_CCB_vect)
{
     ffe:	1f 92       	push	r1
    1000:	0f 92       	push	r0
    1002:	0f b6       	in	r0, 0x3f	; 63
    1004:	0f 92       	push	r0
    1006:	11 24       	eor	r1, r1
    1008:	08 b6       	in	r0, 0x38	; 56
    100a:	0f 92       	push	r0
    100c:	18 be       	out	0x38, r1	; 56
    100e:	09 b6       	in	r0, 0x39	; 57
    1010:	0f 92       	push	r0
    1012:	19 be       	out	0x39, r1	; 57
    1014:	0b b6       	in	r0, 0x3b	; 59
    1016:	0f 92       	push	r0
    1018:	1b be       	out	0x3b, r1	; 59
    101a:	2f 93       	push	r18
    101c:	3f 93       	push	r19
    101e:	4f 93       	push	r20
    1020:	5f 93       	push	r21
    1022:	6f 93       	push	r22
    1024:	7f 93       	push	r23
    1026:	8f 93       	push	r24
    1028:	9f 93       	push	r25
    102a:	af 93       	push	r26
    102c:	bf 93       	push	r27
    102e:	ef 93       	push	r30
    1030:	ff 93       	push	r31
	if (tc_tcc1_ccb_callback) {
    1032:	e0 91 6d 21 	lds	r30, 0x216D	; 0x80216d <tc_tcc1_ccb_callback>
    1036:	f0 91 6e 21 	lds	r31, 0x216E	; 0x80216e <tc_tcc1_ccb_callback+0x1>
    103a:	30 97       	sbiw	r30, 0x00	; 0
    103c:	09 f0       	breq	.+2      	; 0x1040 <__vector_23+0x42>
		tc_tcc1_ccb_callback();
    103e:	19 95       	eicall
	}
}
    1040:	ff 91       	pop	r31
    1042:	ef 91       	pop	r30
    1044:	bf 91       	pop	r27
    1046:	af 91       	pop	r26
    1048:	9f 91       	pop	r25
    104a:	8f 91       	pop	r24
    104c:	7f 91       	pop	r23
    104e:	6f 91       	pop	r22
    1050:	5f 91       	pop	r21
    1052:	4f 91       	pop	r20
    1054:	3f 91       	pop	r19
    1056:	2f 91       	pop	r18
    1058:	0f 90       	pop	r0
    105a:	0b be       	out	0x3b, r0	; 59
    105c:	0f 90       	pop	r0
    105e:	09 be       	out	0x39, r0	; 57
    1060:	0f 90       	pop	r0
    1062:	08 be       	out	0x38, r0	; 56
    1064:	0f 90       	pop	r0
    1066:	0f be       	out	0x3f, r0	; 63
    1068:	0f 90       	pop	r0
    106a:	1f 90       	pop	r1
    106c:	18 95       	reti

0000106e <__vector_77>:
 *
 * This function will handle interrupt on Timer Counter D0 overflow and
 * call the callback function.
 */
ISR(TCD0_OVF_vect)
{
    106e:	1f 92       	push	r1
    1070:	0f 92       	push	r0
    1072:	0f b6       	in	r0, 0x3f	; 63
    1074:	0f 92       	push	r0
    1076:	11 24       	eor	r1, r1
    1078:	08 b6       	in	r0, 0x38	; 56
    107a:	0f 92       	push	r0
    107c:	18 be       	out	0x38, r1	; 56
    107e:	09 b6       	in	r0, 0x39	; 57
    1080:	0f 92       	push	r0
    1082:	19 be       	out	0x39, r1	; 57
    1084:	0b b6       	in	r0, 0x3b	; 59
    1086:	0f 92       	push	r0
    1088:	1b be       	out	0x3b, r1	; 59
    108a:	2f 93       	push	r18
    108c:	3f 93       	push	r19
    108e:	4f 93       	push	r20
    1090:	5f 93       	push	r21
    1092:	6f 93       	push	r22
    1094:	7f 93       	push	r23
    1096:	8f 93       	push	r24
    1098:	9f 93       	push	r25
    109a:	af 93       	push	r26
    109c:	bf 93       	push	r27
    109e:	ef 93       	push	r30
    10a0:	ff 93       	push	r31
	if (tc_tcd0_ovf_callback) {
    10a2:	e0 91 6b 21 	lds	r30, 0x216B	; 0x80216b <tc_tcd0_ovf_callback>
    10a6:	f0 91 6c 21 	lds	r31, 0x216C	; 0x80216c <tc_tcd0_ovf_callback+0x1>
    10aa:	30 97       	sbiw	r30, 0x00	; 0
    10ac:	09 f0       	breq	.+2      	; 0x10b0 <__vector_77+0x42>
		tc_tcd0_ovf_callback();
    10ae:	19 95       	eicall
	}
}
    10b0:	ff 91       	pop	r31
    10b2:	ef 91       	pop	r30
    10b4:	bf 91       	pop	r27
    10b6:	af 91       	pop	r26
    10b8:	9f 91       	pop	r25
    10ba:	8f 91       	pop	r24
    10bc:	7f 91       	pop	r23
    10be:	6f 91       	pop	r22
    10c0:	5f 91       	pop	r21
    10c2:	4f 91       	pop	r20
    10c4:	3f 91       	pop	r19
    10c6:	2f 91       	pop	r18
    10c8:	0f 90       	pop	r0
    10ca:	0b be       	out	0x3b, r0	; 59
    10cc:	0f 90       	pop	r0
    10ce:	09 be       	out	0x39, r0	; 57
    10d0:	0f 90       	pop	r0
    10d2:	08 be       	out	0x38, r0	; 56
    10d4:	0f 90       	pop	r0
    10d6:	0f be       	out	0x3f, r0	; 63
    10d8:	0f 90       	pop	r0
    10da:	1f 90       	pop	r1
    10dc:	18 95       	reti

000010de <__vector_78>:
 *
 * This function will handle interrupt on Timer Counter D0 error and
 * call the callback function.
 */
ISR(TCD0_ERR_vect)
{
    10de:	1f 92       	push	r1
    10e0:	0f 92       	push	r0
    10e2:	0f b6       	in	r0, 0x3f	; 63
    10e4:	0f 92       	push	r0
    10e6:	11 24       	eor	r1, r1
    10e8:	08 b6       	in	r0, 0x38	; 56
    10ea:	0f 92       	push	r0
    10ec:	18 be       	out	0x38, r1	; 56
    10ee:	09 b6       	in	r0, 0x39	; 57
    10f0:	0f 92       	push	r0
    10f2:	19 be       	out	0x39, r1	; 57
    10f4:	0b b6       	in	r0, 0x3b	; 59
    10f6:	0f 92       	push	r0
    10f8:	1b be       	out	0x3b, r1	; 59
    10fa:	2f 93       	push	r18
    10fc:	3f 93       	push	r19
    10fe:	4f 93       	push	r20
    1100:	5f 93       	push	r21
    1102:	6f 93       	push	r22
    1104:	7f 93       	push	r23
    1106:	8f 93       	push	r24
    1108:	9f 93       	push	r25
    110a:	af 93       	push	r26
    110c:	bf 93       	push	r27
    110e:	ef 93       	push	r30
    1110:	ff 93       	push	r31
	if (tc_tcd0_err_callback) {
    1112:	e0 91 69 21 	lds	r30, 0x2169	; 0x802169 <tc_tcd0_err_callback>
    1116:	f0 91 6a 21 	lds	r31, 0x216A	; 0x80216a <tc_tcd0_err_callback+0x1>
    111a:	30 97       	sbiw	r30, 0x00	; 0
    111c:	09 f0       	breq	.+2      	; 0x1120 <__vector_78+0x42>
		tc_tcd0_err_callback();
    111e:	19 95       	eicall
	}
}
    1120:	ff 91       	pop	r31
    1122:	ef 91       	pop	r30
    1124:	bf 91       	pop	r27
    1126:	af 91       	pop	r26
    1128:	9f 91       	pop	r25
    112a:	8f 91       	pop	r24
    112c:	7f 91       	pop	r23
    112e:	6f 91       	pop	r22
    1130:	5f 91       	pop	r21
    1132:	4f 91       	pop	r20
    1134:	3f 91       	pop	r19
    1136:	2f 91       	pop	r18
    1138:	0f 90       	pop	r0
    113a:	0b be       	out	0x3b, r0	; 59
    113c:	0f 90       	pop	r0
    113e:	09 be       	out	0x39, r0	; 57
    1140:	0f 90       	pop	r0
    1142:	08 be       	out	0x38, r0	; 56
    1144:	0f 90       	pop	r0
    1146:	0f be       	out	0x3f, r0	; 63
    1148:	0f 90       	pop	r0
    114a:	1f 90       	pop	r1
    114c:	18 95       	reti

0000114e <__vector_79>:
 *
 * This function will handle interrupt on Timer Counter D0 Compare/CaptureA and
 * call the callback function.
 */
ISR(TCD0_CCA_vect)
{
    114e:	1f 92       	push	r1
    1150:	0f 92       	push	r0
    1152:	0f b6       	in	r0, 0x3f	; 63
    1154:	0f 92       	push	r0
    1156:	11 24       	eor	r1, r1
    1158:	08 b6       	in	r0, 0x38	; 56
    115a:	0f 92       	push	r0
    115c:	18 be       	out	0x38, r1	; 56
    115e:	09 b6       	in	r0, 0x39	; 57
    1160:	0f 92       	push	r0
    1162:	19 be       	out	0x39, r1	; 57
    1164:	0b b6       	in	r0, 0x3b	; 59
    1166:	0f 92       	push	r0
    1168:	1b be       	out	0x3b, r1	; 59
    116a:	2f 93       	push	r18
    116c:	3f 93       	push	r19
    116e:	4f 93       	push	r20
    1170:	5f 93       	push	r21
    1172:	6f 93       	push	r22
    1174:	7f 93       	push	r23
    1176:	8f 93       	push	r24
    1178:	9f 93       	push	r25
    117a:	af 93       	push	r26
    117c:	bf 93       	push	r27
    117e:	ef 93       	push	r30
    1180:	ff 93       	push	r31
	if (tc_tcd0_cca_callback) {
    1182:	e0 91 67 21 	lds	r30, 0x2167	; 0x802167 <tc_tcd0_cca_callback>
    1186:	f0 91 68 21 	lds	r31, 0x2168	; 0x802168 <tc_tcd0_cca_callback+0x1>
    118a:	30 97       	sbiw	r30, 0x00	; 0
    118c:	09 f0       	breq	.+2      	; 0x1190 <__vector_79+0x42>
		tc_tcd0_cca_callback();
    118e:	19 95       	eicall
	}
}
    1190:	ff 91       	pop	r31
    1192:	ef 91       	pop	r30
    1194:	bf 91       	pop	r27
    1196:	af 91       	pop	r26
    1198:	9f 91       	pop	r25
    119a:	8f 91       	pop	r24
    119c:	7f 91       	pop	r23
    119e:	6f 91       	pop	r22
    11a0:	5f 91       	pop	r21
    11a2:	4f 91       	pop	r20
    11a4:	3f 91       	pop	r19
    11a6:	2f 91       	pop	r18
    11a8:	0f 90       	pop	r0
    11aa:	0b be       	out	0x3b, r0	; 59
    11ac:	0f 90       	pop	r0
    11ae:	09 be       	out	0x39, r0	; 57
    11b0:	0f 90       	pop	r0
    11b2:	08 be       	out	0x38, r0	; 56
    11b4:	0f 90       	pop	r0
    11b6:	0f be       	out	0x3f, r0	; 63
    11b8:	0f 90       	pop	r0
    11ba:	1f 90       	pop	r1
    11bc:	18 95       	reti

000011be <__vector_80>:
 *
 * This function will handle interrupt on Timer Counter D0 Compare/CaptureB and
 * call the callback function.
 */
ISR(TCD0_CCB_vect)
{
    11be:	1f 92       	push	r1
    11c0:	0f 92       	push	r0
    11c2:	0f b6       	in	r0, 0x3f	; 63
    11c4:	0f 92       	push	r0
    11c6:	11 24       	eor	r1, r1
    11c8:	08 b6       	in	r0, 0x38	; 56
    11ca:	0f 92       	push	r0
    11cc:	18 be       	out	0x38, r1	; 56
    11ce:	09 b6       	in	r0, 0x39	; 57
    11d0:	0f 92       	push	r0
    11d2:	19 be       	out	0x39, r1	; 57
    11d4:	0b b6       	in	r0, 0x3b	; 59
    11d6:	0f 92       	push	r0
    11d8:	1b be       	out	0x3b, r1	; 59
    11da:	2f 93       	push	r18
    11dc:	3f 93       	push	r19
    11de:	4f 93       	push	r20
    11e0:	5f 93       	push	r21
    11e2:	6f 93       	push	r22
    11e4:	7f 93       	push	r23
    11e6:	8f 93       	push	r24
    11e8:	9f 93       	push	r25
    11ea:	af 93       	push	r26
    11ec:	bf 93       	push	r27
    11ee:	ef 93       	push	r30
    11f0:	ff 93       	push	r31
	if (tc_tcd0_ccb_callback) {
    11f2:	e0 91 65 21 	lds	r30, 0x2165	; 0x802165 <tc_tcd0_ccb_callback>
    11f6:	f0 91 66 21 	lds	r31, 0x2166	; 0x802166 <tc_tcd0_ccb_callback+0x1>
    11fa:	30 97       	sbiw	r30, 0x00	; 0
    11fc:	09 f0       	breq	.+2      	; 0x1200 <__vector_80+0x42>
		tc_tcd0_ccb_callback();
    11fe:	19 95       	eicall
	}
}
    1200:	ff 91       	pop	r31
    1202:	ef 91       	pop	r30
    1204:	bf 91       	pop	r27
    1206:	af 91       	pop	r26
    1208:	9f 91       	pop	r25
    120a:	8f 91       	pop	r24
    120c:	7f 91       	pop	r23
    120e:	6f 91       	pop	r22
    1210:	5f 91       	pop	r21
    1212:	4f 91       	pop	r20
    1214:	3f 91       	pop	r19
    1216:	2f 91       	pop	r18
    1218:	0f 90       	pop	r0
    121a:	0b be       	out	0x3b, r0	; 59
    121c:	0f 90       	pop	r0
    121e:	09 be       	out	0x39, r0	; 57
    1220:	0f 90       	pop	r0
    1222:	08 be       	out	0x38, r0	; 56
    1224:	0f 90       	pop	r0
    1226:	0f be       	out	0x3f, r0	; 63
    1228:	0f 90       	pop	r0
    122a:	1f 90       	pop	r1
    122c:	18 95       	reti

0000122e <__vector_81>:
 *
 * This function will handle interrupt on Timer Counter D0 Compare/CaptureC and
 * call the callback function.
 */
ISR(TCD0_CCC_vect)
{
    122e:	1f 92       	push	r1
    1230:	0f 92       	push	r0
    1232:	0f b6       	in	r0, 0x3f	; 63
    1234:	0f 92       	push	r0
    1236:	11 24       	eor	r1, r1
    1238:	08 b6       	in	r0, 0x38	; 56
    123a:	0f 92       	push	r0
    123c:	18 be       	out	0x38, r1	; 56
    123e:	09 b6       	in	r0, 0x39	; 57
    1240:	0f 92       	push	r0
    1242:	19 be       	out	0x39, r1	; 57
    1244:	0b b6       	in	r0, 0x3b	; 59
    1246:	0f 92       	push	r0
    1248:	1b be       	out	0x3b, r1	; 59
    124a:	2f 93       	push	r18
    124c:	3f 93       	push	r19
    124e:	4f 93       	push	r20
    1250:	5f 93       	push	r21
    1252:	6f 93       	push	r22
    1254:	7f 93       	push	r23
    1256:	8f 93       	push	r24
    1258:	9f 93       	push	r25
    125a:	af 93       	push	r26
    125c:	bf 93       	push	r27
    125e:	ef 93       	push	r30
    1260:	ff 93       	push	r31
	if (tc_tcd0_ccc_callback) {
    1262:	e0 91 63 21 	lds	r30, 0x2163	; 0x802163 <tc_tcd0_ccc_callback>
    1266:	f0 91 64 21 	lds	r31, 0x2164	; 0x802164 <tc_tcd0_ccc_callback+0x1>
    126a:	30 97       	sbiw	r30, 0x00	; 0
    126c:	09 f0       	breq	.+2      	; 0x1270 <__vector_81+0x42>
		tc_tcd0_ccc_callback();
    126e:	19 95       	eicall
	}
}
    1270:	ff 91       	pop	r31
    1272:	ef 91       	pop	r30
    1274:	bf 91       	pop	r27
    1276:	af 91       	pop	r26
    1278:	9f 91       	pop	r25
    127a:	8f 91       	pop	r24
    127c:	7f 91       	pop	r23
    127e:	6f 91       	pop	r22
    1280:	5f 91       	pop	r21
    1282:	4f 91       	pop	r20
    1284:	3f 91       	pop	r19
    1286:	2f 91       	pop	r18
    1288:	0f 90       	pop	r0
    128a:	0b be       	out	0x3b, r0	; 59
    128c:	0f 90       	pop	r0
    128e:	09 be       	out	0x39, r0	; 57
    1290:	0f 90       	pop	r0
    1292:	08 be       	out	0x38, r0	; 56
    1294:	0f 90       	pop	r0
    1296:	0f be       	out	0x3f, r0	; 63
    1298:	0f 90       	pop	r0
    129a:	1f 90       	pop	r1
    129c:	18 95       	reti

0000129e <__vector_82>:
 *
 * This function will handle interrupt on Timer Counter D0 Compare/CaptureD and
 * call the callback function.
 */
ISR(TCD0_CCD_vect)
{
    129e:	1f 92       	push	r1
    12a0:	0f 92       	push	r0
    12a2:	0f b6       	in	r0, 0x3f	; 63
    12a4:	0f 92       	push	r0
    12a6:	11 24       	eor	r1, r1
    12a8:	08 b6       	in	r0, 0x38	; 56
    12aa:	0f 92       	push	r0
    12ac:	18 be       	out	0x38, r1	; 56
    12ae:	09 b6       	in	r0, 0x39	; 57
    12b0:	0f 92       	push	r0
    12b2:	19 be       	out	0x39, r1	; 57
    12b4:	0b b6       	in	r0, 0x3b	; 59
    12b6:	0f 92       	push	r0
    12b8:	1b be       	out	0x3b, r1	; 59
    12ba:	2f 93       	push	r18
    12bc:	3f 93       	push	r19
    12be:	4f 93       	push	r20
    12c0:	5f 93       	push	r21
    12c2:	6f 93       	push	r22
    12c4:	7f 93       	push	r23
    12c6:	8f 93       	push	r24
    12c8:	9f 93       	push	r25
    12ca:	af 93       	push	r26
    12cc:	bf 93       	push	r27
    12ce:	ef 93       	push	r30
    12d0:	ff 93       	push	r31
	if (tc_tcd0_ccd_callback) {
    12d2:	e0 91 61 21 	lds	r30, 0x2161	; 0x802161 <tc_tcd0_ccd_callback>
    12d6:	f0 91 62 21 	lds	r31, 0x2162	; 0x802162 <tc_tcd0_ccd_callback+0x1>
    12da:	30 97       	sbiw	r30, 0x00	; 0
    12dc:	09 f0       	breq	.+2      	; 0x12e0 <__vector_82+0x42>
		tc_tcd0_ccd_callback();
    12de:	19 95       	eicall
	}
}
    12e0:	ff 91       	pop	r31
    12e2:	ef 91       	pop	r30
    12e4:	bf 91       	pop	r27
    12e6:	af 91       	pop	r26
    12e8:	9f 91       	pop	r25
    12ea:	8f 91       	pop	r24
    12ec:	7f 91       	pop	r23
    12ee:	6f 91       	pop	r22
    12f0:	5f 91       	pop	r21
    12f2:	4f 91       	pop	r20
    12f4:	3f 91       	pop	r19
    12f6:	2f 91       	pop	r18
    12f8:	0f 90       	pop	r0
    12fa:	0b be       	out	0x3b, r0	; 59
    12fc:	0f 90       	pop	r0
    12fe:	09 be       	out	0x39, r0	; 57
    1300:	0f 90       	pop	r0
    1302:	08 be       	out	0x38, r0	; 56
    1304:	0f 90       	pop	r0
    1306:	0f be       	out	0x3f, r0	; 63
    1308:	0f 90       	pop	r0
    130a:	1f 90       	pop	r1
    130c:	18 95       	reti

0000130e <__vector_83>:
 *
 * This function will handle interrupt on Timer Counter D1 overflow and
 * call the callback function.
 */
ISR(TCD1_OVF_vect)
{
    130e:	1f 92       	push	r1
    1310:	0f 92       	push	r0
    1312:	0f b6       	in	r0, 0x3f	; 63
    1314:	0f 92       	push	r0
    1316:	11 24       	eor	r1, r1
    1318:	08 b6       	in	r0, 0x38	; 56
    131a:	0f 92       	push	r0
    131c:	18 be       	out	0x38, r1	; 56
    131e:	09 b6       	in	r0, 0x39	; 57
    1320:	0f 92       	push	r0
    1322:	19 be       	out	0x39, r1	; 57
    1324:	0b b6       	in	r0, 0x3b	; 59
    1326:	0f 92       	push	r0
    1328:	1b be       	out	0x3b, r1	; 59
    132a:	2f 93       	push	r18
    132c:	3f 93       	push	r19
    132e:	4f 93       	push	r20
    1330:	5f 93       	push	r21
    1332:	6f 93       	push	r22
    1334:	7f 93       	push	r23
    1336:	8f 93       	push	r24
    1338:	9f 93       	push	r25
    133a:	af 93       	push	r26
    133c:	bf 93       	push	r27
    133e:	ef 93       	push	r30
    1340:	ff 93       	push	r31
	if (tc_tcd1_ovf_callback) {
    1342:	e0 91 5f 21 	lds	r30, 0x215F	; 0x80215f <tc_tcd1_ovf_callback>
    1346:	f0 91 60 21 	lds	r31, 0x2160	; 0x802160 <tc_tcd1_ovf_callback+0x1>
    134a:	30 97       	sbiw	r30, 0x00	; 0
    134c:	09 f0       	breq	.+2      	; 0x1350 <__vector_83+0x42>
		tc_tcd1_ovf_callback();
    134e:	19 95       	eicall
	}
}
    1350:	ff 91       	pop	r31
    1352:	ef 91       	pop	r30
    1354:	bf 91       	pop	r27
    1356:	af 91       	pop	r26
    1358:	9f 91       	pop	r25
    135a:	8f 91       	pop	r24
    135c:	7f 91       	pop	r23
    135e:	6f 91       	pop	r22
    1360:	5f 91       	pop	r21
    1362:	4f 91       	pop	r20
    1364:	3f 91       	pop	r19
    1366:	2f 91       	pop	r18
    1368:	0f 90       	pop	r0
    136a:	0b be       	out	0x3b, r0	; 59
    136c:	0f 90       	pop	r0
    136e:	09 be       	out	0x39, r0	; 57
    1370:	0f 90       	pop	r0
    1372:	08 be       	out	0x38, r0	; 56
    1374:	0f 90       	pop	r0
    1376:	0f be       	out	0x3f, r0	; 63
    1378:	0f 90       	pop	r0
    137a:	1f 90       	pop	r1
    137c:	18 95       	reti

0000137e <__vector_84>:
 *
 * This function will handle interrupt on Timer Counter D1 error and
 * call the callback function.
 */
ISR(TCD1_ERR_vect)
{
    137e:	1f 92       	push	r1
    1380:	0f 92       	push	r0
    1382:	0f b6       	in	r0, 0x3f	; 63
    1384:	0f 92       	push	r0
    1386:	11 24       	eor	r1, r1
    1388:	08 b6       	in	r0, 0x38	; 56
    138a:	0f 92       	push	r0
    138c:	18 be       	out	0x38, r1	; 56
    138e:	09 b6       	in	r0, 0x39	; 57
    1390:	0f 92       	push	r0
    1392:	19 be       	out	0x39, r1	; 57
    1394:	0b b6       	in	r0, 0x3b	; 59
    1396:	0f 92       	push	r0
    1398:	1b be       	out	0x3b, r1	; 59
    139a:	2f 93       	push	r18
    139c:	3f 93       	push	r19
    139e:	4f 93       	push	r20
    13a0:	5f 93       	push	r21
    13a2:	6f 93       	push	r22
    13a4:	7f 93       	push	r23
    13a6:	8f 93       	push	r24
    13a8:	9f 93       	push	r25
    13aa:	af 93       	push	r26
    13ac:	bf 93       	push	r27
    13ae:	ef 93       	push	r30
    13b0:	ff 93       	push	r31
	if (tc_tcd1_err_callback) {
    13b2:	e0 91 5d 21 	lds	r30, 0x215D	; 0x80215d <tc_tcd1_err_callback>
    13b6:	f0 91 5e 21 	lds	r31, 0x215E	; 0x80215e <tc_tcd1_err_callback+0x1>
    13ba:	30 97       	sbiw	r30, 0x00	; 0
    13bc:	09 f0       	breq	.+2      	; 0x13c0 <__vector_84+0x42>
		tc_tcd1_err_callback();
    13be:	19 95       	eicall
	}
}
    13c0:	ff 91       	pop	r31
    13c2:	ef 91       	pop	r30
    13c4:	bf 91       	pop	r27
    13c6:	af 91       	pop	r26
    13c8:	9f 91       	pop	r25
    13ca:	8f 91       	pop	r24
    13cc:	7f 91       	pop	r23
    13ce:	6f 91       	pop	r22
    13d0:	5f 91       	pop	r21
    13d2:	4f 91       	pop	r20
    13d4:	3f 91       	pop	r19
    13d6:	2f 91       	pop	r18
    13d8:	0f 90       	pop	r0
    13da:	0b be       	out	0x3b, r0	; 59
    13dc:	0f 90       	pop	r0
    13de:	09 be       	out	0x39, r0	; 57
    13e0:	0f 90       	pop	r0
    13e2:	08 be       	out	0x38, r0	; 56
    13e4:	0f 90       	pop	r0
    13e6:	0f be       	out	0x3f, r0	; 63
    13e8:	0f 90       	pop	r0
    13ea:	1f 90       	pop	r1
    13ec:	18 95       	reti

000013ee <__vector_85>:
 *
 * This function will handle interrupt on Timer Counter D1 Compare/CaptureA and
 * call the callback function.
 */
ISR(TCD1_CCA_vect)
{
    13ee:	1f 92       	push	r1
    13f0:	0f 92       	push	r0
    13f2:	0f b6       	in	r0, 0x3f	; 63
    13f4:	0f 92       	push	r0
    13f6:	11 24       	eor	r1, r1
    13f8:	08 b6       	in	r0, 0x38	; 56
    13fa:	0f 92       	push	r0
    13fc:	18 be       	out	0x38, r1	; 56
    13fe:	09 b6       	in	r0, 0x39	; 57
    1400:	0f 92       	push	r0
    1402:	19 be       	out	0x39, r1	; 57
    1404:	0b b6       	in	r0, 0x3b	; 59
    1406:	0f 92       	push	r0
    1408:	1b be       	out	0x3b, r1	; 59
    140a:	2f 93       	push	r18
    140c:	3f 93       	push	r19
    140e:	4f 93       	push	r20
    1410:	5f 93       	push	r21
    1412:	6f 93       	push	r22
    1414:	7f 93       	push	r23
    1416:	8f 93       	push	r24
    1418:	9f 93       	push	r25
    141a:	af 93       	push	r26
    141c:	bf 93       	push	r27
    141e:	ef 93       	push	r30
    1420:	ff 93       	push	r31
	if (tc_tcd1_cca_callback) {
    1422:	e0 91 5b 21 	lds	r30, 0x215B	; 0x80215b <tc_tcd1_cca_callback>
    1426:	f0 91 5c 21 	lds	r31, 0x215C	; 0x80215c <tc_tcd1_cca_callback+0x1>
    142a:	30 97       	sbiw	r30, 0x00	; 0
    142c:	09 f0       	breq	.+2      	; 0x1430 <__vector_85+0x42>
		tc_tcd1_cca_callback();
    142e:	19 95       	eicall
	}
}
    1430:	ff 91       	pop	r31
    1432:	ef 91       	pop	r30
    1434:	bf 91       	pop	r27
    1436:	af 91       	pop	r26
    1438:	9f 91       	pop	r25
    143a:	8f 91       	pop	r24
    143c:	7f 91       	pop	r23
    143e:	6f 91       	pop	r22
    1440:	5f 91       	pop	r21
    1442:	4f 91       	pop	r20
    1444:	3f 91       	pop	r19
    1446:	2f 91       	pop	r18
    1448:	0f 90       	pop	r0
    144a:	0b be       	out	0x3b, r0	; 59
    144c:	0f 90       	pop	r0
    144e:	09 be       	out	0x39, r0	; 57
    1450:	0f 90       	pop	r0
    1452:	08 be       	out	0x38, r0	; 56
    1454:	0f 90       	pop	r0
    1456:	0f be       	out	0x3f, r0	; 63
    1458:	0f 90       	pop	r0
    145a:	1f 90       	pop	r1
    145c:	18 95       	reti

0000145e <__vector_86>:
 *
 * This function will handle interrupt on Timer Counter D1 Compare/CaptureB and
 * call the callback function.
 */
ISR(TCD1_CCB_vect)
{
    145e:	1f 92       	push	r1
    1460:	0f 92       	push	r0
    1462:	0f b6       	in	r0, 0x3f	; 63
    1464:	0f 92       	push	r0
    1466:	11 24       	eor	r1, r1
    1468:	08 b6       	in	r0, 0x38	; 56
    146a:	0f 92       	push	r0
    146c:	18 be       	out	0x38, r1	; 56
    146e:	09 b6       	in	r0, 0x39	; 57
    1470:	0f 92       	push	r0
    1472:	19 be       	out	0x39, r1	; 57
    1474:	0b b6       	in	r0, 0x3b	; 59
    1476:	0f 92       	push	r0
    1478:	1b be       	out	0x3b, r1	; 59
    147a:	2f 93       	push	r18
    147c:	3f 93       	push	r19
    147e:	4f 93       	push	r20
    1480:	5f 93       	push	r21
    1482:	6f 93       	push	r22
    1484:	7f 93       	push	r23
    1486:	8f 93       	push	r24
    1488:	9f 93       	push	r25
    148a:	af 93       	push	r26
    148c:	bf 93       	push	r27
    148e:	ef 93       	push	r30
    1490:	ff 93       	push	r31
	if (tc_tcd1_ccb_callback) {
    1492:	e0 91 59 21 	lds	r30, 0x2159	; 0x802159 <tc_tcd1_ccb_callback>
    1496:	f0 91 5a 21 	lds	r31, 0x215A	; 0x80215a <tc_tcd1_ccb_callback+0x1>
    149a:	30 97       	sbiw	r30, 0x00	; 0
    149c:	09 f0       	breq	.+2      	; 0x14a0 <__vector_86+0x42>
		tc_tcd1_ccb_callback();
    149e:	19 95       	eicall
	}
}
    14a0:	ff 91       	pop	r31
    14a2:	ef 91       	pop	r30
    14a4:	bf 91       	pop	r27
    14a6:	af 91       	pop	r26
    14a8:	9f 91       	pop	r25
    14aa:	8f 91       	pop	r24
    14ac:	7f 91       	pop	r23
    14ae:	6f 91       	pop	r22
    14b0:	5f 91       	pop	r21
    14b2:	4f 91       	pop	r20
    14b4:	3f 91       	pop	r19
    14b6:	2f 91       	pop	r18
    14b8:	0f 90       	pop	r0
    14ba:	0b be       	out	0x3b, r0	; 59
    14bc:	0f 90       	pop	r0
    14be:	09 be       	out	0x39, r0	; 57
    14c0:	0f 90       	pop	r0
    14c2:	08 be       	out	0x38, r0	; 56
    14c4:	0f 90       	pop	r0
    14c6:	0f be       	out	0x3f, r0	; 63
    14c8:	0f 90       	pop	r0
    14ca:	1f 90       	pop	r1
    14cc:	18 95       	reti

000014ce <__vector_47>:
 *
 * This function will handle interrupt on Timer Counter E0 overflow and
 * call the callback function.
 */
ISR(TCE0_OVF_vect)
{
    14ce:	1f 92       	push	r1
    14d0:	0f 92       	push	r0
    14d2:	0f b6       	in	r0, 0x3f	; 63
    14d4:	0f 92       	push	r0
    14d6:	11 24       	eor	r1, r1
    14d8:	08 b6       	in	r0, 0x38	; 56
    14da:	0f 92       	push	r0
    14dc:	18 be       	out	0x38, r1	; 56
    14de:	09 b6       	in	r0, 0x39	; 57
    14e0:	0f 92       	push	r0
    14e2:	19 be       	out	0x39, r1	; 57
    14e4:	0b b6       	in	r0, 0x3b	; 59
    14e6:	0f 92       	push	r0
    14e8:	1b be       	out	0x3b, r1	; 59
    14ea:	2f 93       	push	r18
    14ec:	3f 93       	push	r19
    14ee:	4f 93       	push	r20
    14f0:	5f 93       	push	r21
    14f2:	6f 93       	push	r22
    14f4:	7f 93       	push	r23
    14f6:	8f 93       	push	r24
    14f8:	9f 93       	push	r25
    14fa:	af 93       	push	r26
    14fc:	bf 93       	push	r27
    14fe:	ef 93       	push	r30
    1500:	ff 93       	push	r31
	if (tc_tce0_ovf_callback) {
    1502:	e0 91 57 21 	lds	r30, 0x2157	; 0x802157 <tc_tce0_ovf_callback>
    1506:	f0 91 58 21 	lds	r31, 0x2158	; 0x802158 <tc_tce0_ovf_callback+0x1>
    150a:	30 97       	sbiw	r30, 0x00	; 0
    150c:	09 f0       	breq	.+2      	; 0x1510 <__vector_47+0x42>
		tc_tce0_ovf_callback();
    150e:	19 95       	eicall
	}
}
    1510:	ff 91       	pop	r31
    1512:	ef 91       	pop	r30
    1514:	bf 91       	pop	r27
    1516:	af 91       	pop	r26
    1518:	9f 91       	pop	r25
    151a:	8f 91       	pop	r24
    151c:	7f 91       	pop	r23
    151e:	6f 91       	pop	r22
    1520:	5f 91       	pop	r21
    1522:	4f 91       	pop	r20
    1524:	3f 91       	pop	r19
    1526:	2f 91       	pop	r18
    1528:	0f 90       	pop	r0
    152a:	0b be       	out	0x3b, r0	; 59
    152c:	0f 90       	pop	r0
    152e:	09 be       	out	0x39, r0	; 57
    1530:	0f 90       	pop	r0
    1532:	08 be       	out	0x38, r0	; 56
    1534:	0f 90       	pop	r0
    1536:	0f be       	out	0x3f, r0	; 63
    1538:	0f 90       	pop	r0
    153a:	1f 90       	pop	r1
    153c:	18 95       	reti

0000153e <__vector_48>:
 *
 * This function will handle interrupt on Timer Counter E0 error and
 * call the callback function.
 */
ISR(TCE0_ERR_vect)
{
    153e:	1f 92       	push	r1
    1540:	0f 92       	push	r0
    1542:	0f b6       	in	r0, 0x3f	; 63
    1544:	0f 92       	push	r0
    1546:	11 24       	eor	r1, r1
    1548:	08 b6       	in	r0, 0x38	; 56
    154a:	0f 92       	push	r0
    154c:	18 be       	out	0x38, r1	; 56
    154e:	09 b6       	in	r0, 0x39	; 57
    1550:	0f 92       	push	r0
    1552:	19 be       	out	0x39, r1	; 57
    1554:	0b b6       	in	r0, 0x3b	; 59
    1556:	0f 92       	push	r0
    1558:	1b be       	out	0x3b, r1	; 59
    155a:	2f 93       	push	r18
    155c:	3f 93       	push	r19
    155e:	4f 93       	push	r20
    1560:	5f 93       	push	r21
    1562:	6f 93       	push	r22
    1564:	7f 93       	push	r23
    1566:	8f 93       	push	r24
    1568:	9f 93       	push	r25
    156a:	af 93       	push	r26
    156c:	bf 93       	push	r27
    156e:	ef 93       	push	r30
    1570:	ff 93       	push	r31
	if (tc_tce0_err_callback) {
    1572:	e0 91 55 21 	lds	r30, 0x2155	; 0x802155 <tc_tce0_err_callback>
    1576:	f0 91 56 21 	lds	r31, 0x2156	; 0x802156 <tc_tce0_err_callback+0x1>
    157a:	30 97       	sbiw	r30, 0x00	; 0
    157c:	09 f0       	breq	.+2      	; 0x1580 <__vector_48+0x42>
		tc_tce0_err_callback();
    157e:	19 95       	eicall
	}
}
    1580:	ff 91       	pop	r31
    1582:	ef 91       	pop	r30
    1584:	bf 91       	pop	r27
    1586:	af 91       	pop	r26
    1588:	9f 91       	pop	r25
    158a:	8f 91       	pop	r24
    158c:	7f 91       	pop	r23
    158e:	6f 91       	pop	r22
    1590:	5f 91       	pop	r21
    1592:	4f 91       	pop	r20
    1594:	3f 91       	pop	r19
    1596:	2f 91       	pop	r18
    1598:	0f 90       	pop	r0
    159a:	0b be       	out	0x3b, r0	; 59
    159c:	0f 90       	pop	r0
    159e:	09 be       	out	0x39, r0	; 57
    15a0:	0f 90       	pop	r0
    15a2:	08 be       	out	0x38, r0	; 56
    15a4:	0f 90       	pop	r0
    15a6:	0f be       	out	0x3f, r0	; 63
    15a8:	0f 90       	pop	r0
    15aa:	1f 90       	pop	r1
    15ac:	18 95       	reti

000015ae <__vector_49>:
 *
 * This function will handle interrupt on Timer Counter E0 Compare/CaptureA and
 * call the callback function.
 */
ISR(TCE0_CCA_vect)
{
    15ae:	1f 92       	push	r1
    15b0:	0f 92       	push	r0
    15b2:	0f b6       	in	r0, 0x3f	; 63
    15b4:	0f 92       	push	r0
    15b6:	11 24       	eor	r1, r1
    15b8:	08 b6       	in	r0, 0x38	; 56
    15ba:	0f 92       	push	r0
    15bc:	18 be       	out	0x38, r1	; 56
    15be:	09 b6       	in	r0, 0x39	; 57
    15c0:	0f 92       	push	r0
    15c2:	19 be       	out	0x39, r1	; 57
    15c4:	0b b6       	in	r0, 0x3b	; 59
    15c6:	0f 92       	push	r0
    15c8:	1b be       	out	0x3b, r1	; 59
    15ca:	2f 93       	push	r18
    15cc:	3f 93       	push	r19
    15ce:	4f 93       	push	r20
    15d0:	5f 93       	push	r21
    15d2:	6f 93       	push	r22
    15d4:	7f 93       	push	r23
    15d6:	8f 93       	push	r24
    15d8:	9f 93       	push	r25
    15da:	af 93       	push	r26
    15dc:	bf 93       	push	r27
    15de:	ef 93       	push	r30
    15e0:	ff 93       	push	r31
	if (tc_tce0_cca_callback) {
    15e2:	e0 91 53 21 	lds	r30, 0x2153	; 0x802153 <tc_tce0_cca_callback>
    15e6:	f0 91 54 21 	lds	r31, 0x2154	; 0x802154 <tc_tce0_cca_callback+0x1>
    15ea:	30 97       	sbiw	r30, 0x00	; 0
    15ec:	09 f0       	breq	.+2      	; 0x15f0 <__vector_49+0x42>
		tc_tce0_cca_callback();
    15ee:	19 95       	eicall
	}
}
    15f0:	ff 91       	pop	r31
    15f2:	ef 91       	pop	r30
    15f4:	bf 91       	pop	r27
    15f6:	af 91       	pop	r26
    15f8:	9f 91       	pop	r25
    15fa:	8f 91       	pop	r24
    15fc:	7f 91       	pop	r23
    15fe:	6f 91       	pop	r22
    1600:	5f 91       	pop	r21
    1602:	4f 91       	pop	r20
    1604:	3f 91       	pop	r19
    1606:	2f 91       	pop	r18
    1608:	0f 90       	pop	r0
    160a:	0b be       	out	0x3b, r0	; 59
    160c:	0f 90       	pop	r0
    160e:	09 be       	out	0x39, r0	; 57
    1610:	0f 90       	pop	r0
    1612:	08 be       	out	0x38, r0	; 56
    1614:	0f 90       	pop	r0
    1616:	0f be       	out	0x3f, r0	; 63
    1618:	0f 90       	pop	r0
    161a:	1f 90       	pop	r1
    161c:	18 95       	reti

0000161e <__vector_50>:
 *
 * This function will handle interrupt on Timer Counter E0 Compare/CaptureB and
 * call the callback function.
 */
ISR(TCE0_CCB_vect)
{
    161e:	1f 92       	push	r1
    1620:	0f 92       	push	r0
    1622:	0f b6       	in	r0, 0x3f	; 63
    1624:	0f 92       	push	r0
    1626:	11 24       	eor	r1, r1
    1628:	08 b6       	in	r0, 0x38	; 56
    162a:	0f 92       	push	r0
    162c:	18 be       	out	0x38, r1	; 56
    162e:	09 b6       	in	r0, 0x39	; 57
    1630:	0f 92       	push	r0
    1632:	19 be       	out	0x39, r1	; 57
    1634:	0b b6       	in	r0, 0x3b	; 59
    1636:	0f 92       	push	r0
    1638:	1b be       	out	0x3b, r1	; 59
    163a:	2f 93       	push	r18
    163c:	3f 93       	push	r19
    163e:	4f 93       	push	r20
    1640:	5f 93       	push	r21
    1642:	6f 93       	push	r22
    1644:	7f 93       	push	r23
    1646:	8f 93       	push	r24
    1648:	9f 93       	push	r25
    164a:	af 93       	push	r26
    164c:	bf 93       	push	r27
    164e:	ef 93       	push	r30
    1650:	ff 93       	push	r31
	if (tc_tce0_ccb_callback) {
    1652:	e0 91 51 21 	lds	r30, 0x2151	; 0x802151 <tc_tce0_ccb_callback>
    1656:	f0 91 52 21 	lds	r31, 0x2152	; 0x802152 <tc_tce0_ccb_callback+0x1>
    165a:	30 97       	sbiw	r30, 0x00	; 0
    165c:	09 f0       	breq	.+2      	; 0x1660 <__vector_50+0x42>
		tc_tce0_ccb_callback();
    165e:	19 95       	eicall
	}
}
    1660:	ff 91       	pop	r31
    1662:	ef 91       	pop	r30
    1664:	bf 91       	pop	r27
    1666:	af 91       	pop	r26
    1668:	9f 91       	pop	r25
    166a:	8f 91       	pop	r24
    166c:	7f 91       	pop	r23
    166e:	6f 91       	pop	r22
    1670:	5f 91       	pop	r21
    1672:	4f 91       	pop	r20
    1674:	3f 91       	pop	r19
    1676:	2f 91       	pop	r18
    1678:	0f 90       	pop	r0
    167a:	0b be       	out	0x3b, r0	; 59
    167c:	0f 90       	pop	r0
    167e:	09 be       	out	0x39, r0	; 57
    1680:	0f 90       	pop	r0
    1682:	08 be       	out	0x38, r0	; 56
    1684:	0f 90       	pop	r0
    1686:	0f be       	out	0x3f, r0	; 63
    1688:	0f 90       	pop	r0
    168a:	1f 90       	pop	r1
    168c:	18 95       	reti

0000168e <__vector_51>:
 *
 * This function will handle interrupt on Timer Counter E0 Compare/CaptureC and
 * call the callback function.
 */
ISR(TCE0_CCC_vect)
{
    168e:	1f 92       	push	r1
    1690:	0f 92       	push	r0
    1692:	0f b6       	in	r0, 0x3f	; 63
    1694:	0f 92       	push	r0
    1696:	11 24       	eor	r1, r1
    1698:	08 b6       	in	r0, 0x38	; 56
    169a:	0f 92       	push	r0
    169c:	18 be       	out	0x38, r1	; 56
    169e:	09 b6       	in	r0, 0x39	; 57
    16a0:	0f 92       	push	r0
    16a2:	19 be       	out	0x39, r1	; 57
    16a4:	0b b6       	in	r0, 0x3b	; 59
    16a6:	0f 92       	push	r0
    16a8:	1b be       	out	0x3b, r1	; 59
    16aa:	2f 93       	push	r18
    16ac:	3f 93       	push	r19
    16ae:	4f 93       	push	r20
    16b0:	5f 93       	push	r21
    16b2:	6f 93       	push	r22
    16b4:	7f 93       	push	r23
    16b6:	8f 93       	push	r24
    16b8:	9f 93       	push	r25
    16ba:	af 93       	push	r26
    16bc:	bf 93       	push	r27
    16be:	ef 93       	push	r30
    16c0:	ff 93       	push	r31
	if (tc_tce0_ccc_callback) {
    16c2:	e0 91 4f 21 	lds	r30, 0x214F	; 0x80214f <tc_tce0_ccc_callback>
    16c6:	f0 91 50 21 	lds	r31, 0x2150	; 0x802150 <tc_tce0_ccc_callback+0x1>
    16ca:	30 97       	sbiw	r30, 0x00	; 0
    16cc:	09 f0       	breq	.+2      	; 0x16d0 <__vector_51+0x42>
		tc_tce0_ccc_callback();
    16ce:	19 95       	eicall
	}
}
    16d0:	ff 91       	pop	r31
    16d2:	ef 91       	pop	r30
    16d4:	bf 91       	pop	r27
    16d6:	af 91       	pop	r26
    16d8:	9f 91       	pop	r25
    16da:	8f 91       	pop	r24
    16dc:	7f 91       	pop	r23
    16de:	6f 91       	pop	r22
    16e0:	5f 91       	pop	r21
    16e2:	4f 91       	pop	r20
    16e4:	3f 91       	pop	r19
    16e6:	2f 91       	pop	r18
    16e8:	0f 90       	pop	r0
    16ea:	0b be       	out	0x3b, r0	; 59
    16ec:	0f 90       	pop	r0
    16ee:	09 be       	out	0x39, r0	; 57
    16f0:	0f 90       	pop	r0
    16f2:	08 be       	out	0x38, r0	; 56
    16f4:	0f 90       	pop	r0
    16f6:	0f be       	out	0x3f, r0	; 63
    16f8:	0f 90       	pop	r0
    16fa:	1f 90       	pop	r1
    16fc:	18 95       	reti

000016fe <__vector_52>:
 *
 * This function will handle interrupt on Timer Counter E0 Compare/CaptureD and
 * call the callback function.
 */
ISR(TCE0_CCD_vect)
{
    16fe:	1f 92       	push	r1
    1700:	0f 92       	push	r0
    1702:	0f b6       	in	r0, 0x3f	; 63
    1704:	0f 92       	push	r0
    1706:	11 24       	eor	r1, r1
    1708:	08 b6       	in	r0, 0x38	; 56
    170a:	0f 92       	push	r0
    170c:	18 be       	out	0x38, r1	; 56
    170e:	09 b6       	in	r0, 0x39	; 57
    1710:	0f 92       	push	r0
    1712:	19 be       	out	0x39, r1	; 57
    1714:	0b b6       	in	r0, 0x3b	; 59
    1716:	0f 92       	push	r0
    1718:	1b be       	out	0x3b, r1	; 59
    171a:	2f 93       	push	r18
    171c:	3f 93       	push	r19
    171e:	4f 93       	push	r20
    1720:	5f 93       	push	r21
    1722:	6f 93       	push	r22
    1724:	7f 93       	push	r23
    1726:	8f 93       	push	r24
    1728:	9f 93       	push	r25
    172a:	af 93       	push	r26
    172c:	bf 93       	push	r27
    172e:	ef 93       	push	r30
    1730:	ff 93       	push	r31
	if (tc_tce0_ccd_callback) {
    1732:	e0 91 4d 21 	lds	r30, 0x214D	; 0x80214d <tc_tce0_ccd_callback>
    1736:	f0 91 4e 21 	lds	r31, 0x214E	; 0x80214e <tc_tce0_ccd_callback+0x1>
    173a:	30 97       	sbiw	r30, 0x00	; 0
    173c:	09 f0       	breq	.+2      	; 0x1740 <__vector_52+0x42>
		tc_tce0_ccd_callback();
    173e:	19 95       	eicall
	}
}
    1740:	ff 91       	pop	r31
    1742:	ef 91       	pop	r30
    1744:	bf 91       	pop	r27
    1746:	af 91       	pop	r26
    1748:	9f 91       	pop	r25
    174a:	8f 91       	pop	r24
    174c:	7f 91       	pop	r23
    174e:	6f 91       	pop	r22
    1750:	5f 91       	pop	r21
    1752:	4f 91       	pop	r20
    1754:	3f 91       	pop	r19
    1756:	2f 91       	pop	r18
    1758:	0f 90       	pop	r0
    175a:	0b be       	out	0x3b, r0	; 59
    175c:	0f 90       	pop	r0
    175e:	09 be       	out	0x39, r0	; 57
    1760:	0f 90       	pop	r0
    1762:	08 be       	out	0x38, r0	; 56
    1764:	0f 90       	pop	r0
    1766:	0f be       	out	0x3f, r0	; 63
    1768:	0f 90       	pop	r0
    176a:	1f 90       	pop	r1
    176c:	18 95       	reti

0000176e <__vector_53>:
 *
 * This function will handle interrupt on Timer Counter E1 overflow and
 * call the callback function.
 */
ISR(TCE1_OVF_vect)
{
    176e:	1f 92       	push	r1
    1770:	0f 92       	push	r0
    1772:	0f b6       	in	r0, 0x3f	; 63
    1774:	0f 92       	push	r0
    1776:	11 24       	eor	r1, r1
    1778:	08 b6       	in	r0, 0x38	; 56
    177a:	0f 92       	push	r0
    177c:	18 be       	out	0x38, r1	; 56
    177e:	09 b6       	in	r0, 0x39	; 57
    1780:	0f 92       	push	r0
    1782:	19 be       	out	0x39, r1	; 57
    1784:	0b b6       	in	r0, 0x3b	; 59
    1786:	0f 92       	push	r0
    1788:	1b be       	out	0x3b, r1	; 59
    178a:	2f 93       	push	r18
    178c:	3f 93       	push	r19
    178e:	4f 93       	push	r20
    1790:	5f 93       	push	r21
    1792:	6f 93       	push	r22
    1794:	7f 93       	push	r23
    1796:	8f 93       	push	r24
    1798:	9f 93       	push	r25
    179a:	af 93       	push	r26
    179c:	bf 93       	push	r27
    179e:	ef 93       	push	r30
    17a0:	ff 93       	push	r31
	if (tc_tce1_ovf_callback) {
    17a2:	e0 91 4b 21 	lds	r30, 0x214B	; 0x80214b <tc_tce1_ovf_callback>
    17a6:	f0 91 4c 21 	lds	r31, 0x214C	; 0x80214c <tc_tce1_ovf_callback+0x1>
    17aa:	30 97       	sbiw	r30, 0x00	; 0
    17ac:	09 f0       	breq	.+2      	; 0x17b0 <__vector_53+0x42>
		tc_tce1_ovf_callback();
    17ae:	19 95       	eicall
	}
}
    17b0:	ff 91       	pop	r31
    17b2:	ef 91       	pop	r30
    17b4:	bf 91       	pop	r27
    17b6:	af 91       	pop	r26
    17b8:	9f 91       	pop	r25
    17ba:	8f 91       	pop	r24
    17bc:	7f 91       	pop	r23
    17be:	6f 91       	pop	r22
    17c0:	5f 91       	pop	r21
    17c2:	4f 91       	pop	r20
    17c4:	3f 91       	pop	r19
    17c6:	2f 91       	pop	r18
    17c8:	0f 90       	pop	r0
    17ca:	0b be       	out	0x3b, r0	; 59
    17cc:	0f 90       	pop	r0
    17ce:	09 be       	out	0x39, r0	; 57
    17d0:	0f 90       	pop	r0
    17d2:	08 be       	out	0x38, r0	; 56
    17d4:	0f 90       	pop	r0
    17d6:	0f be       	out	0x3f, r0	; 63
    17d8:	0f 90       	pop	r0
    17da:	1f 90       	pop	r1
    17dc:	18 95       	reti

000017de <__vector_54>:
 *
 * This function will handle interrupt on Timer Counter E1 error and
 * call the callback function.
 */
ISR(TCE1_ERR_vect)
{
    17de:	1f 92       	push	r1
    17e0:	0f 92       	push	r0
    17e2:	0f b6       	in	r0, 0x3f	; 63
    17e4:	0f 92       	push	r0
    17e6:	11 24       	eor	r1, r1
    17e8:	08 b6       	in	r0, 0x38	; 56
    17ea:	0f 92       	push	r0
    17ec:	18 be       	out	0x38, r1	; 56
    17ee:	09 b6       	in	r0, 0x39	; 57
    17f0:	0f 92       	push	r0
    17f2:	19 be       	out	0x39, r1	; 57
    17f4:	0b b6       	in	r0, 0x3b	; 59
    17f6:	0f 92       	push	r0
    17f8:	1b be       	out	0x3b, r1	; 59
    17fa:	2f 93       	push	r18
    17fc:	3f 93       	push	r19
    17fe:	4f 93       	push	r20
    1800:	5f 93       	push	r21
    1802:	6f 93       	push	r22
    1804:	7f 93       	push	r23
    1806:	8f 93       	push	r24
    1808:	9f 93       	push	r25
    180a:	af 93       	push	r26
    180c:	bf 93       	push	r27
    180e:	ef 93       	push	r30
    1810:	ff 93       	push	r31
	if (tc_tce1_err_callback) {
    1812:	e0 91 49 21 	lds	r30, 0x2149	; 0x802149 <tc_tce1_err_callback>
    1816:	f0 91 4a 21 	lds	r31, 0x214A	; 0x80214a <tc_tce1_err_callback+0x1>
    181a:	30 97       	sbiw	r30, 0x00	; 0
    181c:	09 f0       	breq	.+2      	; 0x1820 <__vector_54+0x42>
		tc_tce1_err_callback();
    181e:	19 95       	eicall
	}
}
    1820:	ff 91       	pop	r31
    1822:	ef 91       	pop	r30
    1824:	bf 91       	pop	r27
    1826:	af 91       	pop	r26
    1828:	9f 91       	pop	r25
    182a:	8f 91       	pop	r24
    182c:	7f 91       	pop	r23
    182e:	6f 91       	pop	r22
    1830:	5f 91       	pop	r21
    1832:	4f 91       	pop	r20
    1834:	3f 91       	pop	r19
    1836:	2f 91       	pop	r18
    1838:	0f 90       	pop	r0
    183a:	0b be       	out	0x3b, r0	; 59
    183c:	0f 90       	pop	r0
    183e:	09 be       	out	0x39, r0	; 57
    1840:	0f 90       	pop	r0
    1842:	08 be       	out	0x38, r0	; 56
    1844:	0f 90       	pop	r0
    1846:	0f be       	out	0x3f, r0	; 63
    1848:	0f 90       	pop	r0
    184a:	1f 90       	pop	r1
    184c:	18 95       	reti

0000184e <__vector_55>:
 *
 * This function will handle interrupt on Timer Counter E1 Compare/CaptureA and
 * call the callback function.
 */
ISR(TCE1_CCA_vect)
{
    184e:	1f 92       	push	r1
    1850:	0f 92       	push	r0
    1852:	0f b6       	in	r0, 0x3f	; 63
    1854:	0f 92       	push	r0
    1856:	11 24       	eor	r1, r1
    1858:	08 b6       	in	r0, 0x38	; 56
    185a:	0f 92       	push	r0
    185c:	18 be       	out	0x38, r1	; 56
    185e:	09 b6       	in	r0, 0x39	; 57
    1860:	0f 92       	push	r0
    1862:	19 be       	out	0x39, r1	; 57
    1864:	0b b6       	in	r0, 0x3b	; 59
    1866:	0f 92       	push	r0
    1868:	1b be       	out	0x3b, r1	; 59
    186a:	2f 93       	push	r18
    186c:	3f 93       	push	r19
    186e:	4f 93       	push	r20
    1870:	5f 93       	push	r21
    1872:	6f 93       	push	r22
    1874:	7f 93       	push	r23
    1876:	8f 93       	push	r24
    1878:	9f 93       	push	r25
    187a:	af 93       	push	r26
    187c:	bf 93       	push	r27
    187e:	ef 93       	push	r30
    1880:	ff 93       	push	r31
	if (tc_tce1_cca_callback) {
    1882:	e0 91 47 21 	lds	r30, 0x2147	; 0x802147 <tc_tce1_cca_callback>
    1886:	f0 91 48 21 	lds	r31, 0x2148	; 0x802148 <tc_tce1_cca_callback+0x1>
    188a:	30 97       	sbiw	r30, 0x00	; 0
    188c:	09 f0       	breq	.+2      	; 0x1890 <__vector_55+0x42>
		tc_tce1_cca_callback();
    188e:	19 95       	eicall
	}
}
    1890:	ff 91       	pop	r31
    1892:	ef 91       	pop	r30
    1894:	bf 91       	pop	r27
    1896:	af 91       	pop	r26
    1898:	9f 91       	pop	r25
    189a:	8f 91       	pop	r24
    189c:	7f 91       	pop	r23
    189e:	6f 91       	pop	r22
    18a0:	5f 91       	pop	r21
    18a2:	4f 91       	pop	r20
    18a4:	3f 91       	pop	r19
    18a6:	2f 91       	pop	r18
    18a8:	0f 90       	pop	r0
    18aa:	0b be       	out	0x3b, r0	; 59
    18ac:	0f 90       	pop	r0
    18ae:	09 be       	out	0x39, r0	; 57
    18b0:	0f 90       	pop	r0
    18b2:	08 be       	out	0x38, r0	; 56
    18b4:	0f 90       	pop	r0
    18b6:	0f be       	out	0x3f, r0	; 63
    18b8:	0f 90       	pop	r0
    18ba:	1f 90       	pop	r1
    18bc:	18 95       	reti

000018be <__vector_56>:
 *
 * This function will handle interrupt on Timer Counter E1 Compare/CaptureB and
 * call the callback function.
 */
ISR(TCE1_CCB_vect)
{
    18be:	1f 92       	push	r1
    18c0:	0f 92       	push	r0
    18c2:	0f b6       	in	r0, 0x3f	; 63
    18c4:	0f 92       	push	r0
    18c6:	11 24       	eor	r1, r1
    18c8:	08 b6       	in	r0, 0x38	; 56
    18ca:	0f 92       	push	r0
    18cc:	18 be       	out	0x38, r1	; 56
    18ce:	09 b6       	in	r0, 0x39	; 57
    18d0:	0f 92       	push	r0
    18d2:	19 be       	out	0x39, r1	; 57
    18d4:	0b b6       	in	r0, 0x3b	; 59
    18d6:	0f 92       	push	r0
    18d8:	1b be       	out	0x3b, r1	; 59
    18da:	2f 93       	push	r18
    18dc:	3f 93       	push	r19
    18de:	4f 93       	push	r20
    18e0:	5f 93       	push	r21
    18e2:	6f 93       	push	r22
    18e4:	7f 93       	push	r23
    18e6:	8f 93       	push	r24
    18e8:	9f 93       	push	r25
    18ea:	af 93       	push	r26
    18ec:	bf 93       	push	r27
    18ee:	ef 93       	push	r30
    18f0:	ff 93       	push	r31
	if (tc_tce1_ccb_callback) {
    18f2:	e0 91 45 21 	lds	r30, 0x2145	; 0x802145 <tc_tce1_ccb_callback>
    18f6:	f0 91 46 21 	lds	r31, 0x2146	; 0x802146 <tc_tce1_ccb_callback+0x1>
    18fa:	30 97       	sbiw	r30, 0x00	; 0
    18fc:	09 f0       	breq	.+2      	; 0x1900 <__vector_56+0x42>
		tc_tce1_ccb_callback();
    18fe:	19 95       	eicall
	}
}
    1900:	ff 91       	pop	r31
    1902:	ef 91       	pop	r30
    1904:	bf 91       	pop	r27
    1906:	af 91       	pop	r26
    1908:	9f 91       	pop	r25
    190a:	8f 91       	pop	r24
    190c:	7f 91       	pop	r23
    190e:	6f 91       	pop	r22
    1910:	5f 91       	pop	r21
    1912:	4f 91       	pop	r20
    1914:	3f 91       	pop	r19
    1916:	2f 91       	pop	r18
    1918:	0f 90       	pop	r0
    191a:	0b be       	out	0x3b, r0	; 59
    191c:	0f 90       	pop	r0
    191e:	09 be       	out	0x39, r0	; 57
    1920:	0f 90       	pop	r0
    1922:	08 be       	out	0x38, r0	; 56
    1924:	0f 90       	pop	r0
    1926:	0f be       	out	0x3f, r0	; 63
    1928:	0f 90       	pop	r0
    192a:	1f 90       	pop	r1
    192c:	18 95       	reti

0000192e <__vector_108>:
 *
 * This function will handle interrupt on Timer Counter F0 overflow and
 * call the callback function.
 */
ISR(TCF0_OVF_vect)
{
    192e:	1f 92       	push	r1
    1930:	0f 92       	push	r0
    1932:	0f b6       	in	r0, 0x3f	; 63
    1934:	0f 92       	push	r0
    1936:	11 24       	eor	r1, r1
    1938:	08 b6       	in	r0, 0x38	; 56
    193a:	0f 92       	push	r0
    193c:	18 be       	out	0x38, r1	; 56
    193e:	09 b6       	in	r0, 0x39	; 57
    1940:	0f 92       	push	r0
    1942:	19 be       	out	0x39, r1	; 57
    1944:	0b b6       	in	r0, 0x3b	; 59
    1946:	0f 92       	push	r0
    1948:	1b be       	out	0x3b, r1	; 59
    194a:	2f 93       	push	r18
    194c:	3f 93       	push	r19
    194e:	4f 93       	push	r20
    1950:	5f 93       	push	r21
    1952:	6f 93       	push	r22
    1954:	7f 93       	push	r23
    1956:	8f 93       	push	r24
    1958:	9f 93       	push	r25
    195a:	af 93       	push	r26
    195c:	bf 93       	push	r27
    195e:	ef 93       	push	r30
    1960:	ff 93       	push	r31
	if (tc_tcf0_ovf_callback) {
    1962:	e0 91 43 21 	lds	r30, 0x2143	; 0x802143 <tc_tcf0_ovf_callback>
    1966:	f0 91 44 21 	lds	r31, 0x2144	; 0x802144 <tc_tcf0_ovf_callback+0x1>
    196a:	30 97       	sbiw	r30, 0x00	; 0
    196c:	09 f0       	breq	.+2      	; 0x1970 <__vector_108+0x42>
		tc_tcf0_ovf_callback();
    196e:	19 95       	eicall
	}
}
    1970:	ff 91       	pop	r31
    1972:	ef 91       	pop	r30
    1974:	bf 91       	pop	r27
    1976:	af 91       	pop	r26
    1978:	9f 91       	pop	r25
    197a:	8f 91       	pop	r24
    197c:	7f 91       	pop	r23
    197e:	6f 91       	pop	r22
    1980:	5f 91       	pop	r21
    1982:	4f 91       	pop	r20
    1984:	3f 91       	pop	r19
    1986:	2f 91       	pop	r18
    1988:	0f 90       	pop	r0
    198a:	0b be       	out	0x3b, r0	; 59
    198c:	0f 90       	pop	r0
    198e:	09 be       	out	0x39, r0	; 57
    1990:	0f 90       	pop	r0
    1992:	08 be       	out	0x38, r0	; 56
    1994:	0f 90       	pop	r0
    1996:	0f be       	out	0x3f, r0	; 63
    1998:	0f 90       	pop	r0
    199a:	1f 90       	pop	r1
    199c:	18 95       	reti

0000199e <__vector_109>:
 *
 * This function will handle interrupt on Timer Counter F0 error and
 * call the callback function.
 */
ISR(TCF0_ERR_vect)
{
    199e:	1f 92       	push	r1
    19a0:	0f 92       	push	r0
    19a2:	0f b6       	in	r0, 0x3f	; 63
    19a4:	0f 92       	push	r0
    19a6:	11 24       	eor	r1, r1
    19a8:	08 b6       	in	r0, 0x38	; 56
    19aa:	0f 92       	push	r0
    19ac:	18 be       	out	0x38, r1	; 56
    19ae:	09 b6       	in	r0, 0x39	; 57
    19b0:	0f 92       	push	r0
    19b2:	19 be       	out	0x39, r1	; 57
    19b4:	0b b6       	in	r0, 0x3b	; 59
    19b6:	0f 92       	push	r0
    19b8:	1b be       	out	0x3b, r1	; 59
    19ba:	2f 93       	push	r18
    19bc:	3f 93       	push	r19
    19be:	4f 93       	push	r20
    19c0:	5f 93       	push	r21
    19c2:	6f 93       	push	r22
    19c4:	7f 93       	push	r23
    19c6:	8f 93       	push	r24
    19c8:	9f 93       	push	r25
    19ca:	af 93       	push	r26
    19cc:	bf 93       	push	r27
    19ce:	ef 93       	push	r30
    19d0:	ff 93       	push	r31
	if (tc_tcf0_err_callback) {
    19d2:	e0 91 41 21 	lds	r30, 0x2141	; 0x802141 <tc_tcf0_err_callback>
    19d6:	f0 91 42 21 	lds	r31, 0x2142	; 0x802142 <tc_tcf0_err_callback+0x1>
    19da:	30 97       	sbiw	r30, 0x00	; 0
    19dc:	09 f0       	breq	.+2      	; 0x19e0 <__vector_109+0x42>
		tc_tcf0_err_callback();
    19de:	19 95       	eicall
	}
}
    19e0:	ff 91       	pop	r31
    19e2:	ef 91       	pop	r30
    19e4:	bf 91       	pop	r27
    19e6:	af 91       	pop	r26
    19e8:	9f 91       	pop	r25
    19ea:	8f 91       	pop	r24
    19ec:	7f 91       	pop	r23
    19ee:	6f 91       	pop	r22
    19f0:	5f 91       	pop	r21
    19f2:	4f 91       	pop	r20
    19f4:	3f 91       	pop	r19
    19f6:	2f 91       	pop	r18
    19f8:	0f 90       	pop	r0
    19fa:	0b be       	out	0x3b, r0	; 59
    19fc:	0f 90       	pop	r0
    19fe:	09 be       	out	0x39, r0	; 57
    1a00:	0f 90       	pop	r0
    1a02:	08 be       	out	0x38, r0	; 56
    1a04:	0f 90       	pop	r0
    1a06:	0f be       	out	0x3f, r0	; 63
    1a08:	0f 90       	pop	r0
    1a0a:	1f 90       	pop	r1
    1a0c:	18 95       	reti

00001a0e <__vector_110>:
 *
 * This function will handle interrupt on Timer Counter F0 Compare/CaptureA and
 * call the callback function.
 */
ISR(TCF0_CCA_vect)
{
    1a0e:	1f 92       	push	r1
    1a10:	0f 92       	push	r0
    1a12:	0f b6       	in	r0, 0x3f	; 63
    1a14:	0f 92       	push	r0
    1a16:	11 24       	eor	r1, r1
    1a18:	08 b6       	in	r0, 0x38	; 56
    1a1a:	0f 92       	push	r0
    1a1c:	18 be       	out	0x38, r1	; 56
    1a1e:	09 b6       	in	r0, 0x39	; 57
    1a20:	0f 92       	push	r0
    1a22:	19 be       	out	0x39, r1	; 57
    1a24:	0b b6       	in	r0, 0x3b	; 59
    1a26:	0f 92       	push	r0
    1a28:	1b be       	out	0x3b, r1	; 59
    1a2a:	2f 93       	push	r18
    1a2c:	3f 93       	push	r19
    1a2e:	4f 93       	push	r20
    1a30:	5f 93       	push	r21
    1a32:	6f 93       	push	r22
    1a34:	7f 93       	push	r23
    1a36:	8f 93       	push	r24
    1a38:	9f 93       	push	r25
    1a3a:	af 93       	push	r26
    1a3c:	bf 93       	push	r27
    1a3e:	ef 93       	push	r30
    1a40:	ff 93       	push	r31
	if (tc_tcf0_cca_callback) {
    1a42:	e0 91 3f 21 	lds	r30, 0x213F	; 0x80213f <tc_tcf0_cca_callback>
    1a46:	f0 91 40 21 	lds	r31, 0x2140	; 0x802140 <tc_tcf0_cca_callback+0x1>
    1a4a:	30 97       	sbiw	r30, 0x00	; 0
    1a4c:	09 f0       	breq	.+2      	; 0x1a50 <__vector_110+0x42>
		tc_tcf0_cca_callback();
    1a4e:	19 95       	eicall
	}
}
    1a50:	ff 91       	pop	r31
    1a52:	ef 91       	pop	r30
    1a54:	bf 91       	pop	r27
    1a56:	af 91       	pop	r26
    1a58:	9f 91       	pop	r25
    1a5a:	8f 91       	pop	r24
    1a5c:	7f 91       	pop	r23
    1a5e:	6f 91       	pop	r22
    1a60:	5f 91       	pop	r21
    1a62:	4f 91       	pop	r20
    1a64:	3f 91       	pop	r19
    1a66:	2f 91       	pop	r18
    1a68:	0f 90       	pop	r0
    1a6a:	0b be       	out	0x3b, r0	; 59
    1a6c:	0f 90       	pop	r0
    1a6e:	09 be       	out	0x39, r0	; 57
    1a70:	0f 90       	pop	r0
    1a72:	08 be       	out	0x38, r0	; 56
    1a74:	0f 90       	pop	r0
    1a76:	0f be       	out	0x3f, r0	; 63
    1a78:	0f 90       	pop	r0
    1a7a:	1f 90       	pop	r1
    1a7c:	18 95       	reti

00001a7e <__vector_111>:
 *
 * This function will handle interrupt on Timer Counter F0 Compare/CaptureB and
 * call the callback function.
 */
ISR(TCF0_CCB_vect)
{
    1a7e:	1f 92       	push	r1
    1a80:	0f 92       	push	r0
    1a82:	0f b6       	in	r0, 0x3f	; 63
    1a84:	0f 92       	push	r0
    1a86:	11 24       	eor	r1, r1
    1a88:	08 b6       	in	r0, 0x38	; 56
    1a8a:	0f 92       	push	r0
    1a8c:	18 be       	out	0x38, r1	; 56
    1a8e:	09 b6       	in	r0, 0x39	; 57
    1a90:	0f 92       	push	r0
    1a92:	19 be       	out	0x39, r1	; 57
    1a94:	0b b6       	in	r0, 0x3b	; 59
    1a96:	0f 92       	push	r0
    1a98:	1b be       	out	0x3b, r1	; 59
    1a9a:	2f 93       	push	r18
    1a9c:	3f 93       	push	r19
    1a9e:	4f 93       	push	r20
    1aa0:	5f 93       	push	r21
    1aa2:	6f 93       	push	r22
    1aa4:	7f 93       	push	r23
    1aa6:	8f 93       	push	r24
    1aa8:	9f 93       	push	r25
    1aaa:	af 93       	push	r26
    1aac:	bf 93       	push	r27
    1aae:	ef 93       	push	r30
    1ab0:	ff 93       	push	r31
	if (tc_tcf0_ccb_callback) {
    1ab2:	e0 91 3d 21 	lds	r30, 0x213D	; 0x80213d <tc_tcf0_ccb_callback>
    1ab6:	f0 91 3e 21 	lds	r31, 0x213E	; 0x80213e <tc_tcf0_ccb_callback+0x1>
    1aba:	30 97       	sbiw	r30, 0x00	; 0
    1abc:	09 f0       	breq	.+2      	; 0x1ac0 <__vector_111+0x42>
		tc_tcf0_ccb_callback();
    1abe:	19 95       	eicall
	}
}
    1ac0:	ff 91       	pop	r31
    1ac2:	ef 91       	pop	r30
    1ac4:	bf 91       	pop	r27
    1ac6:	af 91       	pop	r26
    1ac8:	9f 91       	pop	r25
    1aca:	8f 91       	pop	r24
    1acc:	7f 91       	pop	r23
    1ace:	6f 91       	pop	r22
    1ad0:	5f 91       	pop	r21
    1ad2:	4f 91       	pop	r20
    1ad4:	3f 91       	pop	r19
    1ad6:	2f 91       	pop	r18
    1ad8:	0f 90       	pop	r0
    1ada:	0b be       	out	0x3b, r0	; 59
    1adc:	0f 90       	pop	r0
    1ade:	09 be       	out	0x39, r0	; 57
    1ae0:	0f 90       	pop	r0
    1ae2:	08 be       	out	0x38, r0	; 56
    1ae4:	0f 90       	pop	r0
    1ae6:	0f be       	out	0x3f, r0	; 63
    1ae8:	0f 90       	pop	r0
    1aea:	1f 90       	pop	r1
    1aec:	18 95       	reti

00001aee <__vector_112>:
 *
 * This function will handle interrupt on Timer Counter F0 Compare/CaptureC and
 * call the callback function.
 */
ISR(TCF0_CCC_vect)
{
    1aee:	1f 92       	push	r1
    1af0:	0f 92       	push	r0
    1af2:	0f b6       	in	r0, 0x3f	; 63
    1af4:	0f 92       	push	r0
    1af6:	11 24       	eor	r1, r1
    1af8:	08 b6       	in	r0, 0x38	; 56
    1afa:	0f 92       	push	r0
    1afc:	18 be       	out	0x38, r1	; 56
    1afe:	09 b6       	in	r0, 0x39	; 57
    1b00:	0f 92       	push	r0
    1b02:	19 be       	out	0x39, r1	; 57
    1b04:	0b b6       	in	r0, 0x3b	; 59
    1b06:	0f 92       	push	r0
    1b08:	1b be       	out	0x3b, r1	; 59
    1b0a:	2f 93       	push	r18
    1b0c:	3f 93       	push	r19
    1b0e:	4f 93       	push	r20
    1b10:	5f 93       	push	r21
    1b12:	6f 93       	push	r22
    1b14:	7f 93       	push	r23
    1b16:	8f 93       	push	r24
    1b18:	9f 93       	push	r25
    1b1a:	af 93       	push	r26
    1b1c:	bf 93       	push	r27
    1b1e:	ef 93       	push	r30
    1b20:	ff 93       	push	r31
	if (tc_tcf0_ccc_callback) {
    1b22:	e0 91 3b 21 	lds	r30, 0x213B	; 0x80213b <tc_tcf0_ccc_callback>
    1b26:	f0 91 3c 21 	lds	r31, 0x213C	; 0x80213c <tc_tcf0_ccc_callback+0x1>
    1b2a:	30 97       	sbiw	r30, 0x00	; 0
    1b2c:	09 f0       	breq	.+2      	; 0x1b30 <__vector_112+0x42>
		tc_tcf0_ccc_callback();
    1b2e:	19 95       	eicall
	}
}
    1b30:	ff 91       	pop	r31
    1b32:	ef 91       	pop	r30
    1b34:	bf 91       	pop	r27
    1b36:	af 91       	pop	r26
    1b38:	9f 91       	pop	r25
    1b3a:	8f 91       	pop	r24
    1b3c:	7f 91       	pop	r23
    1b3e:	6f 91       	pop	r22
    1b40:	5f 91       	pop	r21
    1b42:	4f 91       	pop	r20
    1b44:	3f 91       	pop	r19
    1b46:	2f 91       	pop	r18
    1b48:	0f 90       	pop	r0
    1b4a:	0b be       	out	0x3b, r0	; 59
    1b4c:	0f 90       	pop	r0
    1b4e:	09 be       	out	0x39, r0	; 57
    1b50:	0f 90       	pop	r0
    1b52:	08 be       	out	0x38, r0	; 56
    1b54:	0f 90       	pop	r0
    1b56:	0f be       	out	0x3f, r0	; 63
    1b58:	0f 90       	pop	r0
    1b5a:	1f 90       	pop	r1
    1b5c:	18 95       	reti

00001b5e <__vector_113>:
 *
 * This function will handle interrupt on Timer Counter F0 Compare/CaptureD and
 * call the callback function.
 */
ISR(TCF0_CCD_vect)
{
    1b5e:	1f 92       	push	r1
    1b60:	0f 92       	push	r0
    1b62:	0f b6       	in	r0, 0x3f	; 63
    1b64:	0f 92       	push	r0
    1b66:	11 24       	eor	r1, r1
    1b68:	08 b6       	in	r0, 0x38	; 56
    1b6a:	0f 92       	push	r0
    1b6c:	18 be       	out	0x38, r1	; 56
    1b6e:	09 b6       	in	r0, 0x39	; 57
    1b70:	0f 92       	push	r0
    1b72:	19 be       	out	0x39, r1	; 57
    1b74:	0b b6       	in	r0, 0x3b	; 59
    1b76:	0f 92       	push	r0
    1b78:	1b be       	out	0x3b, r1	; 59
    1b7a:	2f 93       	push	r18
    1b7c:	3f 93       	push	r19
    1b7e:	4f 93       	push	r20
    1b80:	5f 93       	push	r21
    1b82:	6f 93       	push	r22
    1b84:	7f 93       	push	r23
    1b86:	8f 93       	push	r24
    1b88:	9f 93       	push	r25
    1b8a:	af 93       	push	r26
    1b8c:	bf 93       	push	r27
    1b8e:	ef 93       	push	r30
    1b90:	ff 93       	push	r31
	if (tc_tcf0_ccd_callback) {
    1b92:	e0 91 39 21 	lds	r30, 0x2139	; 0x802139 <tc_tcf0_ccd_callback>
    1b96:	f0 91 3a 21 	lds	r31, 0x213A	; 0x80213a <tc_tcf0_ccd_callback+0x1>
    1b9a:	30 97       	sbiw	r30, 0x00	; 0
    1b9c:	09 f0       	breq	.+2      	; 0x1ba0 <__vector_113+0x42>
		tc_tcf0_ccd_callback();
    1b9e:	19 95       	eicall
	}
}
    1ba0:	ff 91       	pop	r31
    1ba2:	ef 91       	pop	r30
    1ba4:	bf 91       	pop	r27
    1ba6:	af 91       	pop	r26
    1ba8:	9f 91       	pop	r25
    1baa:	8f 91       	pop	r24
    1bac:	7f 91       	pop	r23
    1bae:	6f 91       	pop	r22
    1bb0:	5f 91       	pop	r21
    1bb2:	4f 91       	pop	r20
    1bb4:	3f 91       	pop	r19
    1bb6:	2f 91       	pop	r18
    1bb8:	0f 90       	pop	r0
    1bba:	0b be       	out	0x3b, r0	; 59
    1bbc:	0f 90       	pop	r0
    1bbe:	09 be       	out	0x39, r0	; 57
    1bc0:	0f 90       	pop	r0
    1bc2:	08 be       	out	0x38, r0	; 56
    1bc4:	0f 90       	pop	r0
    1bc6:	0f be       	out	0x3f, r0	; 63
    1bc8:	0f 90       	pop	r0
    1bca:	1f 90       	pop	r1
    1bcc:	18 95       	reti

00001bce <__vector_114>:
 *
 * This function will handle interrupt on Timer Counter F1 overflow and
 * call the callback function.
 */
ISR(TCF1_OVF_vect)
{
    1bce:	1f 92       	push	r1
    1bd0:	0f 92       	push	r0
    1bd2:	0f b6       	in	r0, 0x3f	; 63
    1bd4:	0f 92       	push	r0
    1bd6:	11 24       	eor	r1, r1
    1bd8:	08 b6       	in	r0, 0x38	; 56
    1bda:	0f 92       	push	r0
    1bdc:	18 be       	out	0x38, r1	; 56
    1bde:	09 b6       	in	r0, 0x39	; 57
    1be0:	0f 92       	push	r0
    1be2:	19 be       	out	0x39, r1	; 57
    1be4:	0b b6       	in	r0, 0x3b	; 59
    1be6:	0f 92       	push	r0
    1be8:	1b be       	out	0x3b, r1	; 59
    1bea:	2f 93       	push	r18
    1bec:	3f 93       	push	r19
    1bee:	4f 93       	push	r20
    1bf0:	5f 93       	push	r21
    1bf2:	6f 93       	push	r22
    1bf4:	7f 93       	push	r23
    1bf6:	8f 93       	push	r24
    1bf8:	9f 93       	push	r25
    1bfa:	af 93       	push	r26
    1bfc:	bf 93       	push	r27
    1bfe:	ef 93       	push	r30
    1c00:	ff 93       	push	r31
	if (tc_tcf1_ovf_callback) {
    1c02:	e0 91 37 21 	lds	r30, 0x2137	; 0x802137 <tc_tcf1_ovf_callback>
    1c06:	f0 91 38 21 	lds	r31, 0x2138	; 0x802138 <tc_tcf1_ovf_callback+0x1>
    1c0a:	30 97       	sbiw	r30, 0x00	; 0
    1c0c:	09 f0       	breq	.+2      	; 0x1c10 <__vector_114+0x42>
		tc_tcf1_ovf_callback();
    1c0e:	19 95       	eicall
	}
}
    1c10:	ff 91       	pop	r31
    1c12:	ef 91       	pop	r30
    1c14:	bf 91       	pop	r27
    1c16:	af 91       	pop	r26
    1c18:	9f 91       	pop	r25
    1c1a:	8f 91       	pop	r24
    1c1c:	7f 91       	pop	r23
    1c1e:	6f 91       	pop	r22
    1c20:	5f 91       	pop	r21
    1c22:	4f 91       	pop	r20
    1c24:	3f 91       	pop	r19
    1c26:	2f 91       	pop	r18
    1c28:	0f 90       	pop	r0
    1c2a:	0b be       	out	0x3b, r0	; 59
    1c2c:	0f 90       	pop	r0
    1c2e:	09 be       	out	0x39, r0	; 57
    1c30:	0f 90       	pop	r0
    1c32:	08 be       	out	0x38, r0	; 56
    1c34:	0f 90       	pop	r0
    1c36:	0f be       	out	0x3f, r0	; 63
    1c38:	0f 90       	pop	r0
    1c3a:	1f 90       	pop	r1
    1c3c:	18 95       	reti

00001c3e <__vector_115>:
 *
 * This function will handle interrupt on Timer Counter F1 error and
 * call the callback function.
 */
ISR(TCF1_ERR_vect)
{
    1c3e:	1f 92       	push	r1
    1c40:	0f 92       	push	r0
    1c42:	0f b6       	in	r0, 0x3f	; 63
    1c44:	0f 92       	push	r0
    1c46:	11 24       	eor	r1, r1
    1c48:	08 b6       	in	r0, 0x38	; 56
    1c4a:	0f 92       	push	r0
    1c4c:	18 be       	out	0x38, r1	; 56
    1c4e:	09 b6       	in	r0, 0x39	; 57
    1c50:	0f 92       	push	r0
    1c52:	19 be       	out	0x39, r1	; 57
    1c54:	0b b6       	in	r0, 0x3b	; 59
    1c56:	0f 92       	push	r0
    1c58:	1b be       	out	0x3b, r1	; 59
    1c5a:	2f 93       	push	r18
    1c5c:	3f 93       	push	r19
    1c5e:	4f 93       	push	r20
    1c60:	5f 93       	push	r21
    1c62:	6f 93       	push	r22
    1c64:	7f 93       	push	r23
    1c66:	8f 93       	push	r24
    1c68:	9f 93       	push	r25
    1c6a:	af 93       	push	r26
    1c6c:	bf 93       	push	r27
    1c6e:	ef 93       	push	r30
    1c70:	ff 93       	push	r31
	if (tc_tcf1_err_callback) {
    1c72:	e0 91 35 21 	lds	r30, 0x2135	; 0x802135 <tc_tcf1_err_callback>
    1c76:	f0 91 36 21 	lds	r31, 0x2136	; 0x802136 <tc_tcf1_err_callback+0x1>
    1c7a:	30 97       	sbiw	r30, 0x00	; 0
    1c7c:	09 f0       	breq	.+2      	; 0x1c80 <__vector_115+0x42>
		tc_tcf1_err_callback();
    1c7e:	19 95       	eicall
	}
}
    1c80:	ff 91       	pop	r31
    1c82:	ef 91       	pop	r30
    1c84:	bf 91       	pop	r27
    1c86:	af 91       	pop	r26
    1c88:	9f 91       	pop	r25
    1c8a:	8f 91       	pop	r24
    1c8c:	7f 91       	pop	r23
    1c8e:	6f 91       	pop	r22
    1c90:	5f 91       	pop	r21
    1c92:	4f 91       	pop	r20
    1c94:	3f 91       	pop	r19
    1c96:	2f 91       	pop	r18
    1c98:	0f 90       	pop	r0
    1c9a:	0b be       	out	0x3b, r0	; 59
    1c9c:	0f 90       	pop	r0
    1c9e:	09 be       	out	0x39, r0	; 57
    1ca0:	0f 90       	pop	r0
    1ca2:	08 be       	out	0x38, r0	; 56
    1ca4:	0f 90       	pop	r0
    1ca6:	0f be       	out	0x3f, r0	; 63
    1ca8:	0f 90       	pop	r0
    1caa:	1f 90       	pop	r1
    1cac:	18 95       	reti

00001cae <__vector_116>:
 *
 * This function will handle interrupt on Timer Counter F1 Compare/CaptureA and
 * call the callback function.
 */
ISR(TCF1_CCA_vect)
{
    1cae:	1f 92       	push	r1
    1cb0:	0f 92       	push	r0
    1cb2:	0f b6       	in	r0, 0x3f	; 63
    1cb4:	0f 92       	push	r0
    1cb6:	11 24       	eor	r1, r1
    1cb8:	08 b6       	in	r0, 0x38	; 56
    1cba:	0f 92       	push	r0
    1cbc:	18 be       	out	0x38, r1	; 56
    1cbe:	09 b6       	in	r0, 0x39	; 57
    1cc0:	0f 92       	push	r0
    1cc2:	19 be       	out	0x39, r1	; 57
    1cc4:	0b b6       	in	r0, 0x3b	; 59
    1cc6:	0f 92       	push	r0
    1cc8:	1b be       	out	0x3b, r1	; 59
    1cca:	2f 93       	push	r18
    1ccc:	3f 93       	push	r19
    1cce:	4f 93       	push	r20
    1cd0:	5f 93       	push	r21
    1cd2:	6f 93       	push	r22
    1cd4:	7f 93       	push	r23
    1cd6:	8f 93       	push	r24
    1cd8:	9f 93       	push	r25
    1cda:	af 93       	push	r26
    1cdc:	bf 93       	push	r27
    1cde:	ef 93       	push	r30
    1ce0:	ff 93       	push	r31
	if (tc_tcf1_cca_callback) {
    1ce2:	e0 91 33 21 	lds	r30, 0x2133	; 0x802133 <tc_tcf1_cca_callback>
    1ce6:	f0 91 34 21 	lds	r31, 0x2134	; 0x802134 <tc_tcf1_cca_callback+0x1>
    1cea:	30 97       	sbiw	r30, 0x00	; 0
    1cec:	09 f0       	breq	.+2      	; 0x1cf0 <__vector_116+0x42>
		tc_tcf1_cca_callback();
    1cee:	19 95       	eicall
	}
}
    1cf0:	ff 91       	pop	r31
    1cf2:	ef 91       	pop	r30
    1cf4:	bf 91       	pop	r27
    1cf6:	af 91       	pop	r26
    1cf8:	9f 91       	pop	r25
    1cfa:	8f 91       	pop	r24
    1cfc:	7f 91       	pop	r23
    1cfe:	6f 91       	pop	r22
    1d00:	5f 91       	pop	r21
    1d02:	4f 91       	pop	r20
    1d04:	3f 91       	pop	r19
    1d06:	2f 91       	pop	r18
    1d08:	0f 90       	pop	r0
    1d0a:	0b be       	out	0x3b, r0	; 59
    1d0c:	0f 90       	pop	r0
    1d0e:	09 be       	out	0x39, r0	; 57
    1d10:	0f 90       	pop	r0
    1d12:	08 be       	out	0x38, r0	; 56
    1d14:	0f 90       	pop	r0
    1d16:	0f be       	out	0x3f, r0	; 63
    1d18:	0f 90       	pop	r0
    1d1a:	1f 90       	pop	r1
    1d1c:	18 95       	reti

00001d1e <__vector_117>:
 *
 * This function will handle interrupt on Timer Counter F1 Compare/CaptureB and
 * call the callback function.
 */
ISR(TCF1_CCB_vect)
{
    1d1e:	1f 92       	push	r1
    1d20:	0f 92       	push	r0
    1d22:	0f b6       	in	r0, 0x3f	; 63
    1d24:	0f 92       	push	r0
    1d26:	11 24       	eor	r1, r1
    1d28:	08 b6       	in	r0, 0x38	; 56
    1d2a:	0f 92       	push	r0
    1d2c:	18 be       	out	0x38, r1	; 56
    1d2e:	09 b6       	in	r0, 0x39	; 57
    1d30:	0f 92       	push	r0
    1d32:	19 be       	out	0x39, r1	; 57
    1d34:	0b b6       	in	r0, 0x3b	; 59
    1d36:	0f 92       	push	r0
    1d38:	1b be       	out	0x3b, r1	; 59
    1d3a:	2f 93       	push	r18
    1d3c:	3f 93       	push	r19
    1d3e:	4f 93       	push	r20
    1d40:	5f 93       	push	r21
    1d42:	6f 93       	push	r22
    1d44:	7f 93       	push	r23
    1d46:	8f 93       	push	r24
    1d48:	9f 93       	push	r25
    1d4a:	af 93       	push	r26
    1d4c:	bf 93       	push	r27
    1d4e:	ef 93       	push	r30
    1d50:	ff 93       	push	r31
	if (tc_tcf1_ccb_callback) {
    1d52:	e0 91 31 21 	lds	r30, 0x2131	; 0x802131 <tc_tcf1_ccb_callback>
    1d56:	f0 91 32 21 	lds	r31, 0x2132	; 0x802132 <tc_tcf1_ccb_callback+0x1>
    1d5a:	30 97       	sbiw	r30, 0x00	; 0
    1d5c:	09 f0       	breq	.+2      	; 0x1d60 <__vector_117+0x42>
		tc_tcf1_ccb_callback();
    1d5e:	19 95       	eicall
	}
}
    1d60:	ff 91       	pop	r31
    1d62:	ef 91       	pop	r30
    1d64:	bf 91       	pop	r27
    1d66:	af 91       	pop	r26
    1d68:	9f 91       	pop	r25
    1d6a:	8f 91       	pop	r24
    1d6c:	7f 91       	pop	r23
    1d6e:	6f 91       	pop	r22
    1d70:	5f 91       	pop	r21
    1d72:	4f 91       	pop	r20
    1d74:	3f 91       	pop	r19
    1d76:	2f 91       	pop	r18
    1d78:	0f 90       	pop	r0
    1d7a:	0b be       	out	0x3b, r0	; 59
    1d7c:	0f 90       	pop	r0
    1d7e:	09 be       	out	0x39, r0	; 57
    1d80:	0f 90       	pop	r0
    1d82:	08 be       	out	0x38, r0	; 56
    1d84:	0f 90       	pop	r0
    1d86:	0f be       	out	0x3f, r0	; 63
    1d88:	0f 90       	pop	r0
    1d8a:	1f 90       	pop	r1
    1d8c:	18 95       	reti

00001d8e <usart_putchar>:

	if (baud_offset != USART_BAUD_UNDEFINED) {
		(usart)->BAUDCTRLB = (uint8_t)((uint16_t)baudctrl);
		(usart)->BAUDCTRLA = (uint8_t)((uint16_t)baudctrl >> 8);
	}
}
    1d8e:	fc 01       	movw	r30, r24
    1d90:	91 81       	ldd	r25, Z+1	; 0x01
    1d92:	95 ff       	sbrs	r25, 5
    1d94:	fd cf       	rjmp	.-6      	; 0x1d90 <usart_putchar+0x2>
    1d96:	60 83       	st	Z, r22
    1d98:	80 e0       	ldi	r24, 0x00	; 0
    1d9a:	90 e0       	ldi	r25, 0x00	; 0
    1d9c:	08 95       	ret

00001d9e <usart_getchar>:
    1d9e:	fc 01       	movw	r30, r24
    1da0:	91 81       	ldd	r25, Z+1	; 0x01
    1da2:	99 23       	and	r25, r25
    1da4:	ec f7       	brge	.-6      	; 0x1da0 <usart_getchar+0x2>
    1da6:	80 81       	ld	r24, Z
    1da8:	08 95       	ret

00001daa <usart_set_baudrate>:
 * \retval true if the hardware supports the baud rate
 * \retval false if the hardware does not support the baud rate (i.e. it's
 *               either too high or too low.)
 */
bool usart_set_baudrate(USART_t *usart, uint32_t baud, uint32_t cpu_hz)
{
    1daa:	4f 92       	push	r4
    1dac:	5f 92       	push	r5
    1dae:	6f 92       	push	r6
    1db0:	7f 92       	push	r7
    1db2:	8f 92       	push	r8
    1db4:	9f 92       	push	r9
    1db6:	af 92       	push	r10
    1db8:	bf 92       	push	r11
    1dba:	ef 92       	push	r14
    1dbc:	ff 92       	push	r15
    1dbe:	0f 93       	push	r16
    1dc0:	1f 93       	push	r17
    1dc2:	cf 93       	push	r28
    1dc4:	7c 01       	movw	r14, r24
    1dc6:	4a 01       	movw	r8, r20
    1dc8:	5b 01       	movw	r10, r22
    1dca:	28 01       	movw	r4, r16
    1dcc:	39 01       	movw	r6, r18
	/* 8 = (2^0) * 8 * (2^0) = (2^BSCALE_MIN) * 8 * (BSEL_MIN) */
	max_rate = cpu_hz / 8;
	/* 4194304 = (2^7) * 8 * (2^12) = (2^BSCALE_MAX) * 8 * (BSEL_MAX+1) */
	min_rate = cpu_hz / 4194304;

	if (!((usart)->CTRLB & USART_CLK2X_bm)) {
    1dce:	fc 01       	movw	r30, r24
    1dd0:	84 81       	ldd	r24, Z+4	; 0x04
    1dd2:	82 ff       	sbrs	r24, 2
    1dd4:	16 c0       	rjmp	.+44     	; 0x1e02 <usart_set_baudrate+0x58>

	/*
	 * Check if the hardware supports the given baud rate
	 */
	/* 8 = (2^0) * 8 * (2^0) = (2^BSCALE_MIN) * 8 * (BSEL_MIN) */
	max_rate = cpu_hz / 8;
    1dd6:	d9 01       	movw	r26, r18
    1dd8:	c8 01       	movw	r24, r16
    1dda:	68 94       	set
    1ddc:	12 f8       	bld	r1, 2
    1dde:	b6 95       	lsr	r27
    1de0:	a7 95       	ror	r26
    1de2:	97 95       	ror	r25
    1de4:	87 95       	ror	r24
    1de6:	16 94       	lsr	r1
    1de8:	d1 f7       	brne	.-12     	; 0x1dde <usart_set_baudrate+0x34>
	/* 4194304 = (2^7) * 8 * (2^12) = (2^BSCALE_MAX) * 8 * (BSEL_MAX+1) */
	min_rate = cpu_hz / 4194304;
    1dea:	b9 01       	movw	r22, r18
    1dec:	a8 01       	movw	r20, r16
    1dee:	03 2e       	mov	r0, r19
    1df0:	36 e1       	ldi	r19, 0x16	; 22
    1df2:	76 95       	lsr	r23
    1df4:	67 95       	ror	r22
    1df6:	57 95       	ror	r21
    1df8:	47 95       	ror	r20
    1dfa:	3a 95       	dec	r19
    1dfc:	d1 f7       	brne	.-12     	; 0x1df2 <usart_set_baudrate+0x48>
    1dfe:	30 2d       	mov	r19, r0
    1e00:	15 c0       	rjmp	.+42     	; 0x1e2c <usart_set_baudrate+0x82>

	if (!((usart)->CTRLB & USART_CLK2X_bm)) {
		max_rate /= 2;
    1e02:	d9 01       	movw	r26, r18
    1e04:	c8 01       	movw	r24, r16
    1e06:	68 94       	set
    1e08:	13 f8       	bld	r1, 3
    1e0a:	b6 95       	lsr	r27
    1e0c:	a7 95       	ror	r26
    1e0e:	97 95       	ror	r25
    1e10:	87 95       	ror	r24
    1e12:	16 94       	lsr	r1
    1e14:	d1 f7       	brne	.-12     	; 0x1e0a <usart_set_baudrate+0x60>
		min_rate /= 2;
    1e16:	b9 01       	movw	r22, r18
    1e18:	a8 01       	movw	r20, r16
    1e1a:	03 2e       	mov	r0, r19
    1e1c:	37 e1       	ldi	r19, 0x17	; 23
    1e1e:	76 95       	lsr	r23
    1e20:	67 95       	ror	r22
    1e22:	57 95       	ror	r21
    1e24:	47 95       	ror	r20
    1e26:	3a 95       	dec	r19
    1e28:	d1 f7       	brne	.-12     	; 0x1e1e <usart_set_baudrate+0x74>
    1e2a:	30 2d       	mov	r19, r0
	}

	if ((baud > max_rate) || (baud < min_rate)) {
    1e2c:	88 15       	cp	r24, r8
    1e2e:	99 05       	cpc	r25, r9
    1e30:	aa 05       	cpc	r26, r10
    1e32:	bb 05       	cpc	r27, r11
    1e34:	08 f4       	brcc	.+2      	; 0x1e38 <usart_set_baudrate+0x8e>
    1e36:	a6 c0       	rjmp	.+332    	; 0x1f84 <usart_set_baudrate+0x1da>
    1e38:	84 16       	cp	r8, r20
    1e3a:	95 06       	cpc	r9, r21
    1e3c:	a6 06       	cpc	r10, r22
    1e3e:	b7 06       	cpc	r11, r23
    1e40:	08 f4       	brcc	.+2      	; 0x1e44 <usart_set_baudrate+0x9a>
    1e42:	a2 c0       	rjmp	.+324    	; 0x1f88 <usart_set_baudrate+0x1de>
		return false;
	}

	/* Check if double speed is enabled. */
	if (!((usart)->CTRLB & USART_CLK2X_bm)) {
    1e44:	f7 01       	movw	r30, r14
    1e46:	84 81       	ldd	r24, Z+4	; 0x04
    1e48:	82 fd       	sbrc	r24, 2
    1e4a:	04 c0       	rjmp	.+8      	; 0x1e54 <usart_set_baudrate+0xaa>
		baud *= 2;
    1e4c:	88 0c       	add	r8, r8
    1e4e:	99 1c       	adc	r9, r9
    1e50:	aa 1c       	adc	r10, r10
    1e52:	bb 1c       	adc	r11, r11
	}

	/* Find the lowest possible exponent. */
	limit = 0xfffU >> 4;
	ratio = cpu_hz / baud;
    1e54:	c3 01       	movw	r24, r6
    1e56:	b2 01       	movw	r22, r4
    1e58:	a5 01       	movw	r20, r10
    1e5a:	94 01       	movw	r18, r8
    1e5c:	0e 94 65 1f 	call	0x3eca	; 0x3eca <__udivmodsi4>

	for (exp = -7; exp < 7; exp++) {
		if (ratio < limit) {
    1e60:	2f 3f       	cpi	r18, 0xFF	; 255
    1e62:	31 05       	cpc	r19, r1
    1e64:	41 05       	cpc	r20, r1
    1e66:	51 05       	cpc	r21, r1
    1e68:	08 f4       	brcc	.+2      	; 0x1e6c <usart_set_baudrate+0xc2>
    1e6a:	90 c0       	rjmp	.+288    	; 0x1f8c <usart_set_baudrate+0x1e2>
    1e6c:	8f ef       	ldi	r24, 0xFF	; 255
    1e6e:	90 e0       	ldi	r25, 0x00	; 0
    1e70:	a0 e0       	ldi	r26, 0x00	; 0
    1e72:	b0 e0       	ldi	r27, 0x00	; 0
    1e74:	c9 ef       	ldi	r28, 0xF9	; 249
    1e76:	05 c0       	rjmp	.+10     	; 0x1e82 <usart_set_baudrate+0xd8>
    1e78:	28 17       	cp	r18, r24
    1e7a:	39 07       	cpc	r19, r25
    1e7c:	4a 07       	cpc	r20, r26
    1e7e:	5b 07       	cpc	r21, r27
    1e80:	58 f0       	brcs	.+22     	; 0x1e98 <usart_set_baudrate+0xee>
			break;
		}

		limit <<= 1;
    1e82:	88 0f       	add	r24, r24
    1e84:	99 1f       	adc	r25, r25
    1e86:	aa 1f       	adc	r26, r26
    1e88:	bb 1f       	adc	r27, r27

		if (exp < -3) {
    1e8a:	cd 3f       	cpi	r28, 0xFD	; 253
    1e8c:	0c f4       	brge	.+2      	; 0x1e90 <usart_set_baudrate+0xe6>
			limit |= 1;
    1e8e:	81 60       	ori	r24, 0x01	; 1
    1e90:	cf 5f       	subi	r28, 0xFF	; 255

	/* Find the lowest possible exponent. */
	limit = 0xfffU >> 4;
	ratio = cpu_hz / baud;

	for (exp = -7; exp < 7; exp++) {
    1e92:	c7 30       	cpi	r28, 0x07	; 7
    1e94:	89 f7       	brne	.-30     	; 0x1e78 <usart_set_baudrate+0xce>
    1e96:	4f c0       	rjmp	.+158    	; 0x1f36 <usart_set_baudrate+0x18c>
	 * point.
	 *
	 * The formula for calculating BSEL is slightly different when exp is
	 * negative than it is when exp is positive.
	 */
	if (exp < 0) {
    1e98:	cc 23       	and	r28, r28
    1e9a:	0c f0       	brlt	.+2      	; 0x1e9e <usart_set_baudrate+0xf4>
    1e9c:	4c c0       	rjmp	.+152    	; 0x1f36 <usart_set_baudrate+0x18c>
		/* We are supposed to subtract 1, then apply BSCALE. We want to
		 * apply BSCALE first, so we need to turn everything inside the
		 * parenthesis into a single fractional expression.
		 */
		cpu_hz -= 8 * baud;
    1e9e:	d5 01       	movw	r26, r10
    1ea0:	c4 01       	movw	r24, r8
    1ea2:	88 0f       	add	r24, r24
    1ea4:	99 1f       	adc	r25, r25
    1ea6:	aa 1f       	adc	r26, r26
    1ea8:	bb 1f       	adc	r27, r27
    1eaa:	88 0f       	add	r24, r24
    1eac:	99 1f       	adc	r25, r25
    1eae:	aa 1f       	adc	r26, r26
    1eb0:	bb 1f       	adc	r27, r27
    1eb2:	88 0f       	add	r24, r24
    1eb4:	99 1f       	adc	r25, r25
    1eb6:	aa 1f       	adc	r26, r26
    1eb8:	bb 1f       	adc	r27, r27
    1eba:	48 1a       	sub	r4, r24
    1ebc:	59 0a       	sbc	r5, r25
    1ebe:	6a 0a       	sbc	r6, r26
    1ec0:	7b 0a       	sbc	r7, r27
		/* If we end up with a left-shift after taking the final
		 * divide-by-8 into account, do the shift before the divide.
		 * Otherwise, left-shift the denominator instead (effectively
		 * resulting in an overall right shift.)
		 */
		if (exp <= -3) {
    1ec2:	ce 3f       	cpi	r28, 0xFE	; 254
    1ec4:	f4 f4       	brge	.+60     	; 0x1f02 <usart_set_baudrate+0x158>
			div = ((cpu_hz << (-exp - 3)) + baud / 2) / baud;
    1ec6:	8d ef       	ldi	r24, 0xFD	; 253
    1ec8:	9f ef       	ldi	r25, 0xFF	; 255
    1eca:	8c 1b       	sub	r24, r28
    1ecc:	91 09       	sbc	r25, r1
    1ece:	c7 fd       	sbrc	r28, 7
    1ed0:	93 95       	inc	r25
    1ed2:	04 c0       	rjmp	.+8      	; 0x1edc <usart_set_baudrate+0x132>
    1ed4:	44 0c       	add	r4, r4
    1ed6:	55 1c       	adc	r5, r5
    1ed8:	66 1c       	adc	r6, r6
    1eda:	77 1c       	adc	r7, r7
    1edc:	8a 95       	dec	r24
    1ede:	d2 f7       	brpl	.-12     	; 0x1ed4 <usart_set_baudrate+0x12a>
    1ee0:	d5 01       	movw	r26, r10
    1ee2:	c4 01       	movw	r24, r8
    1ee4:	b6 95       	lsr	r27
    1ee6:	a7 95       	ror	r26
    1ee8:	97 95       	ror	r25
    1eea:	87 95       	ror	r24
    1eec:	bc 01       	movw	r22, r24
    1eee:	cd 01       	movw	r24, r26
    1ef0:	64 0d       	add	r22, r4
    1ef2:	75 1d       	adc	r23, r5
    1ef4:	86 1d       	adc	r24, r6
    1ef6:	97 1d       	adc	r25, r7
    1ef8:	a5 01       	movw	r20, r10
    1efa:	94 01       	movw	r18, r8
    1efc:	0e 94 65 1f 	call	0x3eca	; 0x3eca <__udivmodsi4>
    1f00:	37 c0       	rjmp	.+110    	; 0x1f70 <usart_set_baudrate+0x1c6>
		} else {
			baud <<= exp + 3;
    1f02:	83 e0       	ldi	r24, 0x03	; 3
    1f04:	8c 0f       	add	r24, r28
    1f06:	a5 01       	movw	r20, r10
    1f08:	94 01       	movw	r18, r8
    1f0a:	04 c0       	rjmp	.+8      	; 0x1f14 <usart_set_baudrate+0x16a>
    1f0c:	22 0f       	add	r18, r18
    1f0e:	33 1f       	adc	r19, r19
    1f10:	44 1f       	adc	r20, r20
    1f12:	55 1f       	adc	r21, r21
    1f14:	8a 95       	dec	r24
    1f16:	d2 f7       	brpl	.-12     	; 0x1f0c <usart_set_baudrate+0x162>
			div = (cpu_hz + baud / 2) / baud;
    1f18:	da 01       	movw	r26, r20
    1f1a:	c9 01       	movw	r24, r18
    1f1c:	b6 95       	lsr	r27
    1f1e:	a7 95       	ror	r26
    1f20:	97 95       	ror	r25
    1f22:	87 95       	ror	r24
    1f24:	bc 01       	movw	r22, r24
    1f26:	cd 01       	movw	r24, r26
    1f28:	64 0d       	add	r22, r4
    1f2a:	75 1d       	adc	r23, r5
    1f2c:	86 1d       	adc	r24, r6
    1f2e:	97 1d       	adc	r25, r7
    1f30:	0e 94 65 1f 	call	0x3eca	; 0x3eca <__udivmodsi4>
    1f34:	1d c0       	rjmp	.+58     	; 0x1f70 <usart_set_baudrate+0x1c6>
		}
	} else {
		/* We will always do a right shift in this case, but we need to
		 * shift three extra positions because of the divide-by-8.
		 */
		baud <<= exp + 3;
    1f36:	83 e0       	ldi	r24, 0x03	; 3
    1f38:	8c 0f       	add	r24, r28
    1f3a:	a5 01       	movw	r20, r10
    1f3c:	94 01       	movw	r18, r8
    1f3e:	04 c0       	rjmp	.+8      	; 0x1f48 <usart_set_baudrate+0x19e>
    1f40:	22 0f       	add	r18, r18
    1f42:	33 1f       	adc	r19, r19
    1f44:	44 1f       	adc	r20, r20
    1f46:	55 1f       	adc	r21, r21
    1f48:	8a 95       	dec	r24
    1f4a:	d2 f7       	brpl	.-12     	; 0x1f40 <usart_set_baudrate+0x196>
		div = (cpu_hz + baud / 2) / baud - 1;
    1f4c:	da 01       	movw	r26, r20
    1f4e:	c9 01       	movw	r24, r18
    1f50:	b6 95       	lsr	r27
    1f52:	a7 95       	ror	r26
    1f54:	97 95       	ror	r25
    1f56:	87 95       	ror	r24
    1f58:	bc 01       	movw	r22, r24
    1f5a:	cd 01       	movw	r24, r26
    1f5c:	64 0d       	add	r22, r4
    1f5e:	75 1d       	adc	r23, r5
    1f60:	86 1d       	adc	r24, r6
    1f62:	97 1d       	adc	r25, r7
    1f64:	0e 94 65 1f 	call	0x3eca	; 0x3eca <__udivmodsi4>
    1f68:	21 50       	subi	r18, 0x01	; 1
    1f6a:	31 09       	sbc	r19, r1
    1f6c:	41 09       	sbc	r20, r1
    1f6e:	51 09       	sbc	r21, r1
	}

	(usart)->BAUDCTRLB = (uint8_t)(((div >> 8) & 0X0F) | (exp << 4));
    1f70:	83 2f       	mov	r24, r19
    1f72:	8f 70       	andi	r24, 0x0F	; 15
    1f74:	c2 95       	swap	r28
    1f76:	c0 7f       	andi	r28, 0xF0	; 240
    1f78:	c8 2b       	or	r28, r24
    1f7a:	f7 01       	movw	r30, r14
    1f7c:	c7 83       	std	Z+7, r28	; 0x07
	(usart)->BAUDCTRLA = (uint8_t)div;
    1f7e:	26 83       	std	Z+6, r18	; 0x06

	return true;
    1f80:	81 e0       	ldi	r24, 0x01	; 1
    1f82:	18 c0       	rjmp	.+48     	; 0x1fb4 <usart_set_baudrate+0x20a>
		max_rate /= 2;
		min_rate /= 2;
	}

	if ((baud > max_rate) || (baud < min_rate)) {
		return false;
    1f84:	80 e0       	ldi	r24, 0x00	; 0
    1f86:	16 c0       	rjmp	.+44     	; 0x1fb4 <usart_set_baudrate+0x20a>
    1f88:	80 e0       	ldi	r24, 0x00	; 0
    1f8a:	14 c0       	rjmp	.+40     	; 0x1fb4 <usart_set_baudrate+0x20a>
	if (exp < 0) {
		/* We are supposed to subtract 1, then apply BSCALE. We want to
		 * apply BSCALE first, so we need to turn everything inside the
		 * parenthesis into a single fractional expression.
		 */
		cpu_hz -= 8 * baud;
    1f8c:	d5 01       	movw	r26, r10
    1f8e:	c4 01       	movw	r24, r8
    1f90:	88 0f       	add	r24, r24
    1f92:	99 1f       	adc	r25, r25
    1f94:	aa 1f       	adc	r26, r26
    1f96:	bb 1f       	adc	r27, r27
    1f98:	88 0f       	add	r24, r24
    1f9a:	99 1f       	adc	r25, r25
    1f9c:	aa 1f       	adc	r26, r26
    1f9e:	bb 1f       	adc	r27, r27
    1fa0:	88 0f       	add	r24, r24
    1fa2:	99 1f       	adc	r25, r25
    1fa4:	aa 1f       	adc	r26, r26
    1fa6:	bb 1f       	adc	r27, r27
    1fa8:	48 1a       	sub	r4, r24
    1faa:	59 0a       	sbc	r5, r25
    1fac:	6a 0a       	sbc	r6, r26
    1fae:	7b 0a       	sbc	r7, r27

	/* Find the lowest possible exponent. */
	limit = 0xfffU >> 4;
	ratio = cpu_hz / baud;

	for (exp = -7; exp < 7; exp++) {
    1fb0:	c9 ef       	ldi	r28, 0xF9	; 249
    1fb2:	89 cf       	rjmp	.-238    	; 0x1ec6 <usart_set_baudrate+0x11c>

	(usart)->BAUDCTRLB = (uint8_t)(((div >> 8) & 0X0F) | (exp << 4));
	(usart)->BAUDCTRLA = (uint8_t)div;

	return true;
}
    1fb4:	cf 91       	pop	r28
    1fb6:	1f 91       	pop	r17
    1fb8:	0f 91       	pop	r16
    1fba:	ff 90       	pop	r15
    1fbc:	ef 90       	pop	r14
    1fbe:	bf 90       	pop	r11
    1fc0:	af 90       	pop	r10
    1fc2:	9f 90       	pop	r9
    1fc4:	8f 90       	pop	r8
    1fc6:	7f 90       	pop	r7
    1fc8:	6f 90       	pop	r6
    1fca:	5f 90       	pop	r5
    1fcc:	4f 90       	pop	r4
    1fce:	08 95       	ret

00001fd0 <usart_init_rs232>:
 *
 * \retval true if the initialization was successfull
 * \retval false if the initialization failed (error in baud rate calculation)
 */
bool usart_init_rs232(USART_t *usart, const usart_rs232_options_t *opt)
{
    1fd0:	0f 93       	push	r16
    1fd2:	1f 93       	push	r17
    1fd4:	cf 93       	push	r28
    1fd6:	df 93       	push	r29
    1fd8:	ec 01       	movw	r28, r24
    1fda:	8b 01       	movw	r16, r22
 *
 * \param module Pointer to the module's base address.
 */
static inline void sysclk_enable_peripheral_clock(const volatile void *module)
{
	if (module == NULL) {
    1fdc:	00 97       	sbiw	r24, 0x00	; 0
    1fde:	09 f4       	brne	.+2      	; 0x1fe2 <usart_init_rs232+0x12>
    1fe0:	5d c1       	rjmp	.+698    	; 0x229c <usart_init_rs232+0x2cc>
		Assert(false);
	}
#ifdef AES
	else if (module == &AES) {
    1fe2:	80 3c       	cpi	r24, 0xC0	; 192
    1fe4:	91 05       	cpc	r25, r1
    1fe6:	29 f4       	brne	.+10     	; 0x1ff2 <usart_init_rs232+0x22>
		sysclk_enable_module(SYSCLK_PORT_GEN, SYSCLK_AES);
    1fe8:	60 e1       	ldi	r22, 0x10	; 16
    1fea:	80 e0       	ldi	r24, 0x00	; 0
    1fec:	0e 94 ce 03 	call	0x79c	; 0x79c <sysclk_enable_module>
    1ff0:	55 c1       	rjmp	.+682    	; 0x229c <usart_init_rs232+0x2cc>
	}
#endif
#ifdef EBI
	else if (module == &EBI) {
    1ff2:	c0 34       	cpi	r28, 0x40	; 64
    1ff4:	84 e0       	ldi	r24, 0x04	; 4
    1ff6:	d8 07       	cpc	r29, r24
    1ff8:	29 f4       	brne	.+10     	; 0x2004 <usart_init_rs232+0x34>
		sysclk_enable_module(SYSCLK_PORT_GEN, SYSCLK_EBI);
    1ffa:	68 e0       	ldi	r22, 0x08	; 8
    1ffc:	80 e0       	ldi	r24, 0x00	; 0
    1ffe:	0e 94 ce 03 	call	0x79c	; 0x79c <sysclk_enable_module>
    2002:	4c c1       	rjmp	.+664    	; 0x229c <usart_init_rs232+0x2cc>
	}
#endif
#ifdef RTC
	else if (module == &RTC) {
    2004:	c1 15       	cp	r28, r1
    2006:	e4 e0       	ldi	r30, 0x04	; 4
    2008:	de 07       	cpc	r29, r30
    200a:	29 f4       	brne	.+10     	; 0x2016 <usart_init_rs232+0x46>
		sysclk_enable_module(SYSCLK_PORT_GEN, SYSCLK_RTC);
    200c:	64 e0       	ldi	r22, 0x04	; 4
    200e:	80 e0       	ldi	r24, 0x00	; 0
    2010:	0e 94 ce 03 	call	0x79c	; 0x79c <sysclk_enable_module>
    2014:	43 c1       	rjmp	.+646    	; 0x229c <usart_init_rs232+0x2cc>
	}
#endif
#ifdef EVSYS
	else if (module == &EVSYS) {
    2016:	c0 38       	cpi	r28, 0x80	; 128
    2018:	f1 e0       	ldi	r31, 0x01	; 1
    201a:	df 07       	cpc	r29, r31
    201c:	29 f4       	brne	.+10     	; 0x2028 <usart_init_rs232+0x58>
		sysclk_enable_module(SYSCLK_PORT_GEN, SYSCLK_EVSYS);
    201e:	62 e0       	ldi	r22, 0x02	; 2
    2020:	80 e0       	ldi	r24, 0x00	; 0
    2022:	0e 94 ce 03 	call	0x79c	; 0x79c <sysclk_enable_module>
    2026:	3a c1       	rjmp	.+628    	; 0x229c <usart_init_rs232+0x2cc>
	}
#endif
#ifdef DMA
	else if (module == &DMA) {
    2028:	c1 15       	cp	r28, r1
    202a:	81 e0       	ldi	r24, 0x01	; 1
    202c:	d8 07       	cpc	r29, r24
    202e:	29 f4       	brne	.+10     	; 0x203a <usart_init_rs232+0x6a>
		sysclk_enable_module(SYSCLK_PORT_GEN, SYSCLK_DMA);
    2030:	61 e0       	ldi	r22, 0x01	; 1
    2032:	80 e0       	ldi	r24, 0x00	; 0
    2034:	0e 94 ce 03 	call	0x79c	; 0x79c <sysclk_enable_module>
    2038:	31 c1       	rjmp	.+610    	; 0x229c <usart_init_rs232+0x2cc>
	else if (module == &EDMA) {
		sysclk_enable_module(SYSCLK_PORT_GEN, SYSCLK_EDMA);
	}
#endif
#ifdef ACA
	else if (module == &ACA) {
    203a:	c0 38       	cpi	r28, 0x80	; 128
    203c:	e3 e0       	ldi	r30, 0x03	; 3
    203e:	de 07       	cpc	r29, r30
    2040:	29 f4       	brne	.+10     	; 0x204c <usart_init_rs232+0x7c>
		sysclk_enable_module(SYSCLK_PORT_A, SYSCLK_AC);
    2042:	61 e0       	ldi	r22, 0x01	; 1
    2044:	81 e0       	ldi	r24, 0x01	; 1
    2046:	0e 94 ce 03 	call	0x79c	; 0x79c <sysclk_enable_module>
    204a:	28 c1       	rjmp	.+592    	; 0x229c <usart_init_rs232+0x2cc>
	}
#endif
#ifdef ACB
	else if (module == &ACB) {
    204c:	c0 39       	cpi	r28, 0x90	; 144
    204e:	f3 e0       	ldi	r31, 0x03	; 3
    2050:	df 07       	cpc	r29, r31
    2052:	29 f4       	brne	.+10     	; 0x205e <usart_init_rs232+0x8e>
		sysclk_enable_module(SYSCLK_PORT_B, SYSCLK_AC);
    2054:	61 e0       	ldi	r22, 0x01	; 1
    2056:	82 e0       	ldi	r24, 0x02	; 2
    2058:	0e 94 ce 03 	call	0x79c	; 0x79c <sysclk_enable_module>
    205c:	1f c1       	rjmp	.+574    	; 0x229c <usart_init_rs232+0x2cc>
	}
#endif
#ifdef ADCA
	else if (module == &ADCA) {
    205e:	c1 15       	cp	r28, r1
    2060:	82 e0       	ldi	r24, 0x02	; 2
    2062:	d8 07       	cpc	r29, r24
    2064:	29 f4       	brne	.+10     	; 0x2070 <usart_init_rs232+0xa0>
		sysclk_enable_module(SYSCLK_PORT_A, SYSCLK_ADC);
    2066:	62 e0       	ldi	r22, 0x02	; 2
    2068:	81 e0       	ldi	r24, 0x01	; 1
    206a:	0e 94 ce 03 	call	0x79c	; 0x79c <sysclk_enable_module>
    206e:	16 c1       	rjmp	.+556    	; 0x229c <usart_init_rs232+0x2cc>
	}
#endif
#ifdef ADCB
	else if (module == &ADCB) {
    2070:	c0 34       	cpi	r28, 0x40	; 64
    2072:	e2 e0       	ldi	r30, 0x02	; 2
    2074:	de 07       	cpc	r29, r30
    2076:	29 f4       	brne	.+10     	; 0x2082 <usart_init_rs232+0xb2>
		sysclk_enable_module(SYSCLK_PORT_B, SYSCLK_ADC);
    2078:	62 e0       	ldi	r22, 0x02	; 2
    207a:	82 e0       	ldi	r24, 0x02	; 2
    207c:	0e 94 ce 03 	call	0x79c	; 0x79c <sysclk_enable_module>
    2080:	0d c1       	rjmp	.+538    	; 0x229c <usart_init_rs232+0x2cc>
	}
#endif
#ifdef DACA
	else if (module == &DACA) {
    2082:	c1 15       	cp	r28, r1
    2084:	f3 e0       	ldi	r31, 0x03	; 3
    2086:	df 07       	cpc	r29, r31
    2088:	29 f4       	brne	.+10     	; 0x2094 <usart_init_rs232+0xc4>
		sysclk_enable_module(SYSCLK_PORT_A, SYSCLK_DAC);
    208a:	64 e0       	ldi	r22, 0x04	; 4
    208c:	81 e0       	ldi	r24, 0x01	; 1
    208e:	0e 94 ce 03 	call	0x79c	; 0x79c <sysclk_enable_module>
    2092:	04 c1       	rjmp	.+520    	; 0x229c <usart_init_rs232+0x2cc>
	}
#endif
// Workaround for bad XMEGA D header file
#if !XMEGA_D
#ifdef DACB
	else if (module == &DACB) {
    2094:	c0 32       	cpi	r28, 0x20	; 32
    2096:	83 e0       	ldi	r24, 0x03	; 3
    2098:	d8 07       	cpc	r29, r24
    209a:	29 f4       	brne	.+10     	; 0x20a6 <usart_init_rs232+0xd6>
		sysclk_enable_module(SYSCLK_PORT_B, SYSCLK_DAC);
    209c:	64 e0       	ldi	r22, 0x04	; 4
    209e:	82 e0       	ldi	r24, 0x02	; 2
    20a0:	0e 94 ce 03 	call	0x79c	; 0x79c <sysclk_enable_module>
    20a4:	fb c0       	rjmp	.+502    	; 0x229c <usart_init_rs232+0x2cc>
	}
#endif
#endif // Workaround end
#ifdef TCC0
	else if (module == &TCC0) {
    20a6:	c1 15       	cp	r28, r1
    20a8:	e8 e0       	ldi	r30, 0x08	; 8
    20aa:	de 07       	cpc	r29, r30
    20ac:	29 f4       	brne	.+10     	; 0x20b8 <usart_init_rs232+0xe8>
		sysclk_enable_module(SYSCLK_PORT_C, SYSCLK_TC0);
    20ae:	61 e0       	ldi	r22, 0x01	; 1
    20b0:	83 e0       	ldi	r24, 0x03	; 3
    20b2:	0e 94 ce 03 	call	0x79c	; 0x79c <sysclk_enable_module>
    20b6:	f2 c0       	rjmp	.+484    	; 0x229c <usart_init_rs232+0x2cc>
	}
#endif
#ifdef TCD0
	else if (module == &TCD0) {
    20b8:	c1 15       	cp	r28, r1
    20ba:	f9 e0       	ldi	r31, 0x09	; 9
    20bc:	df 07       	cpc	r29, r31
    20be:	29 f4       	brne	.+10     	; 0x20ca <usart_init_rs232+0xfa>
		sysclk_enable_module(SYSCLK_PORT_D, SYSCLK_TC0);
    20c0:	61 e0       	ldi	r22, 0x01	; 1
    20c2:	84 e0       	ldi	r24, 0x04	; 4
    20c4:	0e 94 ce 03 	call	0x79c	; 0x79c <sysclk_enable_module>
    20c8:	e9 c0       	rjmp	.+466    	; 0x229c <usart_init_rs232+0x2cc>
	}
#endif
#ifdef TCE0
	else if (module == &TCE0) {
    20ca:	c1 15       	cp	r28, r1
    20cc:	8a e0       	ldi	r24, 0x0A	; 10
    20ce:	d8 07       	cpc	r29, r24
    20d0:	29 f4       	brne	.+10     	; 0x20dc <usart_init_rs232+0x10c>
		sysclk_enable_module(SYSCLK_PORT_E, SYSCLK_TC0);
    20d2:	61 e0       	ldi	r22, 0x01	; 1
    20d4:	85 e0       	ldi	r24, 0x05	; 5
    20d6:	0e 94 ce 03 	call	0x79c	; 0x79c <sysclk_enable_module>
    20da:	e0 c0       	rjmp	.+448    	; 0x229c <usart_init_rs232+0x2cc>
	}
#endif
#ifdef TCF0
	else if (module == &TCF0) {
    20dc:	c1 15       	cp	r28, r1
    20de:	eb e0       	ldi	r30, 0x0B	; 11
    20e0:	de 07       	cpc	r29, r30
    20e2:	29 f4       	brne	.+10     	; 0x20ee <usart_init_rs232+0x11e>
		sysclk_enable_module(SYSCLK_PORT_F, SYSCLK_TC0);
    20e4:	61 e0       	ldi	r22, 0x01	; 1
    20e6:	86 e0       	ldi	r24, 0x06	; 6
    20e8:	0e 94 ce 03 	call	0x79c	; 0x79c <sysclk_enable_module>
    20ec:	d7 c0       	rjmp	.+430    	; 0x229c <usart_init_rs232+0x2cc>
	}
#endif
#ifdef TCC1
	else if (module == &TCC1) {
    20ee:	c0 34       	cpi	r28, 0x40	; 64
    20f0:	f8 e0       	ldi	r31, 0x08	; 8
    20f2:	df 07       	cpc	r29, r31
    20f4:	29 f4       	brne	.+10     	; 0x2100 <usart_init_rs232+0x130>
		sysclk_enable_module(SYSCLK_PORT_C, SYSCLK_TC1);
    20f6:	62 e0       	ldi	r22, 0x02	; 2
    20f8:	83 e0       	ldi	r24, 0x03	; 3
    20fa:	0e 94 ce 03 	call	0x79c	; 0x79c <sysclk_enable_module>
    20fe:	ce c0       	rjmp	.+412    	; 0x229c <usart_init_rs232+0x2cc>
	}
#endif
#ifdef TCD1
	else if (module == &TCD1) {
    2100:	c0 34       	cpi	r28, 0x40	; 64
    2102:	89 e0       	ldi	r24, 0x09	; 9
    2104:	d8 07       	cpc	r29, r24
    2106:	29 f4       	brne	.+10     	; 0x2112 <usart_init_rs232+0x142>
		sysclk_enable_module(SYSCLK_PORT_D, SYSCLK_TC1);
    2108:	62 e0       	ldi	r22, 0x02	; 2
    210a:	84 e0       	ldi	r24, 0x04	; 4
    210c:	0e 94 ce 03 	call	0x79c	; 0x79c <sysclk_enable_module>
    2110:	c5 c0       	rjmp	.+394    	; 0x229c <usart_init_rs232+0x2cc>
	}
#endif
#ifdef TCE1
	else if (module == &TCE1) {
    2112:	c0 34       	cpi	r28, 0x40	; 64
    2114:	ea e0       	ldi	r30, 0x0A	; 10
    2116:	de 07       	cpc	r29, r30
    2118:	29 f4       	brne	.+10     	; 0x2124 <usart_init_rs232+0x154>
		sysclk_enable_module(SYSCLK_PORT_E, SYSCLK_TC1);
    211a:	62 e0       	ldi	r22, 0x02	; 2
    211c:	85 e0       	ldi	r24, 0x05	; 5
    211e:	0e 94 ce 03 	call	0x79c	; 0x79c <sysclk_enable_module>
    2122:	bc c0       	rjmp	.+376    	; 0x229c <usart_init_rs232+0x2cc>
	}
#endif
#ifdef TCF1
	else if (module == &TCF1) {
    2124:	c0 34       	cpi	r28, 0x40	; 64
    2126:	fb e0       	ldi	r31, 0x0B	; 11
    2128:	df 07       	cpc	r29, r31
    212a:	29 f4       	brne	.+10     	; 0x2136 <usart_init_rs232+0x166>
		sysclk_enable_module(SYSCLK_PORT_F, SYSCLK_TC1);
    212c:	62 e0       	ldi	r22, 0x02	; 2
    212e:	86 e0       	ldi	r24, 0x06	; 6
    2130:	0e 94 ce 03 	call	0x79c	; 0x79c <sysclk_enable_module>
    2134:	b3 c0       	rjmp	.+358    	; 0x229c <usart_init_rs232+0x2cc>
	else if (module == &TCD5) {
		sysclk_enable_module(SYSCLK_PORT_D, SYSCLK_TC5);
	}
#endif
#ifdef HIRESC
	else if (module == &HIRESC) {
    2136:	c0 39       	cpi	r28, 0x90	; 144
    2138:	88 e0       	ldi	r24, 0x08	; 8
    213a:	d8 07       	cpc	r29, r24
    213c:	29 f4       	brne	.+10     	; 0x2148 <usart_init_rs232+0x178>
			sysclk_enable_module(SYSCLK_PORT_C, SYSCLK_HIRES);
    213e:	64 e0       	ldi	r22, 0x04	; 4
    2140:	83 e0       	ldi	r24, 0x03	; 3
    2142:	0e 94 ce 03 	call	0x79c	; 0x79c <sysclk_enable_module>
    2146:	aa c0       	rjmp	.+340    	; 0x229c <usart_init_rs232+0x2cc>
	}
#endif
#ifdef HIRESD
	else if (module == &HIRESD) {
    2148:	c0 39       	cpi	r28, 0x90	; 144
    214a:	e9 e0       	ldi	r30, 0x09	; 9
    214c:	de 07       	cpc	r29, r30
    214e:	29 f4       	brne	.+10     	; 0x215a <usart_init_rs232+0x18a>
		sysclk_enable_module(SYSCLK_PORT_D, SYSCLK_HIRES);
    2150:	64 e0       	ldi	r22, 0x04	; 4
    2152:	84 e0       	ldi	r24, 0x04	; 4
    2154:	0e 94 ce 03 	call	0x79c	; 0x79c <sysclk_enable_module>
    2158:	a1 c0       	rjmp	.+322    	; 0x229c <usart_init_rs232+0x2cc>
	}
#endif
#ifdef HIRESE
	else if (module == &HIRESE) {
    215a:	c0 39       	cpi	r28, 0x90	; 144
    215c:	fa e0       	ldi	r31, 0x0A	; 10
    215e:	df 07       	cpc	r29, r31
    2160:	29 f4       	brne	.+10     	; 0x216c <usart_init_rs232+0x19c>
		sysclk_enable_module(SYSCLK_PORT_E, SYSCLK_HIRES);
    2162:	64 e0       	ldi	r22, 0x04	; 4
    2164:	85 e0       	ldi	r24, 0x05	; 5
    2166:	0e 94 ce 03 	call	0x79c	; 0x79c <sysclk_enable_module>
    216a:	98 c0       	rjmp	.+304    	; 0x229c <usart_init_rs232+0x2cc>
	}
#endif
#ifdef HIRESF
	else if (module == &HIRESF) {
    216c:	c0 39       	cpi	r28, 0x90	; 144
    216e:	8b e0       	ldi	r24, 0x0B	; 11
    2170:	d8 07       	cpc	r29, r24
    2172:	29 f4       	brne	.+10     	; 0x217e <usart_init_rs232+0x1ae>
		sysclk_enable_module(SYSCLK_PORT_F, SYSCLK_HIRES);
    2174:	64 e0       	ldi	r22, 0x04	; 4
    2176:	86 e0       	ldi	r24, 0x06	; 6
    2178:	0e 94 ce 03 	call	0x79c	; 0x79c <sysclk_enable_module>
    217c:	8f c0       	rjmp	.+286    	; 0x229c <usart_init_rs232+0x2cc>
	}
#endif
#ifdef SPIC
	else if (module == &SPIC) {
    217e:	c0 3c       	cpi	r28, 0xC0	; 192
    2180:	e8 e0       	ldi	r30, 0x08	; 8
    2182:	de 07       	cpc	r29, r30
    2184:	29 f4       	brne	.+10     	; 0x2190 <usart_init_rs232+0x1c0>
		sysclk_enable_module(SYSCLK_PORT_C, SYSCLK_SPI);
    2186:	68 e0       	ldi	r22, 0x08	; 8
    2188:	83 e0       	ldi	r24, 0x03	; 3
    218a:	0e 94 ce 03 	call	0x79c	; 0x79c <sysclk_enable_module>
    218e:	86 c0       	rjmp	.+268    	; 0x229c <usart_init_rs232+0x2cc>
	}
#endif
#ifdef SPID
	else if (module == &SPID) {
    2190:	c0 3c       	cpi	r28, 0xC0	; 192
    2192:	f9 e0       	ldi	r31, 0x09	; 9
    2194:	df 07       	cpc	r29, r31
    2196:	29 f4       	brne	.+10     	; 0x21a2 <usart_init_rs232+0x1d2>
		sysclk_enable_module(SYSCLK_PORT_D, SYSCLK_SPI);
    2198:	68 e0       	ldi	r22, 0x08	; 8
    219a:	84 e0       	ldi	r24, 0x04	; 4
    219c:	0e 94 ce 03 	call	0x79c	; 0x79c <sysclk_enable_module>
    21a0:	7d c0       	rjmp	.+250    	; 0x229c <usart_init_rs232+0x2cc>
	}
#endif
#ifdef SPIE
	else if (module == &SPIE) {
    21a2:	c0 3c       	cpi	r28, 0xC0	; 192
    21a4:	8a e0       	ldi	r24, 0x0A	; 10
    21a6:	d8 07       	cpc	r29, r24
    21a8:	29 f4       	brne	.+10     	; 0x21b4 <usart_init_rs232+0x1e4>
		sysclk_enable_module(SYSCLK_PORT_E, SYSCLK_SPI);
    21aa:	68 e0       	ldi	r22, 0x08	; 8
    21ac:	85 e0       	ldi	r24, 0x05	; 5
    21ae:	0e 94 ce 03 	call	0x79c	; 0x79c <sysclk_enable_module>
    21b2:	74 c0       	rjmp	.+232    	; 0x229c <usart_init_rs232+0x2cc>
	}
#endif
#ifdef SPIF
	else if (module == &SPIF) {
    21b4:	c0 3c       	cpi	r28, 0xC0	; 192
    21b6:	eb e0       	ldi	r30, 0x0B	; 11
    21b8:	de 07       	cpc	r29, r30
    21ba:	29 f4       	brne	.+10     	; 0x21c6 <usart_init_rs232+0x1f6>
		sysclk_enable_module(SYSCLK_PORT_F, SYSCLK_SPI);
    21bc:	68 e0       	ldi	r22, 0x08	; 8
    21be:	86 e0       	ldi	r24, 0x06	; 6
    21c0:	0e 94 ce 03 	call	0x79c	; 0x79c <sysclk_enable_module>
    21c4:	6b c0       	rjmp	.+214    	; 0x229c <usart_init_rs232+0x2cc>
	}
#endif
#ifdef USARTC0
	else if (module == &USARTC0) {
    21c6:	c0 3a       	cpi	r28, 0xA0	; 160
    21c8:	f8 e0       	ldi	r31, 0x08	; 8
    21ca:	df 07       	cpc	r29, r31
    21cc:	29 f4       	brne	.+10     	; 0x21d8 <usart_init_rs232+0x208>
		sysclk_enable_module(SYSCLK_PORT_C, SYSCLK_USART0);
    21ce:	60 e1       	ldi	r22, 0x10	; 16
    21d0:	83 e0       	ldi	r24, 0x03	; 3
    21d2:	0e 94 ce 03 	call	0x79c	; 0x79c <sysclk_enable_module>
    21d6:	62 c0       	rjmp	.+196    	; 0x229c <usart_init_rs232+0x2cc>
	}
#endif
#ifdef USARTD0
	else if (module == &USARTD0) {
    21d8:	c0 3a       	cpi	r28, 0xA0	; 160
    21da:	89 e0       	ldi	r24, 0x09	; 9
    21dc:	d8 07       	cpc	r29, r24
    21de:	29 f4       	brne	.+10     	; 0x21ea <usart_init_rs232+0x21a>
		sysclk_enable_module(SYSCLK_PORT_D, SYSCLK_USART0);
    21e0:	60 e1       	ldi	r22, 0x10	; 16
    21e2:	84 e0       	ldi	r24, 0x04	; 4
    21e4:	0e 94 ce 03 	call	0x79c	; 0x79c <sysclk_enable_module>
    21e8:	59 c0       	rjmp	.+178    	; 0x229c <usart_init_rs232+0x2cc>
	}
#endif
#ifdef USARTE0
	else if (module == &USARTE0) {
    21ea:	c0 3a       	cpi	r28, 0xA0	; 160
    21ec:	ea e0       	ldi	r30, 0x0A	; 10
    21ee:	de 07       	cpc	r29, r30
    21f0:	29 f4       	brne	.+10     	; 0x21fc <usart_init_rs232+0x22c>
		sysclk_enable_module(SYSCLK_PORT_E, SYSCLK_USART0);
    21f2:	60 e1       	ldi	r22, 0x10	; 16
    21f4:	85 e0       	ldi	r24, 0x05	; 5
    21f6:	0e 94 ce 03 	call	0x79c	; 0x79c <sysclk_enable_module>
    21fa:	50 c0       	rjmp	.+160    	; 0x229c <usart_init_rs232+0x2cc>
	}
#endif
#ifdef USARTF0
	else if (module == &USARTF0) {
    21fc:	c0 3a       	cpi	r28, 0xA0	; 160
    21fe:	fb e0       	ldi	r31, 0x0B	; 11
    2200:	df 07       	cpc	r29, r31
    2202:	29 f4       	brne	.+10     	; 0x220e <usart_init_rs232+0x23e>
		sysclk_enable_module(SYSCLK_PORT_F, SYSCLK_USART0);
    2204:	60 e1       	ldi	r22, 0x10	; 16
    2206:	86 e0       	ldi	r24, 0x06	; 6
    2208:	0e 94 ce 03 	call	0x79c	; 0x79c <sysclk_enable_module>
    220c:	47 c0       	rjmp	.+142    	; 0x229c <usart_init_rs232+0x2cc>
	}
#endif
#ifdef USARTC1
	else if (module == &USARTC1) {
    220e:	c0 3b       	cpi	r28, 0xB0	; 176
    2210:	88 e0       	ldi	r24, 0x08	; 8
    2212:	d8 07       	cpc	r29, r24
    2214:	29 f4       	brne	.+10     	; 0x2220 <usart_init_rs232+0x250>
		sysclk_enable_module(SYSCLK_PORT_C, SYSCLK_USART1);
    2216:	60 e2       	ldi	r22, 0x20	; 32
    2218:	83 e0       	ldi	r24, 0x03	; 3
    221a:	0e 94 ce 03 	call	0x79c	; 0x79c <sysclk_enable_module>
    221e:	3e c0       	rjmp	.+124    	; 0x229c <usart_init_rs232+0x2cc>
	}
#endif
#ifdef USARTD1
	else if (module == &USARTD1) {
    2220:	c0 3b       	cpi	r28, 0xB0	; 176
    2222:	e9 e0       	ldi	r30, 0x09	; 9
    2224:	de 07       	cpc	r29, r30
    2226:	29 f4       	brne	.+10     	; 0x2232 <usart_init_rs232+0x262>
		sysclk_enable_module(SYSCLK_PORT_D, SYSCLK_USART1);
    2228:	60 e2       	ldi	r22, 0x20	; 32
    222a:	84 e0       	ldi	r24, 0x04	; 4
    222c:	0e 94 ce 03 	call	0x79c	; 0x79c <sysclk_enable_module>
    2230:	35 c0       	rjmp	.+106    	; 0x229c <usart_init_rs232+0x2cc>
	}
#endif
#ifdef USARTE1
	else if (module == &USARTE1) {
    2232:	c0 3b       	cpi	r28, 0xB0	; 176
    2234:	fa e0       	ldi	r31, 0x0A	; 10
    2236:	df 07       	cpc	r29, r31
    2238:	29 f4       	brne	.+10     	; 0x2244 <usart_init_rs232+0x274>
		sysclk_enable_module(SYSCLK_PORT_E, SYSCLK_USART1);
    223a:	60 e2       	ldi	r22, 0x20	; 32
    223c:	85 e0       	ldi	r24, 0x05	; 5
    223e:	0e 94 ce 03 	call	0x79c	; 0x79c <sysclk_enable_module>
    2242:	2c c0       	rjmp	.+88     	; 0x229c <usart_init_rs232+0x2cc>
	}
#endif
#ifdef USARTF1
	else if (module == &USARTF1) {
    2244:	c0 3b       	cpi	r28, 0xB0	; 176
    2246:	8b e0       	ldi	r24, 0x0B	; 11
    2248:	d8 07       	cpc	r29, r24
    224a:	29 f4       	brne	.+10     	; 0x2256 <usart_init_rs232+0x286>
		sysclk_enable_module(SYSCLK_PORT_F, SYSCLK_USART1);
    224c:	60 e2       	ldi	r22, 0x20	; 32
    224e:	86 e0       	ldi	r24, 0x06	; 6
    2250:	0e 94 ce 03 	call	0x79c	; 0x79c <sysclk_enable_module>
    2254:	23 c0       	rjmp	.+70     	; 0x229c <usart_init_rs232+0x2cc>
	}
#endif
#ifdef TWIC
	else if (module == &TWIC) {
    2256:	c0 38       	cpi	r28, 0x80	; 128
    2258:	e4 e0       	ldi	r30, 0x04	; 4
    225a:	de 07       	cpc	r29, r30
    225c:	29 f4       	brne	.+10     	; 0x2268 <usart_init_rs232+0x298>
		sysclk_enable_module(SYSCLK_PORT_C, SYSCLK_TWI);
    225e:	60 e4       	ldi	r22, 0x40	; 64
    2260:	83 e0       	ldi	r24, 0x03	; 3
    2262:	0e 94 ce 03 	call	0x79c	; 0x79c <sysclk_enable_module>
    2266:	1a c0       	rjmp	.+52     	; 0x229c <usart_init_rs232+0x2cc>
	}
#endif
#ifdef TWID
	else if (module == &TWID) {
    2268:	c0 39       	cpi	r28, 0x90	; 144
    226a:	f4 e0       	ldi	r31, 0x04	; 4
    226c:	df 07       	cpc	r29, r31
    226e:	29 f4       	brne	.+10     	; 0x227a <usart_init_rs232+0x2aa>
		sysclk_enable_module(SYSCLK_PORT_D, SYSCLK_TWI);
    2270:	60 e4       	ldi	r22, 0x40	; 64
    2272:	84 e0       	ldi	r24, 0x04	; 4
    2274:	0e 94 ce 03 	call	0x79c	; 0x79c <sysclk_enable_module>
    2278:	11 c0       	rjmp	.+34     	; 0x229c <usart_init_rs232+0x2cc>
	}
#endif
#ifdef TWIE
	else if (module == &TWIE) {
    227a:	c0 3a       	cpi	r28, 0xA0	; 160
    227c:	84 e0       	ldi	r24, 0x04	; 4
    227e:	d8 07       	cpc	r29, r24
    2280:	29 f4       	brne	.+10     	; 0x228c <usart_init_rs232+0x2bc>
		sysclk_enable_module(SYSCLK_PORT_E, SYSCLK_TWI);
    2282:	60 e4       	ldi	r22, 0x40	; 64
    2284:	85 e0       	ldi	r24, 0x05	; 5
    2286:	0e 94 ce 03 	call	0x79c	; 0x79c <sysclk_enable_module>
    228a:	08 c0       	rjmp	.+16     	; 0x229c <usart_init_rs232+0x2cc>
	}
#endif
#ifdef TWIF
	else if (module == &TWIF) {
    228c:	c0 3b       	cpi	r28, 0xB0	; 176
    228e:	e4 e0       	ldi	r30, 0x04	; 4
    2290:	de 07       	cpc	r29, r30
    2292:	21 f4       	brne	.+8      	; 0x229c <usart_init_rs232+0x2cc>
		sysclk_enable_module(SYSCLK_PORT_F, SYSCLK_TWI);
    2294:	60 e4       	ldi	r22, 0x40	; 64
    2296:	86 e0       	ldi	r24, 0x06	; 6
    2298:	0e 94 ce 03 	call	0x79c	; 0x79c <sysclk_enable_module>
 * - 0x2        : IrDA mode.
 * - 0x3        : Master SPI mode.
 */
static inline void usart_set_mode(USART_t *usart, USART_CMODE_t usartmode)
{
	(usart)->CTRLC = ((usart)->CTRLC & (~USART_CMODE_gm)) | usartmode;
    229c:	8d 81       	ldd	r24, Y+5	; 0x05
    229e:	8f 73       	andi	r24, 0x3F	; 63
    22a0:	8d 83       	std	Y+5, r24	; 0x05
 *  \param twoStopBits Enable two stop bit mode. Use bool type.
 */
static inline void usart_format_set(USART_t *usart, USART_CHSIZE_t charSize,
		USART_PMODE_t parityMode, bool twoStopBits)
{
	(usart)->CTRLC = (uint8_t)charSize | parityMode
    22a2:	f8 01       	movw	r30, r16
    22a4:	95 81       	ldd	r25, Z+5	; 0x05
    22a6:	84 81       	ldd	r24, Z+4	; 0x04
    22a8:	89 2b       	or	r24, r25
    22aa:	96 81       	ldd	r25, Z+6	; 0x06
    22ac:	91 11       	cpse	r25, r1
    22ae:	98 e0       	ldi	r25, 0x08	; 8
    22b0:	89 2b       	or	r24, r25
    22b2:	8d 83       	std	Y+5, r24	; 0x05
	bool result;
	sysclk_enable_peripheral_clock(usart);
	usart_set_mode(usart, USART_CMODE_ASYNCHRONOUS_gc);
	usart_format_set(usart, opt->charlength, opt->paritytype,
			opt->stopbits);
	result = usart_set_baudrate(usart, opt->baudrate, sysclk_get_per_hz());
    22b4:	f8 01       	movw	r30, r16
    22b6:	40 81       	ld	r20, Z
    22b8:	51 81       	ldd	r21, Z+1	; 0x01
    22ba:	62 81       	ldd	r22, Z+2	; 0x02
    22bc:	73 81       	ldd	r23, Z+3	; 0x03
    22be:	00 e0       	ldi	r16, 0x00	; 0
    22c0:	18 e4       	ldi	r17, 0x48	; 72
    22c2:	28 ee       	ldi	r18, 0xE8	; 232
    22c4:	31 e0       	ldi	r19, 0x01	; 1
    22c6:	ce 01       	movw	r24, r28
    22c8:	70 dd       	rcall	.-1312   	; 0x1daa <usart_set_baudrate>
 *
 * \param usart Pointer to the USART module.
 */
static inline void usart_tx_enable(USART_t *usart)
{
	(usart)->CTRLB |= USART_TXEN_bm;
    22ca:	9c 81       	ldd	r25, Y+4	; 0x04
    22cc:	98 60       	ori	r25, 0x08	; 8
    22ce:	9c 83       	std	Y+4, r25	; 0x04
 *
 * \param usart Pointer to the USART module
 */
static inline void usart_rx_enable(USART_t *usart)
{
	(usart)->CTRLB |= USART_RXEN_bm;
    22d0:	9c 81       	ldd	r25, Y+4	; 0x04
    22d2:	90 61       	ori	r25, 0x10	; 16
    22d4:	9c 83       	std	Y+4, r25	; 0x04
	usart_tx_enable(usart);
	usart_rx_enable(usart);
	
	return result;
}
    22d6:	df 91       	pop	r29
    22d8:	cf 91       	pop	r28
    22da:	1f 91       	pop	r17
    22dc:	0f 91       	pop	r16
    22de:	08 95       	ret

000022e0 <Get_altitude>:
#include "thermistor.h"
#include <math.h>

extern int32_t TEMP;

float Get_altitude(uint32_t initial, uint32_t pressure, uint32_t temperature){
    22e0:	4f 92       	push	r4
    22e2:	5f 92       	push	r5
    22e4:	6f 92       	push	r6
    22e6:	7f 92       	push	r7
    22e8:	8f 92       	push	r8
    22ea:	9f 92       	push	r9
    22ec:	af 92       	push	r10
    22ee:	bf 92       	push	r11
    22f0:	cf 92       	push	r12
    22f2:	df 92       	push	r13
    22f4:	ef 92       	push	r14
    22f6:	ff 92       	push	r15
    22f8:	29 01       	movw	r4, r18
    22fa:	3a 01       	movw	r6, r20
	//printf("Initial Pressure = %lu\n", initial);
	//printf("pressure = %lu \n", pressure);
	//printf("temperature = %lu \n", temperature);
	//float altitude = (((287.058 * (((float)(TEMP)/100)+273.15)/9.8))*log((float)initial/get_pressure())*3.28);	Not this one, this one's bad
	float altitude = (pow(((initial/100)/(pressure/100)),(1/5.257))-1)*((TEMP/100)+273.15)/.0065; //This is now right, just gotta use the thermistor
    22fc:	0f 2e       	mov	r0, r31
    22fe:	f4 e6       	ldi	r31, 0x64	; 100
    2300:	cf 2e       	mov	r12, r31
    2302:	d1 2c       	mov	r13, r1
    2304:	e1 2c       	mov	r14, r1
    2306:	f1 2c       	mov	r15, r1
    2308:	f0 2d       	mov	r31, r0
    230a:	a7 01       	movw	r20, r14
    230c:	96 01       	movw	r18, r12
    230e:	0e 94 65 1f 	call	0x3eca	; 0x3eca <__udivmodsi4>
    2312:	49 01       	movw	r8, r18
    2314:	5a 01       	movw	r10, r20
    2316:	c3 01       	movw	r24, r6
    2318:	b2 01       	movw	r22, r4
    231a:	a7 01       	movw	r20, r14
    231c:	96 01       	movw	r18, r12
    231e:	0e 94 65 1f 	call	0x3eca	; 0x3eca <__udivmodsi4>
    2322:	c5 01       	movw	r24, r10
    2324:	b4 01       	movw	r22, r8
    2326:	0e 94 65 1f 	call	0x3eca	; 0x3eca <__udivmodsi4>
    232a:	ca 01       	movw	r24, r20
    232c:	b9 01       	movw	r22, r18
    232e:	f4 d7       	rcall	.+4072   	; 0x3318 <__floatunsisf>
    2330:	24 eb       	ldi	r18, 0xB4	; 180
    2332:	39 ec       	ldi	r19, 0xC9	; 201
    2334:	42 e4       	ldi	r20, 0x42	; 66
    2336:	5e e3       	ldi	r21, 0x3E	; 62
    2338:	0e 94 c2 1a 	call	0x3584	; 0x3584 <pow>
    233c:	4b 01       	movw	r8, r22
    233e:	5c 01       	movw	r10, r24
	//printf("altitude = %f \n", (float)altitude);
	return altitude;
    2340:	60 91 8b 21 	lds	r22, 0x218B	; 0x80218b <TEMP>
    2344:	70 91 8c 21 	lds	r23, 0x218C	; 0x80218c <TEMP+0x1>
    2348:	80 91 8d 21 	lds	r24, 0x218D	; 0x80218d <TEMP+0x2>
    234c:	90 91 8e 21 	lds	r25, 0x218E	; 0x80218e <TEMP+0x3>
    2350:	a7 01       	movw	r20, r14
    2352:	96 01       	movw	r18, r12
    2354:	0e 94 87 1f 	call	0x3f0e	; 0x3f0e <__divmodsi4>
    2358:	ca 01       	movw	r24, r20
    235a:	b9 01       	movw	r22, r18
    235c:	df d7       	rcall	.+4030   	; 0x331c <__floatsisf>
    235e:	23 e3       	ldi	r18, 0x33	; 51
    2360:	33 e9       	ldi	r19, 0x93	; 147
    2362:	48 e8       	ldi	r20, 0x88	; 136
    2364:	53 e4       	ldi	r21, 0x43	; 67
    2366:	db d6       	rcall	.+3510   	; 0x311e <__addsf3>
    2368:	6b 01       	movw	r12, r22
    236a:	7c 01       	movw	r14, r24
    236c:	20 e0       	ldi	r18, 0x00	; 0
    236e:	30 e0       	ldi	r19, 0x00	; 0
    2370:	40 e8       	ldi	r20, 0x80	; 128
    2372:	5f e3       	ldi	r21, 0x3F	; 63
    2374:	c5 01       	movw	r24, r10
    2376:	b4 01       	movw	r22, r8
    2378:	d1 d6       	rcall	.+3490   	; 0x311c <__subsf3>
    237a:	9b 01       	movw	r18, r22
    237c:	ac 01       	movw	r20, r24
    237e:	c7 01       	movw	r24, r14
    2380:	b6 01       	movw	r22, r12
    2382:	0e 94 5f 1a 	call	0x34be	; 0x34be <__mulsf3>
    2386:	24 ef       	ldi	r18, 0xF4	; 244
    2388:	3d ef       	ldi	r19, 0xFD	; 253
    238a:	44 ed       	ldi	r20, 0xD4	; 212
    238c:	5b e3       	ldi	r21, 0x3B	; 59
    238e:	2b d7       	rcall	.+3670   	; 0x31e6 <__divsf3>
}
    2390:	ff 90       	pop	r15
    2392:	ef 90       	pop	r14
    2394:	df 90       	pop	r13
    2396:	cf 90       	pop	r12
    2398:	bf 90       	pop	r11
    239a:	af 90       	pop	r10
    239c:	9f 90       	pop	r9
    239e:	8f 90       	pop	r8
    23a0:	7f 90       	pop	r7
    23a2:	6f 90       	pop	r6
    23a4:	5f 90       	pop	r5
    23a6:	4f 90       	pop	r4
    23a8:	08 95       	ret

000023aa <__portable_avr_delay_cycles>:
	PORTE.OUTSET = 0b00000001;
}*/

void heatshield_solenoid(PORT_t* port){
	(*port).DIRSET = 0b10000000;
	(*port).OUTSET = 0b10000000;
    23aa:	04 c0       	rjmp	.+8      	; 0x23b4 <__portable_avr_delay_cycles+0xa>
    23ac:	61 50       	subi	r22, 0x01	; 1
    23ae:	71 09       	sbc	r23, r1
    23b0:	81 09       	sbc	r24, r1
    23b2:	91 09       	sbc	r25, r1
    23b4:	61 15       	cp	r22, r1
    23b6:	71 05       	cpc	r23, r1
    23b8:	81 05       	cpc	r24, r1
    23ba:	91 05       	cpc	r25, r1
    23bc:	b9 f7       	brne	.-18     	; 0x23ac <__portable_avr_delay_cycles+0x2>
    23be:	08 95       	ret

000023c0 <heatshield_hotwire>:
}

void heatshield_hotwire (void){
    23c0:	cf 93       	push	r28
    23c2:	df 93       	push	r29
	PORTD.DIR |= 0b00000010;
    23c4:	c0 e6       	ldi	r28, 0x60	; 96
    23c6:	d6 e0       	ldi	r29, 0x06	; 6
    23c8:	88 81       	ld	r24, Y
    23ca:	82 60       	ori	r24, 0x02	; 2
    23cc:	88 83       	st	Y, r24
	PORTD.OUT |= 0b00000010; //TODO: fix these port addresses
    23ce:	8c 81       	ldd	r24, Y+4	; 0x04
    23d0:	82 60       	ori	r24, 0x02	; 2
    23d2:	8c 83       	std	Y+4, r24	; 0x04
	delay_ms(4000);
    23d4:	66 e5       	ldi	r22, 0x56	; 86
    23d6:	75 e8       	ldi	r23, 0x85	; 133
    23d8:	85 e4       	ldi	r24, 0x45	; 69
    23da:	91 e0       	ldi	r25, 0x01	; 1
    23dc:	e6 df       	rcall	.-52     	; 0x23aa <__portable_avr_delay_cycles>
	PORTD.OUT &= 0b11111101;
    23de:	8c 81       	ldd	r24, Y+4	; 0x04
    23e0:	8d 7f       	andi	r24, 0xFD	; 253
    23e2:	8c 83       	std	Y+4, r24	; 0x04
}
    23e4:	df 91       	pop	r29
    23e6:	cf 91       	pop	r28
    23e8:	08 95       	ret

000023ea <parachute_hotwire>:

void parachute_hotwire (void) {
    23ea:	cf 93       	push	r28
    23ec:	df 93       	push	r29
	PORTD.DIR |= 0b00000010;
    23ee:	c0 e6       	ldi	r28, 0x60	; 96
    23f0:	d6 e0       	ldi	r29, 0x06	; 6
    23f2:	88 81       	ld	r24, Y
    23f4:	82 60       	ori	r24, 0x02	; 2
    23f6:	88 83       	st	Y, r24
	PORTD.OUT |= 0b00000010; //TODO: fix these port addresses
    23f8:	8c 81       	ldd	r24, Y+4	; 0x04
    23fa:	82 60       	ori	r24, 0x02	; 2
    23fc:	8c 83       	std	Y+4, r24	; 0x04
	delay_ms(4000);
    23fe:	66 e5       	ldi	r22, 0x56	; 86
    2400:	75 e8       	ldi	r23, 0x85	; 133
    2402:	85 e4       	ldi	r24, 0x45	; 69
    2404:	91 e0       	ldi	r25, 0x01	; 1
    2406:	d1 df       	rcall	.-94     	; 0x23aa <__portable_avr_delay_cycles>
	PORTD.OUT &= 0b11111101;
    2408:	8c 81       	ldd	r24, Y+4	; 0x04
    240a:	8d 7f       	andi	r24, 0xFD	; 253
    240c:	8c 83       	std	Y+4, r24	; 0x04
}
    240e:	df 91       	pop	r29
    2410:	cf 91       	pop	r28
    2412:	08 95       	ret

00002414 <heatshield_detatch_hotwire>:

void heatshield_detatch_hotwire(void){
    2414:	cf 93       	push	r28
    2416:	df 93       	push	r29
	PORTD.DIR |= 0b00000010;
    2418:	c0 e6       	ldi	r28, 0x60	; 96
    241a:	d6 e0       	ldi	r29, 0x06	; 6
    241c:	88 81       	ld	r24, Y
    241e:	82 60       	ori	r24, 0x02	; 2
    2420:	88 83       	st	Y, r24
	PORTD.OUT |= 0b00000010; //TODO: fix these port addresses
    2422:	8c 81       	ldd	r24, Y+4	; 0x04
    2424:	82 60       	ori	r24, 0x02	; 2
    2426:	8c 83       	std	Y+4, r24	; 0x04
	delay_ms(4000);
    2428:	66 e5       	ldi	r22, 0x56	; 86
    242a:	75 e8       	ldi	r23, 0x85	; 133
    242c:	85 e4       	ldi	r24, 0x45	; 69
    242e:	91 e0       	ldi	r25, 0x01	; 1
    2430:	bc df       	rcall	.-136    	; 0x23aa <__portable_avr_delay_cycles>
	PORTD.OUT &= 0b11111101;	
    2432:	8c 81       	ldd	r24, Y+4	; 0x04
    2434:	8d 7f       	andi	r24, 0xFD	; 253
    2436:	8c 83       	std	Y+4, r24	; 0x04
}
    2438:	df 91       	pop	r29
    243a:	cf 91       	pop	r28
    243c:	08 95       	ret

0000243e <buzzer_on>:

void buzzer_on(void){
	PORTA.DIR |= 0b00001000;
    243e:	e0 e0       	ldi	r30, 0x00	; 0
    2440:	f6 e0       	ldi	r31, 0x06	; 6
    2442:	80 81       	ld	r24, Z
    2444:	88 60       	ori	r24, 0x08	; 8
    2446:	80 83       	st	Z, r24
	PORTA.OUT |= 0b00001000;
    2448:	84 81       	ldd	r24, Z+4	; 0x04
    244a:	88 60       	ori	r24, 0x08	; 8
    244c:	84 83       	std	Z+4, r24	; 0x04
    244e:	08 95       	ret

00002450 <buzzer_off>:
	
}
void buzzer_off(void){
	PORTA.DIR |= 0b00001000;
    2450:	e0 e0       	ldi	r30, 0x00	; 0
    2452:	f6 e0       	ldi	r31, 0x06	; 6
    2454:	80 81       	ld	r24, Z
    2456:	88 60       	ori	r24, 0x08	; 8
    2458:	80 83       	st	Z, r24
	PORTA.OUT &= 0b11110111;
    245a:	84 81       	ldd	r24, Z+4	; 0x04
    245c:	87 7f       	andi	r24, 0xF7	; 247
    245e:	84 83       	std	Z+4, r24	; 0x04
    2460:	08 95       	ret

00002462 <camera_on>:
	
}
void camera_on(void){
	PORTE.DIR |= 0b01000000;
    2462:	e0 e8       	ldi	r30, 0x80	; 128
    2464:	f6 e0       	ldi	r31, 0x06	; 6
    2466:	80 81       	ld	r24, Z
    2468:	80 64       	ori	r24, 0x40	; 64
    246a:	80 83       	st	Z, r24
	PORTE.OUT |= 0b01000000;
    246c:	84 81       	ldd	r24, Z+4	; 0x04
    246e:	80 64       	ori	r24, 0x40	; 64
    2470:	84 83       	std	Z+4, r24	; 0x04
    2472:	08 95       	ret

00002474 <__portable_avr_delay_cycles>:
 *
 * @{
 */
__always_optimize
static inline void __portable_avr_delay_cycles(unsigned long n)
{
    2474:	04 c0       	rjmp	.+8      	; 0x247e <__portable_avr_delay_cycles+0xa>
	while (n) {
		barrier();
		n--;
    2476:	61 50       	subi	r22, 0x01	; 1
    2478:	71 09       	sbc	r23, r1
    247a:	81 09       	sbc	r24, r1
    247c:	91 09       	sbc	r25, r1
 * @{
 */
__always_optimize
static inline void __portable_avr_delay_cycles(unsigned long n)
{
	while (n) {
    247e:	61 15       	cp	r22, r1
    2480:	71 05       	cpc	r23, r1
    2482:	81 05       	cpc	r24, r1
    2484:	91 05       	cpc	r25, r1
    2486:	b9 f7       	brne	.-18     	; 0x2476 <__portable_avr_delay_cycles+0x2>
    2488:	08 95       	ret

0000248a <SPI_init>:
uint16_t c5;
uint16_t c6;


void SPI_init(void){
	PORTC.DIRSET = 0b10110000;
    248a:	e0 e4       	ldi	r30, 0x40	; 64
    248c:	f6 e0       	ldi	r31, 0x06	; 6
    248e:	80 eb       	ldi	r24, 0xB0	; 176
    2490:	81 83       	std	Z+1, r24	; 0x01
	PORTC.DIRCLR = 0b01000000;
    2492:	90 e4       	ldi	r25, 0x40	; 64
    2494:	92 83       	std	Z+2, r25	; 0x02
	PORTC.OUTSET = 0b10110000;
    2496:	85 83       	std	Z+5, r24	; 0x05
	SPIC.CTRL = 0b01010011;
    2498:	83 e5       	ldi	r24, 0x53	; 83
    249a:	80 93 c0 08 	sts	0x08C0, r24	; 0x8008c0 <__TEXT_REGION_LENGTH__+0x7008c0>
    249e:	08 95       	ret

000024a0 <SPI_write>:
}

void SPI_write(uint8_t data){
	SPIC.DATA = data;
    24a0:	80 93 c3 08 	sts	0x08C3, r24	; 0x8008c3 <__TEXT_REGION_LENGTH__+0x7008c3>
	while(!(SPIC.STATUS>>7));
    24a4:	e0 ec       	ldi	r30, 0xC0	; 192
    24a6:	f8 e0       	ldi	r31, 0x08	; 8
    24a8:	82 81       	ldd	r24, Z+2	; 0x02
    24aa:	88 23       	and	r24, r24
    24ac:	ec f7       	brge	.-6      	; 0x24a8 <SPI_write+0x8>
}
    24ae:	08 95       	ret

000024b0 <spi_read>:

uint8_t spi_read (void){
	SPI_write(0xFF);
    24b0:	8f ef       	ldi	r24, 0xFF	; 255
    24b2:	f6 df       	rcall	.-20     	; 0x24a0 <SPI_write>
	return SPIC.DATA;
    24b4:	80 91 c3 08 	lds	r24, 0x08C3	; 0x8008c3 <__TEXT_REGION_LENGTH__+0x7008c3>
}
    24b8:	08 95       	ret

000024ba <prom_read>:
	//printf("c5: %u \n", c5);
	c6 = prom_read(0xAC);
	//printf("c6: %u \n", c6);
}

uint16_t prom_read(uint8_t command){
    24ba:	ff 92       	push	r15
    24bc:	0f 93       	push	r16
    24be:	1f 93       	push	r17
    24c0:	cf 93       	push	r28
    24c2:	df 93       	push	r29
	uint16_t data;
	PORTC.OUTCLR = 0b00010000;
    24c4:	00 e4       	ldi	r16, 0x40	; 64
    24c6:	16 e0       	ldi	r17, 0x06	; 6
    24c8:	68 94       	set
    24ca:	ff 24       	eor	r15, r15
    24cc:	f4 f8       	bld	r15, 4
    24ce:	f8 01       	movw	r30, r16
    24d0:	f6 82       	std	Z+6, r15	; 0x06
	SPI_write(command);
    24d2:	e6 df       	rcall	.-52     	; 0x24a0 <SPI_write>
	data = ((uint16_t)spi_read())<<8;	//Bitshifting
    24d4:	ed df       	rcall	.-38     	; 0x24b0 <spi_read>
    24d6:	c8 2f       	mov	r28, r24
    24d8:	d0 e0       	ldi	r29, 0x00	; 0
    24da:	dc 2f       	mov	r29, r28
    24dc:	cc 27       	eor	r28, r28
	data += spi_read();
    24de:	e8 df       	rcall	.-48     	; 0x24b0 <spi_read>
    24e0:	c8 0f       	add	r28, r24
    24e2:	d1 1d       	adc	r29, r1
    24e4:	f8 01       	movw	r30, r16
	PORTC.OUTSET = 0b00010000;
    24e6:	f5 82       	std	Z+5, r15	; 0x05
    24e8:	66 ed       	ldi	r22, 0xD6	; 214
	delay_ms(1);
    24ea:	74 e1       	ldi	r23, 0x14	; 20
    24ec:	80 e0       	ldi	r24, 0x00	; 0
    24ee:	90 e0       	ldi	r25, 0x00	; 0
    24f0:	c1 df       	rcall	.-126    	; 0x2474 <__portable_avr_delay_cycles>
    24f2:	ce 01       	movw	r24, r28
	//printf("data: %lu \n", data);
	return data;
}
    24f4:	df 91       	pop	r29
    24f6:	cf 91       	pop	r28
    24f8:	1f 91       	pop	r17
    24fa:	0f 91       	pop	r16
    24fc:	ff 90       	pop	r15
    24fe:	08 95       	ret

00002500 <ms5607_init>:
    2500:	1f 93       	push	r17
uint8_t spi_read (void){
	SPI_write(0xFF);
	return SPIC.DATA;
}

void ms5607_init(void){
    2502:	cf 93       	push	r28
    2504:	df 93       	push	r29
	PORTC.OUTCLR = 0b00010000;
    2506:	c0 e4       	ldi	r28, 0x40	; 64
    2508:	d6 e0       	ldi	r29, 0x06	; 6
    250a:	10 e1       	ldi	r17, 0x10	; 16
    250c:	1e 83       	std	Y+6, r17	; 0x06
	SPI_write(0x1E);
    250e:	8e e1       	ldi	r24, 0x1E	; 30
    2510:	c7 df       	rcall	.-114    	; 0x24a0 <SPI_write>
	PORTC.OUTSET = 0b00010000;
    2512:	1d 83       	std	Y+5, r17	; 0x05
	delay_ms(10);
    2514:	66 e5       	ldi	r22, 0x56	; 86
    2516:	70 ed       	ldi	r23, 0xD0	; 208
    2518:	80 e0       	ldi	r24, 0x00	; 0
    251a:	90 e0       	ldi	r25, 0x00	; 0
    251c:	ab df       	rcall	.-170    	; 0x2474 <__portable_avr_delay_cycles>
	c1 = prom_read(0xA2);
    251e:	82 ea       	ldi	r24, 0xA2	; 162
    2520:	cc df       	rcall	.-104    	; 0x24ba <prom_read>
    2522:	80 93 97 21 	sts	0x2197, r24	; 0x802197 <c1>
    2526:	90 93 98 21 	sts	0x2198, r25	; 0x802198 <c1+0x1>
	//printf("c1: %u \n", c1);
	c2 = prom_read(0xA4);
    252a:	84 ea       	ldi	r24, 0xA4	; 164
    252c:	c6 df       	rcall	.-116    	; 0x24ba <prom_read>
    252e:	80 93 93 21 	sts	0x2193, r24	; 0x802193 <c2>
    2532:	90 93 94 21 	sts	0x2194, r25	; 0x802194 <c2+0x1>
	//printf("c2: %u \n", c2);
	c3 = prom_read(0xA6);
    2536:	86 ea       	ldi	r24, 0xA6	; 166
    2538:	c0 df       	rcall	.-128    	; 0x24ba <prom_read>
    253a:	80 93 99 21 	sts	0x2199, r24	; 0x802199 <c3>
    253e:	90 93 9a 21 	sts	0x219A, r25	; 0x80219a <c3+0x1>
	//printf("c3: %u \n", c3);
	c4 = prom_read(0xA8);
    2542:	88 ea       	ldi	r24, 0xA8	; 168
    2544:	ba df       	rcall	.-140    	; 0x24ba <prom_read>
    2546:	80 93 91 21 	sts	0x2191, r24	; 0x802191 <c4>
    254a:	90 93 92 21 	sts	0x2192, r25	; 0x802192 <c4+0x1>
	//printf("c4: %u \n", c4);
	c5 = prom_read(0xAA);
    254e:	8a ea       	ldi	r24, 0xAA	; 170
    2550:	b4 df       	rcall	.-152    	; 0x24ba <prom_read>
    2552:	80 93 95 21 	sts	0x2195, r24	; 0x802195 <c5>
    2556:	90 93 96 21 	sts	0x2196, r25	; 0x802196 <c5+0x1>
	//printf("c5: %u \n", c5);
	c6 = prom_read(0xAC);
    255a:	8c ea       	ldi	r24, 0xAC	; 172
    255c:	ae df       	rcall	.-164    	; 0x24ba <prom_read>
    255e:	80 93 8f 21 	sts	0x218F, r24	; 0x80218f <c6>
    2562:	90 93 90 21 	sts	0x2190, r25	; 0x802190 <c6+0x1>
    2566:	df 91       	pop	r29
	//printf("c6: %u \n", c6);
}
    2568:	cf 91       	pop	r28
    256a:	1f 91       	pop	r17
    256c:	08 95       	ret

0000256e <data_read>:
    256e:	8f 92       	push	r8
	delay_ms(1);
	//printf("data: %lu \n", data);
	return data;
}

uint32_t data_read(uint8_t command){
    2570:	9f 92       	push	r9
    2572:	af 92       	push	r10
    2574:	bf 92       	push	r11
    2576:	cf 92       	push	r12
    2578:	df 92       	push	r13
    257a:	ef 92       	push	r14
    257c:	ff 92       	push	r15
    257e:	1f 93       	push	r17
    2580:	cf 93       	push	r28
    2582:	df 93       	push	r29
	uint32_t data;
	PORTC.OUTCLR = 0b00010000;
    2584:	c0 e4       	ldi	r28, 0x40	; 64
    2586:	d6 e0       	ldi	r29, 0x06	; 6
    2588:	10 e1       	ldi	r17, 0x10	; 16
    258a:	1e 83       	std	Y+6, r17	; 0x06
	SPI_write(command);
    258c:	89 df       	rcall	.-238    	; 0x24a0 <SPI_write>
	PORTC.OUTSET = 0b00010000;
    258e:	1d 83       	std	Y+5, r17	; 0x05
	delay_ms(9);
    2590:	61 e8       	ldi	r22, 0x81	; 129
    2592:	7b eb       	ldi	r23, 0xBB	; 187
    2594:	80 e0       	ldi	r24, 0x00	; 0
    2596:	90 e0       	ldi	r25, 0x00	; 0
    2598:	6d df       	rcall	.-294    	; 0x2474 <__portable_avr_delay_cycles>
	PORTC.OUTCLR = 0b00010000;
	SPI_write(0x00);
    259a:	1e 83       	std	Y+6, r17	; 0x06
    259c:	80 e0       	ldi	r24, 0x00	; 0
	data = ((uint32_t)spi_read())<<16;
    259e:	80 df       	rcall	.-256    	; 0x24a0 <SPI_write>
    25a0:	87 df       	rcall	.-242    	; 0x24b0 <spi_read>
    25a2:	c8 2e       	mov	r12, r24
    25a4:	d1 2c       	mov	r13, r1
    25a6:	e1 2c       	mov	r14, r1
    25a8:	f1 2c       	mov	r15, r1
    25aa:	56 01       	movw	r10, r12
    25ac:	99 24       	eor	r9, r9
	data += ((uint32_t)spi_read())<<8;
    25ae:	88 24       	eor	r8, r8
    25b0:	7f df       	rcall	.-258    	; 0x24b0 <spi_read>
    25b2:	c8 2e       	mov	r12, r24
    25b4:	d1 2c       	mov	r13, r1
    25b6:	e1 2c       	mov	r14, r1
    25b8:	f1 2c       	mov	r15, r1
    25ba:	fe 2c       	mov	r15, r14
    25bc:	ed 2c       	mov	r14, r13
    25be:	dc 2c       	mov	r13, r12
    25c0:	cc 24       	eor	r12, r12
    25c2:	c8 0c       	add	r12, r8
    25c4:	d9 1c       	adc	r13, r9
    25c6:	ea 1c       	adc	r14, r10
	data += spi_read();
    25c8:	fb 1c       	adc	r15, r11
    25ca:	72 df       	rcall	.-284    	; 0x24b0 <spi_read>
	PORTC.OUTSET = 0b00010000;
    25cc:	1d 83       	std	Y+5, r17	; 0x05
	return data;
    25ce:	a7 01       	movw	r20, r14
    25d0:	96 01       	movw	r18, r12
    25d2:	28 0f       	add	r18, r24
    25d4:	31 1d       	adc	r19, r1
    25d6:	41 1d       	adc	r20, r1
    25d8:	51 1d       	adc	r21, r1
    25da:	ca 01       	movw	r24, r20
    25dc:	b9 01       	movw	r22, r18
}
    25de:	df 91       	pop	r29
    25e0:	cf 91       	pop	r28
    25e2:	1f 91       	pop	r17
    25e4:	ff 90       	pop	r15
    25e6:	ef 90       	pop	r14
    25e8:	df 90       	pop	r13
    25ea:	cf 90       	pop	r12
    25ec:	bf 90       	pop	r11
    25ee:	af 90       	pop	r10
    25f0:	9f 90       	pop	r9
    25f2:	8f 90       	pop	r8
    25f4:	08 95       	ret

000025f6 <get_pressure>:

uint32_t get_pressure(void){
    25f6:	2f 92       	push	r2
    25f8:	3f 92       	push	r3
    25fa:	4f 92       	push	r4
    25fc:	5f 92       	push	r5
    25fe:	6f 92       	push	r6
    2600:	7f 92       	push	r7
    2602:	8f 92       	push	r8
    2604:	9f 92       	push	r9
    2606:	af 92       	push	r10
    2608:	bf 92       	push	r11
    260a:	cf 92       	push	r12
    260c:	df 92       	push	r13
    260e:	ef 92       	push	r14
    2610:	ff 92       	push	r15
    2612:	0f 93       	push	r16
    2614:	1f 93       	push	r17
    2616:	cf 93       	push	r28
    2618:	df 93       	push	r29
    261a:	cd b7       	in	r28, 0x3d	; 61
    261c:	de b7       	in	r29, 0x3e	; 62
    261e:	61 97       	sbiw	r28, 0x11	; 17
    2620:	cd bf       	out	0x3d, r28	; 61
    2622:	de bf       	out	0x3e, r29	; 62
	uint32_t D1 = data_read(0x48);
    2624:	88 e4       	ldi	r24, 0x48	; 72
    2626:	a3 df       	rcall	.-186    	; 0x256e <data_read>
    2628:	6d 83       	std	Y+5, r22	; 0x05
    262a:	7e 83       	std	Y+6, r23	; 0x06
    262c:	8f 83       	std	Y+7, r24	; 0x07
    262e:	98 87       	std	Y+8, r25	; 0x08
	//printf("D1: %lu \n", D1);
	uint32_t D2 = data_read(0x58);
    2630:	88 e5       	ldi	r24, 0x58	; 88
    2632:	9d df       	rcall	.-198    	; 0x256e <data_read>
	//printf("D2: %li \n", D2);
	int32_t dT = (int64_t)D2 - (int64_t)c5 * 256;
    2634:	20 91 95 21 	lds	r18, 0x2195	; 0x802195 <c5>
    2638:	30 91 96 21 	lds	r19, 0x2196	; 0x802196 <c5+0x1>
    263c:	89 01       	movw	r16, r18
    263e:	20 e0       	ldi	r18, 0x00	; 0
    2640:	30 e0       	ldi	r19, 0x00	; 0
    2642:	32 2f       	mov	r19, r18
    2644:	21 2f       	mov	r18, r17
    2646:	10 2f       	mov	r17, r16
    2648:	00 27       	eor	r16, r16
    264a:	6b 01       	movw	r12, r22
    264c:	7c 01       	movw	r14, r24
    264e:	c0 1a       	sub	r12, r16
    2650:	d1 0a       	sbc	r13, r17
    2652:	e2 0a       	sbc	r14, r18
    2654:	f3 0a       	sbc	r15, r19
    2656:	c9 82       	std	Y+1, r12	; 0x01
    2658:	da 82       	std	Y+2, r13	; 0x02
    265a:	eb 82       	std	Y+3, r14	; 0x03
    265c:	fc 82       	std	Y+4, r15	; 0x04
	TEMP = (int16_t)((int64_t)2000 + (int64_t)dT * (int64_t)c6 / (int64_t)(8388608));
    265e:	20 90 8f 21 	lds	r2, 0x218F	; 0x80218f <c6>
    2662:	30 90 90 21 	lds	r3, 0x2190	; 0x802190 <c6+0x1>
    2666:	d7 01       	movw	r26, r14
    2668:	c6 01       	movw	r24, r12
    266a:	bb 0f       	add	r27, r27
    266c:	88 0b       	sbc	r24, r24
    266e:	98 2f       	mov	r25, r24
    2670:	dc 01       	movw	r26, r24
    2672:	a9 80       	ldd	r10, Y+1	; 0x01
    2674:	ba 80       	ldd	r11, Y+2	; 0x02
    2676:	cb 80       	ldd	r12, Y+3	; 0x03
    2678:	dc 80       	ldd	r13, Y+4	; 0x04
    267a:	e8 2e       	mov	r14, r24
    267c:	f8 2e       	mov	r15, r24
    267e:	08 2f       	mov	r16, r24
    2680:	18 2f       	mov	r17, r24
    2682:	22 2d       	mov	r18, r2
    2684:	33 2d       	mov	r19, r3
    2686:	40 e0       	ldi	r20, 0x00	; 0
    2688:	50 e0       	ldi	r21, 0x00	; 0
    268a:	60 e0       	ldi	r22, 0x00	; 0
    268c:	70 e0       	ldi	r23, 0x00	; 0
    268e:	80 e0       	ldi	r24, 0x00	; 0
    2690:	90 e0       	ldi	r25, 0x00	; 0
    2692:	0e 94 b6 1f 	call	0x3f6c	; 0x3f6c <__muldi3>
    2696:	89 8b       	std	Y+17, r24	; 0x11
    2698:	b2 2f       	mov	r27, r18
    269a:	f3 2f       	mov	r31, r19
    269c:	e4 2f       	mov	r30, r20
    269e:	95 2e       	mov	r9, r21
    26a0:	86 2e       	mov	r8, r22
    26a2:	77 2e       	mov	r7, r23
    26a4:	a8 2e       	mov	r10, r24
    26a6:	b9 2e       	mov	r11, r25
    26a8:	a0 e0       	ldi	r26, 0x00	; 0
    26aa:	0e 94 50 20 	call	0x40a0	; 0x40a0 <__cmpdi2_s8>
    26ae:	84 f4       	brge	.+32     	; 0x26d0 <get_pressure+0xda>
    26b0:	21 50       	subi	r18, 0x01	; 1
    26b2:	31 09       	sbc	r19, r1
    26b4:	40 48       	sbci	r20, 0x80	; 128
    26b6:	5f 4f       	sbci	r21, 0xFF	; 255
    26b8:	6f 4f       	sbci	r22, 0xFF	; 255
    26ba:	7f 4f       	sbci	r23, 0xFF	; 255
    26bc:	8f 4f       	sbci	r24, 0xFF	; 255
    26be:	9f 4f       	sbci	r25, 0xFF	; 255
    26c0:	b2 2f       	mov	r27, r18
    26c2:	f3 2f       	mov	r31, r19
    26c4:	e4 2f       	mov	r30, r20
    26c6:	95 2e       	mov	r9, r21
    26c8:	86 2e       	mov	r8, r22
    26ca:	77 2e       	mov	r7, r23
    26cc:	a8 2e       	mov	r10, r24
    26ce:	b9 2e       	mov	r11, r25
    26d0:	2b 2f       	mov	r18, r27
    26d2:	3f 2f       	mov	r19, r31
    26d4:	4e 2f       	mov	r20, r30
    26d6:	59 2d       	mov	r21, r9
    26d8:	68 2d       	mov	r22, r8
    26da:	77 2d       	mov	r23, r7
    26dc:	8a 2d       	mov	r24, r10
    26de:	9b 2d       	mov	r25, r11
    26e0:	07 e1       	ldi	r16, 0x17	; 23
    26e2:	0e 94 20 20 	call	0x4040	; 0x4040 <__ashrdi3>
    26e6:	82 2e       	mov	r8, r18
    26e8:	93 2e       	mov	r9, r19
    26ea:	00 e3       	ldi	r16, 0x30	; 48
    26ec:	80 1a       	sub	r8, r16
    26ee:	08 ef       	ldi	r16, 0xF8	; 248
    26f0:	90 0a       	sbc	r9, r16
    26f2:	09 2c       	mov	r0, r9
    26f4:	00 0c       	add	r0, r0
    26f6:	aa 08       	sbc	r10, r10
    26f8:	bb 08       	sbc	r11, r11
    26fa:	80 92 8b 21 	sts	0x218B, r8	; 0x80218b <TEMP>
    26fe:	90 92 8c 21 	sts	0x218C, r9	; 0x80218c <TEMP+0x1>
    2702:	a0 92 8d 21 	sts	0x218D, r10	; 0x80218d <TEMP+0x2>
    2706:	b0 92 8e 21 	sts	0x218E, r11	; 0x80218e <TEMP+0x3>
	int64_t OFF = (int64_t)c2 * 131072 + (int64_t)(c4 * dT) / 64;
	int64_t SENS = (int64_t)c1 * 65536 + (int64_t)(c3 * dT) / 128;
	int32_t P = (int32_t)(((int64_t)((int64_t)(D1) * SENS) / 2097152 - (int64_t)OFF) / 32768);
	//printf("pressure: %lu \n", P);
	return (uint32_t)P;
    270a:	a0 91 99 21 	lds	r26, 0x2199	; 0x802199 <c3>
    270e:	b0 91 9a 21 	lds	r27, 0x219A	; 0x80219a <c3+0x1>
    2712:	29 81       	ldd	r18, Y+1	; 0x01
    2714:	3a 81       	ldd	r19, Y+2	; 0x02
    2716:	4b 81       	ldd	r20, Y+3	; 0x03
    2718:	5c 81       	ldd	r21, Y+4	; 0x04
    271a:	0e 94 ac 1f 	call	0x3f58	; 0x3f58 <__muluhisi3>
    271e:	4b 01       	movw	r8, r22
    2720:	5c 01       	movw	r10, r24
    2722:	99 23       	and	r25, r25
    2724:	2c f4       	brge	.+10     	; 0x2730 <get_pressure+0x13a>
    2726:	1f e7       	ldi	r17, 0x7F	; 127
    2728:	81 0e       	add	r8, r17
    272a:	91 1c       	adc	r9, r1
    272c:	a1 1c       	adc	r10, r1
    272e:	b1 1c       	adc	r11, r1
    2730:	24 01       	movw	r4, r8
    2732:	35 01       	movw	r6, r10
    2734:	68 94       	set
    2736:	16 f8       	bld	r1, 6
    2738:	75 94       	asr	r7
    273a:	67 94       	ror	r6
    273c:	57 94       	ror	r5
    273e:	47 94       	ror	r4
    2740:	16 94       	lsr	r1
    2742:	d1 f7       	brne	.-12     	; 0x2738 <get_pressure+0x142>
    2744:	bb 0c       	add	r11, r11
    2746:	88 08       	sbc	r8, r8
    2748:	98 2c       	mov	r9, r8
    274a:	54 01       	movw	r10, r8
    274c:	80 91 97 21 	lds	r24, 0x2197	; 0x802197 <c1>
    2750:	90 91 98 21 	lds	r25, 0x2198	; 0x802198 <c1+0x1>
    2754:	6c 01       	movw	r12, r24
    2756:	e1 2c       	mov	r14, r1
    2758:	f1 2c       	mov	r15, r1
    275a:	00 e0       	ldi	r16, 0x00	; 0
    275c:	10 e0       	ldi	r17, 0x00	; 0
    275e:	98 01       	movw	r18, r16
    2760:	89 87       	std	Y+9, r24	; 0x09
    2762:	da 86       	std	Y+10, r13	; 0x0a
    2764:	eb 86       	std	Y+11, r14	; 0x0b
    2766:	fc 86       	std	Y+12, r15	; 0x0c
    2768:	0d 87       	std	Y+13, r16	; 0x0d
    276a:	1e 87       	std	Y+14, r17	; 0x0e
    276c:	2f 87       	std	Y+15, r18	; 0x0f
    276e:	38 8b       	std	Y+16, r19	; 0x10
    2770:	28 2f       	mov	r18, r24
    2772:	3d 2d       	mov	r19, r13
    2774:	40 e0       	ldi	r20, 0x00	; 0
    2776:	50 e0       	ldi	r21, 0x00	; 0
    2778:	60 e0       	ldi	r22, 0x00	; 0
    277a:	70 e0       	ldi	r23, 0x00	; 0
    277c:	80 e0       	ldi	r24, 0x00	; 0
    277e:	90 e0       	ldi	r25, 0x00	; 0
    2780:	00 e1       	ldi	r16, 0x10	; 16
    2782:	0e 94 07 20 	call	0x400e	; 0x400e <__ashldi3>
    2786:	f2 2f       	mov	r31, r18
    2788:	e3 2f       	mov	r30, r19
    278a:	c4 2e       	mov	r12, r20
    278c:	d5 2e       	mov	r13, r21
    278e:	e6 2e       	mov	r14, r22
    2790:	f7 2e       	mov	r15, r23
    2792:	08 2f       	mov	r16, r24
    2794:	19 2f       	mov	r17, r25
    2796:	24 2d       	mov	r18, r4
    2798:	35 2d       	mov	r19, r5
    279a:	46 2d       	mov	r20, r6
    279c:	57 2d       	mov	r21, r7
    279e:	68 2d       	mov	r22, r8
    27a0:	78 2d       	mov	r23, r8
    27a2:	88 2d       	mov	r24, r8
    27a4:	98 2d       	mov	r25, r8
    27a6:	af 2e       	mov	r10, r31
    27a8:	be 2e       	mov	r11, r30
    27aa:	0e 94 3e 20 	call	0x407c	; 0x407c <__adddi3>
    27ae:	ed 80       	ldd	r14, Y+5	; 0x05
    27b0:	fe 80       	ldd	r15, Y+6	; 0x06
    27b2:	0f 81       	ldd	r16, Y+7	; 0x07
    27b4:	18 85       	ldd	r17, Y+8	; 0x08
    27b6:	17 01       	movw	r2, r14
    27b8:	28 01       	movw	r4, r16
    27ba:	ae 2c       	mov	r10, r14
    27bc:	b3 2c       	mov	r11, r3
    27be:	c4 2c       	mov	r12, r4
    27c0:	d5 2c       	mov	r13, r5
    27c2:	e1 2c       	mov	r14, r1
    27c4:	f1 2c       	mov	r15, r1
    27c6:	00 e0       	ldi	r16, 0x00	; 0
    27c8:	10 e0       	ldi	r17, 0x00	; 0
    27ca:	0e 94 b6 1f 	call	0x3f6c	; 0x3f6c <__muldi3>
    27ce:	12 2f       	mov	r17, r18
    27d0:	39 87       	std	Y+9, r19	; 0x09
    27d2:	4d 83       	std	Y+5, r20	; 0x05
    27d4:	b5 2f       	mov	r27, r21
    27d6:	f6 2f       	mov	r31, r22
    27d8:	e7 2f       	mov	r30, r23
    27da:	78 2e       	mov	r7, r24
    27dc:	89 2e       	mov	r8, r25
    27de:	a0 e0       	ldi	r26, 0x00	; 0
    27e0:	0e 94 50 20 	call	0x40a0	; 0x40a0 <__cmpdi2_s8>
    27e4:	84 f4       	brge	.+32     	; 0x2806 <get_pressure+0x210>
    27e6:	21 50       	subi	r18, 0x01	; 1
    27e8:	31 09       	sbc	r19, r1
    27ea:	40 4e       	sbci	r20, 0xE0	; 224
    27ec:	5f 4f       	sbci	r21, 0xFF	; 255
    27ee:	6f 4f       	sbci	r22, 0xFF	; 255
    27f0:	7f 4f       	sbci	r23, 0xFF	; 255
    27f2:	8f 4f       	sbci	r24, 0xFF	; 255
    27f4:	9f 4f       	sbci	r25, 0xFF	; 255
    27f6:	12 2f       	mov	r17, r18
    27f8:	39 87       	std	Y+9, r19	; 0x09
    27fa:	4d 83       	std	Y+5, r20	; 0x05
    27fc:	b5 2f       	mov	r27, r21
    27fe:	f6 2f       	mov	r31, r22
    2800:	e7 2f       	mov	r30, r23
    2802:	78 2e       	mov	r7, r24
    2804:	89 2e       	mov	r8, r25
    2806:	21 2f       	mov	r18, r17
    2808:	39 85       	ldd	r19, Y+9	; 0x09
    280a:	4d 81       	ldd	r20, Y+5	; 0x05
    280c:	5b 2f       	mov	r21, r27
    280e:	6f 2f       	mov	r22, r31
    2810:	7e 2f       	mov	r23, r30
    2812:	87 2d       	mov	r24, r7
    2814:	98 2d       	mov	r25, r8
    2816:	05 e1       	ldi	r16, 0x15	; 21
    2818:	0e 94 20 20 	call	0x4040	; 0x4040 <__ashrdi3>
    281c:	52 2e       	mov	r5, r18
    281e:	63 2e       	mov	r6, r19
    2820:	74 2e       	mov	r7, r20
    2822:	59 8b       	std	Y+17, r21	; 0x11
    2824:	69 87       	std	Y+9, r22	; 0x09
    2826:	f7 2f       	mov	r31, r23
    2828:	e8 2f       	mov	r30, r24
    282a:	49 2e       	mov	r4, r25
    282c:	a0 91 91 21 	lds	r26, 0x2191	; 0x802191 <c4>
    2830:	b0 91 92 21 	lds	r27, 0x2192	; 0x802192 <c4+0x1>
    2834:	29 81       	ldd	r18, Y+1	; 0x01
    2836:	3a 81       	ldd	r19, Y+2	; 0x02
    2838:	4b 81       	ldd	r20, Y+3	; 0x03
    283a:	5c 81       	ldd	r21, Y+4	; 0x04
    283c:	0e 94 ac 1f 	call	0x3f58	; 0x3f58 <__muluhisi3>
    2840:	4b 01       	movw	r8, r22
    2842:	5c 01       	movw	r10, r24
    2844:	99 23       	and	r25, r25
    2846:	2c f4       	brge	.+10     	; 0x2852 <get_pressure+0x25c>
    2848:	0f e3       	ldi	r16, 0x3F	; 63
    284a:	80 0e       	add	r8, r16
    284c:	91 1c       	adc	r9, r1
    284e:	a1 1c       	adc	r10, r1
    2850:	b1 1c       	adc	r11, r1
    2852:	75 01       	movw	r14, r10
    2854:	64 01       	movw	r12, r8
    2856:	68 94       	set
    2858:	15 f8       	bld	r1, 5
    285a:	f5 94       	asr	r15
    285c:	e7 94       	ror	r14
    285e:	d7 94       	ror	r13
    2860:	c7 94       	ror	r12
    2862:	16 94       	lsr	r1
    2864:	d1 f7       	brne	.-12     	; 0x285a <get_pressure+0x264>
    2866:	bb 0c       	add	r11, r11
    2868:	88 08       	sbc	r8, r8
    286a:	98 2c       	mov	r9, r8
    286c:	54 01       	movw	r10, r8
    286e:	20 91 93 21 	lds	r18, 0x2193	; 0x802193 <c2>
    2872:	30 91 94 21 	lds	r19, 0x2194	; 0x802194 <c2+0x1>
    2876:	a9 01       	movw	r20, r18
    2878:	35 2f       	mov	r19, r21
    287a:	40 e0       	ldi	r20, 0x00	; 0
    287c:	50 e0       	ldi	r21, 0x00	; 0
    287e:	60 e0       	ldi	r22, 0x00	; 0
    2880:	70 e0       	ldi	r23, 0x00	; 0
    2882:	80 e0       	ldi	r24, 0x00	; 0
    2884:	90 e0       	ldi	r25, 0x00	; 0
    2886:	01 e1       	ldi	r16, 0x11	; 17
    2888:	0e 94 07 20 	call	0x400e	; 0x400e <__ashldi3>
    288c:	22 2e       	mov	r2, r18
    288e:	33 2e       	mov	r3, r19
    2890:	49 83       	std	Y+1, r20	; 0x01
    2892:	5d 83       	std	Y+5, r21	; 0x05
    2894:	b6 2f       	mov	r27, r22
    2896:	a7 2f       	mov	r26, r23
    2898:	08 2f       	mov	r16, r24
    289a:	19 2f       	mov	r17, r25
    289c:	2c 2d       	mov	r18, r12
    289e:	3d 2d       	mov	r19, r13
    28a0:	4e 2d       	mov	r20, r14
    28a2:	5f 2d       	mov	r21, r15
    28a4:	68 2d       	mov	r22, r8
    28a6:	78 2d       	mov	r23, r8
    28a8:	88 2d       	mov	r24, r8
    28aa:	98 2d       	mov	r25, r8
    28ac:	a2 2c       	mov	r10, r2
    28ae:	b3 2c       	mov	r11, r3
    28b0:	c9 80       	ldd	r12, Y+1	; 0x01
    28b2:	dd 80       	ldd	r13, Y+5	; 0x05
    28b4:	eb 2e       	mov	r14, r27
    28b6:	fa 2e       	mov	r15, r26
    28b8:	0e 94 3e 20 	call	0x407c	; 0x407c <__adddi3>
    28bc:	a2 2e       	mov	r10, r18
    28be:	b3 2e       	mov	r11, r19
    28c0:	c4 2e       	mov	r12, r20
    28c2:	d5 2e       	mov	r13, r21
    28c4:	e6 2e       	mov	r14, r22
    28c6:	f7 2e       	mov	r15, r23
    28c8:	08 2f       	mov	r16, r24
    28ca:	19 2f       	mov	r17, r25
    28cc:	25 2d       	mov	r18, r5
    28ce:	36 2d       	mov	r19, r6
    28d0:	47 2d       	mov	r20, r7
    28d2:	59 89       	ldd	r21, Y+17	; 0x11
    28d4:	69 85       	ldd	r22, Y+9	; 0x09
    28d6:	7f 2f       	mov	r23, r31
    28d8:	8e 2f       	mov	r24, r30
    28da:	94 2d       	mov	r25, r4
    28dc:	0e 94 47 20 	call	0x408e	; 0x408e <__subdi3>
    28e0:	12 2f       	mov	r17, r18
    28e2:	3d 83       	std	Y+5, r19	; 0x05
    28e4:	49 83       	std	Y+1, r20	; 0x01
    28e6:	b5 2f       	mov	r27, r21
    28e8:	f6 2f       	mov	r31, r22
    28ea:	e7 2f       	mov	r30, r23
    28ec:	78 2e       	mov	r7, r24
    28ee:	89 2e       	mov	r8, r25
    28f0:	a0 e0       	ldi	r26, 0x00	; 0
    28f2:	0e 94 50 20 	call	0x40a0	; 0x40a0 <__cmpdi2_s8>
    28f6:	84 f4       	brge	.+32     	; 0x2918 <get_pressure+0x322>
    28f8:	21 50       	subi	r18, 0x01	; 1
    28fa:	30 48       	sbci	r19, 0x80	; 128
    28fc:	4f 4f       	sbci	r20, 0xFF	; 255
    28fe:	5f 4f       	sbci	r21, 0xFF	; 255
    2900:	6f 4f       	sbci	r22, 0xFF	; 255
    2902:	7f 4f       	sbci	r23, 0xFF	; 255
    2904:	8f 4f       	sbci	r24, 0xFF	; 255
    2906:	9f 4f       	sbci	r25, 0xFF	; 255
    2908:	12 2f       	mov	r17, r18
    290a:	3d 83       	std	Y+5, r19	; 0x05
    290c:	49 83       	std	Y+1, r20	; 0x01
    290e:	b5 2f       	mov	r27, r21
    2910:	f6 2f       	mov	r31, r22
    2912:	e7 2f       	mov	r30, r23
    2914:	78 2e       	mov	r7, r24
    2916:	89 2e       	mov	r8, r25
    2918:	21 2f       	mov	r18, r17
    291a:	3d 81       	ldd	r19, Y+5	; 0x05
    291c:	49 81       	ldd	r20, Y+1	; 0x01
    291e:	5b 2f       	mov	r21, r27
    2920:	6f 2f       	mov	r22, r31
    2922:	7e 2f       	mov	r23, r30
    2924:	87 2d       	mov	r24, r7
    2926:	98 2d       	mov	r25, r8
    2928:	0f e0       	ldi	r16, 0x0F	; 15
    292a:	0e 94 20 20 	call	0x4040	; 0x4040 <__ashrdi3>
    292e:	62 2f       	mov	r22, r18
    2930:	73 2f       	mov	r23, r19
    2932:	84 2f       	mov	r24, r20
    2934:	95 2f       	mov	r25, r21
}
    2936:	61 96       	adiw	r28, 0x11	; 17
    2938:	cd bf       	out	0x3d, r28	; 61
    293a:	de bf       	out	0x3e, r29	; 62
    293c:	df 91       	pop	r29
    293e:	cf 91       	pop	r28
    2940:	1f 91       	pop	r17
    2942:	0f 91       	pop	r16
    2944:	ff 90       	pop	r15
    2946:	ef 90       	pop	r14
    2948:	df 90       	pop	r13
    294a:	cf 90       	pop	r12
    294c:	bf 90       	pop	r11
    294e:	af 90       	pop	r10
    2950:	9f 90       	pop	r9
    2952:	8f 90       	pop	r8
    2954:	7f 90       	pop	r7
    2956:	6f 90       	pop	r6
    2958:	5f 90       	pop	r5
    295a:	4f 90       	pop	r4
    295c:	3f 90       	pop	r3
    295e:	2f 90       	pop	r2
    2960:	08 95       	ret

00002962 <adc_init>:
#include <asf.h>
#include <math.h>
#include "thermistor.h"


void adc_init(void){	//This is for PA0... mostly
    2962:	ff 92       	push	r15
    2964:	0f 93       	push	r16
    2966:	1f 93       	push	r17
    2968:	cf 93       	push	r28
    296a:	df 93       	push	r29
	PORTA.DIRCLR = 0b00000001;
    296c:	e0 e0       	ldi	r30, 0x00	; 0
    296e:	f6 e0       	ldi	r31, 0x06	; 6
    2970:	ff 24       	eor	r15, r15
    2972:	f3 94       	inc	r15
    2974:	f2 82       	std	Z+2, r15	; 0x02
	PORTA.DIR = 0b11111110;
    2976:	8e ef       	ldi	r24, 0xFE	; 254
    2978:	80 83       	st	Z, r24
	ADCA.CTRLA = 0b00000001;
    297a:	c0 e0       	ldi	r28, 0x00	; 0
    297c:	d2 e0       	ldi	r29, 0x02	; 2
    297e:	f8 82       	st	Y, r15
	ADCA.CTRLB = 0b00000000;
    2980:	19 82       	std	Y+1, r1	; 0x01
	ADCA.REFCTRL = 0b00010000;
    2982:	80 e1       	ldi	r24, 0x10	; 16
    2984:	8a 83       	std	Y+2, r24	; 0x02
	ADCA.PRESCALER = 0b00000101;
    2986:	85 e0       	ldi	r24, 0x05	; 5
    2988:	8c 83       	std	Y+4, r24	; 0x04
 *
 * \param address Byte offset into the signature row
 */
static inline uint8_t nvm_read_production_signature_row(uint8_t address)
{
	return nvm_read_byte(NVM_CMD_READ_CALIB_ROW_gc, address);
    298a:	61 e2       	ldi	r22, 0x21	; 33
    298c:	70 e0       	ldi	r23, 0x00	; 0
    298e:	82 e0       	ldi	r24, 0x02	; 2
    2990:	0e 94 fd 05 	call	0xbfa	; 0xbfa <nvm_read_byte>
	uint16_t data;

	switch (cal) {
#ifdef ADCA
	case ADC_CAL_ADCA:
		data = nvm_read_production_signature_row(ADCACAL1);
    2994:	08 2f       	mov	r16, r24
    2996:	10 e0       	ldi	r17, 0x00	; 0
		data <<= 8;
    2998:	10 2f       	mov	r17, r16
    299a:	00 27       	eor	r16, r16
    299c:	60 e2       	ldi	r22, 0x20	; 32
    299e:	70 e0       	ldi	r23, 0x00	; 0
    29a0:	82 e0       	ldi	r24, 0x02	; 2
    29a2:	0e 94 fd 05 	call	0xbfa	; 0xbfa <nvm_read_byte>
		data |= nvm_read_production_signature_row(ADCACAL0);
    29a6:	08 2b       	or	r16, r24
	ADCA.CAL = adc_get_calibration_data(ADC_CAL_ADCA);
    29a8:	0c 87       	std	Y+12, r16	; 0x0c
    29aa:	1d 87       	std	Y+13, r17	; 0x0d
	
	ADCA.CH0.CTRL = 0b00000001;
    29ac:	f8 a2       	std	Y+32, r15	; 0x20
	ADCA.CH0.MUXCTRL = 0b00000110;
    29ae:	86 e0       	ldi	r24, 0x06	; 6
    29b0:	89 a3       	std	Y+33, r24	; 0x21
}
    29b2:	df 91       	pop	r29
    29b4:	cf 91       	pop	r28
    29b6:	1f 91       	pop	r17
    29b8:	0f 91       	pop	r16
    29ba:	ff 90       	pop	r15
    29bc:	08 95       	ret

000029be <getVoltage>:


float getVoltage(void){
	ADCA.CH0.CTRL  |= 0b10000000;
    29be:	e0 e0       	ldi	r30, 0x00	; 0
    29c0:	f2 e0       	ldi	r31, 0x02	; 2
    29c2:	80 a1       	ldd	r24, Z+32	; 0x20
    29c4:	80 68       	ori	r24, 0x80	; 128
    29c6:	80 a3       	std	Z+32, r24	; 0x20
	//printf("one");
	while(ADCA.CH0.INTFLAGS == 0);
    29c8:	83 a1       	ldd	r24, Z+35	; 0x23
    29ca:	88 23       	and	r24, r24
    29cc:	e9 f3       	breq	.-6      	; 0x29c8 <getVoltage+0xa>
	//printf("two");
	ADCA.CH0.INTFLAGS = 0;
    29ce:	e0 e0       	ldi	r30, 0x00	; 0
    29d0:	f2 e0       	ldi	r31, 0x02	; 2
    29d2:	13 a2       	std	Z+35, r1	; 0x23
	//printf("three");
	uint16_t adcReading = ADCA.CH0.RES;
    29d4:	64 a1       	ldd	r22, Z+36	; 0x24
    29d6:	75 a1       	ldd	r23, Z+37	; 0x25
	//printf("ADC reading = %u\n", adcReading);
	float voltage = 0.0004899 * (float)(adcReading) - 0.0856326;	//We have to find these numbers by applying differing voltage, printing ADC readings, and solve equation
	//printf("voltage: %f \n", voltage);
	return voltage;
    29d8:	80 e0       	ldi	r24, 0x00	; 0
    29da:	90 e0       	ldi	r25, 0x00	; 0
    29dc:	9d d4       	rcall	.+2362   	; 0x3318 <__floatunsisf>
    29de:	22 ea       	ldi	r18, 0xA2	; 162
    29e0:	3c e6       	ldi	r19, 0x6C	; 108
    29e2:	40 e0       	ldi	r20, 0x00	; 0
    29e4:	5a e3       	ldi	r21, 0x3A	; 58
    29e6:	6b d5       	rcall	.+2774   	; 0x34be <__mulsf3>
    29e8:	25 e2       	ldi	r18, 0x25	; 37
    29ea:	30 e6       	ldi	r19, 0x60	; 96
    29ec:	4f ea       	ldi	r20, 0xAF	; 175
    29ee:	5d e3       	ldi	r21, 0x3D	; 61
    29f0:	95 c3       	rjmp	.+1834   	; 0x311c <__subsf3>
	
}
    29f2:	08 95       	ret

000029f4 <getTemperature>:
	uint16_t voltage = getVoltage();
	uint16_t current = (voltage/10000);
	return current;
}
*/
float getTemperature(void){
    29f4:	8f 92       	push	r8
    29f6:	9f 92       	push	r9
    29f8:	af 92       	push	r10
    29fa:	bf 92       	push	r11
    29fc:	cf 92       	push	r12
    29fe:	df 92       	push	r13
    2a00:	ef 92       	push	r14
    2a02:	ff 92       	push	r15
	float voltage = getVoltage();
    2a04:	dc df       	rcall	.-72     	; 0x29be <getVoltage>
    2a06:	6b 01       	movw	r12, r22
    2a08:	7c 01       	movw	r14, r24
	//uint16_t current = getCurrent();
	//uint16_t resistance = voltage/current;
	float resistance = (voltage*10000)/(voltage-3.3);
	//printf("resistance = %f \n", resistance);
	uint32_t temperature = 3977.0/(log(resistance/(10000.0*pow(2.71828,(-3977.0/298.15)))));
    2a0a:	20 e0       	ldi	r18, 0x00	; 0
    2a0c:	30 e4       	ldi	r19, 0x40	; 64
    2a0e:	4c e1       	ldi	r20, 0x1C	; 28
    2a10:	56 e4       	ldi	r21, 0x46	; 70
    2a12:	55 d5       	rcall	.+2730   	; 0x34be <__mulsf3>
    2a14:	4b 01       	movw	r8, r22
    2a16:	5c 01       	movw	r10, r24
    2a18:	23 e3       	ldi	r18, 0x33	; 51
    2a1a:	33 e3       	ldi	r19, 0x33	; 51
    2a1c:	43 e5       	ldi	r20, 0x53	; 83
    2a1e:	50 e4       	ldi	r21, 0x40	; 64
    2a20:	c7 01       	movw	r24, r14
    2a22:	b6 01       	movw	r22, r12
    2a24:	7b d3       	rcall	.+1782   	; 0x311c <__subsf3>
    2a26:	9b 01       	movw	r18, r22
    2a28:	ac 01       	movw	r20, r24
    2a2a:	c5 01       	movw	r24, r10
    2a2c:	b4 01       	movw	r22, r8
    2a2e:	db d3       	rcall	.+1974   	; 0x31e6 <__divsf3>
    2a30:	2b e5       	ldi	r18, 0x5B	; 91
    2a32:	30 ef       	ldi	r19, 0xF0	; 240
    2a34:	43 e8       	ldi	r20, 0x83	; 131
    2a36:	5c e3       	ldi	r21, 0x3C	; 60
    2a38:	d6 d3       	rcall	.+1964   	; 0x31e6 <__divsf3>
    2a3a:	01 d5       	rcall	.+2562   	; 0x343e <log>
    2a3c:	9b 01       	movw	r18, r22
    2a3e:	ac 01       	movw	r20, r24
	//float temperature = pow((.003351016+.0002569850*log(resistance/10000)+.000002620131*pow(log(resistance/10000),2)),-1);
	return temperature;
    2a40:	60 e0       	ldi	r22, 0x00	; 0
    2a42:	70 e9       	ldi	r23, 0x90	; 144
    2a44:	88 e7       	ldi	r24, 0x78	; 120
    2a46:	95 e4       	ldi	r25, 0x45	; 69
    2a48:	ce d3       	rcall	.+1948   	; 0x31e6 <__divsf3>
    2a4a:	3a d4       	rcall	.+2164   	; 0x32c0 <__fixunssfsi>
    2a4c:	65 d4       	rcall	.+2250   	; 0x3318 <__floatunsisf>
    2a4e:	ff 90       	pop	r15
    2a50:	ef 90       	pop	r14
	
	
	
    2a52:	df 90       	pop	r13
    2a54:	cf 90       	pop	r12
    2a56:	bf 90       	pop	r11
    2a58:	af 90       	pop	r10
    2a5a:	9f 90       	pop	r9
    2a5c:	8f 90       	pop	r8
    2a5e:	08 95       	ret

00002a60 <usart_serial_getchar>:
    2a60:	cf 93       	push	r28
    2a62:	df 93       	push	r29
		read_buffer[loc] = usart_getchar(usart_channel);
		loc++;
		
	}
	return read_buffer;
}
    2a64:	eb 01       	movw	r28, r22
    2a66:	9b d9       	rcall	.-3274   	; 0x1d9e <usart_getchar>
    2a68:	88 83       	st	Y, r24
    2a6a:	df 91       	pop	r29
    2a6c:	cf 91       	pop	r28
    2a6e:	08 95       	ret

00002a70 <usart_serial_putchar>:
    2a70:	8e c9       	rjmp	.-3300   	; 0x1d8e <usart_putchar>
    2a72:	08 95       	ret

00002a74 <usart_init>:
    2a74:	cf 93       	push	r28
    2a76:	df 93       	push	r29
    2a78:	cd b7       	in	r28, 0x3d	; 61
    2a7a:	de b7       	in	r29, 0x3e	; 62
    2a7c:	27 97       	sbiw	r28, 0x07	; 7
    2a7e:	cd bf       	out	0x3d, r28	; 61
    2a80:	de bf       	out	0x3e, r29	; 62
    2a82:	e0 e4       	ldi	r30, 0x40	; 64
    2a84:	f6 e0       	ldi	r31, 0x06	; 6
    2a86:	88 e0       	ldi	r24, 0x08	; 8
    2a88:	81 83       	std	Z+1, r24	; 0x01
    2a8a:	85 83       	std	Z+5, r24	; 0x05
    2a8c:	e0 e6       	ldi	r30, 0x60	; 96
    2a8e:	f6 e0       	ldi	r31, 0x06	; 6
    2a90:	81 83       	std	Z+1, r24	; 0x01
    2a92:	85 83       	std	Z+5, r24	; 0x05
    2a94:	80 ea       	ldi	r24, 0xA0	; 160
    2a96:	98 e0       	ldi	r25, 0x08	; 8
    2a98:	80 93 85 21 	sts	0x2185, r24	; 0x802185 <stdio_base>
    2a9c:	90 93 86 21 	sts	0x2186, r25	; 0x802186 <stdio_base+0x1>
    2aa0:	88 e3       	ldi	r24, 0x38	; 56
    2aa2:	95 e1       	ldi	r25, 0x15	; 21
    2aa4:	80 93 83 21 	sts	0x2183, r24	; 0x802183 <ptr_put>
    2aa8:	90 93 84 21 	sts	0x2184, r25	; 0x802184 <ptr_put+0x1>
    2aac:	80 e3       	ldi	r24, 0x30	; 48
    2aae:	95 e1       	ldi	r25, 0x15	; 21
    2ab0:	80 93 81 21 	sts	0x2181, r24	; 0x802181 <ptr_get>
    2ab4:	90 93 82 21 	sts	0x2182, r25	; 0x802182 <ptr_get+0x1>
    2ab8:	ed e0       	ldi	r30, 0x0D	; 13
    2aba:	f0 e2       	ldi	r31, 0x20	; 32
    2abc:	84 81       	ldd	r24, Z+4	; 0x04
    2abe:	8d 83       	std	Y+5, r24	; 0x05
    2ac0:	85 81       	ldd	r24, Z+5	; 0x05
    2ac2:	8e 83       	std	Y+6, r24	; 0x06
    2ac4:	86 81       	ldd	r24, Z+6	; 0x06
    2ac6:	8f 83       	std	Y+7, r24	; 0x07
    2ac8:	80 81       	ld	r24, Z
    2aca:	91 81       	ldd	r25, Z+1	; 0x01
    2acc:	a2 81       	ldd	r26, Z+2	; 0x02
    2ace:	b3 81       	ldd	r27, Z+3	; 0x03
    2ad0:	89 83       	std	Y+1, r24	; 0x01
    2ad2:	9a 83       	std	Y+2, r25	; 0x02
    2ad4:	ab 83       	std	Y+3, r26	; 0x03
    2ad6:	bc 83       	std	Y+4, r27	; 0x04
    2ad8:	60 e1       	ldi	r22, 0x10	; 16
    2ada:	83 e0       	ldi	r24, 0x03	; 3
    2adc:	0e 94 ce 03 	call	0x79c	; 0x79c <sysclk_enable_module>
    2ae0:	be 01       	movw	r22, r28
    2ae2:	6f 5f       	subi	r22, 0xFF	; 255
    2ae4:	7f 4f       	sbci	r23, 0xFF	; 255
    2ae6:	80 ea       	ldi	r24, 0xA0	; 160
    2ae8:	98 e0       	ldi	r25, 0x08	; 8
    2aea:	72 da       	rcall	.-2844   	; 0x1fd0 <usart_init_rs232>
    2aec:	64 ee       	ldi	r22, 0xE4	; 228
    2aee:	73 e0       	ldi	r23, 0x03	; 3
    2af0:	8d ef       	ldi	r24, 0xFD	; 253
    2af2:	93 e0       	ldi	r25, 0x03	; 3
    2af4:	0e 94 59 21 	call	0x42b2	; 0x42b2 <fdevopen>
    2af8:	e6 e0       	ldi	r30, 0x06	; 6
    2afa:	f0 e2       	ldi	r31, 0x20	; 32
    2afc:	84 81       	ldd	r24, Z+4	; 0x04
    2afe:	8d 83       	std	Y+5, r24	; 0x05
    2b00:	85 81       	ldd	r24, Z+5	; 0x05
    2b02:	8e 83       	std	Y+6, r24	; 0x06
    2b04:	86 81       	ldd	r24, Z+6	; 0x06
    2b06:	8f 83       	std	Y+7, r24	; 0x07
    2b08:	80 81       	ld	r24, Z
    2b0a:	91 81       	ldd	r25, Z+1	; 0x01
    2b0c:	a2 81       	ldd	r26, Z+2	; 0x02
    2b0e:	b3 81       	ldd	r27, Z+3	; 0x03
    2b10:	89 83       	std	Y+1, r24	; 0x01
    2b12:	9a 83       	std	Y+2, r25	; 0x02
    2b14:	ab 83       	std	Y+3, r26	; 0x03
    2b16:	bc 83       	std	Y+4, r27	; 0x04
    2b18:	60 e1       	ldi	r22, 0x10	; 16
    2b1a:	84 e0       	ldi	r24, 0x04	; 4
    2b1c:	0e 94 ce 03 	call	0x79c	; 0x79c <sysclk_enable_module>
    2b20:	be 01       	movw	r22, r28
    2b22:	6f 5f       	subi	r22, 0xFF	; 255
    2b24:	7f 4f       	sbci	r23, 0xFF	; 255
    2b26:	80 ea       	ldi	r24, 0xA0	; 160
    2b28:	99 e0       	ldi	r25, 0x09	; 9
    2b2a:	52 da       	rcall	.-2908   	; 0x1fd0 <usart_init_rs232>
    2b2c:	27 96       	adiw	r28, 0x07	; 7
    2b2e:	cd bf       	out	0x3d, r28	; 61
    2b30:	de bf       	out	0x3e, r29	; 62
    2b32:	df 91       	pop	r29
    2b34:	cf 91       	pop	r28
    2b36:	08 95       	ret

00002b38 <__vector_25>:
	
ISR(USARTC0_RXC_vect){
    2b38:	1f 92       	push	r1
    2b3a:	0f 92       	push	r0
    2b3c:	0f b6       	in	r0, 0x3f	; 63
    2b3e:	0f 92       	push	r0
    2b40:	11 24       	eor	r1, r1
    2b42:	08 b6       	in	r0, 0x38	; 56
    2b44:	0f 92       	push	r0
    2b46:	18 be       	out	0x38, r1	; 56
    2b48:	09 b6       	in	r0, 0x39	; 57
    2b4a:	0f 92       	push	r0
    2b4c:	19 be       	out	0x39, r1	; 57
    2b4e:	0b b6       	in	r0, 0x3b	; 59
    2b50:	0f 92       	push	r0
    2b52:	1b be       	out	0x3b, r1	; 59
    2b54:	2f 93       	push	r18
    2b56:	3f 93       	push	r19
    2b58:	4f 93       	push	r20
    2b5a:	5f 93       	push	r21
    2b5c:	6f 93       	push	r22
    2b5e:	7f 93       	push	r23
    2b60:	8f 93       	push	r24
    2b62:	9f 93       	push	r25
    2b64:	af 93       	push	r26
    2b66:	bf 93       	push	r27
    2b68:	ef 93       	push	r30
    2b6a:	ff 93       	push	r31
	//If we send reset things to the board
	xbee_rx_temporary = usart_getchar(&USARTC0);
    2b6c:	80 ea       	ldi	r24, 0xA0	; 160
    2b6e:	98 e0       	ldi	r25, 0x08	; 8
    2b70:	16 d9       	rcall	.-3540   	; 0x1d9e <usart_getchar>
    2b72:	80 93 9b 21 	sts	0x219B, r24	; 0x80219b <xbee_rx_temporary>
	
	switch(xbee_rx_temporary){
    2b76:	e0 91 9b 21 	lds	r30, 0x219B	; 0x80219b <xbee_rx_temporary>
    2b7a:	8e 2f       	mov	r24, r30
    2b7c:	ee 0f       	add	r30, r30
    2b7e:	99 0b       	sbc	r25, r25
    2b80:	aa 0b       	sbc	r26, r26
    2b82:	bb 0b       	sbc	r27, r27
    2b84:	fc 01       	movw	r30, r24
    2b86:	b1 97       	sbiw	r30, 0x21	; 33
    2b88:	ef 33       	cpi	r30, 0x3F	; 63
    2b8a:	f1 05       	cpc	r31, r1
    2b8c:	a0 f4       	brcc	.+40     	; 0x2bb6 <__vector_25+0x7e>
    2b8e:	88 27       	eor	r24, r24
    2b90:	e2 50       	subi	r30, 0x02	; 2
    2b92:	ff 4f       	sbci	r31, 0xFF	; 255
    2b94:	8f 4f       	sbci	r24, 0xFF	; 255
    2b96:	0c 94 a3 1f 	jmp	0x3f46	; 0x3f46 <__tablejump2__>
		case '!':						//reset MCU 
			wdt_reset_mcu();
    2b9a:	0e 94 85 03 	call	0x70a	; 0x70a <wdt_reset_mcu>
			break;
		case '%':						//change to flight state 3
			//state = 3;
			break;
		case '^':						//deploy heatshield
			heatshield_hotwire();
    2b9e:	0b c0       	rjmp	.+22     	; 0x2bb6 <__vector_25+0x7e>
			break;
    2ba0:	0f dc       	rcall	.-2018   	; 0x23c0 <heatshield_hotwire>
		case '&':						//deploy parachute
			parachute_hotwire();
    2ba2:	09 c0       	rjmp	.+18     	; 0x2bb6 <__vector_25+0x7e>
			break;
		case '*':						//detatching heatshield
			heatshield_detatch_hotwire();
    2ba4:	22 dc       	rcall	.-1980   	; 0x23ea <parachute_hotwire>
			break;
    2ba6:	07 c0       	rjmp	.+14     	; 0x2bb6 <__vector_25+0x7e>
		case '(':						//buzzer on
			buzzer_on();
    2ba8:	35 dc       	rcall	.-1942   	; 0x2414 <heatshield_detatch_hotwire>
			break;
    2baa:	05 c0       	rjmp	.+10     	; 0x2bb6 <__vector_25+0x7e>
		case ')':						//buzzer off
			buzzer_off();
    2bac:	48 dc       	rcall	.-1904   	; 0x243e <buzzer_on>
    2bae:	03 c0       	rjmp	.+6      	; 0x2bb6 <__vector_25+0x7e>
			break;
    2bb0:	4f dc       	rcall	.-1890   	; 0x2450 <buzzer_off>
		case '_':						//camera on
			camera_on();
    2bb2:	01 c0       	rjmp	.+2      	; 0x2bb6 <__vector_25+0x7e>
    2bb4:	56 dc       	rcall	.-1876   	; 0x2462 <camera_on>
			break;
	}
	
}
    2bb6:	ff 91       	pop	r31
    2bb8:	ef 91       	pop	r30
    2bba:	bf 91       	pop	r27
    2bbc:	af 91       	pop	r26
    2bbe:	9f 91       	pop	r25
    2bc0:	8f 91       	pop	r24
    2bc2:	7f 91       	pop	r23
    2bc4:	6f 91       	pop	r22
    2bc6:	5f 91       	pop	r21
    2bc8:	4f 91       	pop	r20
    2bca:	3f 91       	pop	r19
    2bcc:	2f 91       	pop	r18
    2bce:	0f 90       	pop	r0
    2bd0:	0b be       	out	0x3b, r0	; 59
    2bd2:	0f 90       	pop	r0
    2bd4:	09 be       	out	0x39, r0	; 57
    2bd6:	0f 90       	pop	r0
    2bd8:	08 be       	out	0x38, r0	; 56
    2bda:	0f 90       	pop	r0
    2bdc:	0f be       	out	0x3f, r0	; 63
    2bde:	0f 90       	pop	r0
    2be0:	1f 90       	pop	r1
    2be2:	18 95       	reti

00002be4 <__portable_avr_delay_cycles>:
 *
 * @{
 */
__always_optimize
static inline void __portable_avr_delay_cycles(unsigned long n)
{
    2be4:	04 c0       	rjmp	.+8      	; 0x2bee <__portable_avr_delay_cycles+0xa>
	while (n) {
		barrier();
		n--;
    2be6:	61 50       	subi	r22, 0x01	; 1
    2be8:	71 09       	sbc	r23, r1
    2bea:	81 09       	sbc	r24, r1
    2bec:	91 09       	sbc	r25, r1
 * @{
 */
__always_optimize
static inline void __portable_avr_delay_cycles(unsigned long n)
{
	while (n) {
    2bee:	61 15       	cp	r22, r1
    2bf0:	71 05       	cpc	r23, r1
    2bf2:	81 05       	cpc	r24, r1
    2bf4:	91 05       	cpc	r25, r1
    2bf6:	b9 f7       	brne	.-18     	; 0x2be6 <__portable_avr_delay_cycles+0x2>
    2bf8:	08 95       	ret

00002bfa <sysclk_enable_peripheral_clock>:
 *
 * \param module Pointer to the module's base address.
 */
static inline void sysclk_enable_peripheral_clock(const volatile void *module)
{
	if (module == NULL) {
    2bfa:	00 97       	sbiw	r24, 0x00	; 0
    2bfc:	09 f4       	brne	.+2      	; 0x2c00 <sysclk_enable_peripheral_clock+0x6>
    2bfe:	5c c1       	rjmp	.+696    	; 0x2eb8 <sysclk_enable_peripheral_clock+0x2be>
		Assert(false);
	}
#ifdef AES
	else if (module == &AES) {
    2c00:	80 3c       	cpi	r24, 0xC0	; 192
    2c02:	91 05       	cpc	r25, r1
    2c04:	29 f4       	brne	.+10     	; 0x2c10 <sysclk_enable_peripheral_clock+0x16>
		sysclk_enable_module(SYSCLK_PORT_GEN, SYSCLK_AES);
    2c06:	60 e1       	ldi	r22, 0x10	; 16
    2c08:	80 e0       	ldi	r24, 0x00	; 0
    2c0a:	0c 94 ce 03 	jmp	0x79c	; 0x79c <sysclk_enable_module>
    2c0e:	08 95       	ret
	}
#endif
#ifdef EBI
	else if (module == &EBI) {
    2c10:	80 34       	cpi	r24, 0x40	; 64
    2c12:	24 e0       	ldi	r18, 0x04	; 4
    2c14:	92 07       	cpc	r25, r18
    2c16:	29 f4       	brne	.+10     	; 0x2c22 <sysclk_enable_peripheral_clock+0x28>
		sysclk_enable_module(SYSCLK_PORT_GEN, SYSCLK_EBI);
    2c18:	68 e0       	ldi	r22, 0x08	; 8
    2c1a:	80 e0       	ldi	r24, 0x00	; 0
    2c1c:	0c 94 ce 03 	jmp	0x79c	; 0x79c <sysclk_enable_module>
    2c20:	08 95       	ret
	}
#endif
#ifdef RTC
	else if (module == &RTC) {
    2c22:	81 15       	cp	r24, r1
    2c24:	24 e0       	ldi	r18, 0x04	; 4
    2c26:	92 07       	cpc	r25, r18
    2c28:	29 f4       	brne	.+10     	; 0x2c34 <sysclk_enable_peripheral_clock+0x3a>
		sysclk_enable_module(SYSCLK_PORT_GEN, SYSCLK_RTC);
    2c2a:	64 e0       	ldi	r22, 0x04	; 4
    2c2c:	80 e0       	ldi	r24, 0x00	; 0
    2c2e:	0c 94 ce 03 	jmp	0x79c	; 0x79c <sysclk_enable_module>
    2c32:	08 95       	ret
	}
#endif
#ifdef EVSYS
	else if (module == &EVSYS) {
    2c34:	80 38       	cpi	r24, 0x80	; 128
    2c36:	21 e0       	ldi	r18, 0x01	; 1
    2c38:	92 07       	cpc	r25, r18
    2c3a:	29 f4       	brne	.+10     	; 0x2c46 <sysclk_enable_peripheral_clock+0x4c>
		sysclk_enable_module(SYSCLK_PORT_GEN, SYSCLK_EVSYS);
    2c3c:	62 e0       	ldi	r22, 0x02	; 2
    2c3e:	80 e0       	ldi	r24, 0x00	; 0
    2c40:	0c 94 ce 03 	jmp	0x79c	; 0x79c <sysclk_enable_module>
    2c44:	08 95       	ret
	}
#endif
#ifdef DMA
	else if (module == &DMA) {
    2c46:	81 15       	cp	r24, r1
    2c48:	21 e0       	ldi	r18, 0x01	; 1
    2c4a:	92 07       	cpc	r25, r18
    2c4c:	29 f4       	brne	.+10     	; 0x2c58 <sysclk_enable_peripheral_clock+0x5e>
		sysclk_enable_module(SYSCLK_PORT_GEN, SYSCLK_DMA);
    2c4e:	61 e0       	ldi	r22, 0x01	; 1
    2c50:	80 e0       	ldi	r24, 0x00	; 0
    2c52:	0c 94 ce 03 	jmp	0x79c	; 0x79c <sysclk_enable_module>
    2c56:	08 95       	ret
	else if (module == &EDMA) {
		sysclk_enable_module(SYSCLK_PORT_GEN, SYSCLK_EDMA);
	}
#endif
#ifdef ACA
	else if (module == &ACA) {
    2c58:	80 38       	cpi	r24, 0x80	; 128
    2c5a:	23 e0       	ldi	r18, 0x03	; 3
    2c5c:	92 07       	cpc	r25, r18
    2c5e:	29 f4       	brne	.+10     	; 0x2c6a <sysclk_enable_peripheral_clock+0x70>
		sysclk_enable_module(SYSCLK_PORT_A, SYSCLK_AC);
    2c60:	61 e0       	ldi	r22, 0x01	; 1
    2c62:	81 e0       	ldi	r24, 0x01	; 1
    2c64:	0c 94 ce 03 	jmp	0x79c	; 0x79c <sysclk_enable_module>
    2c68:	08 95       	ret
	}
#endif
#ifdef ACB
	else if (module == &ACB) {
    2c6a:	80 39       	cpi	r24, 0x90	; 144
    2c6c:	23 e0       	ldi	r18, 0x03	; 3
    2c6e:	92 07       	cpc	r25, r18
    2c70:	29 f4       	brne	.+10     	; 0x2c7c <sysclk_enable_peripheral_clock+0x82>
		sysclk_enable_module(SYSCLK_PORT_B, SYSCLK_AC);
    2c72:	61 e0       	ldi	r22, 0x01	; 1
    2c74:	82 e0       	ldi	r24, 0x02	; 2
    2c76:	0c 94 ce 03 	jmp	0x79c	; 0x79c <sysclk_enable_module>
    2c7a:	08 95       	ret
	}
#endif
#ifdef ADCA
	else if (module == &ADCA) {
    2c7c:	81 15       	cp	r24, r1
    2c7e:	22 e0       	ldi	r18, 0x02	; 2
    2c80:	92 07       	cpc	r25, r18
    2c82:	29 f4       	brne	.+10     	; 0x2c8e <sysclk_enable_peripheral_clock+0x94>
		sysclk_enable_module(SYSCLK_PORT_A, SYSCLK_ADC);
    2c84:	62 e0       	ldi	r22, 0x02	; 2
    2c86:	81 e0       	ldi	r24, 0x01	; 1
    2c88:	0c 94 ce 03 	jmp	0x79c	; 0x79c <sysclk_enable_module>
    2c8c:	08 95       	ret
	}
#endif
#ifdef ADCB
	else if (module == &ADCB) {
    2c8e:	80 34       	cpi	r24, 0x40	; 64
    2c90:	22 e0       	ldi	r18, 0x02	; 2
    2c92:	92 07       	cpc	r25, r18
    2c94:	29 f4       	brne	.+10     	; 0x2ca0 <sysclk_enable_peripheral_clock+0xa6>
		sysclk_enable_module(SYSCLK_PORT_B, SYSCLK_ADC);
    2c96:	62 e0       	ldi	r22, 0x02	; 2
    2c98:	82 e0       	ldi	r24, 0x02	; 2
    2c9a:	0c 94 ce 03 	jmp	0x79c	; 0x79c <sysclk_enable_module>
    2c9e:	08 95       	ret
	}
#endif
#ifdef DACA
	else if (module == &DACA) {
    2ca0:	81 15       	cp	r24, r1
    2ca2:	23 e0       	ldi	r18, 0x03	; 3
    2ca4:	92 07       	cpc	r25, r18
    2ca6:	29 f4       	brne	.+10     	; 0x2cb2 <sysclk_enable_peripheral_clock+0xb8>
		sysclk_enable_module(SYSCLK_PORT_A, SYSCLK_DAC);
    2ca8:	64 e0       	ldi	r22, 0x04	; 4
    2caa:	81 e0       	ldi	r24, 0x01	; 1
    2cac:	0c 94 ce 03 	jmp	0x79c	; 0x79c <sysclk_enable_module>
    2cb0:	08 95       	ret
	}
#endif
// Workaround for bad XMEGA D header file
#if !XMEGA_D
#ifdef DACB
	else if (module == &DACB) {
    2cb2:	80 32       	cpi	r24, 0x20	; 32
    2cb4:	23 e0       	ldi	r18, 0x03	; 3
    2cb6:	92 07       	cpc	r25, r18
    2cb8:	29 f4       	brne	.+10     	; 0x2cc4 <sysclk_enable_peripheral_clock+0xca>
		sysclk_enable_module(SYSCLK_PORT_B, SYSCLK_DAC);
    2cba:	64 e0       	ldi	r22, 0x04	; 4
    2cbc:	82 e0       	ldi	r24, 0x02	; 2
    2cbe:	0c 94 ce 03 	jmp	0x79c	; 0x79c <sysclk_enable_module>
    2cc2:	08 95       	ret
	}
#endif
#endif // Workaround end
#ifdef TCC0
	else if (module == &TCC0) {
    2cc4:	81 15       	cp	r24, r1
    2cc6:	28 e0       	ldi	r18, 0x08	; 8
    2cc8:	92 07       	cpc	r25, r18
    2cca:	29 f4       	brne	.+10     	; 0x2cd6 <sysclk_enable_peripheral_clock+0xdc>
		sysclk_enable_module(SYSCLK_PORT_C, SYSCLK_TC0);
    2ccc:	61 e0       	ldi	r22, 0x01	; 1
    2cce:	83 e0       	ldi	r24, 0x03	; 3
    2cd0:	0c 94 ce 03 	jmp	0x79c	; 0x79c <sysclk_enable_module>
    2cd4:	08 95       	ret
	}
#endif
#ifdef TCD0
	else if (module == &TCD0) {
    2cd6:	81 15       	cp	r24, r1
    2cd8:	29 e0       	ldi	r18, 0x09	; 9
    2cda:	92 07       	cpc	r25, r18
    2cdc:	29 f4       	brne	.+10     	; 0x2ce8 <sysclk_enable_peripheral_clock+0xee>
		sysclk_enable_module(SYSCLK_PORT_D, SYSCLK_TC0);
    2cde:	61 e0       	ldi	r22, 0x01	; 1
    2ce0:	84 e0       	ldi	r24, 0x04	; 4
    2ce2:	0c 94 ce 03 	jmp	0x79c	; 0x79c <sysclk_enable_module>
    2ce6:	08 95       	ret
	}
#endif
#ifdef TCE0
	else if (module == &TCE0) {
    2ce8:	81 15       	cp	r24, r1
    2cea:	2a e0       	ldi	r18, 0x0A	; 10
    2cec:	92 07       	cpc	r25, r18
    2cee:	29 f4       	brne	.+10     	; 0x2cfa <sysclk_enable_peripheral_clock+0x100>
		sysclk_enable_module(SYSCLK_PORT_E, SYSCLK_TC0);
    2cf0:	61 e0       	ldi	r22, 0x01	; 1
    2cf2:	85 e0       	ldi	r24, 0x05	; 5
    2cf4:	0c 94 ce 03 	jmp	0x79c	; 0x79c <sysclk_enable_module>
    2cf8:	08 95       	ret
	}
#endif
#ifdef TCF0
	else if (module == &TCF0) {
    2cfa:	81 15       	cp	r24, r1
    2cfc:	2b e0       	ldi	r18, 0x0B	; 11
    2cfe:	92 07       	cpc	r25, r18
    2d00:	29 f4       	brne	.+10     	; 0x2d0c <sysclk_enable_peripheral_clock+0x112>
		sysclk_enable_module(SYSCLK_PORT_F, SYSCLK_TC0);
    2d02:	61 e0       	ldi	r22, 0x01	; 1
    2d04:	86 e0       	ldi	r24, 0x06	; 6
    2d06:	0c 94 ce 03 	jmp	0x79c	; 0x79c <sysclk_enable_module>
    2d0a:	08 95       	ret
	}
#endif
#ifdef TCC1
	else if (module == &TCC1) {
    2d0c:	80 34       	cpi	r24, 0x40	; 64
    2d0e:	28 e0       	ldi	r18, 0x08	; 8
    2d10:	92 07       	cpc	r25, r18
    2d12:	29 f4       	brne	.+10     	; 0x2d1e <sysclk_enable_peripheral_clock+0x124>
		sysclk_enable_module(SYSCLK_PORT_C, SYSCLK_TC1);
    2d14:	62 e0       	ldi	r22, 0x02	; 2
    2d16:	83 e0       	ldi	r24, 0x03	; 3
    2d18:	0c 94 ce 03 	jmp	0x79c	; 0x79c <sysclk_enable_module>
    2d1c:	08 95       	ret
	}
#endif
#ifdef TCD1
	else if (module == &TCD1) {
    2d1e:	80 34       	cpi	r24, 0x40	; 64
    2d20:	29 e0       	ldi	r18, 0x09	; 9
    2d22:	92 07       	cpc	r25, r18
    2d24:	29 f4       	brne	.+10     	; 0x2d30 <sysclk_enable_peripheral_clock+0x136>
		sysclk_enable_module(SYSCLK_PORT_D, SYSCLK_TC1);
    2d26:	62 e0       	ldi	r22, 0x02	; 2
    2d28:	84 e0       	ldi	r24, 0x04	; 4
    2d2a:	0c 94 ce 03 	jmp	0x79c	; 0x79c <sysclk_enable_module>
    2d2e:	08 95       	ret
	}
#endif
#ifdef TCE1
	else if (module == &TCE1) {
    2d30:	80 34       	cpi	r24, 0x40	; 64
    2d32:	2a e0       	ldi	r18, 0x0A	; 10
    2d34:	92 07       	cpc	r25, r18
    2d36:	29 f4       	brne	.+10     	; 0x2d42 <sysclk_enable_peripheral_clock+0x148>
		sysclk_enable_module(SYSCLK_PORT_E, SYSCLK_TC1);
    2d38:	62 e0       	ldi	r22, 0x02	; 2
    2d3a:	85 e0       	ldi	r24, 0x05	; 5
    2d3c:	0c 94 ce 03 	jmp	0x79c	; 0x79c <sysclk_enable_module>
    2d40:	08 95       	ret
	}
#endif
#ifdef TCF1
	else if (module == &TCF1) {
    2d42:	80 34       	cpi	r24, 0x40	; 64
    2d44:	2b e0       	ldi	r18, 0x0B	; 11
    2d46:	92 07       	cpc	r25, r18
    2d48:	29 f4       	brne	.+10     	; 0x2d54 <sysclk_enable_peripheral_clock+0x15a>
		sysclk_enable_module(SYSCLK_PORT_F, SYSCLK_TC1);
    2d4a:	62 e0       	ldi	r22, 0x02	; 2
    2d4c:	86 e0       	ldi	r24, 0x06	; 6
    2d4e:	0c 94 ce 03 	jmp	0x79c	; 0x79c <sysclk_enable_module>
    2d52:	08 95       	ret
	else if (module == &TCD5) {
		sysclk_enable_module(SYSCLK_PORT_D, SYSCLK_TC5);
	}
#endif
#ifdef HIRESC
	else if (module == &HIRESC) {
    2d54:	80 39       	cpi	r24, 0x90	; 144
    2d56:	28 e0       	ldi	r18, 0x08	; 8
    2d58:	92 07       	cpc	r25, r18
    2d5a:	29 f4       	brne	.+10     	; 0x2d66 <sysclk_enable_peripheral_clock+0x16c>
			sysclk_enable_module(SYSCLK_PORT_C, SYSCLK_HIRES);
    2d5c:	64 e0       	ldi	r22, 0x04	; 4
    2d5e:	83 e0       	ldi	r24, 0x03	; 3
    2d60:	0c 94 ce 03 	jmp	0x79c	; 0x79c <sysclk_enable_module>
    2d64:	08 95       	ret
	}
#endif
#ifdef HIRESD
	else if (module == &HIRESD) {
    2d66:	80 39       	cpi	r24, 0x90	; 144
    2d68:	29 e0       	ldi	r18, 0x09	; 9
    2d6a:	92 07       	cpc	r25, r18
    2d6c:	29 f4       	brne	.+10     	; 0x2d78 <sysclk_enable_peripheral_clock+0x17e>
		sysclk_enable_module(SYSCLK_PORT_D, SYSCLK_HIRES);
    2d6e:	64 e0       	ldi	r22, 0x04	; 4
    2d70:	84 e0       	ldi	r24, 0x04	; 4
    2d72:	0c 94 ce 03 	jmp	0x79c	; 0x79c <sysclk_enable_module>
    2d76:	08 95       	ret
	}
#endif
#ifdef HIRESE
	else if (module == &HIRESE) {
    2d78:	80 39       	cpi	r24, 0x90	; 144
    2d7a:	2a e0       	ldi	r18, 0x0A	; 10
    2d7c:	92 07       	cpc	r25, r18
    2d7e:	29 f4       	brne	.+10     	; 0x2d8a <sysclk_enable_peripheral_clock+0x190>
		sysclk_enable_module(SYSCLK_PORT_E, SYSCLK_HIRES);
    2d80:	64 e0       	ldi	r22, 0x04	; 4
    2d82:	85 e0       	ldi	r24, 0x05	; 5
    2d84:	0c 94 ce 03 	jmp	0x79c	; 0x79c <sysclk_enable_module>
    2d88:	08 95       	ret
	}
#endif
#ifdef HIRESF
	else if (module == &HIRESF) {
    2d8a:	80 39       	cpi	r24, 0x90	; 144
    2d8c:	2b e0       	ldi	r18, 0x0B	; 11
    2d8e:	92 07       	cpc	r25, r18
    2d90:	29 f4       	brne	.+10     	; 0x2d9c <sysclk_enable_peripheral_clock+0x1a2>
		sysclk_enable_module(SYSCLK_PORT_F, SYSCLK_HIRES);
    2d92:	64 e0       	ldi	r22, 0x04	; 4
    2d94:	86 e0       	ldi	r24, 0x06	; 6
    2d96:	0c 94 ce 03 	jmp	0x79c	; 0x79c <sysclk_enable_module>
    2d9a:	08 95       	ret
	}
#endif
#ifdef SPIC
	else if (module == &SPIC) {
    2d9c:	80 3c       	cpi	r24, 0xC0	; 192
    2d9e:	28 e0       	ldi	r18, 0x08	; 8
    2da0:	92 07       	cpc	r25, r18
    2da2:	29 f4       	brne	.+10     	; 0x2dae <sysclk_enable_peripheral_clock+0x1b4>
		sysclk_enable_module(SYSCLK_PORT_C, SYSCLK_SPI);
    2da4:	68 e0       	ldi	r22, 0x08	; 8
    2da6:	83 e0       	ldi	r24, 0x03	; 3
    2da8:	0c 94 ce 03 	jmp	0x79c	; 0x79c <sysclk_enable_module>
    2dac:	08 95       	ret
	}
#endif
#ifdef SPID
	else if (module == &SPID) {
    2dae:	80 3c       	cpi	r24, 0xC0	; 192
    2db0:	29 e0       	ldi	r18, 0x09	; 9
    2db2:	92 07       	cpc	r25, r18
    2db4:	29 f4       	brne	.+10     	; 0x2dc0 <sysclk_enable_peripheral_clock+0x1c6>
		sysclk_enable_module(SYSCLK_PORT_D, SYSCLK_SPI);
    2db6:	68 e0       	ldi	r22, 0x08	; 8
    2db8:	84 e0       	ldi	r24, 0x04	; 4
    2dba:	0c 94 ce 03 	jmp	0x79c	; 0x79c <sysclk_enable_module>
    2dbe:	08 95       	ret
	}
#endif
#ifdef SPIE
	else if (module == &SPIE) {
    2dc0:	80 3c       	cpi	r24, 0xC0	; 192
    2dc2:	2a e0       	ldi	r18, 0x0A	; 10
    2dc4:	92 07       	cpc	r25, r18
    2dc6:	29 f4       	brne	.+10     	; 0x2dd2 <sysclk_enable_peripheral_clock+0x1d8>
		sysclk_enable_module(SYSCLK_PORT_E, SYSCLK_SPI);
    2dc8:	68 e0       	ldi	r22, 0x08	; 8
    2dca:	85 e0       	ldi	r24, 0x05	; 5
    2dcc:	0c 94 ce 03 	jmp	0x79c	; 0x79c <sysclk_enable_module>
    2dd0:	08 95       	ret
	}
#endif
#ifdef SPIF
	else if (module == &SPIF) {
    2dd2:	80 3c       	cpi	r24, 0xC0	; 192
    2dd4:	2b e0       	ldi	r18, 0x0B	; 11
    2dd6:	92 07       	cpc	r25, r18
    2dd8:	29 f4       	brne	.+10     	; 0x2de4 <sysclk_enable_peripheral_clock+0x1ea>
		sysclk_enable_module(SYSCLK_PORT_F, SYSCLK_SPI);
    2dda:	68 e0       	ldi	r22, 0x08	; 8
    2ddc:	86 e0       	ldi	r24, 0x06	; 6
    2dde:	0c 94 ce 03 	jmp	0x79c	; 0x79c <sysclk_enable_module>
    2de2:	08 95       	ret
	}
#endif
#ifdef USARTC0
	else if (module == &USARTC0) {
    2de4:	80 3a       	cpi	r24, 0xA0	; 160
    2de6:	28 e0       	ldi	r18, 0x08	; 8
    2de8:	92 07       	cpc	r25, r18
    2dea:	29 f4       	brne	.+10     	; 0x2df6 <sysclk_enable_peripheral_clock+0x1fc>
		sysclk_enable_module(SYSCLK_PORT_C, SYSCLK_USART0);
    2dec:	60 e1       	ldi	r22, 0x10	; 16
    2dee:	83 e0       	ldi	r24, 0x03	; 3
    2df0:	0c 94 ce 03 	jmp	0x79c	; 0x79c <sysclk_enable_module>
    2df4:	08 95       	ret
	}
#endif
#ifdef USARTD0
	else if (module == &USARTD0) {
    2df6:	80 3a       	cpi	r24, 0xA0	; 160
    2df8:	29 e0       	ldi	r18, 0x09	; 9
    2dfa:	92 07       	cpc	r25, r18
    2dfc:	29 f4       	brne	.+10     	; 0x2e08 <sysclk_enable_peripheral_clock+0x20e>
		sysclk_enable_module(SYSCLK_PORT_D, SYSCLK_USART0);
    2dfe:	60 e1       	ldi	r22, 0x10	; 16
    2e00:	84 e0       	ldi	r24, 0x04	; 4
    2e02:	0c 94 ce 03 	jmp	0x79c	; 0x79c <sysclk_enable_module>
    2e06:	08 95       	ret
	}
#endif
#ifdef USARTE0
	else if (module == &USARTE0) {
    2e08:	80 3a       	cpi	r24, 0xA0	; 160
    2e0a:	2a e0       	ldi	r18, 0x0A	; 10
    2e0c:	92 07       	cpc	r25, r18
    2e0e:	29 f4       	brne	.+10     	; 0x2e1a <sysclk_enable_peripheral_clock+0x220>
		sysclk_enable_module(SYSCLK_PORT_E, SYSCLK_USART0);
    2e10:	60 e1       	ldi	r22, 0x10	; 16
    2e12:	85 e0       	ldi	r24, 0x05	; 5
    2e14:	0c 94 ce 03 	jmp	0x79c	; 0x79c <sysclk_enable_module>
    2e18:	08 95       	ret
	}
#endif
#ifdef USARTF0
	else if (module == &USARTF0) {
    2e1a:	80 3a       	cpi	r24, 0xA0	; 160
    2e1c:	2b e0       	ldi	r18, 0x0B	; 11
    2e1e:	92 07       	cpc	r25, r18
    2e20:	29 f4       	brne	.+10     	; 0x2e2c <sysclk_enable_peripheral_clock+0x232>
		sysclk_enable_module(SYSCLK_PORT_F, SYSCLK_USART0);
    2e22:	60 e1       	ldi	r22, 0x10	; 16
    2e24:	86 e0       	ldi	r24, 0x06	; 6
    2e26:	0c 94 ce 03 	jmp	0x79c	; 0x79c <sysclk_enable_module>
    2e2a:	08 95       	ret
	}
#endif
#ifdef USARTC1
	else if (module == &USARTC1) {
    2e2c:	80 3b       	cpi	r24, 0xB0	; 176
    2e2e:	28 e0       	ldi	r18, 0x08	; 8
    2e30:	92 07       	cpc	r25, r18
    2e32:	29 f4       	brne	.+10     	; 0x2e3e <sysclk_enable_peripheral_clock+0x244>
		sysclk_enable_module(SYSCLK_PORT_C, SYSCLK_USART1);
    2e34:	60 e2       	ldi	r22, 0x20	; 32
    2e36:	83 e0       	ldi	r24, 0x03	; 3
    2e38:	0c 94 ce 03 	jmp	0x79c	; 0x79c <sysclk_enable_module>
    2e3c:	08 95       	ret
	}
#endif
#ifdef USARTD1
	else if (module == &USARTD1) {
    2e3e:	80 3b       	cpi	r24, 0xB0	; 176
    2e40:	29 e0       	ldi	r18, 0x09	; 9
    2e42:	92 07       	cpc	r25, r18
    2e44:	29 f4       	brne	.+10     	; 0x2e50 <sysclk_enable_peripheral_clock+0x256>
		sysclk_enable_module(SYSCLK_PORT_D, SYSCLK_USART1);
    2e46:	60 e2       	ldi	r22, 0x20	; 32
    2e48:	84 e0       	ldi	r24, 0x04	; 4
    2e4a:	0c 94 ce 03 	jmp	0x79c	; 0x79c <sysclk_enable_module>
    2e4e:	08 95       	ret
	}
#endif
#ifdef USARTE1
	else if (module == &USARTE1) {
    2e50:	80 3b       	cpi	r24, 0xB0	; 176
    2e52:	2a e0       	ldi	r18, 0x0A	; 10
    2e54:	92 07       	cpc	r25, r18
    2e56:	29 f4       	brne	.+10     	; 0x2e62 <sysclk_enable_peripheral_clock+0x268>
		sysclk_enable_module(SYSCLK_PORT_E, SYSCLK_USART1);
    2e58:	60 e2       	ldi	r22, 0x20	; 32
    2e5a:	85 e0       	ldi	r24, 0x05	; 5
    2e5c:	0c 94 ce 03 	jmp	0x79c	; 0x79c <sysclk_enable_module>
    2e60:	08 95       	ret
	}
#endif
#ifdef USARTF1
	else if (module == &USARTF1) {
    2e62:	80 3b       	cpi	r24, 0xB0	; 176
    2e64:	2b e0       	ldi	r18, 0x0B	; 11
    2e66:	92 07       	cpc	r25, r18
    2e68:	29 f4       	brne	.+10     	; 0x2e74 <sysclk_enable_peripheral_clock+0x27a>
		sysclk_enable_module(SYSCLK_PORT_F, SYSCLK_USART1);
    2e6a:	60 e2       	ldi	r22, 0x20	; 32
    2e6c:	86 e0       	ldi	r24, 0x06	; 6
    2e6e:	0c 94 ce 03 	jmp	0x79c	; 0x79c <sysclk_enable_module>
    2e72:	08 95       	ret
	}
#endif
#ifdef TWIC
	else if (module == &TWIC) {
    2e74:	80 38       	cpi	r24, 0x80	; 128
    2e76:	24 e0       	ldi	r18, 0x04	; 4
    2e78:	92 07       	cpc	r25, r18
    2e7a:	29 f4       	brne	.+10     	; 0x2e86 <sysclk_enable_peripheral_clock+0x28c>
		sysclk_enable_module(SYSCLK_PORT_C, SYSCLK_TWI);
    2e7c:	60 e4       	ldi	r22, 0x40	; 64
    2e7e:	83 e0       	ldi	r24, 0x03	; 3
    2e80:	0c 94 ce 03 	jmp	0x79c	; 0x79c <sysclk_enable_module>
    2e84:	08 95       	ret
	}
#endif
#ifdef TWID
	else if (module == &TWID) {
    2e86:	80 39       	cpi	r24, 0x90	; 144
    2e88:	24 e0       	ldi	r18, 0x04	; 4
    2e8a:	92 07       	cpc	r25, r18
    2e8c:	29 f4       	brne	.+10     	; 0x2e98 <sysclk_enable_peripheral_clock+0x29e>
		sysclk_enable_module(SYSCLK_PORT_D, SYSCLK_TWI);
    2e8e:	60 e4       	ldi	r22, 0x40	; 64
    2e90:	84 e0       	ldi	r24, 0x04	; 4
    2e92:	0c 94 ce 03 	jmp	0x79c	; 0x79c <sysclk_enable_module>
    2e96:	08 95       	ret
	}
#endif
#ifdef TWIE
	else if (module == &TWIE) {
    2e98:	80 3a       	cpi	r24, 0xA0	; 160
    2e9a:	24 e0       	ldi	r18, 0x04	; 4
    2e9c:	92 07       	cpc	r25, r18
    2e9e:	29 f4       	brne	.+10     	; 0x2eaa <sysclk_enable_peripheral_clock+0x2b0>
		sysclk_enable_module(SYSCLK_PORT_E, SYSCLK_TWI);
    2ea0:	60 e4       	ldi	r22, 0x40	; 64
    2ea2:	85 e0       	ldi	r24, 0x05	; 5
    2ea4:	0c 94 ce 03 	jmp	0x79c	; 0x79c <sysclk_enable_module>
    2ea8:	08 95       	ret
	}
#endif
#ifdef TWIF
	else if (module == &TWIF) {
    2eaa:	80 3b       	cpi	r24, 0xB0	; 176
    2eac:	94 40       	sbci	r25, 0x04	; 4
    2eae:	21 f4       	brne	.+8      	; 0x2eb8 <sysclk_enable_peripheral_clock+0x2be>
		sysclk_enable_module(SYSCLK_PORT_F, SYSCLK_TWI);
    2eb0:	60 e4       	ldi	r22, 0x40	; 64
    2eb2:	86 e0       	ldi	r24, 0x06	; 6
    2eb4:	0c 94 ce 03 	jmp	0x79c	; 0x79c <sysclk_enable_module>
    2eb8:	08 95       	ret

00002eba <main>:

extern uint8_t state;
//void blink (int, int);

int main (void)
{
    2eba:	cf 93       	push	r28
    2ebc:	df 93       	push	r29
    2ebe:	cd b7       	in	r28, 0x3d	; 61
    2ec0:	de b7       	in	r29, 0x3e	; 62
    2ec2:	2c 97       	sbiw	r28, 0x0c	; 12
    2ec4:	cd bf       	out	0x3d, r28	; 61
    2ec6:	de bf       	out	0x3e, r29	; 62
	sysclk_init();
    2ec8:	0e 94 99 03 	call	0x732	; 0x732 <sysclk_init>
	sysclk_enable_peripheral_clock(&TCF0);
    2ecc:	80 e0       	ldi	r24, 0x00	; 0
    2ece:	9b e0       	ldi	r25, 0x0B	; 11
    2ed0:	94 de       	rcall	.-728    	; 0x2bfa <sysclk_enable_peripheral_clock>
	sysclk_enable_peripheral_clock(&TCD0);
    2ed2:	80 e0       	ldi	r24, 0x00	; 0
    2ed4:	99 e0       	ldi	r25, 0x09	; 9
    2ed6:	91 de       	rcall	.-734    	; 0x2bfa <sysclk_enable_peripheral_clock>
	sysclk_enable_module(SYSCLK_PORT_F, SYSCLK_HIRES);
    2ed8:	64 e0       	ldi	r22, 0x04	; 4
    2eda:	86 e0       	ldi	r24, 0x06	; 6
    2edc:	0e 94 ce 03 	call	0x79c	; 0x79c <sysclk_enable_module>
	sysclk_enable_module(SYSCLK_PORT_D, SYSCLK_HIRES);
    2ee0:	64 e0       	ldi	r22, 0x04	; 4
    2ee2:	84 e0       	ldi	r24, 0x04	; 4
    2ee4:	0e 94 ce 03 	call	0x79c	; 0x79c <sysclk_enable_module>
	sysclk_enable_module(SYSCLK_PORT_C, PR_SPI_bm);
    2ee8:	68 e0       	ldi	r22, 0x08	; 8
    2eea:	83 e0       	ldi	r24, 0x03	; 3
    2eec:	0e 94 ce 03 	call	0x79c	; 0x79c <sysclk_enable_module>
// 	delay_ms(15000);
// 	PORTD.OUTCLR = 0b00001000;
//	timer_founter_init(3124, 10);
		
		
	sysclk_enable_peripheral_clock(&USARTC0);
    2ef0:	80 ea       	ldi	r24, 0xA0	; 160
    2ef2:	98 e0       	ldi	r25, 0x08	; 8
	usart_init();
    2ef4:	82 de       	rcall	.-764    	; 0x2bfa <sysclk_enable_peripheral_clock>
	
	sysclk_enable_peripheral_clock(&SPIC);
    2ef6:	be dd       	rcall	.-1156   	; 0x2a74 <usart_init>
    2ef8:	80 ec       	ldi	r24, 0xC0	; 192
    2efa:	98 e0       	ldi	r25, 0x08	; 8
	SPI_init();
    2efc:	7e de       	rcall	.-772    	; 0x2bfa <sysclk_enable_peripheral_clock>
	ms5607_init();
    2efe:	c5 da       	rcall	.-2678   	; 0x248a <SPI_init>
    2f00:	ff da       	rcall	.-2562   	; 0x2500 <ms5607_init>
	
	sysclk_enable_peripheral_clock(&ADCA);
    2f02:	80 e0       	ldi	r24, 0x00	; 0
    2f04:	92 e0       	ldi	r25, 0x02	; 2
    2f06:	79 de       	rcall	.-782    	; 0x2bfa <sysclk_enable_peripheral_clock>
    2f08:	2c dd       	rcall	.-1448   	; 0x2962 <adc_init>
	adc_init();
    2f0a:	75 db       	rcall	.-2326   	; 0x25f6 <get_pressure>
    2f0c:	6f 83       	std	Y+7, r22	; 0x07
	float tiltX;
	float tiltY;	
	float tiltZ;	
	
	//printf("Is this thing on?\n");
	uint32_t initial = get_pressure();
    2f0e:	78 87       	std	Y+8, r23	; 0x08
    2f10:	89 87       	std	Y+9, r24	; 0x09
    2f12:	9a 87       	std	Y+10, r25	; 0x0a
    2f14:	84 e1       	ldi	r24, 0x14	; 20
    2f16:	90 e2       	ldi	r25, 0x20	; 32
    2f18:	0e 94 f2 21 	call	0x43e4	; 0x43e4 <puts>
	//timer_founter_init(62499, 5);

	//timer_dounter_init(12500, 10);
	
	
	printf("Hello World! \n");
    2f1c:	19 82       	std	Y+1, r1	; 0x01
    2f1e:	21 2c       	mov	r2, r1
    2f20:	31 2c       	mov	r3, r1
	//uint16_t period;
	//uint16_t duty_cycle;
	double smoothing_factor = 0.90;
	

	uint8_t state = 0;
    2f22:	21 01       	movw	r4, r2
	uint32_t pressure;
	uint32_t temperature;
	//uint32_t initial_pressure = get_pressure();
	int32_t altitude;
	int32_t initial_altitude = 0;
	int32_t smooth_altitude = 0;
    2f24:	91 2c       	mov	r9, r1
    2f26:	20 e0       	ldi	r18, 0x00	; 0
    2f28:	2b 87       	std	Y+11, r18	; 0x0b
	
	sysclk_enable_peripheral_clock(&ADCA);
	adc_init();
	
	uint16_t teamID = 5186;
	uint8_t my_time = 0;
    2f2a:	08 c0       	rjmp	.+16     	; 0x2f3c <main+0x82>
    2f2c:	81 e0       	ldi	r24, 0x01	; 1
    2f2e:	8b 87       	std	Y+11, r24	; 0x0b
    2f30:	05 c0       	rjmp	.+10     	; 0x2f3c <main+0x82>
    2f32:	92 e0       	ldi	r25, 0x02	; 2
    2f34:	9b 87       	std	Y+11, r25	; 0x0b
    2f36:	02 c0       	rjmp	.+4      	; 0x2f3c <main+0x82>
    2f38:	22 e0       	ldi	r18, 0x02	; 2
    2f3a:	2b 87       	std	Y+11, r18	; 0x0b
	
	printf("Hello World! \n");
	
	while(1){
		//printf("pizza! \n");
		pressure = get_pressure();
    2f3c:	5c db       	rcall	.-2376   	; 0x25f6 <get_pressure>
    2f3e:	86 2e       	mov	r8, r22
    2f40:	a7 2e       	mov	r10, r23
    2f42:	8c 87       	std	Y+12, r24	; 0x0c
    2f44:	b9 2e       	mov	r11, r25
    2f46:	56 dd       	rcall	.-1364   	; 0x29f4 <getTemperature>
		temperature = getTemperature();
    2f48:	bb d1       	rcall	.+886    	; 0x32c0 <__fixunssfsi>
    2f4a:	76 2e       	mov	r7, r22
    2f4c:	67 2e       	mov	r6, r23
    2f4e:	89 83       	std	Y+1, r24	; 0x01
    2f50:	9a 83       	std	Y+2, r25	; 0x02
    2f52:	e6 2e       	mov	r14, r22
    2f54:	f7 2e       	mov	r15, r23
		//printf("Pressure = %lu\n", pressure);
		//temperature = (temperature/100)+273;
		//printf("initial pressure: %lu \n", initial_pressure);
		altitude = Get_altitude(initial, pressure, temperature);
    2f56:	08 2f       	mov	r16, r24
    2f58:	19 2f       	mov	r17, r25
    2f5a:	28 2d       	mov	r18, r8
    2f5c:	3a 2d       	mov	r19, r10
    2f5e:	4c 85       	ldd	r20, Y+12	; 0x0c
    2f60:	5b 2d       	mov	r21, r11
    2f62:	6f 81       	ldd	r22, Y+7	; 0x07
    2f64:	78 85       	ldd	r23, Y+8	; 0x08
    2f66:	89 85       	ldd	r24, Y+9	; 0x09
    2f68:	9a 85       	ldd	r25, Y+10	; 0x0a
    2f6a:	ba d9       	rcall	.-3212   	; 0x22e0 <Get_altitude>
    2f6c:	a4 d1       	rcall	.+840    	; 0x32b6 <__fixsfsi>
    2f6e:	6b 01       	movw	r12, r22
    2f70:	7c 01       	movw	r14, r24
    2f72:	d4 d1       	rcall	.+936    	; 0x331c <__floatsisf>
		smooth_altitude = (int32_t)(smoothing_factor * altitude + (1-smoothing_factor)*smooth_altitude);
    2f74:	26 e6       	ldi	r18, 0x66	; 102
    2f76:	36 e6       	ldi	r19, 0x66	; 102
    2f78:	46 e6       	ldi	r20, 0x66	; 102
    2f7a:	5f e3       	ldi	r21, 0x3F	; 63
    2f7c:	a0 d2       	rcall	.+1344   	; 0x34be <__mulsf3>
    2f7e:	6b 83       	std	Y+3, r22	; 0x03
    2f80:	7c 83       	std	Y+4, r23	; 0x04
    2f82:	8d 83       	std	Y+5, r24	; 0x05
    2f84:	9e 83       	std	Y+6, r25	; 0x06
    2f86:	c2 01       	movw	r24, r4
    2f88:	b1 01       	movw	r22, r2
    2f8a:	c8 d1       	rcall	.+912    	; 0x331c <__floatsisf>
    2f8c:	20 ed       	ldi	r18, 0xD0	; 208
    2f8e:	3c ec       	ldi	r19, 0xCC	; 204
    2f90:	4c ec       	ldi	r20, 0xCC	; 204
    2f92:	5d e3       	ldi	r21, 0x3D	; 61
    2f94:	94 d2       	rcall	.+1320   	; 0x34be <__mulsf3>
    2f96:	9b 01       	movw	r18, r22
    2f98:	ac 01       	movw	r20, r24
    2f9a:	6b 81       	ldd	r22, Y+3	; 0x03
    2f9c:	7c 81       	ldd	r23, Y+4	; 0x04
    2f9e:	8d 81       	ldd	r24, Y+5	; 0x05
    2fa0:	9e 81       	ldd	r25, Y+6	; 0x06
    2fa2:	bd d0       	rcall	.+378    	; 0x311e <__addsf3>
    2fa4:	88 d1       	rcall	.+784    	; 0x32b6 <__fixsfsi>
    2fa6:	1b 01       	movw	r2, r22
    2fa8:	2c 01       	movw	r4, r24
    2faa:	93 94       	inc	r9
    2fac:	bf 92       	push	r11
    2fae:	8c 85       	ldd	r24, Y+12	; 0x0c
		my_time = my_time + 1;
    2fb0:	8f 93       	push	r24
		//timer_founter_init(6249, 10);
		//printf("Temperature = %u \n", temperature);
		printf("Pressure = %lu\n", pressure);
    2fb2:	af 92       	push	r10
    2fb4:	8f 92       	push	r8
    2fb6:	82 e2       	ldi	r24, 0x22	; 34
    2fb8:	90 e2       	ldi	r25, 0x20	; 32
    2fba:	9f 93       	push	r25
    2fbc:	8f 93       	push	r24
    2fbe:	0e 94 df 21 	call	0x43be	; 0x43be <printf>
    2fc2:	66 e5       	ldi	r22, 0x56	; 86
    2fc4:	71 e6       	ldi	r23, 0x61	; 97
    2fc6:	81 e5       	ldi	r24, 0x51	; 81
		//printf("Altitude = %li \n", (int32_t)altitude);
		delay_ms(1000);
    2fc8:	90 e0       	ldi	r25, 0x00	; 0
    2fca:	0c de       	rcall	.-1000   	; 0x2be4 <__portable_avr_delay_cycles>
    2fcc:	1f 92       	push	r1
    2fce:	8b 85       	ldd	r24, Y+11	; 0x0b
    2fd0:	8f 93       	push	r24
    2fd2:	1f 92       	push	r1
		/*float data[16] = {teamID, my_time, packetCount, altitude, pressure, temperature, voltage, GPSTime, GPSLat, GPSLong, GPSAlt, GPSSats,
			tiltX,tiltY,tiltZ,state};*/
		
		
		//float* data = pressure;
		char data = printf("Team ID: %u\nMy Time: %u\nPacket Count: %u\nAltitude: %lu\nPressure: %lu\nTemperature: %lu\nVoltage: %f\nGPS Time: %lu\nGPS Lat: %lu\nGPS Long: %lu\nGPS Alt: %lu\nGPS Sats: %lu\nTilt X: %f\nTilt Y: %f\nTilt Z: %f\nState: %u\n\n", teamID, my_time, packetCount, altitude, pressure, temperature, voltage, GPSTime, GPSLat, GPSLong, GPSAlt, GPSSats, tiltX, tiltY, tiltZ, state);	
    2fd4:	1f 92       	push	r1
    2fd6:	1f 92       	push	r1
    2fd8:	1f 92       	push	r1
    2fda:	1f 92       	push	r1
    2fdc:	1f 92       	push	r1
    2fde:	1f 92       	push	r1
    2fe0:	1f 92       	push	r1
    2fe2:	1f 92       	push	r1
    2fe4:	1f 92       	push	r1
    2fe6:	1f 92       	push	r1
    2fe8:	1f 92       	push	r1
    2fea:	1f 92       	push	r1
    2fec:	1f 92       	push	r1
    2fee:	1f 92       	push	r1
    2ff0:	1f 92       	push	r1
    2ff2:	1f 92       	push	r1
    2ff4:	1f 92       	push	r1
    2ff6:	1f 92       	push	r1
    2ff8:	1f 92       	push	r1
    2ffa:	1f 92       	push	r1
    2ffc:	1f 92       	push	r1
    2ffe:	1f 92       	push	r1
    3000:	1f 92       	push	r1
    3002:	1f 92       	push	r1
    3004:	1f 92       	push	r1
    3006:	1f 92       	push	r1
    3008:	1f 92       	push	r1
    300a:	1f 92       	push	r1
    300c:	1f 92       	push	r1
    300e:	1f 92       	push	r1
    3010:	1f 92       	push	r1
    3012:	1f 92       	push	r1
    3014:	1f 92       	push	r1
    3016:	1f 92       	push	r1
    3018:	1f 92       	push	r1
    301a:	9a 81       	ldd	r25, Y+2	; 0x02
    301c:	9f 93       	push	r25
    301e:	29 81       	ldd	r18, Y+1	; 0x01
    3020:	2f 93       	push	r18
    3022:	6f 92       	push	r6
    3024:	7f 92       	push	r7
    3026:	bf 92       	push	r11
    3028:	8c 85       	ldd	r24, Y+12	; 0x0c
    302a:	8f 93       	push	r24
    302c:	af 92       	push	r10
    302e:	8f 92       	push	r8
    3030:	ff 92       	push	r15
    3032:	ef 92       	push	r14
    3034:	df 92       	push	r13
    3036:	cf 92       	push	r12
    3038:	1f 92       	push	r1
    303a:	1f 92       	push	r1
    303c:	1f 92       	push	r1
    303e:	9f 92       	push	r9
    3040:	94 e1       	ldi	r25, 0x14	; 20
    3042:	9f 93       	push	r25
    3044:	22 e4       	ldi	r18, 0x42	; 66
    3046:	2f 93       	push	r18
    3048:	82 e3       	ldi	r24, 0x32	; 50
    304a:	90 e2       	ldi	r25, 0x20	; 32
    304c:	9f 93       	push	r25
    304e:	8f 93       	push	r24
    3050:	0e 94 df 21 	call	0x43be	; 0x43be <printf>
    3054:	cd bf       	out	0x3d, r28	; 61
    3056:	de bf       	out	0x3e, r29	; 62
    3058:	9b 85       	ldd	r25, Y+11	; 0x0b
    305a:	91 11       	cpse	r25, r1
	
	
	// Flight States!
	
		//FS0
		if(state==0){
    305c:	22 c0       	rjmp	.+68     	; 0x30a2 <main+0x1e8>
    305e:	25 e5       	ldi	r18, 0x55	; 85
    3060:	20 93 81 06 	sts	0x0681, r18	; 0x800681 <__TEXT_REGION_LENGTH__+0x700681>
    3064:	20 93 85 06 	sts	0x0685, r18	; 0x800685 <__TEXT_REGION_LENGTH__+0x700685>
			//printf("Flight State 0 \n");
			PORTE.DIRSET = 0b01010101;
    3068:	88 e0       	ldi	r24, 0x08	; 8
    306a:	80 93 04 06 	sts	0x0604, r24	; 0x800604 <__TEXT_REGION_LENGTH__+0x700604>
			PORTE.OUTSET = 0b01010101;
    306e:	d2 01       	movw	r26, r4
			
			PORTA.OUT = 0b00001000; //Hopefully this does the buzzer... buzzer is really quiet rn, gotta fix that. (this is just for testing)
    3070:	c1 01       	movw	r24, r2
    3072:	8c 19       	sub	r24, r12
    3074:	9d 09       	sbc	r25, r13
			if(smooth_altitude-altitude<0 && 600<smooth_altitude && smooth_altitude<800){ //Work on Velocity later, this will work for now
    3076:	ae 09       	sbc	r26, r14
    3078:	bf 09       	sbc	r27, r15
    307a:	0a f0       	brmi	.+2      	; 0x307e <main+0x1c4>
    307c:	5f cf       	rjmp	.-322    	; 0x2f3c <main+0x82>
    307e:	d2 01       	movw	r26, r4
    3080:	c1 01       	movw	r24, r2
    3082:	89 55       	subi	r24, 0x59	; 89
    3084:	92 40       	sbci	r25, 0x02	; 2
    3086:	a1 09       	sbc	r26, r1
    3088:	b1 09       	sbc	r27, r1
    308a:	87 3c       	cpi	r24, 0xC7	; 199
    308c:	91 05       	cpc	r25, r1
    308e:	a1 05       	cpc	r26, r1
    3090:	b1 05       	cpc	r27, r1
    3092:	08 f0       	brcs	.+2      	; 0x3096 <main+0x1dc>
    3094:	53 cf       	rjmp	.-346    	; 0x2f3c <main+0x82>
    3096:	81 e0       	ldi	r24, 0x01	; 1
    3098:	80 93 81 06 	sts	0x0681, r24	; 0x800681 <__TEXT_REGION_LENGTH__+0x700681>
    309c:	80 93 85 06 	sts	0x0685, r24	; 0x800685 <__TEXT_REGION_LENGTH__+0x700685>
				PORTE.DIRSET = 0b00000001;	//Deploy Heat Shield
    30a0:	03 c0       	rjmp	.+6      	; 0x30a8 <main+0x1ee>
    30a2:	9b 85       	ldd	r25, Y+11	; 0x0b
				PORTE.OUTSET = 0b00000001;	//Deploy Heat Shield
    30a4:	91 30       	cpi	r25, 0x01	; 1
    30a6:	b9 f4       	brne	.+46     	; 0x30d6 <main+0x21c>
    30a8:	85 e0       	ldi	r24, 0x05	; 5
				state = 1;
			}
		}
		
		//FS1
		if(state==1){
    30aa:	91 e2       	ldi	r25, 0x21	; 33
    30ac:	0e 94 f2 21 	call	0x43e4	; 0x43e4 <puts>
			printf("Flight State 1 \n");
    30b0:	2c e2       	ldi	r18, 0x2C	; 44
    30b2:	22 16       	cp	r2, r18
    30b4:	21 e0       	ldi	r18, 0x01	; 1
    30b6:	32 06       	cpc	r3, r18
			if(smooth_altitude-initial_altitude<300){
    30b8:	41 04       	cpc	r4, r1
    30ba:	51 04       	cpc	r5, r1
    30bc:	0c f0       	brlt	.+2      	; 0x30c0 <main+0x206>
    30be:	36 cf       	rjmp	.-404    	; 0x2f2c <main+0x72>
    30c0:	82 e0       	ldi	r24, 0x02	; 2
    30c2:	80 93 81 06 	sts	0x0681, r24	; 0x800681 <__TEXT_REGION_LENGTH__+0x700681>
    30c6:	80 93 85 06 	sts	0x0685, r24	; 0x800685 <__TEXT_REGION_LENGTH__+0x700685>
				PORTE.DIRSET = 0b00000010;	//Activate Camera
    30ca:	80 e8       	ldi	r24, 0x80	; 128
    30cc:	80 93 01 06 	sts	0x0601, r24	; 0x800601 <__TEXT_REGION_LENGTH__+0x700601>
				PORTE.OUTSET = 0b00000010;	//Activate Camera
    30d0:	80 93 05 06 	sts	0x0605, r24	; 0x800605 <__TEXT_REGION_LENGTH__+0x700605>
				PORTA.DIRSET = 0b10000000;	//Detach Heat Shield
    30d4:	04 c0       	rjmp	.+8      	; 0x30de <main+0x224>
    30d6:	9b 85       	ldd	r25, Y+11	; 0x0b
				PORTA.OUTSET = 0b10000000;	//Detach Heat Shield
    30d8:	92 30       	cpi	r25, 0x02	; 2
    30da:	09 f0       	breq	.+2      	; 0x30de <main+0x224>
    30dc:	2f cf       	rjmp	.-418    	; 0x2f3c <main+0x82>
				state = 2;
			}
		}
		
		//FS2
		if(state==2){
    30de:	85 e1       	ldi	r24, 0x15	; 21
    30e0:	91 e2       	ldi	r25, 0x21	; 33
    30e2:	0e 94 f2 21 	call	0x43e4	; 0x43e4 <puts>
			printf("Flight State 2 \n");
    30e6:	d2 01       	movw	r26, r4
    30e8:	c1 01       	movw	r24, r2
    30ea:	8c 19       	sub	r24, r12
    30ec:	9d 09       	sbc	r25, r13
			if(smooth_altitude-altitude<1 && altitude-initial_altitude<100){
    30ee:	ae 09       	sbc	r26, r14
    30f0:	bf 09       	sbc	r27, r15
    30f2:	18 16       	cp	r1, r24
    30f4:	19 06       	cpc	r1, r25
    30f6:	1a 06       	cpc	r1, r26
    30f8:	1b 06       	cpc	r1, r27
    30fa:	0c f4       	brge	.+2      	; 0x30fe <main+0x244>
    30fc:	1a cf       	rjmp	.-460    	; 0x2f32 <main+0x78>
    30fe:	24 e6       	ldi	r18, 0x64	; 100
    3100:	c2 16       	cp	r12, r18
    3102:	d1 04       	cpc	r13, r1
    3104:	e1 04       	cpc	r14, r1
    3106:	f1 04       	cpc	r15, r1
    3108:	0c f0       	brlt	.+2      	; 0x310c <main+0x252>
    310a:	16 cf       	rjmp	.-468    	; 0x2f38 <main+0x7e>
    310c:	88 e0       	ldi	r24, 0x08	; 8
    310e:	80 93 01 06 	sts	0x0601, r24	; 0x800601 <__TEXT_REGION_LENGTH__+0x700601>
    3112:	80 93 05 06 	sts	0x0605, r24	; 0x800605 <__TEXT_REGION_LENGTH__+0x700605>
				PORTA.DIRSET = 0b00001000; //Activate Buzzer
    3116:	93 e0       	ldi	r25, 0x03	; 3
    3118:	9b 87       	std	Y+11, r25	; 0x0b
				PORTA.OUTSET = 0b00001000; //Activate Buzzer
    311a:	10 cf       	rjmp	.-480    	; 0x2f3c <main+0x82>

0000311c <__subsf3>:
    311c:	50 58       	subi	r21, 0x80	; 128

0000311e <__addsf3>:
				state = 3;
    311e:	bb 27       	eor	r27, r27
    3120:	aa 27       	eor	r26, r26
    3122:	0e d0       	rcall	.+28     	; 0x3140 <__addsf3x>
    3124:	4d c1       	rjmp	.+666    	; 0x33c0 <__fp_round>
    3126:	3e d1       	rcall	.+636    	; 0x33a4 <__fp_pscA>
    3128:	30 f0       	brcs	.+12     	; 0x3136 <__addsf3+0x18>
    312a:	43 d1       	rcall	.+646    	; 0x33b2 <__fp_pscB>
    312c:	20 f0       	brcs	.+8      	; 0x3136 <__addsf3+0x18>
    312e:	31 f4       	brne	.+12     	; 0x313c <__addsf3+0x1e>
    3130:	9f 3f       	cpi	r25, 0xFF	; 255
    3132:	11 f4       	brne	.+4      	; 0x3138 <__addsf3+0x1a>
    3134:	1e f4       	brtc	.+6      	; 0x313c <__addsf3+0x1e>
    3136:	33 c1       	rjmp	.+614    	; 0x339e <__fp_nan>
    3138:	0e f4       	brtc	.+2      	; 0x313c <__addsf3+0x1e>
    313a:	e0 95       	com	r30
    313c:	e7 fb       	bst	r30, 7
    313e:	29 c1       	rjmp	.+594    	; 0x3392 <__fp_inf>

00003140 <__addsf3x>:
    3140:	e9 2f       	mov	r30, r25
    3142:	4f d1       	rcall	.+670    	; 0x33e2 <__fp_split3>
    3144:	80 f3       	brcs	.-32     	; 0x3126 <__addsf3+0x8>
    3146:	ba 17       	cp	r27, r26
    3148:	62 07       	cpc	r22, r18
    314a:	73 07       	cpc	r23, r19
    314c:	84 07       	cpc	r24, r20
    314e:	95 07       	cpc	r25, r21
    3150:	18 f0       	brcs	.+6      	; 0x3158 <__addsf3x+0x18>
    3152:	71 f4       	brne	.+28     	; 0x3170 <__addsf3x+0x30>
    3154:	9e f5       	brtc	.+102    	; 0x31bc <__addsf3x+0x7c>
    3156:	67 c1       	rjmp	.+718    	; 0x3426 <__fp_zero>
    3158:	0e f4       	brtc	.+2      	; 0x315c <__addsf3x+0x1c>
    315a:	e0 95       	com	r30
    315c:	0b 2e       	mov	r0, r27
    315e:	ba 2f       	mov	r27, r26
    3160:	a0 2d       	mov	r26, r0
    3162:	0b 01       	movw	r0, r22
    3164:	b9 01       	movw	r22, r18
    3166:	90 01       	movw	r18, r0
    3168:	0c 01       	movw	r0, r24
    316a:	ca 01       	movw	r24, r20
    316c:	a0 01       	movw	r20, r0
    316e:	11 24       	eor	r1, r1
    3170:	ff 27       	eor	r31, r31
    3172:	59 1b       	sub	r21, r25
    3174:	99 f0       	breq	.+38     	; 0x319c <__addsf3x+0x5c>
    3176:	59 3f       	cpi	r21, 0xF9	; 249
    3178:	50 f4       	brcc	.+20     	; 0x318e <__addsf3x+0x4e>
    317a:	50 3e       	cpi	r21, 0xE0	; 224
    317c:	68 f1       	brcs	.+90     	; 0x31d8 <__addsf3x+0x98>
    317e:	1a 16       	cp	r1, r26
    3180:	f0 40       	sbci	r31, 0x00	; 0
    3182:	a2 2f       	mov	r26, r18
    3184:	23 2f       	mov	r18, r19
    3186:	34 2f       	mov	r19, r20
    3188:	44 27       	eor	r20, r20
    318a:	58 5f       	subi	r21, 0xF8	; 248
    318c:	f3 cf       	rjmp	.-26     	; 0x3174 <__addsf3x+0x34>
    318e:	46 95       	lsr	r20
    3190:	37 95       	ror	r19
    3192:	27 95       	ror	r18
    3194:	a7 95       	ror	r26
    3196:	f0 40       	sbci	r31, 0x00	; 0
    3198:	53 95       	inc	r21
    319a:	c9 f7       	brne	.-14     	; 0x318e <__addsf3x+0x4e>
    319c:	7e f4       	brtc	.+30     	; 0x31bc <__addsf3x+0x7c>
    319e:	1f 16       	cp	r1, r31
    31a0:	ba 0b       	sbc	r27, r26
    31a2:	62 0b       	sbc	r22, r18
    31a4:	73 0b       	sbc	r23, r19
    31a6:	84 0b       	sbc	r24, r20
    31a8:	ba f0       	brmi	.+46     	; 0x31d8 <__addsf3x+0x98>
    31aa:	91 50       	subi	r25, 0x01	; 1
    31ac:	a1 f0       	breq	.+40     	; 0x31d6 <__addsf3x+0x96>
    31ae:	ff 0f       	add	r31, r31
    31b0:	bb 1f       	adc	r27, r27
    31b2:	66 1f       	adc	r22, r22
    31b4:	77 1f       	adc	r23, r23
    31b6:	88 1f       	adc	r24, r24
    31b8:	c2 f7       	brpl	.-16     	; 0x31aa <__addsf3x+0x6a>
    31ba:	0e c0       	rjmp	.+28     	; 0x31d8 <__addsf3x+0x98>
    31bc:	ba 0f       	add	r27, r26
    31be:	62 1f       	adc	r22, r18
    31c0:	73 1f       	adc	r23, r19
    31c2:	84 1f       	adc	r24, r20
    31c4:	48 f4       	brcc	.+18     	; 0x31d8 <__addsf3x+0x98>
    31c6:	87 95       	ror	r24
    31c8:	77 95       	ror	r23
    31ca:	67 95       	ror	r22
    31cc:	b7 95       	ror	r27
    31ce:	f7 95       	ror	r31
    31d0:	9e 3f       	cpi	r25, 0xFE	; 254
    31d2:	08 f0       	brcs	.+2      	; 0x31d6 <__addsf3x+0x96>
    31d4:	b3 cf       	rjmp	.-154    	; 0x313c <__addsf3+0x1e>
    31d6:	93 95       	inc	r25
    31d8:	88 0f       	add	r24, r24
    31da:	08 f0       	brcs	.+2      	; 0x31de <__addsf3x+0x9e>
    31dc:	99 27       	eor	r25, r25
    31de:	ee 0f       	add	r30, r30
    31e0:	97 95       	ror	r25
    31e2:	87 95       	ror	r24
    31e4:	08 95       	ret

000031e6 <__divsf3>:
    31e6:	0c d0       	rcall	.+24     	; 0x3200 <__divsf3x>
    31e8:	eb c0       	rjmp	.+470    	; 0x33c0 <__fp_round>
    31ea:	e3 d0       	rcall	.+454    	; 0x33b2 <__fp_pscB>
    31ec:	40 f0       	brcs	.+16     	; 0x31fe <__divsf3+0x18>
    31ee:	da d0       	rcall	.+436    	; 0x33a4 <__fp_pscA>
    31f0:	30 f0       	brcs	.+12     	; 0x31fe <__divsf3+0x18>
    31f2:	21 f4       	brne	.+8      	; 0x31fc <__divsf3+0x16>
    31f4:	5f 3f       	cpi	r21, 0xFF	; 255
    31f6:	19 f0       	breq	.+6      	; 0x31fe <__divsf3+0x18>
    31f8:	cc c0       	rjmp	.+408    	; 0x3392 <__fp_inf>
    31fa:	51 11       	cpse	r21, r1
    31fc:	15 c1       	rjmp	.+554    	; 0x3428 <__fp_szero>
    31fe:	cf c0       	rjmp	.+414    	; 0x339e <__fp_nan>

00003200 <__divsf3x>:
    3200:	f0 d0       	rcall	.+480    	; 0x33e2 <__fp_split3>
    3202:	98 f3       	brcs	.-26     	; 0x31ea <__divsf3+0x4>

00003204 <__divsf3_pse>:
    3204:	99 23       	and	r25, r25
    3206:	c9 f3       	breq	.-14     	; 0x31fa <__divsf3+0x14>
    3208:	55 23       	and	r21, r21
    320a:	b1 f3       	breq	.-20     	; 0x31f8 <__divsf3+0x12>
    320c:	95 1b       	sub	r25, r21
    320e:	55 0b       	sbc	r21, r21
    3210:	bb 27       	eor	r27, r27
    3212:	aa 27       	eor	r26, r26
    3214:	62 17       	cp	r22, r18
    3216:	73 07       	cpc	r23, r19
    3218:	84 07       	cpc	r24, r20
    321a:	38 f0       	brcs	.+14     	; 0x322a <__divsf3_pse+0x26>
    321c:	9f 5f       	subi	r25, 0xFF	; 255
    321e:	5f 4f       	sbci	r21, 0xFF	; 255
    3220:	22 0f       	add	r18, r18
    3222:	33 1f       	adc	r19, r19
    3224:	44 1f       	adc	r20, r20
    3226:	aa 1f       	adc	r26, r26
    3228:	a9 f3       	breq	.-22     	; 0x3214 <__divsf3_pse+0x10>
    322a:	33 d0       	rcall	.+102    	; 0x3292 <__divsf3_pse+0x8e>
    322c:	0e 2e       	mov	r0, r30
    322e:	3a f0       	brmi	.+14     	; 0x323e <__divsf3_pse+0x3a>
    3230:	e0 e8       	ldi	r30, 0x80	; 128
    3232:	30 d0       	rcall	.+96     	; 0x3294 <__divsf3_pse+0x90>
    3234:	91 50       	subi	r25, 0x01	; 1
    3236:	50 40       	sbci	r21, 0x00	; 0
    3238:	e6 95       	lsr	r30
    323a:	00 1c       	adc	r0, r0
    323c:	ca f7       	brpl	.-14     	; 0x3230 <__divsf3_pse+0x2c>
    323e:	29 d0       	rcall	.+82     	; 0x3292 <__divsf3_pse+0x8e>
    3240:	fe 2f       	mov	r31, r30
    3242:	27 d0       	rcall	.+78     	; 0x3292 <__divsf3_pse+0x8e>
    3244:	66 0f       	add	r22, r22
    3246:	77 1f       	adc	r23, r23
    3248:	88 1f       	adc	r24, r24
    324a:	bb 1f       	adc	r27, r27
    324c:	26 17       	cp	r18, r22
    324e:	37 07       	cpc	r19, r23
    3250:	48 07       	cpc	r20, r24
    3252:	ab 07       	cpc	r26, r27
    3254:	b0 e8       	ldi	r27, 0x80	; 128
    3256:	09 f0       	breq	.+2      	; 0x325a <__divsf3_pse+0x56>
    3258:	bb 0b       	sbc	r27, r27
    325a:	80 2d       	mov	r24, r0
    325c:	bf 01       	movw	r22, r30
    325e:	ff 27       	eor	r31, r31
    3260:	93 58       	subi	r25, 0x83	; 131
    3262:	5f 4f       	sbci	r21, 0xFF	; 255
    3264:	2a f0       	brmi	.+10     	; 0x3270 <__divsf3_pse+0x6c>
    3266:	9e 3f       	cpi	r25, 0xFE	; 254
    3268:	51 05       	cpc	r21, r1
    326a:	68 f0       	brcs	.+26     	; 0x3286 <__divsf3_pse+0x82>
    326c:	92 c0       	rjmp	.+292    	; 0x3392 <__fp_inf>
    326e:	dc c0       	rjmp	.+440    	; 0x3428 <__fp_szero>
    3270:	5f 3f       	cpi	r21, 0xFF	; 255
    3272:	ec f3       	brlt	.-6      	; 0x326e <__divsf3_pse+0x6a>
    3274:	98 3e       	cpi	r25, 0xE8	; 232
    3276:	dc f3       	brlt	.-10     	; 0x326e <__divsf3_pse+0x6a>
    3278:	86 95       	lsr	r24
    327a:	77 95       	ror	r23
    327c:	67 95       	ror	r22
    327e:	b7 95       	ror	r27
    3280:	f7 95       	ror	r31
    3282:	9f 5f       	subi	r25, 0xFF	; 255
    3284:	c9 f7       	brne	.-14     	; 0x3278 <__divsf3_pse+0x74>
    3286:	88 0f       	add	r24, r24
    3288:	91 1d       	adc	r25, r1
    328a:	96 95       	lsr	r25
    328c:	87 95       	ror	r24
    328e:	97 f9       	bld	r25, 7
    3290:	08 95       	ret
    3292:	e1 e0       	ldi	r30, 0x01	; 1
    3294:	66 0f       	add	r22, r22
    3296:	77 1f       	adc	r23, r23
    3298:	88 1f       	adc	r24, r24
    329a:	bb 1f       	adc	r27, r27
    329c:	62 17       	cp	r22, r18
    329e:	73 07       	cpc	r23, r19
    32a0:	84 07       	cpc	r24, r20
    32a2:	ba 07       	cpc	r27, r26
    32a4:	20 f0       	brcs	.+8      	; 0x32ae <__divsf3_pse+0xaa>
    32a6:	62 1b       	sub	r22, r18
    32a8:	73 0b       	sbc	r23, r19
    32aa:	84 0b       	sbc	r24, r20
    32ac:	ba 0b       	sbc	r27, r26
    32ae:	ee 1f       	adc	r30, r30
    32b0:	88 f7       	brcc	.-30     	; 0x3294 <__divsf3_pse+0x90>
    32b2:	e0 95       	com	r30
    32b4:	08 95       	ret

000032b6 <__fixsfsi>:
    32b6:	04 d0       	rcall	.+8      	; 0x32c0 <__fixunssfsi>
    32b8:	68 94       	set
    32ba:	b1 11       	cpse	r27, r1
    32bc:	b5 c0       	rjmp	.+362    	; 0x3428 <__fp_szero>
    32be:	08 95       	ret

000032c0 <__fixunssfsi>:
    32c0:	98 d0       	rcall	.+304    	; 0x33f2 <__fp_splitA>
    32c2:	88 f0       	brcs	.+34     	; 0x32e6 <__fixunssfsi+0x26>
    32c4:	9f 57       	subi	r25, 0x7F	; 127
    32c6:	90 f0       	brcs	.+36     	; 0x32ec <__fixunssfsi+0x2c>
    32c8:	b9 2f       	mov	r27, r25
    32ca:	99 27       	eor	r25, r25
    32cc:	b7 51       	subi	r27, 0x17	; 23
    32ce:	a0 f0       	brcs	.+40     	; 0x32f8 <__fixunssfsi+0x38>
    32d0:	d1 f0       	breq	.+52     	; 0x3306 <__fixunssfsi+0x46>
    32d2:	66 0f       	add	r22, r22
    32d4:	77 1f       	adc	r23, r23
    32d6:	88 1f       	adc	r24, r24
    32d8:	99 1f       	adc	r25, r25
    32da:	1a f0       	brmi	.+6      	; 0x32e2 <__fixunssfsi+0x22>
    32dc:	ba 95       	dec	r27
    32de:	c9 f7       	brne	.-14     	; 0x32d2 <__fixunssfsi+0x12>
    32e0:	12 c0       	rjmp	.+36     	; 0x3306 <__fixunssfsi+0x46>
    32e2:	b1 30       	cpi	r27, 0x01	; 1
    32e4:	81 f0       	breq	.+32     	; 0x3306 <__fixunssfsi+0x46>
    32e6:	9f d0       	rcall	.+318    	; 0x3426 <__fp_zero>
    32e8:	b1 e0       	ldi	r27, 0x01	; 1
    32ea:	08 95       	ret
    32ec:	9c c0       	rjmp	.+312    	; 0x3426 <__fp_zero>
    32ee:	67 2f       	mov	r22, r23
    32f0:	78 2f       	mov	r23, r24
    32f2:	88 27       	eor	r24, r24
    32f4:	b8 5f       	subi	r27, 0xF8	; 248
    32f6:	39 f0       	breq	.+14     	; 0x3306 <__fixunssfsi+0x46>
    32f8:	b9 3f       	cpi	r27, 0xF9	; 249
    32fa:	cc f3       	brlt	.-14     	; 0x32ee <__fixunssfsi+0x2e>
    32fc:	86 95       	lsr	r24
    32fe:	77 95       	ror	r23
    3300:	67 95       	ror	r22
    3302:	b3 95       	inc	r27
    3304:	d9 f7       	brne	.-10     	; 0x32fc <__fixunssfsi+0x3c>
    3306:	3e f4       	brtc	.+14     	; 0x3316 <__fixunssfsi+0x56>
    3308:	90 95       	com	r25
    330a:	80 95       	com	r24
    330c:	70 95       	com	r23
    330e:	61 95       	neg	r22
    3310:	7f 4f       	sbci	r23, 0xFF	; 255
    3312:	8f 4f       	sbci	r24, 0xFF	; 255
    3314:	9f 4f       	sbci	r25, 0xFF	; 255
    3316:	08 95       	ret

00003318 <__floatunsisf>:
    3318:	e8 94       	clt
    331a:	09 c0       	rjmp	.+18     	; 0x332e <__floatsisf+0x12>

0000331c <__floatsisf>:
    331c:	97 fb       	bst	r25, 7
    331e:	3e f4       	brtc	.+14     	; 0x332e <__floatsisf+0x12>
    3320:	90 95       	com	r25
    3322:	80 95       	com	r24
    3324:	70 95       	com	r23
    3326:	61 95       	neg	r22
    3328:	7f 4f       	sbci	r23, 0xFF	; 255
    332a:	8f 4f       	sbci	r24, 0xFF	; 255
    332c:	9f 4f       	sbci	r25, 0xFF	; 255
    332e:	99 23       	and	r25, r25
    3330:	a9 f0       	breq	.+42     	; 0x335c <__floatsisf+0x40>
    3332:	f9 2f       	mov	r31, r25
    3334:	96 e9       	ldi	r25, 0x96	; 150
    3336:	bb 27       	eor	r27, r27
    3338:	93 95       	inc	r25
    333a:	f6 95       	lsr	r31
    333c:	87 95       	ror	r24
    333e:	77 95       	ror	r23
    3340:	67 95       	ror	r22
    3342:	b7 95       	ror	r27
    3344:	f1 11       	cpse	r31, r1
    3346:	f8 cf       	rjmp	.-16     	; 0x3338 <__floatsisf+0x1c>
    3348:	fa f4       	brpl	.+62     	; 0x3388 <__floatsisf+0x6c>
    334a:	bb 0f       	add	r27, r27
    334c:	11 f4       	brne	.+4      	; 0x3352 <__floatsisf+0x36>
    334e:	60 ff       	sbrs	r22, 0
    3350:	1b c0       	rjmp	.+54     	; 0x3388 <__floatsisf+0x6c>
    3352:	6f 5f       	subi	r22, 0xFF	; 255
    3354:	7f 4f       	sbci	r23, 0xFF	; 255
    3356:	8f 4f       	sbci	r24, 0xFF	; 255
    3358:	9f 4f       	sbci	r25, 0xFF	; 255
    335a:	16 c0       	rjmp	.+44     	; 0x3388 <__floatsisf+0x6c>
    335c:	88 23       	and	r24, r24
    335e:	11 f0       	breq	.+4      	; 0x3364 <__floatsisf+0x48>
    3360:	96 e9       	ldi	r25, 0x96	; 150
    3362:	11 c0       	rjmp	.+34     	; 0x3386 <__floatsisf+0x6a>
    3364:	77 23       	and	r23, r23
    3366:	21 f0       	breq	.+8      	; 0x3370 <__floatsisf+0x54>
    3368:	9e e8       	ldi	r25, 0x8E	; 142
    336a:	87 2f       	mov	r24, r23
    336c:	76 2f       	mov	r23, r22
    336e:	05 c0       	rjmp	.+10     	; 0x337a <__floatsisf+0x5e>
    3370:	66 23       	and	r22, r22
    3372:	71 f0       	breq	.+28     	; 0x3390 <__floatsisf+0x74>
    3374:	96 e8       	ldi	r25, 0x86	; 134
    3376:	86 2f       	mov	r24, r22
    3378:	70 e0       	ldi	r23, 0x00	; 0
    337a:	60 e0       	ldi	r22, 0x00	; 0
    337c:	2a f0       	brmi	.+10     	; 0x3388 <__floatsisf+0x6c>
    337e:	9a 95       	dec	r25
    3380:	66 0f       	add	r22, r22
    3382:	77 1f       	adc	r23, r23
    3384:	88 1f       	adc	r24, r24
    3386:	da f7       	brpl	.-10     	; 0x337e <__floatsisf+0x62>
    3388:	88 0f       	add	r24, r24
    338a:	96 95       	lsr	r25
    338c:	87 95       	ror	r24
    338e:	97 f9       	bld	r25, 7
    3390:	08 95       	ret

00003392 <__fp_inf>:
    3392:	97 f9       	bld	r25, 7
    3394:	9f 67       	ori	r25, 0x7F	; 127
    3396:	80 e8       	ldi	r24, 0x80	; 128
    3398:	70 e0       	ldi	r23, 0x00	; 0
    339a:	60 e0       	ldi	r22, 0x00	; 0
    339c:	08 95       	ret

0000339e <__fp_nan>:
    339e:	9f ef       	ldi	r25, 0xFF	; 255
    33a0:	80 ec       	ldi	r24, 0xC0	; 192
    33a2:	08 95       	ret

000033a4 <__fp_pscA>:
    33a4:	00 24       	eor	r0, r0
    33a6:	0a 94       	dec	r0
    33a8:	16 16       	cp	r1, r22
    33aa:	17 06       	cpc	r1, r23
    33ac:	18 06       	cpc	r1, r24
    33ae:	09 06       	cpc	r0, r25
    33b0:	08 95       	ret

000033b2 <__fp_pscB>:
    33b2:	00 24       	eor	r0, r0
    33b4:	0a 94       	dec	r0
    33b6:	12 16       	cp	r1, r18
    33b8:	13 06       	cpc	r1, r19
    33ba:	14 06       	cpc	r1, r20
    33bc:	05 06       	cpc	r0, r21
    33be:	08 95       	ret

000033c0 <__fp_round>:
    33c0:	09 2e       	mov	r0, r25
    33c2:	03 94       	inc	r0
    33c4:	00 0c       	add	r0, r0
    33c6:	11 f4       	brne	.+4      	; 0x33cc <__fp_round+0xc>
    33c8:	88 23       	and	r24, r24
    33ca:	52 f0       	brmi	.+20     	; 0x33e0 <__fp_round+0x20>
    33cc:	bb 0f       	add	r27, r27
    33ce:	40 f4       	brcc	.+16     	; 0x33e0 <__fp_round+0x20>
    33d0:	bf 2b       	or	r27, r31
    33d2:	11 f4       	brne	.+4      	; 0x33d8 <__fp_round+0x18>
    33d4:	60 ff       	sbrs	r22, 0
    33d6:	04 c0       	rjmp	.+8      	; 0x33e0 <__fp_round+0x20>
    33d8:	6f 5f       	subi	r22, 0xFF	; 255
    33da:	7f 4f       	sbci	r23, 0xFF	; 255
    33dc:	8f 4f       	sbci	r24, 0xFF	; 255
    33de:	9f 4f       	sbci	r25, 0xFF	; 255
    33e0:	08 95       	ret

000033e2 <__fp_split3>:
    33e2:	57 fd       	sbrc	r21, 7
    33e4:	90 58       	subi	r25, 0x80	; 128
    33e6:	44 0f       	add	r20, r20
    33e8:	55 1f       	adc	r21, r21
    33ea:	59 f0       	breq	.+22     	; 0x3402 <__fp_splitA+0x10>
    33ec:	5f 3f       	cpi	r21, 0xFF	; 255
    33ee:	71 f0       	breq	.+28     	; 0x340c <__fp_splitA+0x1a>
    33f0:	47 95       	ror	r20

000033f2 <__fp_splitA>:
    33f2:	88 0f       	add	r24, r24
    33f4:	97 fb       	bst	r25, 7
    33f6:	99 1f       	adc	r25, r25
    33f8:	61 f0       	breq	.+24     	; 0x3412 <__fp_splitA+0x20>
    33fa:	9f 3f       	cpi	r25, 0xFF	; 255
    33fc:	79 f0       	breq	.+30     	; 0x341c <__fp_splitA+0x2a>
    33fe:	87 95       	ror	r24
    3400:	08 95       	ret
    3402:	12 16       	cp	r1, r18
    3404:	13 06       	cpc	r1, r19
    3406:	14 06       	cpc	r1, r20
    3408:	55 1f       	adc	r21, r21
    340a:	f2 cf       	rjmp	.-28     	; 0x33f0 <__fp_split3+0xe>
    340c:	46 95       	lsr	r20
    340e:	f1 df       	rcall	.-30     	; 0x33f2 <__fp_splitA>
    3410:	08 c0       	rjmp	.+16     	; 0x3422 <__fp_splitA+0x30>
    3412:	16 16       	cp	r1, r22
    3414:	17 06       	cpc	r1, r23
    3416:	18 06       	cpc	r1, r24
    3418:	99 1f       	adc	r25, r25
    341a:	f1 cf       	rjmp	.-30     	; 0x33fe <__fp_splitA+0xc>
    341c:	86 95       	lsr	r24
    341e:	71 05       	cpc	r23, r1
    3420:	61 05       	cpc	r22, r1
    3422:	08 94       	sec
    3424:	08 95       	ret

00003426 <__fp_zero>:
    3426:	e8 94       	clt

00003428 <__fp_szero>:
    3428:	bb 27       	eor	r27, r27
    342a:	66 27       	eor	r22, r22
    342c:	77 27       	eor	r23, r23
    342e:	cb 01       	movw	r24, r22
    3430:	97 f9       	bld	r25, 7
    3432:	08 95       	ret
    3434:	0e f0       	brts	.+2      	; 0x3438 <__fp_szero+0x10>
    3436:	23 c1       	rjmp	.+582    	; 0x367e <__fp_mpack>
    3438:	b2 cf       	rjmp	.-156    	; 0x339e <__fp_nan>
    343a:	68 94       	set
    343c:	aa cf       	rjmp	.-172    	; 0x3392 <__fp_inf>

0000343e <log>:
    343e:	d9 df       	rcall	.-78     	; 0x33f2 <__fp_splitA>
    3440:	c8 f3       	brcs	.-14     	; 0x3434 <__fp_szero+0xc>
    3442:	99 23       	and	r25, r25
    3444:	d1 f3       	breq	.-12     	; 0x343a <__fp_szero+0x12>
    3446:	c6 f3       	brts	.-16     	; 0x3438 <__fp_szero+0x10>
    3448:	df 93       	push	r29
    344a:	cf 93       	push	r28
    344c:	1f 93       	push	r17
    344e:	0f 93       	push	r16
    3450:	ff 92       	push	r15
    3452:	c9 2f       	mov	r28, r25
    3454:	dd 27       	eor	r29, r29
    3456:	88 23       	and	r24, r24
    3458:	2a f0       	brmi	.+10     	; 0x3464 <log+0x26>
    345a:	21 97       	sbiw	r28, 0x01	; 1
    345c:	66 0f       	add	r22, r22
    345e:	77 1f       	adc	r23, r23
    3460:	88 1f       	adc	r24, r24
    3462:	da f7       	brpl	.-10     	; 0x345a <log+0x1c>
    3464:	20 e0       	ldi	r18, 0x00	; 0
    3466:	30 e0       	ldi	r19, 0x00	; 0
    3468:	40 e8       	ldi	r20, 0x80	; 128
    346a:	5f eb       	ldi	r21, 0xBF	; 191
    346c:	9f e3       	ldi	r25, 0x3F	; 63
    346e:	88 39       	cpi	r24, 0x98	; 152
    3470:	20 f0       	brcs	.+8      	; 0x347a <log+0x3c>
    3472:	80 3e       	cpi	r24, 0xE0	; 224
    3474:	30 f0       	brcs	.+12     	; 0x3482 <log+0x44>
    3476:	21 96       	adiw	r28, 0x01	; 1
    3478:	8f 77       	andi	r24, 0x7F	; 127
    347a:	51 de       	rcall	.-862    	; 0x311e <__addsf3>
    347c:	ea e7       	ldi	r30, 0x7A	; 122
    347e:	f2 e0       	ldi	r31, 0x02	; 2
    3480:	03 c0       	rjmp	.+6      	; 0x3488 <log+0x4a>
    3482:	4d de       	rcall	.-870    	; 0x311e <__addsf3>
    3484:	e7 ea       	ldi	r30, 0xA7	; 167
    3486:	f2 e0       	ldi	r31, 0x02	; 2
    3488:	08 d1       	rcall	.+528    	; 0x369a <__fp_powser>
    348a:	8b 01       	movw	r16, r22
    348c:	be 01       	movw	r22, r28
    348e:	ec 01       	movw	r28, r24
    3490:	fb 2e       	mov	r15, r27
    3492:	6f 57       	subi	r22, 0x7F	; 127
    3494:	71 09       	sbc	r23, r1
    3496:	75 95       	asr	r23
    3498:	77 1f       	adc	r23, r23
    349a:	88 0b       	sbc	r24, r24
    349c:	99 0b       	sbc	r25, r25
    349e:	3e df       	rcall	.-388    	; 0x331c <__floatsisf>
    34a0:	28 e1       	ldi	r18, 0x18	; 24
    34a2:	32 e7       	ldi	r19, 0x72	; 114
    34a4:	41 e3       	ldi	r20, 0x31	; 49
    34a6:	5f e3       	ldi	r21, 0x3F	; 63
    34a8:	16 d0       	rcall	.+44     	; 0x34d6 <__mulsf3x>
    34aa:	af 2d       	mov	r26, r15
    34ac:	98 01       	movw	r18, r16
    34ae:	ae 01       	movw	r20, r28
    34b0:	ff 90       	pop	r15
    34b2:	0f 91       	pop	r16
    34b4:	1f 91       	pop	r17
    34b6:	cf 91       	pop	r28
    34b8:	df 91       	pop	r29
    34ba:	42 de       	rcall	.-892    	; 0x3140 <__addsf3x>
    34bc:	81 cf       	rjmp	.-254    	; 0x33c0 <__fp_round>

000034be <__mulsf3>:
    34be:	0b d0       	rcall	.+22     	; 0x34d6 <__mulsf3x>
    34c0:	7f cf       	rjmp	.-258    	; 0x33c0 <__fp_round>
    34c2:	70 df       	rcall	.-288    	; 0x33a4 <__fp_pscA>
    34c4:	28 f0       	brcs	.+10     	; 0x34d0 <__mulsf3+0x12>
    34c6:	75 df       	rcall	.-278    	; 0x33b2 <__fp_pscB>
    34c8:	18 f0       	brcs	.+6      	; 0x34d0 <__mulsf3+0x12>
    34ca:	95 23       	and	r25, r21
    34cc:	09 f0       	breq	.+2      	; 0x34d0 <__mulsf3+0x12>
    34ce:	61 cf       	rjmp	.-318    	; 0x3392 <__fp_inf>
    34d0:	66 cf       	rjmp	.-308    	; 0x339e <__fp_nan>
    34d2:	11 24       	eor	r1, r1
    34d4:	a9 cf       	rjmp	.-174    	; 0x3428 <__fp_szero>

000034d6 <__mulsf3x>:
    34d6:	85 df       	rcall	.-246    	; 0x33e2 <__fp_split3>
    34d8:	a0 f3       	brcs	.-24     	; 0x34c2 <__mulsf3+0x4>

000034da <__mulsf3_pse>:
    34da:	95 9f       	mul	r25, r21
    34dc:	d1 f3       	breq	.-12     	; 0x34d2 <__mulsf3+0x14>
    34de:	95 0f       	add	r25, r21
    34e0:	50 e0       	ldi	r21, 0x00	; 0
    34e2:	55 1f       	adc	r21, r21
    34e4:	62 9f       	mul	r22, r18
    34e6:	f0 01       	movw	r30, r0
    34e8:	72 9f       	mul	r23, r18
    34ea:	bb 27       	eor	r27, r27
    34ec:	f0 0d       	add	r31, r0
    34ee:	b1 1d       	adc	r27, r1
    34f0:	63 9f       	mul	r22, r19
    34f2:	aa 27       	eor	r26, r26
    34f4:	f0 0d       	add	r31, r0
    34f6:	b1 1d       	adc	r27, r1
    34f8:	aa 1f       	adc	r26, r26
    34fa:	64 9f       	mul	r22, r20
    34fc:	66 27       	eor	r22, r22
    34fe:	b0 0d       	add	r27, r0
    3500:	a1 1d       	adc	r26, r1
    3502:	66 1f       	adc	r22, r22
    3504:	82 9f       	mul	r24, r18
    3506:	22 27       	eor	r18, r18
    3508:	b0 0d       	add	r27, r0
    350a:	a1 1d       	adc	r26, r1
    350c:	62 1f       	adc	r22, r18
    350e:	73 9f       	mul	r23, r19
    3510:	b0 0d       	add	r27, r0
    3512:	a1 1d       	adc	r26, r1
    3514:	62 1f       	adc	r22, r18
    3516:	83 9f       	mul	r24, r19
    3518:	a0 0d       	add	r26, r0
    351a:	61 1d       	adc	r22, r1
    351c:	22 1f       	adc	r18, r18
    351e:	74 9f       	mul	r23, r20
    3520:	33 27       	eor	r19, r19
    3522:	a0 0d       	add	r26, r0
    3524:	61 1d       	adc	r22, r1
    3526:	23 1f       	adc	r18, r19
    3528:	84 9f       	mul	r24, r20
    352a:	60 0d       	add	r22, r0
    352c:	21 1d       	adc	r18, r1
    352e:	82 2f       	mov	r24, r18
    3530:	76 2f       	mov	r23, r22
    3532:	6a 2f       	mov	r22, r26
    3534:	11 24       	eor	r1, r1
    3536:	9f 57       	subi	r25, 0x7F	; 127
    3538:	50 40       	sbci	r21, 0x00	; 0
    353a:	8a f0       	brmi	.+34     	; 0x355e <__mulsf3_pse+0x84>
    353c:	e1 f0       	breq	.+56     	; 0x3576 <__mulsf3_pse+0x9c>
    353e:	88 23       	and	r24, r24
    3540:	4a f0       	brmi	.+18     	; 0x3554 <__mulsf3_pse+0x7a>
    3542:	ee 0f       	add	r30, r30
    3544:	ff 1f       	adc	r31, r31
    3546:	bb 1f       	adc	r27, r27
    3548:	66 1f       	adc	r22, r22
    354a:	77 1f       	adc	r23, r23
    354c:	88 1f       	adc	r24, r24
    354e:	91 50       	subi	r25, 0x01	; 1
    3550:	50 40       	sbci	r21, 0x00	; 0
    3552:	a9 f7       	brne	.-22     	; 0x353e <__mulsf3_pse+0x64>
    3554:	9e 3f       	cpi	r25, 0xFE	; 254
    3556:	51 05       	cpc	r21, r1
    3558:	70 f0       	brcs	.+28     	; 0x3576 <__mulsf3_pse+0x9c>
    355a:	1b cf       	rjmp	.-458    	; 0x3392 <__fp_inf>
    355c:	65 cf       	rjmp	.-310    	; 0x3428 <__fp_szero>
    355e:	5f 3f       	cpi	r21, 0xFF	; 255
    3560:	ec f3       	brlt	.-6      	; 0x355c <__mulsf3_pse+0x82>
    3562:	98 3e       	cpi	r25, 0xE8	; 232
    3564:	dc f3       	brlt	.-10     	; 0x355c <__mulsf3_pse+0x82>
    3566:	86 95       	lsr	r24
    3568:	77 95       	ror	r23
    356a:	67 95       	ror	r22
    356c:	b7 95       	ror	r27
    356e:	f7 95       	ror	r31
    3570:	e7 95       	ror	r30
    3572:	9f 5f       	subi	r25, 0xFF	; 255
    3574:	c1 f7       	brne	.-16     	; 0x3566 <__mulsf3_pse+0x8c>
    3576:	fe 2b       	or	r31, r30
    3578:	88 0f       	add	r24, r24
    357a:	91 1d       	adc	r25, r1
    357c:	96 95       	lsr	r25
    357e:	87 95       	ror	r24
    3580:	97 f9       	bld	r25, 7
    3582:	08 95       	ret

00003584 <pow>:
    3584:	fa 01       	movw	r30, r20
    3586:	ee 0f       	add	r30, r30
    3588:	ff 1f       	adc	r31, r31
    358a:	30 96       	adiw	r30, 0x00	; 0
    358c:	21 05       	cpc	r18, r1
    358e:	31 05       	cpc	r19, r1
    3590:	99 f1       	breq	.+102    	; 0x35f8 <pow+0x74>
    3592:	61 15       	cp	r22, r1
    3594:	71 05       	cpc	r23, r1
    3596:	61 f4       	brne	.+24     	; 0x35b0 <pow+0x2c>
    3598:	80 38       	cpi	r24, 0x80	; 128
    359a:	bf e3       	ldi	r27, 0x3F	; 63
    359c:	9b 07       	cpc	r25, r27
    359e:	49 f1       	breq	.+82     	; 0x35f2 <pow+0x6e>
    35a0:	68 94       	set
    35a2:	90 38       	cpi	r25, 0x80	; 128
    35a4:	81 05       	cpc	r24, r1
    35a6:	61 f0       	breq	.+24     	; 0x35c0 <pow+0x3c>
    35a8:	80 38       	cpi	r24, 0x80	; 128
    35aa:	bf ef       	ldi	r27, 0xFF	; 255
    35ac:	9b 07       	cpc	r25, r27
    35ae:	41 f0       	breq	.+16     	; 0x35c0 <pow+0x3c>
    35b0:	99 23       	and	r25, r25
    35b2:	42 f5       	brpl	.+80     	; 0x3604 <pow+0x80>
    35b4:	ff 3f       	cpi	r31, 0xFF	; 255
    35b6:	e1 05       	cpc	r30, r1
    35b8:	31 05       	cpc	r19, r1
    35ba:	21 05       	cpc	r18, r1
    35bc:	11 f1       	breq	.+68     	; 0x3602 <pow+0x7e>
    35be:	e8 94       	clt
    35c0:	08 94       	sec
    35c2:	e7 95       	ror	r30
    35c4:	d9 01       	movw	r26, r18
    35c6:	aa 23       	and	r26, r26
    35c8:	29 f4       	brne	.+10     	; 0x35d4 <pow+0x50>
    35ca:	ab 2f       	mov	r26, r27
    35cc:	be 2f       	mov	r27, r30
    35ce:	f8 5f       	subi	r31, 0xF8	; 248
    35d0:	d0 f3       	brcs	.-12     	; 0x35c6 <pow+0x42>
    35d2:	10 c0       	rjmp	.+32     	; 0x35f4 <pow+0x70>
    35d4:	ff 5f       	subi	r31, 0xFF	; 255
    35d6:	70 f4       	brcc	.+28     	; 0x35f4 <pow+0x70>
    35d8:	a6 95       	lsr	r26
    35da:	e0 f7       	brcc	.-8      	; 0x35d4 <pow+0x50>
    35dc:	f7 39       	cpi	r31, 0x97	; 151
    35de:	50 f0       	brcs	.+20     	; 0x35f4 <pow+0x70>
    35e0:	19 f0       	breq	.+6      	; 0x35e8 <pow+0x64>
    35e2:	ff 3a       	cpi	r31, 0xAF	; 175
    35e4:	38 f4       	brcc	.+14     	; 0x35f4 <pow+0x70>
    35e6:	9f 77       	andi	r25, 0x7F	; 127
    35e8:	9f 93       	push	r25
    35ea:	0c d0       	rcall	.+24     	; 0x3604 <pow+0x80>
    35ec:	0f 90       	pop	r0
    35ee:	07 fc       	sbrc	r0, 7
    35f0:	90 58       	subi	r25, 0x80	; 128
    35f2:	08 95       	ret
    35f4:	3e f0       	brts	.+14     	; 0x3604 <pow+0x80>
    35f6:	d3 ce       	rjmp	.-602    	; 0x339e <__fp_nan>
    35f8:	60 e0       	ldi	r22, 0x00	; 0
    35fa:	70 e0       	ldi	r23, 0x00	; 0
    35fc:	80 e8       	ldi	r24, 0x80	; 128
    35fe:	9f e3       	ldi	r25, 0x3F	; 63
    3600:	08 95       	ret
    3602:	4f e7       	ldi	r20, 0x7F	; 127
    3604:	9f 77       	andi	r25, 0x7F	; 127
    3606:	5f 93       	push	r21
    3608:	4f 93       	push	r20
    360a:	3f 93       	push	r19
    360c:	2f 93       	push	r18
    360e:	17 df       	rcall	.-466    	; 0x343e <log>
    3610:	2f 91       	pop	r18
    3612:	3f 91       	pop	r19
    3614:	4f 91       	pop	r20
    3616:	5f 91       	pop	r21
    3618:	52 df       	rcall	.-348    	; 0x34be <__mulsf3>
    361a:	05 c0       	rjmp	.+10     	; 0x3626 <exp>
    361c:	19 f4       	brne	.+6      	; 0x3624 <pow+0xa0>
    361e:	0e f0       	brts	.+2      	; 0x3622 <pow+0x9e>
    3620:	b8 ce       	rjmp	.-656    	; 0x3392 <__fp_inf>
    3622:	01 cf       	rjmp	.-510    	; 0x3426 <__fp_zero>
    3624:	bc ce       	rjmp	.-648    	; 0x339e <__fp_nan>

00003626 <exp>:
    3626:	e5 de       	rcall	.-566    	; 0x33f2 <__fp_splitA>
    3628:	c8 f3       	brcs	.-14     	; 0x361c <pow+0x98>
    362a:	96 38       	cpi	r25, 0x86	; 134
    362c:	c0 f7       	brcc	.-16     	; 0x361e <pow+0x9a>
    362e:	07 f8       	bld	r0, 7
    3630:	0f 92       	push	r0
    3632:	e8 94       	clt
    3634:	2b e3       	ldi	r18, 0x3B	; 59
    3636:	3a ea       	ldi	r19, 0xAA	; 170
    3638:	48 eb       	ldi	r20, 0xB8	; 184
    363a:	5f e7       	ldi	r21, 0x7F	; 127
    363c:	4e df       	rcall	.-356    	; 0x34da <__mulsf3_pse>
    363e:	0f 92       	push	r0
    3640:	0f 92       	push	r0
    3642:	0f 92       	push	r0
    3644:	4d b7       	in	r20, 0x3d	; 61
    3646:	5e b7       	in	r21, 0x3e	; 62
    3648:	0f 92       	push	r0
    364a:	89 d0       	rcall	.+274    	; 0x375e <modf>
    364c:	e4 ed       	ldi	r30, 0xD4	; 212
    364e:	f2 e0       	ldi	r31, 0x02	; 2
    3650:	24 d0       	rcall	.+72     	; 0x369a <__fp_powser>
    3652:	4f 91       	pop	r20
    3654:	5f 91       	pop	r21
    3656:	ef 91       	pop	r30
    3658:	ff 91       	pop	r31
    365a:	e5 95       	asr	r30
    365c:	ee 1f       	adc	r30, r30
    365e:	ff 1f       	adc	r31, r31
    3660:	49 f0       	breq	.+18     	; 0x3674 <exp+0x4e>
    3662:	fe 57       	subi	r31, 0x7E	; 126
    3664:	e0 68       	ori	r30, 0x80	; 128
    3666:	44 27       	eor	r20, r20
    3668:	ee 0f       	add	r30, r30
    366a:	44 1f       	adc	r20, r20
    366c:	fa 95       	dec	r31
    366e:	e1 f7       	brne	.-8      	; 0x3668 <exp+0x42>
    3670:	41 95       	neg	r20
    3672:	55 0b       	sbc	r21, r21
    3674:	40 d0       	rcall	.+128    	; 0x36f6 <ldexp>
    3676:	0f 90       	pop	r0
    3678:	07 fe       	sbrs	r0, 7
    367a:	34 c0       	rjmp	.+104    	; 0x36e4 <inverse>
    367c:	08 95       	ret

0000367e <__fp_mpack>:
    367e:	9f 3f       	cpi	r25, 0xFF	; 255
    3680:	31 f0       	breq	.+12     	; 0x368e <__fp_mpack_finite+0xc>

00003682 <__fp_mpack_finite>:
    3682:	91 50       	subi	r25, 0x01	; 1
    3684:	20 f4       	brcc	.+8      	; 0x368e <__fp_mpack_finite+0xc>
    3686:	87 95       	ror	r24
    3688:	77 95       	ror	r23
    368a:	67 95       	ror	r22
    368c:	b7 95       	ror	r27
    368e:	88 0f       	add	r24, r24
    3690:	91 1d       	adc	r25, r1
    3692:	96 95       	lsr	r25
    3694:	87 95       	ror	r24
    3696:	97 f9       	bld	r25, 7
    3698:	08 95       	ret

0000369a <__fp_powser>:
    369a:	df 93       	push	r29
    369c:	cf 93       	push	r28
    369e:	1f 93       	push	r17
    36a0:	0f 93       	push	r16
    36a2:	ff 92       	push	r15
    36a4:	ef 92       	push	r14
    36a6:	df 92       	push	r13
    36a8:	7b 01       	movw	r14, r22
    36aa:	8c 01       	movw	r16, r24
    36ac:	68 94       	set
    36ae:	05 c0       	rjmp	.+10     	; 0x36ba <__fp_powser+0x20>
    36b0:	da 2e       	mov	r13, r26
    36b2:	ef 01       	movw	r28, r30
    36b4:	10 df       	rcall	.-480    	; 0x34d6 <__mulsf3x>
    36b6:	fe 01       	movw	r30, r28
    36b8:	e8 94       	clt
    36ba:	a5 91       	lpm	r26, Z+
    36bc:	25 91       	lpm	r18, Z+
    36be:	35 91       	lpm	r19, Z+
    36c0:	45 91       	lpm	r20, Z+
    36c2:	55 91       	lpm	r21, Z+
    36c4:	ae f3       	brts	.-22     	; 0x36b0 <__fp_powser+0x16>
    36c6:	ef 01       	movw	r28, r30
    36c8:	3b dd       	rcall	.-1418   	; 0x3140 <__addsf3x>
    36ca:	fe 01       	movw	r30, r28
    36cc:	97 01       	movw	r18, r14
    36ce:	a8 01       	movw	r20, r16
    36d0:	da 94       	dec	r13
    36d2:	79 f7       	brne	.-34     	; 0x36b2 <__fp_powser+0x18>
    36d4:	df 90       	pop	r13
    36d6:	ef 90       	pop	r14
    36d8:	ff 90       	pop	r15
    36da:	0f 91       	pop	r16
    36dc:	1f 91       	pop	r17
    36de:	cf 91       	pop	r28
    36e0:	df 91       	pop	r29
    36e2:	08 95       	ret

000036e4 <inverse>:
    36e4:	9b 01       	movw	r18, r22
    36e6:	ac 01       	movw	r20, r24
    36e8:	60 e0       	ldi	r22, 0x00	; 0
    36ea:	70 e0       	ldi	r23, 0x00	; 0
    36ec:	80 e8       	ldi	r24, 0x80	; 128
    36ee:	9f e3       	ldi	r25, 0x3F	; 63
    36f0:	7a cd       	rjmp	.-1292   	; 0x31e6 <__divsf3>
    36f2:	4f ce       	rjmp	.-866    	; 0x3392 <__fp_inf>
    36f4:	c4 cf       	rjmp	.-120    	; 0x367e <__fp_mpack>

000036f6 <ldexp>:
    36f6:	7d de       	rcall	.-774    	; 0x33f2 <__fp_splitA>
    36f8:	e8 f3       	brcs	.-6      	; 0x36f4 <inverse+0x10>
    36fa:	99 23       	and	r25, r25
    36fc:	d9 f3       	breq	.-10     	; 0x36f4 <inverse+0x10>
    36fe:	94 0f       	add	r25, r20
    3700:	51 1d       	adc	r21, r1
    3702:	bb f3       	brvs	.-18     	; 0x36f2 <inverse+0xe>
    3704:	91 50       	subi	r25, 0x01	; 1
    3706:	50 40       	sbci	r21, 0x00	; 0
    3708:	94 f0       	brlt	.+36     	; 0x372e <ldexp+0x38>
    370a:	59 f0       	breq	.+22     	; 0x3722 <ldexp+0x2c>
    370c:	88 23       	and	r24, r24
    370e:	32 f0       	brmi	.+12     	; 0x371c <ldexp+0x26>
    3710:	66 0f       	add	r22, r22
    3712:	77 1f       	adc	r23, r23
    3714:	88 1f       	adc	r24, r24
    3716:	91 50       	subi	r25, 0x01	; 1
    3718:	50 40       	sbci	r21, 0x00	; 0
    371a:	c1 f7       	brne	.-16     	; 0x370c <ldexp+0x16>
    371c:	9e 3f       	cpi	r25, 0xFE	; 254
    371e:	51 05       	cpc	r21, r1
    3720:	44 f7       	brge	.-48     	; 0x36f2 <inverse+0xe>
    3722:	88 0f       	add	r24, r24
    3724:	91 1d       	adc	r25, r1
    3726:	96 95       	lsr	r25
    3728:	87 95       	ror	r24
    372a:	97 f9       	bld	r25, 7
    372c:	08 95       	ret
    372e:	5f 3f       	cpi	r21, 0xFF	; 255
    3730:	ac f0       	brlt	.+42     	; 0x375c <ldexp+0x66>
    3732:	98 3e       	cpi	r25, 0xE8	; 232
    3734:	9c f0       	brlt	.+38     	; 0x375c <ldexp+0x66>
    3736:	bb 27       	eor	r27, r27
    3738:	86 95       	lsr	r24
    373a:	77 95       	ror	r23
    373c:	67 95       	ror	r22
    373e:	b7 95       	ror	r27
    3740:	08 f4       	brcc	.+2      	; 0x3744 <ldexp+0x4e>
    3742:	b1 60       	ori	r27, 0x01	; 1
    3744:	93 95       	inc	r25
    3746:	c1 f7       	brne	.-16     	; 0x3738 <ldexp+0x42>
    3748:	bb 0f       	add	r27, r27
    374a:	58 f7       	brcc	.-42     	; 0x3722 <ldexp+0x2c>
    374c:	11 f4       	brne	.+4      	; 0x3752 <ldexp+0x5c>
    374e:	60 ff       	sbrs	r22, 0
    3750:	e8 cf       	rjmp	.-48     	; 0x3722 <ldexp+0x2c>
    3752:	6f 5f       	subi	r22, 0xFF	; 255
    3754:	7f 4f       	sbci	r23, 0xFF	; 255
    3756:	8f 4f       	sbci	r24, 0xFF	; 255
    3758:	9f 4f       	sbci	r25, 0xFF	; 255
    375a:	e3 cf       	rjmp	.-58     	; 0x3722 <ldexp+0x2c>
    375c:	65 ce       	rjmp	.-822    	; 0x3428 <__fp_szero>

0000375e <modf>:
    375e:	fa 01       	movw	r30, r20
    3760:	dc 01       	movw	r26, r24
    3762:	aa 0f       	add	r26, r26
    3764:	bb 1f       	adc	r27, r27
    3766:	9b 01       	movw	r18, r22
    3768:	ac 01       	movw	r20, r24
    376a:	bf 57       	subi	r27, 0x7F	; 127
    376c:	28 f4       	brcc	.+10     	; 0x3778 <modf+0x1a>
    376e:	22 27       	eor	r18, r18
    3770:	33 27       	eor	r19, r19
    3772:	44 27       	eor	r20, r20
    3774:	50 78       	andi	r21, 0x80	; 128
    3776:	1f c0       	rjmp	.+62     	; 0x37b6 <modf+0x58>
    3778:	b7 51       	subi	r27, 0x17	; 23
    377a:	88 f4       	brcc	.+34     	; 0x379e <modf+0x40>
    377c:	ab 2f       	mov	r26, r27
    377e:	00 24       	eor	r0, r0
    3780:	46 95       	lsr	r20
    3782:	37 95       	ror	r19
    3784:	27 95       	ror	r18
    3786:	01 1c       	adc	r0, r1
    3788:	a3 95       	inc	r26
    378a:	d2 f3       	brmi	.-12     	; 0x3780 <modf+0x22>
    378c:	00 20       	and	r0, r0
    378e:	69 f0       	breq	.+26     	; 0x37aa <modf+0x4c>
    3790:	22 0f       	add	r18, r18
    3792:	33 1f       	adc	r19, r19
    3794:	44 1f       	adc	r20, r20
    3796:	b3 95       	inc	r27
    3798:	da f3       	brmi	.-10     	; 0x3790 <modf+0x32>
    379a:	0d d0       	rcall	.+26     	; 0x37b6 <modf+0x58>
    379c:	bf cc       	rjmp	.-1666   	; 0x311c <__subsf3>
    379e:	61 30       	cpi	r22, 0x01	; 1
    37a0:	71 05       	cpc	r23, r1
    37a2:	a0 e8       	ldi	r26, 0x80	; 128
    37a4:	8a 07       	cpc	r24, r26
    37a6:	b9 46       	sbci	r27, 0x69	; 105
    37a8:	30 f4       	brcc	.+12     	; 0x37b6 <modf+0x58>
    37aa:	9b 01       	movw	r18, r22
    37ac:	ac 01       	movw	r20, r24
    37ae:	66 27       	eor	r22, r22
    37b0:	77 27       	eor	r23, r23
    37b2:	88 27       	eor	r24, r24
    37b4:	90 78       	andi	r25, 0x80	; 128
    37b6:	30 96       	adiw	r30, 0x00	; 0
    37b8:	21 f0       	breq	.+8      	; 0x37c2 <modf+0x64>
    37ba:	20 83       	st	Z, r18
    37bc:	31 83       	std	Z+1, r19	; 0x01
    37be:	42 83       	std	Z+2, r20	; 0x02
    37c0:	53 83       	std	Z+3, r21	; 0x03
    37c2:	08 95       	ret

000037c4 <vfprintf>:
    37c4:	2f 92       	push	r2
    37c6:	3f 92       	push	r3
    37c8:	4f 92       	push	r4
    37ca:	5f 92       	push	r5
    37cc:	6f 92       	push	r6
    37ce:	7f 92       	push	r7
    37d0:	8f 92       	push	r8
    37d2:	9f 92       	push	r9
    37d4:	af 92       	push	r10
    37d6:	bf 92       	push	r11
    37d8:	cf 92       	push	r12
    37da:	df 92       	push	r13
    37dc:	ef 92       	push	r14
    37de:	ff 92       	push	r15
    37e0:	0f 93       	push	r16
    37e2:	1f 93       	push	r17
    37e4:	cf 93       	push	r28
    37e6:	df 93       	push	r29
    37e8:	cd b7       	in	r28, 0x3d	; 61
    37ea:	de b7       	in	r29, 0x3e	; 62
    37ec:	60 97       	sbiw	r28, 0x10	; 16
    37ee:	cd bf       	out	0x3d, r28	; 61
    37f0:	de bf       	out	0x3e, r29	; 62
    37f2:	7c 01       	movw	r14, r24
    37f4:	1b 01       	movw	r2, r22
    37f6:	6a 01       	movw	r12, r20
    37f8:	fc 01       	movw	r30, r24
    37fa:	16 82       	std	Z+6, r1	; 0x06
    37fc:	17 82       	std	Z+7, r1	; 0x07
    37fe:	83 81       	ldd	r24, Z+3	; 0x03
    3800:	81 ff       	sbrs	r24, 1
    3802:	2a c3       	rjmp	.+1620   	; 0x3e58 <vfprintf+0x694>
    3804:	9e 01       	movw	r18, r28
    3806:	2f 5f       	subi	r18, 0xFF	; 255
    3808:	3f 4f       	sbci	r19, 0xFF	; 255
    380a:	39 01       	movw	r6, r18
    380c:	f7 01       	movw	r30, r14
    380e:	93 81       	ldd	r25, Z+3	; 0x03
    3810:	f1 01       	movw	r30, r2
    3812:	93 fd       	sbrc	r25, 3
    3814:	85 91       	lpm	r24, Z+
    3816:	93 ff       	sbrs	r25, 3
    3818:	81 91       	ld	r24, Z+
    381a:	1f 01       	movw	r2, r30
    381c:	88 23       	and	r24, r24
    381e:	09 f4       	brne	.+2      	; 0x3822 <vfprintf+0x5e>
    3820:	17 c3       	rjmp	.+1582   	; 0x3e50 <vfprintf+0x68c>
    3822:	85 32       	cpi	r24, 0x25	; 37
    3824:	39 f4       	brne	.+14     	; 0x3834 <vfprintf+0x70>
    3826:	93 fd       	sbrc	r25, 3
    3828:	85 91       	lpm	r24, Z+
    382a:	93 ff       	sbrs	r25, 3
    382c:	81 91       	ld	r24, Z+
    382e:	1f 01       	movw	r2, r30
    3830:	85 32       	cpi	r24, 0x25	; 37
    3832:	31 f4       	brne	.+12     	; 0x3840 <vfprintf+0x7c>
    3834:	b7 01       	movw	r22, r14
    3836:	90 e0       	ldi	r25, 0x00	; 0
    3838:	86 d5       	rcall	.+2828   	; 0x4346 <fputc>
    383a:	56 01       	movw	r10, r12
    383c:	65 01       	movw	r12, r10
    383e:	e6 cf       	rjmp	.-52     	; 0x380c <vfprintf+0x48>
    3840:	10 e0       	ldi	r17, 0x00	; 0
    3842:	51 2c       	mov	r5, r1
    3844:	91 2c       	mov	r9, r1
    3846:	ff e1       	ldi	r31, 0x1F	; 31
    3848:	f9 15       	cp	r31, r9
    384a:	d8 f0       	brcs	.+54     	; 0x3882 <vfprintf+0xbe>
    384c:	8b 32       	cpi	r24, 0x2B	; 43
    384e:	79 f0       	breq	.+30     	; 0x386e <vfprintf+0xaa>
    3850:	38 f4       	brcc	.+14     	; 0x3860 <vfprintf+0x9c>
    3852:	80 32       	cpi	r24, 0x20	; 32
    3854:	79 f0       	breq	.+30     	; 0x3874 <vfprintf+0xb0>
    3856:	83 32       	cpi	r24, 0x23	; 35
    3858:	a1 f4       	brne	.+40     	; 0x3882 <vfprintf+0xbe>
    385a:	f9 2d       	mov	r31, r9
    385c:	f0 61       	ori	r31, 0x10	; 16
    385e:	2e c0       	rjmp	.+92     	; 0x38bc <vfprintf+0xf8>
    3860:	8d 32       	cpi	r24, 0x2D	; 45
    3862:	61 f0       	breq	.+24     	; 0x387c <vfprintf+0xb8>
    3864:	80 33       	cpi	r24, 0x30	; 48
    3866:	69 f4       	brne	.+26     	; 0x3882 <vfprintf+0xbe>
    3868:	29 2d       	mov	r18, r9
    386a:	21 60       	ori	r18, 0x01	; 1
    386c:	2d c0       	rjmp	.+90     	; 0x38c8 <vfprintf+0x104>
    386e:	39 2d       	mov	r19, r9
    3870:	32 60       	ori	r19, 0x02	; 2
    3872:	93 2e       	mov	r9, r19
    3874:	89 2d       	mov	r24, r9
    3876:	84 60       	ori	r24, 0x04	; 4
    3878:	98 2e       	mov	r9, r24
    387a:	2a c0       	rjmp	.+84     	; 0x38d0 <vfprintf+0x10c>
    387c:	e9 2d       	mov	r30, r9
    387e:	e8 60       	ori	r30, 0x08	; 8
    3880:	15 c0       	rjmp	.+42     	; 0x38ac <vfprintf+0xe8>
    3882:	97 fc       	sbrc	r9, 7
    3884:	2d c0       	rjmp	.+90     	; 0x38e0 <vfprintf+0x11c>
    3886:	20 ed       	ldi	r18, 0xD0	; 208
    3888:	28 0f       	add	r18, r24
    388a:	2a 30       	cpi	r18, 0x0A	; 10
    388c:	88 f4       	brcc	.+34     	; 0x38b0 <vfprintf+0xec>
    388e:	96 fe       	sbrs	r9, 6
    3890:	06 c0       	rjmp	.+12     	; 0x389e <vfprintf+0xda>
    3892:	3a e0       	ldi	r19, 0x0A	; 10
    3894:	13 9f       	mul	r17, r19
    3896:	20 0d       	add	r18, r0
    3898:	11 24       	eor	r1, r1
    389a:	12 2f       	mov	r17, r18
    389c:	19 c0       	rjmp	.+50     	; 0x38d0 <vfprintf+0x10c>
    389e:	8a e0       	ldi	r24, 0x0A	; 10
    38a0:	58 9e       	mul	r5, r24
    38a2:	20 0d       	add	r18, r0
    38a4:	11 24       	eor	r1, r1
    38a6:	52 2e       	mov	r5, r18
    38a8:	e9 2d       	mov	r30, r9
    38aa:	e0 62       	ori	r30, 0x20	; 32
    38ac:	9e 2e       	mov	r9, r30
    38ae:	10 c0       	rjmp	.+32     	; 0x38d0 <vfprintf+0x10c>
    38b0:	8e 32       	cpi	r24, 0x2E	; 46
    38b2:	31 f4       	brne	.+12     	; 0x38c0 <vfprintf+0xfc>
    38b4:	96 fc       	sbrc	r9, 6
    38b6:	cc c2       	rjmp	.+1432   	; 0x3e50 <vfprintf+0x68c>
    38b8:	f9 2d       	mov	r31, r9
    38ba:	f0 64       	ori	r31, 0x40	; 64
    38bc:	9f 2e       	mov	r9, r31
    38be:	08 c0       	rjmp	.+16     	; 0x38d0 <vfprintf+0x10c>
    38c0:	8c 36       	cpi	r24, 0x6C	; 108
    38c2:	21 f4       	brne	.+8      	; 0x38cc <vfprintf+0x108>
    38c4:	29 2d       	mov	r18, r9
    38c6:	20 68       	ori	r18, 0x80	; 128
    38c8:	92 2e       	mov	r9, r18
    38ca:	02 c0       	rjmp	.+4      	; 0x38d0 <vfprintf+0x10c>
    38cc:	88 36       	cpi	r24, 0x68	; 104
    38ce:	41 f4       	brne	.+16     	; 0x38e0 <vfprintf+0x11c>
    38d0:	f1 01       	movw	r30, r2
    38d2:	93 fd       	sbrc	r25, 3
    38d4:	85 91       	lpm	r24, Z+
    38d6:	93 ff       	sbrs	r25, 3
    38d8:	81 91       	ld	r24, Z+
    38da:	1f 01       	movw	r2, r30
    38dc:	81 11       	cpse	r24, r1
    38de:	b3 cf       	rjmp	.-154    	; 0x3846 <vfprintf+0x82>
    38e0:	9b eb       	ldi	r25, 0xBB	; 187
    38e2:	98 0f       	add	r25, r24
    38e4:	93 30       	cpi	r25, 0x03	; 3
    38e6:	20 f4       	brcc	.+8      	; 0x38f0 <vfprintf+0x12c>
    38e8:	99 2d       	mov	r25, r9
    38ea:	90 61       	ori	r25, 0x10	; 16
    38ec:	80 5e       	subi	r24, 0xE0	; 224
    38ee:	07 c0       	rjmp	.+14     	; 0x38fe <vfprintf+0x13a>
    38f0:	9b e9       	ldi	r25, 0x9B	; 155
    38f2:	98 0f       	add	r25, r24
    38f4:	93 30       	cpi	r25, 0x03	; 3
    38f6:	08 f0       	brcs	.+2      	; 0x38fa <vfprintf+0x136>
    38f8:	59 c1       	rjmp	.+690    	; 0x3bac <vfprintf+0x3e8>
    38fa:	99 2d       	mov	r25, r9
    38fc:	9f 7e       	andi	r25, 0xEF	; 239
    38fe:	96 ff       	sbrs	r25, 6
    3900:	16 e0       	ldi	r17, 0x06	; 6
    3902:	9f 73       	andi	r25, 0x3F	; 63
    3904:	99 2e       	mov	r9, r25
    3906:	85 36       	cpi	r24, 0x65	; 101
    3908:	19 f4       	brne	.+6      	; 0x3910 <vfprintf+0x14c>
    390a:	90 64       	ori	r25, 0x40	; 64
    390c:	99 2e       	mov	r9, r25
    390e:	08 c0       	rjmp	.+16     	; 0x3920 <vfprintf+0x15c>
    3910:	86 36       	cpi	r24, 0x66	; 102
    3912:	21 f4       	brne	.+8      	; 0x391c <vfprintf+0x158>
    3914:	39 2f       	mov	r19, r25
    3916:	30 68       	ori	r19, 0x80	; 128
    3918:	93 2e       	mov	r9, r19
    391a:	02 c0       	rjmp	.+4      	; 0x3920 <vfprintf+0x15c>
    391c:	11 11       	cpse	r17, r1
    391e:	11 50       	subi	r17, 0x01	; 1
    3920:	97 fe       	sbrs	r9, 7
    3922:	07 c0       	rjmp	.+14     	; 0x3932 <vfprintf+0x16e>
    3924:	1c 33       	cpi	r17, 0x3C	; 60
    3926:	50 f4       	brcc	.+20     	; 0x393c <vfprintf+0x178>
    3928:	44 24       	eor	r4, r4
    392a:	43 94       	inc	r4
    392c:	41 0e       	add	r4, r17
    392e:	27 e0       	ldi	r18, 0x07	; 7
    3930:	0b c0       	rjmp	.+22     	; 0x3948 <vfprintf+0x184>
    3932:	18 30       	cpi	r17, 0x08	; 8
    3934:	38 f0       	brcs	.+14     	; 0x3944 <vfprintf+0x180>
    3936:	27 e0       	ldi	r18, 0x07	; 7
    3938:	17 e0       	ldi	r17, 0x07	; 7
    393a:	05 c0       	rjmp	.+10     	; 0x3946 <vfprintf+0x182>
    393c:	27 e0       	ldi	r18, 0x07	; 7
    393e:	9c e3       	ldi	r25, 0x3C	; 60
    3940:	49 2e       	mov	r4, r25
    3942:	02 c0       	rjmp	.+4      	; 0x3948 <vfprintf+0x184>
    3944:	21 2f       	mov	r18, r17
    3946:	41 2c       	mov	r4, r1
    3948:	56 01       	movw	r10, r12
    394a:	84 e0       	ldi	r24, 0x04	; 4
    394c:	a8 0e       	add	r10, r24
    394e:	b1 1c       	adc	r11, r1
    3950:	f6 01       	movw	r30, r12
    3952:	60 81       	ld	r22, Z
    3954:	71 81       	ldd	r23, Z+1	; 0x01
    3956:	82 81       	ldd	r24, Z+2	; 0x02
    3958:	93 81       	ldd	r25, Z+3	; 0x03
    395a:	04 2d       	mov	r16, r4
    395c:	a3 01       	movw	r20, r6
    395e:	bb d3       	rcall	.+1910   	; 0x40d6 <__ftoa_engine>
    3960:	6c 01       	movw	r12, r24
    3962:	f9 81       	ldd	r31, Y+1	; 0x01
    3964:	fc 87       	std	Y+12, r31	; 0x0c
    3966:	f0 ff       	sbrs	r31, 0
    3968:	02 c0       	rjmp	.+4      	; 0x396e <vfprintf+0x1aa>
    396a:	f3 ff       	sbrs	r31, 3
    396c:	06 c0       	rjmp	.+12     	; 0x397a <vfprintf+0x1b6>
    396e:	91 fc       	sbrc	r9, 1
    3970:	06 c0       	rjmp	.+12     	; 0x397e <vfprintf+0x1ba>
    3972:	92 fe       	sbrs	r9, 2
    3974:	06 c0       	rjmp	.+12     	; 0x3982 <vfprintf+0x1be>
    3976:	00 e2       	ldi	r16, 0x20	; 32
    3978:	05 c0       	rjmp	.+10     	; 0x3984 <vfprintf+0x1c0>
    397a:	0d e2       	ldi	r16, 0x2D	; 45
    397c:	03 c0       	rjmp	.+6      	; 0x3984 <vfprintf+0x1c0>
    397e:	0b e2       	ldi	r16, 0x2B	; 43
    3980:	01 c0       	rjmp	.+2      	; 0x3984 <vfprintf+0x1c0>
    3982:	00 e0       	ldi	r16, 0x00	; 0
    3984:	8c 85       	ldd	r24, Y+12	; 0x0c
    3986:	8c 70       	andi	r24, 0x0C	; 12
    3988:	19 f0       	breq	.+6      	; 0x3990 <vfprintf+0x1cc>
    398a:	01 11       	cpse	r16, r1
    398c:	43 c2       	rjmp	.+1158   	; 0x3e14 <vfprintf+0x650>
    398e:	80 c2       	rjmp	.+1280   	; 0x3e90 <vfprintf+0x6cc>
    3990:	97 fe       	sbrs	r9, 7
    3992:	10 c0       	rjmp	.+32     	; 0x39b4 <vfprintf+0x1f0>
    3994:	4c 0c       	add	r4, r12
    3996:	fc 85       	ldd	r31, Y+12	; 0x0c
    3998:	f4 ff       	sbrs	r31, 4
    399a:	04 c0       	rjmp	.+8      	; 0x39a4 <vfprintf+0x1e0>
    399c:	8a 81       	ldd	r24, Y+2	; 0x02
    399e:	81 33       	cpi	r24, 0x31	; 49
    39a0:	09 f4       	brne	.+2      	; 0x39a4 <vfprintf+0x1e0>
    39a2:	4a 94       	dec	r4
    39a4:	14 14       	cp	r1, r4
    39a6:	74 f5       	brge	.+92     	; 0x3a04 <vfprintf+0x240>
    39a8:	28 e0       	ldi	r18, 0x08	; 8
    39aa:	24 15       	cp	r18, r4
    39ac:	78 f5       	brcc	.+94     	; 0x3a0c <vfprintf+0x248>
    39ae:	88 e0       	ldi	r24, 0x08	; 8
    39b0:	48 2e       	mov	r4, r24
    39b2:	2c c0       	rjmp	.+88     	; 0x3a0c <vfprintf+0x248>
    39b4:	96 fc       	sbrc	r9, 6
    39b6:	2a c0       	rjmp	.+84     	; 0x3a0c <vfprintf+0x248>
    39b8:	81 2f       	mov	r24, r17
    39ba:	90 e0       	ldi	r25, 0x00	; 0
    39bc:	8c 15       	cp	r24, r12
    39be:	9d 05       	cpc	r25, r13
    39c0:	9c f0       	brlt	.+38     	; 0x39e8 <vfprintf+0x224>
    39c2:	3c ef       	ldi	r19, 0xFC	; 252
    39c4:	c3 16       	cp	r12, r19
    39c6:	3f ef       	ldi	r19, 0xFF	; 255
    39c8:	d3 06       	cpc	r13, r19
    39ca:	74 f0       	brlt	.+28     	; 0x39e8 <vfprintf+0x224>
    39cc:	89 2d       	mov	r24, r9
    39ce:	80 68       	ori	r24, 0x80	; 128
    39d0:	98 2e       	mov	r9, r24
    39d2:	0a c0       	rjmp	.+20     	; 0x39e8 <vfprintf+0x224>
    39d4:	e2 e0       	ldi	r30, 0x02	; 2
    39d6:	f0 e0       	ldi	r31, 0x00	; 0
    39d8:	ec 0f       	add	r30, r28
    39da:	fd 1f       	adc	r31, r29
    39dc:	e1 0f       	add	r30, r17
    39de:	f1 1d       	adc	r31, r1
    39e0:	80 81       	ld	r24, Z
    39e2:	80 33       	cpi	r24, 0x30	; 48
    39e4:	19 f4       	brne	.+6      	; 0x39ec <vfprintf+0x228>
    39e6:	11 50       	subi	r17, 0x01	; 1
    39e8:	11 11       	cpse	r17, r1
    39ea:	f4 cf       	rjmp	.-24     	; 0x39d4 <vfprintf+0x210>
    39ec:	97 fe       	sbrs	r9, 7
    39ee:	0e c0       	rjmp	.+28     	; 0x3a0c <vfprintf+0x248>
    39f0:	44 24       	eor	r4, r4
    39f2:	43 94       	inc	r4
    39f4:	41 0e       	add	r4, r17
    39f6:	81 2f       	mov	r24, r17
    39f8:	90 e0       	ldi	r25, 0x00	; 0
    39fa:	c8 16       	cp	r12, r24
    39fc:	d9 06       	cpc	r13, r25
    39fe:	2c f4       	brge	.+10     	; 0x3a0a <vfprintf+0x246>
    3a00:	1c 19       	sub	r17, r12
    3a02:	04 c0       	rjmp	.+8      	; 0x3a0c <vfprintf+0x248>
    3a04:	44 24       	eor	r4, r4
    3a06:	43 94       	inc	r4
    3a08:	01 c0       	rjmp	.+2      	; 0x3a0c <vfprintf+0x248>
    3a0a:	10 e0       	ldi	r17, 0x00	; 0
    3a0c:	97 fe       	sbrs	r9, 7
    3a0e:	06 c0       	rjmp	.+12     	; 0x3a1c <vfprintf+0x258>
    3a10:	1c 14       	cp	r1, r12
    3a12:	1d 04       	cpc	r1, r13
    3a14:	34 f4       	brge	.+12     	; 0x3a22 <vfprintf+0x25e>
    3a16:	c6 01       	movw	r24, r12
    3a18:	01 96       	adiw	r24, 0x01	; 1
    3a1a:	05 c0       	rjmp	.+10     	; 0x3a26 <vfprintf+0x262>
    3a1c:	85 e0       	ldi	r24, 0x05	; 5
    3a1e:	90 e0       	ldi	r25, 0x00	; 0
    3a20:	02 c0       	rjmp	.+4      	; 0x3a26 <vfprintf+0x262>
    3a22:	81 e0       	ldi	r24, 0x01	; 1
    3a24:	90 e0       	ldi	r25, 0x00	; 0
    3a26:	01 11       	cpse	r16, r1
    3a28:	01 96       	adiw	r24, 0x01	; 1
    3a2a:	11 23       	and	r17, r17
    3a2c:	31 f0       	breq	.+12     	; 0x3a3a <vfprintf+0x276>
    3a2e:	21 2f       	mov	r18, r17
    3a30:	30 e0       	ldi	r19, 0x00	; 0
    3a32:	2f 5f       	subi	r18, 0xFF	; 255
    3a34:	3f 4f       	sbci	r19, 0xFF	; 255
    3a36:	82 0f       	add	r24, r18
    3a38:	93 1f       	adc	r25, r19
    3a3a:	25 2d       	mov	r18, r5
    3a3c:	30 e0       	ldi	r19, 0x00	; 0
    3a3e:	82 17       	cp	r24, r18
    3a40:	93 07       	cpc	r25, r19
    3a42:	14 f4       	brge	.+4      	; 0x3a48 <vfprintf+0x284>
    3a44:	58 1a       	sub	r5, r24
    3a46:	01 c0       	rjmp	.+2      	; 0x3a4a <vfprintf+0x286>
    3a48:	51 2c       	mov	r5, r1
    3a4a:	89 2d       	mov	r24, r9
    3a4c:	89 70       	andi	r24, 0x09	; 9
    3a4e:	41 f4       	brne	.+16     	; 0x3a60 <vfprintf+0x29c>
    3a50:	55 20       	and	r5, r5
    3a52:	31 f0       	breq	.+12     	; 0x3a60 <vfprintf+0x29c>
    3a54:	b7 01       	movw	r22, r14
    3a56:	80 e2       	ldi	r24, 0x20	; 32
    3a58:	90 e0       	ldi	r25, 0x00	; 0
    3a5a:	75 d4       	rcall	.+2282   	; 0x4346 <fputc>
    3a5c:	5a 94       	dec	r5
    3a5e:	f8 cf       	rjmp	.-16     	; 0x3a50 <vfprintf+0x28c>
    3a60:	00 23       	and	r16, r16
    3a62:	21 f0       	breq	.+8      	; 0x3a6c <vfprintf+0x2a8>
    3a64:	b7 01       	movw	r22, r14
    3a66:	80 2f       	mov	r24, r16
    3a68:	90 e0       	ldi	r25, 0x00	; 0
    3a6a:	6d d4       	rcall	.+2266   	; 0x4346 <fputc>
    3a6c:	93 fc       	sbrc	r9, 3
    3a6e:	08 c0       	rjmp	.+16     	; 0x3a80 <vfprintf+0x2bc>
    3a70:	55 20       	and	r5, r5
    3a72:	31 f0       	breq	.+12     	; 0x3a80 <vfprintf+0x2bc>
    3a74:	b7 01       	movw	r22, r14
    3a76:	80 e3       	ldi	r24, 0x30	; 48
    3a78:	90 e0       	ldi	r25, 0x00	; 0
    3a7a:	65 d4       	rcall	.+2250   	; 0x4346 <fputc>
    3a7c:	5a 94       	dec	r5
    3a7e:	f8 cf       	rjmp	.-16     	; 0x3a70 <vfprintf+0x2ac>
    3a80:	97 fe       	sbrs	r9, 7
    3a82:	4a c0       	rjmp	.+148    	; 0x3b18 <vfprintf+0x354>
    3a84:	46 01       	movw	r8, r12
    3a86:	d7 fe       	sbrs	r13, 7
    3a88:	02 c0       	rjmp	.+4      	; 0x3a8e <vfprintf+0x2ca>
    3a8a:	81 2c       	mov	r8, r1
    3a8c:	91 2c       	mov	r9, r1
    3a8e:	c6 01       	movw	r24, r12
    3a90:	88 19       	sub	r24, r8
    3a92:	99 09       	sbc	r25, r9
    3a94:	f3 01       	movw	r30, r6
    3a96:	e8 0f       	add	r30, r24
    3a98:	f9 1f       	adc	r31, r25
    3a9a:	ed 87       	std	Y+13, r30	; 0x0d
    3a9c:	fe 87       	std	Y+14, r31	; 0x0e
    3a9e:	96 01       	movw	r18, r12
    3aa0:	24 19       	sub	r18, r4
    3aa2:	31 09       	sbc	r19, r1
    3aa4:	2f 87       	std	Y+15, r18	; 0x0f
    3aa6:	38 8b       	std	Y+16, r19	; 0x10
    3aa8:	01 2f       	mov	r16, r17
    3aaa:	10 e0       	ldi	r17, 0x00	; 0
    3aac:	11 95       	neg	r17
    3aae:	01 95       	neg	r16
    3ab0:	11 09       	sbc	r17, r1
    3ab2:	3f ef       	ldi	r19, 0xFF	; 255
    3ab4:	83 16       	cp	r8, r19
    3ab6:	93 06       	cpc	r9, r19
    3ab8:	21 f4       	brne	.+8      	; 0x3ac2 <vfprintf+0x2fe>
    3aba:	b7 01       	movw	r22, r14
    3abc:	8e e2       	ldi	r24, 0x2E	; 46
    3abe:	90 e0       	ldi	r25, 0x00	; 0
    3ac0:	42 d4       	rcall	.+2180   	; 0x4346 <fputc>
    3ac2:	c8 14       	cp	r12, r8
    3ac4:	d9 04       	cpc	r13, r9
    3ac6:	4c f0       	brlt	.+18     	; 0x3ada <vfprintf+0x316>
    3ac8:	8f 85       	ldd	r24, Y+15	; 0x0f
    3aca:	98 89       	ldd	r25, Y+16	; 0x10
    3acc:	88 15       	cp	r24, r8
    3ace:	99 05       	cpc	r25, r9
    3ad0:	24 f4       	brge	.+8      	; 0x3ada <vfprintf+0x316>
    3ad2:	ed 85       	ldd	r30, Y+13	; 0x0d
    3ad4:	fe 85       	ldd	r31, Y+14	; 0x0e
    3ad6:	81 81       	ldd	r24, Z+1	; 0x01
    3ad8:	01 c0       	rjmp	.+2      	; 0x3adc <vfprintf+0x318>
    3ada:	80 e3       	ldi	r24, 0x30	; 48
    3adc:	f1 e0       	ldi	r31, 0x01	; 1
    3ade:	8f 1a       	sub	r8, r31
    3ae0:	91 08       	sbc	r9, r1
    3ae2:	2d 85       	ldd	r18, Y+13	; 0x0d
    3ae4:	3e 85       	ldd	r19, Y+14	; 0x0e
    3ae6:	2f 5f       	subi	r18, 0xFF	; 255
    3ae8:	3f 4f       	sbci	r19, 0xFF	; 255
    3aea:	2d 87       	std	Y+13, r18	; 0x0d
    3aec:	3e 87       	std	Y+14, r19	; 0x0e
    3aee:	80 16       	cp	r8, r16
    3af0:	91 06       	cpc	r9, r17
    3af2:	24 f0       	brlt	.+8      	; 0x3afc <vfprintf+0x338>
    3af4:	b7 01       	movw	r22, r14
    3af6:	90 e0       	ldi	r25, 0x00	; 0
    3af8:	26 d4       	rcall	.+2124   	; 0x4346 <fputc>
    3afa:	db cf       	rjmp	.-74     	; 0x3ab2 <vfprintf+0x2ee>
    3afc:	c8 14       	cp	r12, r8
    3afe:	d9 04       	cpc	r13, r9
    3b00:	41 f4       	brne	.+16     	; 0x3b12 <vfprintf+0x34e>
    3b02:	9a 81       	ldd	r25, Y+2	; 0x02
    3b04:	96 33       	cpi	r25, 0x36	; 54
    3b06:	20 f4       	brcc	.+8      	; 0x3b10 <vfprintf+0x34c>
    3b08:	95 33       	cpi	r25, 0x35	; 53
    3b0a:	19 f4       	brne	.+6      	; 0x3b12 <vfprintf+0x34e>
    3b0c:	3c 85       	ldd	r19, Y+12	; 0x0c
    3b0e:	34 ff       	sbrs	r19, 4
    3b10:	81 e3       	ldi	r24, 0x31	; 49
    3b12:	b7 01       	movw	r22, r14
    3b14:	90 e0       	ldi	r25, 0x00	; 0
    3b16:	48 c0       	rjmp	.+144    	; 0x3ba8 <vfprintf+0x3e4>
    3b18:	8a 81       	ldd	r24, Y+2	; 0x02
    3b1a:	81 33       	cpi	r24, 0x31	; 49
    3b1c:	19 f0       	breq	.+6      	; 0x3b24 <vfprintf+0x360>
    3b1e:	9c 85       	ldd	r25, Y+12	; 0x0c
    3b20:	9f 7e       	andi	r25, 0xEF	; 239
    3b22:	9c 87       	std	Y+12, r25	; 0x0c
    3b24:	b7 01       	movw	r22, r14
    3b26:	90 e0       	ldi	r25, 0x00	; 0
    3b28:	0e d4       	rcall	.+2076   	; 0x4346 <fputc>
    3b2a:	11 11       	cpse	r17, r1
    3b2c:	05 c0       	rjmp	.+10     	; 0x3b38 <vfprintf+0x374>
    3b2e:	94 fc       	sbrc	r9, 4
    3b30:	16 c0       	rjmp	.+44     	; 0x3b5e <vfprintf+0x39a>
    3b32:	85 e6       	ldi	r24, 0x65	; 101
    3b34:	90 e0       	ldi	r25, 0x00	; 0
    3b36:	15 c0       	rjmp	.+42     	; 0x3b62 <vfprintf+0x39e>
    3b38:	b7 01       	movw	r22, r14
    3b3a:	8e e2       	ldi	r24, 0x2E	; 46
    3b3c:	90 e0       	ldi	r25, 0x00	; 0
    3b3e:	03 d4       	rcall	.+2054   	; 0x4346 <fputc>
    3b40:	1e 5f       	subi	r17, 0xFE	; 254
    3b42:	82 e0       	ldi	r24, 0x02	; 2
    3b44:	01 e0       	ldi	r16, 0x01	; 1
    3b46:	08 0f       	add	r16, r24
    3b48:	f3 01       	movw	r30, r6
    3b4a:	e8 0f       	add	r30, r24
    3b4c:	f1 1d       	adc	r31, r1
    3b4e:	80 81       	ld	r24, Z
    3b50:	b7 01       	movw	r22, r14
    3b52:	90 e0       	ldi	r25, 0x00	; 0
    3b54:	f8 d3       	rcall	.+2032   	; 0x4346 <fputc>
    3b56:	80 2f       	mov	r24, r16
    3b58:	01 13       	cpse	r16, r17
    3b5a:	f4 cf       	rjmp	.-24     	; 0x3b44 <vfprintf+0x380>
    3b5c:	e8 cf       	rjmp	.-48     	; 0x3b2e <vfprintf+0x36a>
    3b5e:	85 e4       	ldi	r24, 0x45	; 69
    3b60:	90 e0       	ldi	r25, 0x00	; 0
    3b62:	b7 01       	movw	r22, r14
    3b64:	f0 d3       	rcall	.+2016   	; 0x4346 <fputc>
    3b66:	d7 fc       	sbrc	r13, 7
    3b68:	06 c0       	rjmp	.+12     	; 0x3b76 <vfprintf+0x3b2>
    3b6a:	c1 14       	cp	r12, r1
    3b6c:	d1 04       	cpc	r13, r1
    3b6e:	41 f4       	brne	.+16     	; 0x3b80 <vfprintf+0x3bc>
    3b70:	ec 85       	ldd	r30, Y+12	; 0x0c
    3b72:	e4 ff       	sbrs	r30, 4
    3b74:	05 c0       	rjmp	.+10     	; 0x3b80 <vfprintf+0x3bc>
    3b76:	d1 94       	neg	r13
    3b78:	c1 94       	neg	r12
    3b7a:	d1 08       	sbc	r13, r1
    3b7c:	8d e2       	ldi	r24, 0x2D	; 45
    3b7e:	01 c0       	rjmp	.+2      	; 0x3b82 <vfprintf+0x3be>
    3b80:	8b e2       	ldi	r24, 0x2B	; 43
    3b82:	b7 01       	movw	r22, r14
    3b84:	90 e0       	ldi	r25, 0x00	; 0
    3b86:	df d3       	rcall	.+1982   	; 0x4346 <fputc>
    3b88:	80 e3       	ldi	r24, 0x30	; 48
    3b8a:	2a e0       	ldi	r18, 0x0A	; 10
    3b8c:	c2 16       	cp	r12, r18
    3b8e:	d1 04       	cpc	r13, r1
    3b90:	2c f0       	brlt	.+10     	; 0x3b9c <vfprintf+0x3d8>
    3b92:	8f 5f       	subi	r24, 0xFF	; 255
    3b94:	fa e0       	ldi	r31, 0x0A	; 10
    3b96:	cf 1a       	sub	r12, r31
    3b98:	d1 08       	sbc	r13, r1
    3b9a:	f7 cf       	rjmp	.-18     	; 0x3b8a <vfprintf+0x3c6>
    3b9c:	b7 01       	movw	r22, r14
    3b9e:	90 e0       	ldi	r25, 0x00	; 0
    3ba0:	d2 d3       	rcall	.+1956   	; 0x4346 <fputc>
    3ba2:	b7 01       	movw	r22, r14
    3ba4:	c6 01       	movw	r24, r12
    3ba6:	c0 96       	adiw	r24, 0x30	; 48
    3ba8:	ce d3       	rcall	.+1948   	; 0x4346 <fputc>
    3baa:	49 c1       	rjmp	.+658    	; 0x3e3e <vfprintf+0x67a>
    3bac:	83 36       	cpi	r24, 0x63	; 99
    3bae:	31 f0       	breq	.+12     	; 0x3bbc <vfprintf+0x3f8>
    3bb0:	83 37       	cpi	r24, 0x73	; 115
    3bb2:	79 f0       	breq	.+30     	; 0x3bd2 <vfprintf+0x40e>
    3bb4:	83 35       	cpi	r24, 0x53	; 83
    3bb6:	09 f0       	breq	.+2      	; 0x3bba <vfprintf+0x3f6>
    3bb8:	52 c0       	rjmp	.+164    	; 0x3c5e <vfprintf+0x49a>
    3bba:	1f c0       	rjmp	.+62     	; 0x3bfa <vfprintf+0x436>
    3bbc:	56 01       	movw	r10, r12
    3bbe:	32 e0       	ldi	r19, 0x02	; 2
    3bc0:	a3 0e       	add	r10, r19
    3bc2:	b1 1c       	adc	r11, r1
    3bc4:	f6 01       	movw	r30, r12
    3bc6:	80 81       	ld	r24, Z
    3bc8:	89 83       	std	Y+1, r24	; 0x01
    3bca:	01 e0       	ldi	r16, 0x01	; 1
    3bcc:	10 e0       	ldi	r17, 0x00	; 0
    3bce:	63 01       	movw	r12, r6
    3bd0:	11 c0       	rjmp	.+34     	; 0x3bf4 <vfprintf+0x430>
    3bd2:	56 01       	movw	r10, r12
    3bd4:	f2 e0       	ldi	r31, 0x02	; 2
    3bd6:	af 0e       	add	r10, r31
    3bd8:	b1 1c       	adc	r11, r1
    3bda:	f6 01       	movw	r30, r12
    3bdc:	c0 80       	ld	r12, Z
    3bde:	d1 80       	ldd	r13, Z+1	; 0x01
    3be0:	96 fe       	sbrs	r9, 6
    3be2:	03 c0       	rjmp	.+6      	; 0x3bea <vfprintf+0x426>
    3be4:	61 2f       	mov	r22, r17
    3be6:	70 e0       	ldi	r23, 0x00	; 0
    3be8:	02 c0       	rjmp	.+4      	; 0x3bee <vfprintf+0x42a>
    3bea:	6f ef       	ldi	r22, 0xFF	; 255
    3bec:	7f ef       	ldi	r23, 0xFF	; 255
    3bee:	c6 01       	movw	r24, r12
    3bf0:	55 d3       	rcall	.+1706   	; 0x429c <strnlen>
    3bf2:	8c 01       	movw	r16, r24
    3bf4:	f9 2d       	mov	r31, r9
    3bf6:	ff 77       	andi	r31, 0x7F	; 127
    3bf8:	13 c0       	rjmp	.+38     	; 0x3c20 <vfprintf+0x45c>
    3bfa:	56 01       	movw	r10, r12
    3bfc:	22 e0       	ldi	r18, 0x02	; 2
    3bfe:	a2 0e       	add	r10, r18
    3c00:	b1 1c       	adc	r11, r1
    3c02:	f6 01       	movw	r30, r12
    3c04:	c0 80       	ld	r12, Z
    3c06:	d1 80       	ldd	r13, Z+1	; 0x01
    3c08:	96 fe       	sbrs	r9, 6
    3c0a:	03 c0       	rjmp	.+6      	; 0x3c12 <vfprintf+0x44e>
    3c0c:	61 2f       	mov	r22, r17
    3c0e:	70 e0       	ldi	r23, 0x00	; 0
    3c10:	02 c0       	rjmp	.+4      	; 0x3c16 <vfprintf+0x452>
    3c12:	6f ef       	ldi	r22, 0xFF	; 255
    3c14:	7f ef       	ldi	r23, 0xFF	; 255
    3c16:	c6 01       	movw	r24, r12
    3c18:	36 d3       	rcall	.+1644   	; 0x4286 <strnlen_P>
    3c1a:	8c 01       	movw	r16, r24
    3c1c:	f9 2d       	mov	r31, r9
    3c1e:	f0 68       	ori	r31, 0x80	; 128
    3c20:	9f 2e       	mov	r9, r31
    3c22:	f3 fd       	sbrc	r31, 3
    3c24:	18 c0       	rjmp	.+48     	; 0x3c56 <vfprintf+0x492>
    3c26:	85 2d       	mov	r24, r5
    3c28:	90 e0       	ldi	r25, 0x00	; 0
    3c2a:	08 17       	cp	r16, r24
    3c2c:	19 07       	cpc	r17, r25
    3c2e:	98 f4       	brcc	.+38     	; 0x3c56 <vfprintf+0x492>
    3c30:	b7 01       	movw	r22, r14
    3c32:	80 e2       	ldi	r24, 0x20	; 32
    3c34:	90 e0       	ldi	r25, 0x00	; 0
    3c36:	87 d3       	rcall	.+1806   	; 0x4346 <fputc>
    3c38:	5a 94       	dec	r5
    3c3a:	f5 cf       	rjmp	.-22     	; 0x3c26 <vfprintf+0x462>
    3c3c:	f6 01       	movw	r30, r12
    3c3e:	97 fc       	sbrc	r9, 7
    3c40:	85 91       	lpm	r24, Z+
    3c42:	97 fe       	sbrs	r9, 7
    3c44:	81 91       	ld	r24, Z+
    3c46:	6f 01       	movw	r12, r30
    3c48:	b7 01       	movw	r22, r14
    3c4a:	90 e0       	ldi	r25, 0x00	; 0
    3c4c:	7c d3       	rcall	.+1784   	; 0x4346 <fputc>
    3c4e:	51 10       	cpse	r5, r1
    3c50:	5a 94       	dec	r5
    3c52:	01 50       	subi	r16, 0x01	; 1
    3c54:	11 09       	sbc	r17, r1
    3c56:	01 15       	cp	r16, r1
    3c58:	11 05       	cpc	r17, r1
    3c5a:	81 f7       	brne	.-32     	; 0x3c3c <vfprintf+0x478>
    3c5c:	f0 c0       	rjmp	.+480    	; 0x3e3e <vfprintf+0x67a>
    3c5e:	84 36       	cpi	r24, 0x64	; 100
    3c60:	11 f0       	breq	.+4      	; 0x3c66 <vfprintf+0x4a2>
    3c62:	89 36       	cpi	r24, 0x69	; 105
    3c64:	59 f5       	brne	.+86     	; 0x3cbc <vfprintf+0x4f8>
    3c66:	56 01       	movw	r10, r12
    3c68:	97 fe       	sbrs	r9, 7
    3c6a:	09 c0       	rjmp	.+18     	; 0x3c7e <vfprintf+0x4ba>
    3c6c:	24 e0       	ldi	r18, 0x04	; 4
    3c6e:	a2 0e       	add	r10, r18
    3c70:	b1 1c       	adc	r11, r1
    3c72:	f6 01       	movw	r30, r12
    3c74:	60 81       	ld	r22, Z
    3c76:	71 81       	ldd	r23, Z+1	; 0x01
    3c78:	82 81       	ldd	r24, Z+2	; 0x02
    3c7a:	93 81       	ldd	r25, Z+3	; 0x03
    3c7c:	0a c0       	rjmp	.+20     	; 0x3c92 <vfprintf+0x4ce>
    3c7e:	f2 e0       	ldi	r31, 0x02	; 2
    3c80:	af 0e       	add	r10, r31
    3c82:	b1 1c       	adc	r11, r1
    3c84:	f6 01       	movw	r30, r12
    3c86:	60 81       	ld	r22, Z
    3c88:	71 81       	ldd	r23, Z+1	; 0x01
    3c8a:	07 2e       	mov	r0, r23
    3c8c:	00 0c       	add	r0, r0
    3c8e:	88 0b       	sbc	r24, r24
    3c90:	99 0b       	sbc	r25, r25
    3c92:	f9 2d       	mov	r31, r9
    3c94:	ff 76       	andi	r31, 0x6F	; 111
    3c96:	9f 2e       	mov	r9, r31
    3c98:	97 ff       	sbrs	r25, 7
    3c9a:	09 c0       	rjmp	.+18     	; 0x3cae <vfprintf+0x4ea>
    3c9c:	90 95       	com	r25
    3c9e:	80 95       	com	r24
    3ca0:	70 95       	com	r23
    3ca2:	61 95       	neg	r22
    3ca4:	7f 4f       	sbci	r23, 0xFF	; 255
    3ca6:	8f 4f       	sbci	r24, 0xFF	; 255
    3ca8:	9f 4f       	sbci	r25, 0xFF	; 255
    3caa:	f0 68       	ori	r31, 0x80	; 128
    3cac:	9f 2e       	mov	r9, r31
    3cae:	2a e0       	ldi	r18, 0x0A	; 10
    3cb0:	30 e0       	ldi	r19, 0x00	; 0
    3cb2:	a3 01       	movw	r20, r6
    3cb4:	c7 d3       	rcall	.+1934   	; 0x4444 <__ultoa_invert>
    3cb6:	c8 2e       	mov	r12, r24
    3cb8:	c6 18       	sub	r12, r6
    3cba:	3e c0       	rjmp	.+124    	; 0x3d38 <vfprintf+0x574>
    3cbc:	09 2d       	mov	r16, r9
    3cbe:	85 37       	cpi	r24, 0x75	; 117
    3cc0:	21 f4       	brne	.+8      	; 0x3cca <vfprintf+0x506>
    3cc2:	0f 7e       	andi	r16, 0xEF	; 239
    3cc4:	2a e0       	ldi	r18, 0x0A	; 10
    3cc6:	30 e0       	ldi	r19, 0x00	; 0
    3cc8:	1d c0       	rjmp	.+58     	; 0x3d04 <vfprintf+0x540>
    3cca:	09 7f       	andi	r16, 0xF9	; 249
    3ccc:	8f 36       	cpi	r24, 0x6F	; 111
    3cce:	91 f0       	breq	.+36     	; 0x3cf4 <vfprintf+0x530>
    3cd0:	18 f4       	brcc	.+6      	; 0x3cd8 <vfprintf+0x514>
    3cd2:	88 35       	cpi	r24, 0x58	; 88
    3cd4:	59 f0       	breq	.+22     	; 0x3cec <vfprintf+0x528>
    3cd6:	bc c0       	rjmp	.+376    	; 0x3e50 <vfprintf+0x68c>
    3cd8:	80 37       	cpi	r24, 0x70	; 112
    3cda:	19 f0       	breq	.+6      	; 0x3ce2 <vfprintf+0x51e>
    3cdc:	88 37       	cpi	r24, 0x78	; 120
    3cde:	11 f0       	breq	.+4      	; 0x3ce4 <vfprintf+0x520>
    3ce0:	b7 c0       	rjmp	.+366    	; 0x3e50 <vfprintf+0x68c>
    3ce2:	00 61       	ori	r16, 0x10	; 16
    3ce4:	04 ff       	sbrs	r16, 4
    3ce6:	09 c0       	rjmp	.+18     	; 0x3cfa <vfprintf+0x536>
    3ce8:	04 60       	ori	r16, 0x04	; 4
    3cea:	07 c0       	rjmp	.+14     	; 0x3cfa <vfprintf+0x536>
    3cec:	94 fe       	sbrs	r9, 4
    3cee:	08 c0       	rjmp	.+16     	; 0x3d00 <vfprintf+0x53c>
    3cf0:	06 60       	ori	r16, 0x06	; 6
    3cf2:	06 c0       	rjmp	.+12     	; 0x3d00 <vfprintf+0x53c>
    3cf4:	28 e0       	ldi	r18, 0x08	; 8
    3cf6:	30 e0       	ldi	r19, 0x00	; 0
    3cf8:	05 c0       	rjmp	.+10     	; 0x3d04 <vfprintf+0x540>
    3cfa:	20 e1       	ldi	r18, 0x10	; 16
    3cfc:	30 e0       	ldi	r19, 0x00	; 0
    3cfe:	02 c0       	rjmp	.+4      	; 0x3d04 <vfprintf+0x540>
    3d00:	20 e1       	ldi	r18, 0x10	; 16
    3d02:	32 e0       	ldi	r19, 0x02	; 2
    3d04:	56 01       	movw	r10, r12
    3d06:	07 ff       	sbrs	r16, 7
    3d08:	09 c0       	rjmp	.+18     	; 0x3d1c <vfprintf+0x558>
    3d0a:	84 e0       	ldi	r24, 0x04	; 4
    3d0c:	a8 0e       	add	r10, r24
    3d0e:	b1 1c       	adc	r11, r1
    3d10:	f6 01       	movw	r30, r12
    3d12:	60 81       	ld	r22, Z
    3d14:	71 81       	ldd	r23, Z+1	; 0x01
    3d16:	82 81       	ldd	r24, Z+2	; 0x02
    3d18:	93 81       	ldd	r25, Z+3	; 0x03
    3d1a:	08 c0       	rjmp	.+16     	; 0x3d2c <vfprintf+0x568>
    3d1c:	f2 e0       	ldi	r31, 0x02	; 2
    3d1e:	af 0e       	add	r10, r31
    3d20:	b1 1c       	adc	r11, r1
    3d22:	f6 01       	movw	r30, r12
    3d24:	60 81       	ld	r22, Z
    3d26:	71 81       	ldd	r23, Z+1	; 0x01
    3d28:	80 e0       	ldi	r24, 0x00	; 0
    3d2a:	90 e0       	ldi	r25, 0x00	; 0
    3d2c:	a3 01       	movw	r20, r6
    3d2e:	8a d3       	rcall	.+1812   	; 0x4444 <__ultoa_invert>
    3d30:	c8 2e       	mov	r12, r24
    3d32:	c6 18       	sub	r12, r6
    3d34:	0f 77       	andi	r16, 0x7F	; 127
    3d36:	90 2e       	mov	r9, r16
    3d38:	96 fe       	sbrs	r9, 6
    3d3a:	0b c0       	rjmp	.+22     	; 0x3d52 <vfprintf+0x58e>
    3d3c:	09 2d       	mov	r16, r9
    3d3e:	0e 7f       	andi	r16, 0xFE	; 254
    3d40:	c1 16       	cp	r12, r17
    3d42:	50 f4       	brcc	.+20     	; 0x3d58 <vfprintf+0x594>
    3d44:	94 fe       	sbrs	r9, 4
    3d46:	0a c0       	rjmp	.+20     	; 0x3d5c <vfprintf+0x598>
    3d48:	92 fc       	sbrc	r9, 2
    3d4a:	08 c0       	rjmp	.+16     	; 0x3d5c <vfprintf+0x598>
    3d4c:	09 2d       	mov	r16, r9
    3d4e:	0e 7e       	andi	r16, 0xEE	; 238
    3d50:	05 c0       	rjmp	.+10     	; 0x3d5c <vfprintf+0x598>
    3d52:	dc 2c       	mov	r13, r12
    3d54:	09 2d       	mov	r16, r9
    3d56:	03 c0       	rjmp	.+6      	; 0x3d5e <vfprintf+0x59a>
    3d58:	dc 2c       	mov	r13, r12
    3d5a:	01 c0       	rjmp	.+2      	; 0x3d5e <vfprintf+0x59a>
    3d5c:	d1 2e       	mov	r13, r17
    3d5e:	04 ff       	sbrs	r16, 4
    3d60:	0d c0       	rjmp	.+26     	; 0x3d7c <vfprintf+0x5b8>
    3d62:	fe 01       	movw	r30, r28
    3d64:	ec 0d       	add	r30, r12
    3d66:	f1 1d       	adc	r31, r1
    3d68:	80 81       	ld	r24, Z
    3d6a:	80 33       	cpi	r24, 0x30	; 48
    3d6c:	11 f4       	brne	.+4      	; 0x3d72 <vfprintf+0x5ae>
    3d6e:	09 7e       	andi	r16, 0xE9	; 233
    3d70:	09 c0       	rjmp	.+18     	; 0x3d84 <vfprintf+0x5c0>
    3d72:	02 ff       	sbrs	r16, 2
    3d74:	06 c0       	rjmp	.+12     	; 0x3d82 <vfprintf+0x5be>
    3d76:	d3 94       	inc	r13
    3d78:	d3 94       	inc	r13
    3d7a:	04 c0       	rjmp	.+8      	; 0x3d84 <vfprintf+0x5c0>
    3d7c:	80 2f       	mov	r24, r16
    3d7e:	86 78       	andi	r24, 0x86	; 134
    3d80:	09 f0       	breq	.+2      	; 0x3d84 <vfprintf+0x5c0>
    3d82:	d3 94       	inc	r13
    3d84:	03 fd       	sbrc	r16, 3
    3d86:	10 c0       	rjmp	.+32     	; 0x3da8 <vfprintf+0x5e4>
    3d88:	00 ff       	sbrs	r16, 0
    3d8a:	06 c0       	rjmp	.+12     	; 0x3d98 <vfprintf+0x5d4>
    3d8c:	1c 2d       	mov	r17, r12
    3d8e:	d5 14       	cp	r13, r5
    3d90:	78 f4       	brcc	.+30     	; 0x3db0 <vfprintf+0x5ec>
    3d92:	15 0d       	add	r17, r5
    3d94:	1d 19       	sub	r17, r13
    3d96:	0c c0       	rjmp	.+24     	; 0x3db0 <vfprintf+0x5ec>
    3d98:	d5 14       	cp	r13, r5
    3d9a:	50 f4       	brcc	.+20     	; 0x3db0 <vfprintf+0x5ec>
    3d9c:	b7 01       	movw	r22, r14
    3d9e:	80 e2       	ldi	r24, 0x20	; 32
    3da0:	90 e0       	ldi	r25, 0x00	; 0
    3da2:	d1 d2       	rcall	.+1442   	; 0x4346 <fputc>
    3da4:	d3 94       	inc	r13
    3da6:	f8 cf       	rjmp	.-16     	; 0x3d98 <vfprintf+0x5d4>
    3da8:	d5 14       	cp	r13, r5
    3daa:	10 f4       	brcc	.+4      	; 0x3db0 <vfprintf+0x5ec>
    3dac:	5d 18       	sub	r5, r13
    3dae:	01 c0       	rjmp	.+2      	; 0x3db2 <vfprintf+0x5ee>
    3db0:	51 2c       	mov	r5, r1
    3db2:	04 ff       	sbrs	r16, 4
    3db4:	0f c0       	rjmp	.+30     	; 0x3dd4 <vfprintf+0x610>
    3db6:	b7 01       	movw	r22, r14
    3db8:	80 e3       	ldi	r24, 0x30	; 48
    3dba:	90 e0       	ldi	r25, 0x00	; 0
    3dbc:	c4 d2       	rcall	.+1416   	; 0x4346 <fputc>
    3dbe:	02 ff       	sbrs	r16, 2
    3dc0:	16 c0       	rjmp	.+44     	; 0x3dee <vfprintf+0x62a>
    3dc2:	01 fd       	sbrc	r16, 1
    3dc4:	03 c0       	rjmp	.+6      	; 0x3dcc <vfprintf+0x608>
    3dc6:	88 e7       	ldi	r24, 0x78	; 120
    3dc8:	90 e0       	ldi	r25, 0x00	; 0
    3dca:	02 c0       	rjmp	.+4      	; 0x3dd0 <vfprintf+0x60c>
    3dcc:	88 e5       	ldi	r24, 0x58	; 88
    3dce:	90 e0       	ldi	r25, 0x00	; 0
    3dd0:	b7 01       	movw	r22, r14
    3dd2:	0c c0       	rjmp	.+24     	; 0x3dec <vfprintf+0x628>
    3dd4:	80 2f       	mov	r24, r16
    3dd6:	86 78       	andi	r24, 0x86	; 134
    3dd8:	51 f0       	breq	.+20     	; 0x3dee <vfprintf+0x62a>
    3dda:	01 ff       	sbrs	r16, 1
    3ddc:	02 c0       	rjmp	.+4      	; 0x3de2 <vfprintf+0x61e>
    3dde:	8b e2       	ldi	r24, 0x2B	; 43
    3de0:	01 c0       	rjmp	.+2      	; 0x3de4 <vfprintf+0x620>
    3de2:	80 e2       	ldi	r24, 0x20	; 32
    3de4:	07 fd       	sbrc	r16, 7
    3de6:	8d e2       	ldi	r24, 0x2D	; 45
    3de8:	b7 01       	movw	r22, r14
    3dea:	90 e0       	ldi	r25, 0x00	; 0
    3dec:	ac d2       	rcall	.+1368   	; 0x4346 <fputc>
    3dee:	c1 16       	cp	r12, r17
    3df0:	30 f4       	brcc	.+12     	; 0x3dfe <vfprintf+0x63a>
    3df2:	b7 01       	movw	r22, r14
    3df4:	80 e3       	ldi	r24, 0x30	; 48
    3df6:	90 e0       	ldi	r25, 0x00	; 0
    3df8:	a6 d2       	rcall	.+1356   	; 0x4346 <fputc>
    3dfa:	11 50       	subi	r17, 0x01	; 1
    3dfc:	f8 cf       	rjmp	.-16     	; 0x3dee <vfprintf+0x62a>
    3dfe:	ca 94       	dec	r12
    3e00:	f3 01       	movw	r30, r6
    3e02:	ec 0d       	add	r30, r12
    3e04:	f1 1d       	adc	r31, r1
    3e06:	80 81       	ld	r24, Z
    3e08:	b7 01       	movw	r22, r14
    3e0a:	90 e0       	ldi	r25, 0x00	; 0
    3e0c:	9c d2       	rcall	.+1336   	; 0x4346 <fputc>
    3e0e:	c1 10       	cpse	r12, r1
    3e10:	f6 cf       	rjmp	.-20     	; 0x3dfe <vfprintf+0x63a>
    3e12:	15 c0       	rjmp	.+42     	; 0x3e3e <vfprintf+0x67a>
    3e14:	f4 e0       	ldi	r31, 0x04	; 4
    3e16:	f5 15       	cp	r31, r5
    3e18:	50 f5       	brcc	.+84     	; 0x3e6e <vfprintf+0x6aa>
    3e1a:	84 e0       	ldi	r24, 0x04	; 4
    3e1c:	58 1a       	sub	r5, r24
    3e1e:	93 fe       	sbrs	r9, 3
    3e20:	1e c0       	rjmp	.+60     	; 0x3e5e <vfprintf+0x69a>
    3e22:	01 11       	cpse	r16, r1
    3e24:	25 c0       	rjmp	.+74     	; 0x3e70 <vfprintf+0x6ac>
    3e26:	2c 85       	ldd	r18, Y+12	; 0x0c
    3e28:	23 ff       	sbrs	r18, 3
    3e2a:	27 c0       	rjmp	.+78     	; 0x3e7a <vfprintf+0x6b6>
    3e2c:	0c ef       	ldi	r16, 0xFC	; 252
    3e2e:	12 e0       	ldi	r17, 0x02	; 2
    3e30:	39 2d       	mov	r19, r9
    3e32:	30 71       	andi	r19, 0x10	; 16
    3e34:	93 2e       	mov	r9, r19
    3e36:	f8 01       	movw	r30, r16
    3e38:	84 91       	lpm	r24, Z
    3e3a:	81 11       	cpse	r24, r1
    3e3c:	21 c0       	rjmp	.+66     	; 0x3e80 <vfprintf+0x6bc>
    3e3e:	55 20       	and	r5, r5
    3e40:	09 f4       	brne	.+2      	; 0x3e44 <vfprintf+0x680>
    3e42:	fc cc       	rjmp	.-1544   	; 0x383c <vfprintf+0x78>
    3e44:	b7 01       	movw	r22, r14
    3e46:	80 e2       	ldi	r24, 0x20	; 32
    3e48:	90 e0       	ldi	r25, 0x00	; 0
    3e4a:	7d d2       	rcall	.+1274   	; 0x4346 <fputc>
    3e4c:	5a 94       	dec	r5
    3e4e:	f7 cf       	rjmp	.-18     	; 0x3e3e <vfprintf+0x67a>
    3e50:	f7 01       	movw	r30, r14
    3e52:	86 81       	ldd	r24, Z+6	; 0x06
    3e54:	97 81       	ldd	r25, Z+7	; 0x07
    3e56:	23 c0       	rjmp	.+70     	; 0x3e9e <vfprintf+0x6da>
    3e58:	8f ef       	ldi	r24, 0xFF	; 255
    3e5a:	9f ef       	ldi	r25, 0xFF	; 255
    3e5c:	20 c0       	rjmp	.+64     	; 0x3e9e <vfprintf+0x6da>
    3e5e:	b7 01       	movw	r22, r14
    3e60:	80 e2       	ldi	r24, 0x20	; 32
    3e62:	90 e0       	ldi	r25, 0x00	; 0
    3e64:	70 d2       	rcall	.+1248   	; 0x4346 <fputc>
    3e66:	5a 94       	dec	r5
    3e68:	51 10       	cpse	r5, r1
    3e6a:	f9 cf       	rjmp	.-14     	; 0x3e5e <vfprintf+0x69a>
    3e6c:	da cf       	rjmp	.-76     	; 0x3e22 <vfprintf+0x65e>
    3e6e:	51 2c       	mov	r5, r1
    3e70:	b7 01       	movw	r22, r14
    3e72:	80 2f       	mov	r24, r16
    3e74:	90 e0       	ldi	r25, 0x00	; 0
    3e76:	67 d2       	rcall	.+1230   	; 0x4346 <fputc>
    3e78:	d6 cf       	rjmp	.-84     	; 0x3e26 <vfprintf+0x662>
    3e7a:	00 e0       	ldi	r16, 0x00	; 0
    3e7c:	13 e0       	ldi	r17, 0x03	; 3
    3e7e:	d8 cf       	rjmp	.-80     	; 0x3e30 <vfprintf+0x66c>
    3e80:	91 10       	cpse	r9, r1
    3e82:	80 52       	subi	r24, 0x20	; 32
    3e84:	b7 01       	movw	r22, r14
    3e86:	90 e0       	ldi	r25, 0x00	; 0
    3e88:	5e d2       	rcall	.+1212   	; 0x4346 <fputc>
    3e8a:	0f 5f       	subi	r16, 0xFF	; 255
    3e8c:	1f 4f       	sbci	r17, 0xFF	; 255
    3e8e:	d3 cf       	rjmp	.-90     	; 0x3e36 <vfprintf+0x672>
    3e90:	23 e0       	ldi	r18, 0x03	; 3
    3e92:	25 15       	cp	r18, r5
    3e94:	10 f4       	brcc	.+4      	; 0x3e9a <vfprintf+0x6d6>
    3e96:	83 e0       	ldi	r24, 0x03	; 3
    3e98:	c1 cf       	rjmp	.-126    	; 0x3e1c <vfprintf+0x658>
    3e9a:	51 2c       	mov	r5, r1
    3e9c:	c4 cf       	rjmp	.-120    	; 0x3e26 <vfprintf+0x662>
    3e9e:	60 96       	adiw	r28, 0x10	; 16
    3ea0:	cd bf       	out	0x3d, r28	; 61
    3ea2:	de bf       	out	0x3e, r29	; 62
    3ea4:	df 91       	pop	r29
    3ea6:	cf 91       	pop	r28
    3ea8:	1f 91       	pop	r17
    3eaa:	0f 91       	pop	r16
    3eac:	ff 90       	pop	r15
    3eae:	ef 90       	pop	r14
    3eb0:	df 90       	pop	r13
    3eb2:	cf 90       	pop	r12
    3eb4:	bf 90       	pop	r11
    3eb6:	af 90       	pop	r10
    3eb8:	9f 90       	pop	r9
    3eba:	8f 90       	pop	r8
    3ebc:	7f 90       	pop	r7
    3ebe:	6f 90       	pop	r6
    3ec0:	5f 90       	pop	r5
    3ec2:	4f 90       	pop	r4
    3ec4:	3f 90       	pop	r3
    3ec6:	2f 90       	pop	r2
    3ec8:	08 95       	ret

00003eca <__udivmodsi4>:
    3eca:	a1 e2       	ldi	r26, 0x21	; 33
    3ecc:	1a 2e       	mov	r1, r26
    3ece:	aa 1b       	sub	r26, r26
    3ed0:	bb 1b       	sub	r27, r27
    3ed2:	fd 01       	movw	r30, r26
    3ed4:	0d c0       	rjmp	.+26     	; 0x3ef0 <__udivmodsi4_ep>

00003ed6 <__udivmodsi4_loop>:
    3ed6:	aa 1f       	adc	r26, r26
    3ed8:	bb 1f       	adc	r27, r27
    3eda:	ee 1f       	adc	r30, r30
    3edc:	ff 1f       	adc	r31, r31
    3ede:	a2 17       	cp	r26, r18
    3ee0:	b3 07       	cpc	r27, r19
    3ee2:	e4 07       	cpc	r30, r20
    3ee4:	f5 07       	cpc	r31, r21
    3ee6:	20 f0       	brcs	.+8      	; 0x3ef0 <__udivmodsi4_ep>
    3ee8:	a2 1b       	sub	r26, r18
    3eea:	b3 0b       	sbc	r27, r19
    3eec:	e4 0b       	sbc	r30, r20
    3eee:	f5 0b       	sbc	r31, r21

00003ef0 <__udivmodsi4_ep>:
    3ef0:	66 1f       	adc	r22, r22
    3ef2:	77 1f       	adc	r23, r23
    3ef4:	88 1f       	adc	r24, r24
    3ef6:	99 1f       	adc	r25, r25
    3ef8:	1a 94       	dec	r1
    3efa:	69 f7       	brne	.-38     	; 0x3ed6 <__udivmodsi4_loop>
    3efc:	60 95       	com	r22
    3efe:	70 95       	com	r23
    3f00:	80 95       	com	r24
    3f02:	90 95       	com	r25
    3f04:	9b 01       	movw	r18, r22
    3f06:	ac 01       	movw	r20, r24
    3f08:	bd 01       	movw	r22, r26
    3f0a:	cf 01       	movw	r24, r30
    3f0c:	08 95       	ret

00003f0e <__divmodsi4>:
    3f0e:	05 2e       	mov	r0, r21
    3f10:	97 fb       	bst	r25, 7
    3f12:	16 f4       	brtc	.+4      	; 0x3f18 <__divmodsi4+0xa>
    3f14:	00 94       	com	r0
    3f16:	0f d0       	rcall	.+30     	; 0x3f36 <__negsi2>
    3f18:	57 fd       	sbrc	r21, 7
    3f1a:	05 d0       	rcall	.+10     	; 0x3f26 <__divmodsi4_neg2>
    3f1c:	d6 df       	rcall	.-84     	; 0x3eca <__udivmodsi4>
    3f1e:	07 fc       	sbrc	r0, 7
    3f20:	02 d0       	rcall	.+4      	; 0x3f26 <__divmodsi4_neg2>
    3f22:	46 f4       	brtc	.+16     	; 0x3f34 <__divmodsi4_exit>
    3f24:	08 c0       	rjmp	.+16     	; 0x3f36 <__negsi2>

00003f26 <__divmodsi4_neg2>:
    3f26:	50 95       	com	r21
    3f28:	40 95       	com	r20
    3f2a:	30 95       	com	r19
    3f2c:	21 95       	neg	r18
    3f2e:	3f 4f       	sbci	r19, 0xFF	; 255
    3f30:	4f 4f       	sbci	r20, 0xFF	; 255
    3f32:	5f 4f       	sbci	r21, 0xFF	; 255

00003f34 <__divmodsi4_exit>:
    3f34:	08 95       	ret

00003f36 <__negsi2>:
    3f36:	90 95       	com	r25
    3f38:	80 95       	com	r24
    3f3a:	70 95       	com	r23
    3f3c:	61 95       	neg	r22
    3f3e:	7f 4f       	sbci	r23, 0xFF	; 255
    3f40:	8f 4f       	sbci	r24, 0xFF	; 255
    3f42:	9f 4f       	sbci	r25, 0xFF	; 255
    3f44:	08 95       	ret

00003f46 <__tablejump2__>:
    3f46:	ee 0f       	add	r30, r30
    3f48:	ff 1f       	adc	r31, r31
    3f4a:	88 1f       	adc	r24, r24
    3f4c:	8b bf       	out	0x3b, r24	; 59
    3f4e:	07 90       	elpm	r0, Z+
    3f50:	f6 91       	elpm	r31, Z
    3f52:	e0 2d       	mov	r30, r0
    3f54:	1b be       	out	0x3b, r1	; 59
    3f56:	19 94       	eijmp

00003f58 <__muluhisi3>:
    3f58:	af d0       	rcall	.+350    	; 0x40b8 <__umulhisi3>
    3f5a:	a5 9f       	mul	r26, r21
    3f5c:	90 0d       	add	r25, r0
    3f5e:	b4 9f       	mul	r27, r20
    3f60:	90 0d       	add	r25, r0
    3f62:	a4 9f       	mul	r26, r20
    3f64:	80 0d       	add	r24, r0
    3f66:	91 1d       	adc	r25, r1
    3f68:	11 24       	eor	r1, r1
    3f6a:	08 95       	ret

00003f6c <__muldi3>:
    3f6c:	df 93       	push	r29
    3f6e:	cf 93       	push	r28
    3f70:	1f 93       	push	r17
    3f72:	0f 93       	push	r16
    3f74:	9a 9d       	mul	r25, r10
    3f76:	f0 2d       	mov	r31, r0
    3f78:	21 9f       	mul	r18, r17
    3f7a:	f0 0d       	add	r31, r0
    3f7c:	8b 9d       	mul	r24, r11
    3f7e:	f0 0d       	add	r31, r0
    3f80:	8a 9d       	mul	r24, r10
    3f82:	e0 2d       	mov	r30, r0
    3f84:	f1 0d       	add	r31, r1
    3f86:	03 9f       	mul	r16, r19
    3f88:	f0 0d       	add	r31, r0
    3f8a:	02 9f       	mul	r16, r18
    3f8c:	e0 0d       	add	r30, r0
    3f8e:	f1 1d       	adc	r31, r1
    3f90:	4e 9d       	mul	r20, r14
    3f92:	e0 0d       	add	r30, r0
    3f94:	f1 1d       	adc	r31, r1
    3f96:	5e 9d       	mul	r21, r14
    3f98:	f0 0d       	add	r31, r0
    3f9a:	4f 9d       	mul	r20, r15
    3f9c:	f0 0d       	add	r31, r0
    3f9e:	7f 93       	push	r23
    3fa0:	6f 93       	push	r22
    3fa2:	bf 92       	push	r11
    3fa4:	af 92       	push	r10
    3fa6:	5f 93       	push	r21
    3fa8:	4f 93       	push	r20
    3faa:	d5 01       	movw	r26, r10
    3fac:	85 d0       	rcall	.+266    	; 0x40b8 <__umulhisi3>
    3fae:	8b 01       	movw	r16, r22
    3fb0:	ac 01       	movw	r20, r24
    3fb2:	d7 01       	movw	r26, r14
    3fb4:	81 d0       	rcall	.+258    	; 0x40b8 <__umulhisi3>
    3fb6:	eb 01       	movw	r28, r22
    3fb8:	e8 0f       	add	r30, r24
    3fba:	f9 1f       	adc	r31, r25
    3fbc:	d6 01       	movw	r26, r12
    3fbe:	1f d0       	rcall	.+62     	; 0x3ffe <__muldi3_6>
    3fc0:	2f 91       	pop	r18
    3fc2:	3f 91       	pop	r19
    3fc4:	d6 01       	movw	r26, r12
    3fc6:	78 d0       	rcall	.+240    	; 0x40b8 <__umulhisi3>
    3fc8:	c6 0f       	add	r28, r22
    3fca:	d7 1f       	adc	r29, r23
    3fcc:	e8 1f       	adc	r30, r24
    3fce:	f9 1f       	adc	r31, r25
    3fd0:	af 91       	pop	r26
    3fd2:	bf 91       	pop	r27
    3fd4:	14 d0       	rcall	.+40     	; 0x3ffe <__muldi3_6>
    3fd6:	2f 91       	pop	r18
    3fd8:	3f 91       	pop	r19
    3fda:	6e d0       	rcall	.+220    	; 0x40b8 <__umulhisi3>
    3fdc:	c6 0f       	add	r28, r22
    3fde:	d7 1f       	adc	r29, r23
    3fe0:	e8 1f       	adc	r30, r24
    3fe2:	f9 1f       	adc	r31, r25
    3fe4:	d6 01       	movw	r26, r12
    3fe6:	68 d0       	rcall	.+208    	; 0x40b8 <__umulhisi3>
    3fe8:	e6 0f       	add	r30, r22
    3fea:	f7 1f       	adc	r31, r23
    3fec:	98 01       	movw	r18, r16
    3fee:	be 01       	movw	r22, r28
    3ff0:	cf 01       	movw	r24, r30
    3ff2:	11 24       	eor	r1, r1
    3ff4:	0f 91       	pop	r16
    3ff6:	1f 91       	pop	r17
    3ff8:	cf 91       	pop	r28
    3ffa:	df 91       	pop	r29
    3ffc:	08 95       	ret

00003ffe <__muldi3_6>:
    3ffe:	5c d0       	rcall	.+184    	; 0x40b8 <__umulhisi3>
    4000:	46 0f       	add	r20, r22
    4002:	57 1f       	adc	r21, r23
    4004:	c8 1f       	adc	r28, r24
    4006:	d9 1f       	adc	r29, r25
    4008:	08 f4       	brcc	.+2      	; 0x400c <__stack+0xd>
    400a:	31 96       	adiw	r30, 0x01	; 1
    400c:	08 95       	ret

0000400e <__ashldi3>:
    400e:	0f 93       	push	r16
    4010:	08 30       	cpi	r16, 0x08	; 8
    4012:	90 f0       	brcs	.+36     	; 0x4038 <__ashldi3+0x2a>
    4014:	98 2f       	mov	r25, r24
    4016:	87 2f       	mov	r24, r23
    4018:	76 2f       	mov	r23, r22
    401a:	65 2f       	mov	r22, r21
    401c:	54 2f       	mov	r21, r20
    401e:	43 2f       	mov	r20, r19
    4020:	32 2f       	mov	r19, r18
    4022:	22 27       	eor	r18, r18
    4024:	08 50       	subi	r16, 0x08	; 8
    4026:	f4 cf       	rjmp	.-24     	; 0x4010 <__ashldi3+0x2>
    4028:	22 0f       	add	r18, r18
    402a:	33 1f       	adc	r19, r19
    402c:	44 1f       	adc	r20, r20
    402e:	55 1f       	adc	r21, r21
    4030:	66 1f       	adc	r22, r22
    4032:	77 1f       	adc	r23, r23
    4034:	88 1f       	adc	r24, r24
    4036:	99 1f       	adc	r25, r25
    4038:	0a 95       	dec	r16
    403a:	b2 f7       	brpl	.-20     	; 0x4028 <__ashldi3+0x1a>
    403c:	0f 91       	pop	r16
    403e:	08 95       	ret

00004040 <__ashrdi3>:
    4040:	97 fb       	bst	r25, 7
    4042:	10 f8       	bld	r1, 0

00004044 <__lshrdi3>:
    4044:	16 94       	lsr	r1
    4046:	00 08       	sbc	r0, r0
    4048:	0f 93       	push	r16
    404a:	08 30       	cpi	r16, 0x08	; 8
    404c:	98 f0       	brcs	.+38     	; 0x4074 <__lshrdi3+0x30>
    404e:	08 50       	subi	r16, 0x08	; 8
    4050:	23 2f       	mov	r18, r19
    4052:	34 2f       	mov	r19, r20
    4054:	45 2f       	mov	r20, r21
    4056:	56 2f       	mov	r21, r22
    4058:	67 2f       	mov	r22, r23
    405a:	78 2f       	mov	r23, r24
    405c:	89 2f       	mov	r24, r25
    405e:	90 2d       	mov	r25, r0
    4060:	f4 cf       	rjmp	.-24     	; 0x404a <__lshrdi3+0x6>
    4062:	05 94       	asr	r0
    4064:	97 95       	ror	r25
    4066:	87 95       	ror	r24
    4068:	77 95       	ror	r23
    406a:	67 95       	ror	r22
    406c:	57 95       	ror	r21
    406e:	47 95       	ror	r20
    4070:	37 95       	ror	r19
    4072:	27 95       	ror	r18
    4074:	0a 95       	dec	r16
    4076:	aa f7       	brpl	.-22     	; 0x4062 <__lshrdi3+0x1e>
    4078:	0f 91       	pop	r16
    407a:	08 95       	ret

0000407c <__adddi3>:
    407c:	2a 0d       	add	r18, r10
    407e:	3b 1d       	adc	r19, r11
    4080:	4c 1d       	adc	r20, r12
    4082:	5d 1d       	adc	r21, r13
    4084:	6e 1d       	adc	r22, r14
    4086:	7f 1d       	adc	r23, r15
    4088:	80 1f       	adc	r24, r16
    408a:	91 1f       	adc	r25, r17
    408c:	08 95       	ret

0000408e <__subdi3>:
    408e:	2a 19       	sub	r18, r10
    4090:	3b 09       	sbc	r19, r11
    4092:	4c 09       	sbc	r20, r12
    4094:	5d 09       	sbc	r21, r13
    4096:	6e 09       	sbc	r22, r14
    4098:	7f 09       	sbc	r23, r15
    409a:	80 0b       	sbc	r24, r16
    409c:	91 0b       	sbc	r25, r17
    409e:	08 95       	ret

000040a0 <__cmpdi2_s8>:
    40a0:	00 24       	eor	r0, r0
    40a2:	a7 fd       	sbrc	r26, 7
    40a4:	00 94       	com	r0
    40a6:	2a 17       	cp	r18, r26
    40a8:	30 05       	cpc	r19, r0
    40aa:	40 05       	cpc	r20, r0
    40ac:	50 05       	cpc	r21, r0
    40ae:	60 05       	cpc	r22, r0
    40b0:	70 05       	cpc	r23, r0
    40b2:	80 05       	cpc	r24, r0
    40b4:	90 05       	cpc	r25, r0
    40b6:	08 95       	ret

000040b8 <__umulhisi3>:
    40b8:	a2 9f       	mul	r26, r18
    40ba:	b0 01       	movw	r22, r0
    40bc:	b3 9f       	mul	r27, r19
    40be:	c0 01       	movw	r24, r0
    40c0:	a3 9f       	mul	r26, r19
    40c2:	70 0d       	add	r23, r0
    40c4:	81 1d       	adc	r24, r1
    40c6:	11 24       	eor	r1, r1
    40c8:	91 1d       	adc	r25, r1
    40ca:	b2 9f       	mul	r27, r18
    40cc:	70 0d       	add	r23, r0
    40ce:	81 1d       	adc	r24, r1
    40d0:	11 24       	eor	r1, r1
    40d2:	91 1d       	adc	r25, r1
    40d4:	08 95       	ret

000040d6 <__ftoa_engine>:
    40d6:	28 30       	cpi	r18, 0x08	; 8
    40d8:	08 f0       	brcs	.+2      	; 0x40dc <__ftoa_engine+0x6>
    40da:	27 e0       	ldi	r18, 0x07	; 7
    40dc:	33 27       	eor	r19, r19
    40de:	da 01       	movw	r26, r20
    40e0:	99 0f       	add	r25, r25
    40e2:	31 1d       	adc	r19, r1
    40e4:	87 fd       	sbrc	r24, 7
    40e6:	91 60       	ori	r25, 0x01	; 1
    40e8:	00 96       	adiw	r24, 0x00	; 0
    40ea:	61 05       	cpc	r22, r1
    40ec:	71 05       	cpc	r23, r1
    40ee:	39 f4       	brne	.+14     	; 0x40fe <__ftoa_engine+0x28>
    40f0:	32 60       	ori	r19, 0x02	; 2
    40f2:	2e 5f       	subi	r18, 0xFE	; 254
    40f4:	3d 93       	st	X+, r19
    40f6:	30 e3       	ldi	r19, 0x30	; 48
    40f8:	2a 95       	dec	r18
    40fa:	e1 f7       	brne	.-8      	; 0x40f4 <__ftoa_engine+0x1e>
    40fc:	08 95       	ret
    40fe:	9f 3f       	cpi	r25, 0xFF	; 255
    4100:	30 f0       	brcs	.+12     	; 0x410e <__ftoa_engine+0x38>
    4102:	80 38       	cpi	r24, 0x80	; 128
    4104:	71 05       	cpc	r23, r1
    4106:	61 05       	cpc	r22, r1
    4108:	09 f0       	breq	.+2      	; 0x410c <__ftoa_engine+0x36>
    410a:	3c 5f       	subi	r19, 0xFC	; 252
    410c:	3c 5f       	subi	r19, 0xFC	; 252
    410e:	3d 93       	st	X+, r19
    4110:	91 30       	cpi	r25, 0x01	; 1
    4112:	08 f0       	brcs	.+2      	; 0x4116 <__ftoa_engine+0x40>
    4114:	80 68       	ori	r24, 0x80	; 128
    4116:	91 1d       	adc	r25, r1
    4118:	df 93       	push	r29
    411a:	cf 93       	push	r28
    411c:	1f 93       	push	r17
    411e:	0f 93       	push	r16
    4120:	ff 92       	push	r15
    4122:	ef 92       	push	r14
    4124:	19 2f       	mov	r17, r25
    4126:	98 7f       	andi	r25, 0xF8	; 248
    4128:	96 95       	lsr	r25
    412a:	e9 2f       	mov	r30, r25
    412c:	96 95       	lsr	r25
    412e:	96 95       	lsr	r25
    4130:	e9 0f       	add	r30, r25
    4132:	ff 27       	eor	r31, r31
    4134:	e2 5a       	subi	r30, 0xA2	; 162
    4136:	fc 4f       	sbci	r31, 0xFC	; 252
    4138:	99 27       	eor	r25, r25
    413a:	33 27       	eor	r19, r19
    413c:	ee 24       	eor	r14, r14
    413e:	ff 24       	eor	r15, r15
    4140:	a7 01       	movw	r20, r14
    4142:	e7 01       	movw	r28, r14
    4144:	05 90       	lpm	r0, Z+
    4146:	08 94       	sec
    4148:	07 94       	ror	r0
    414a:	28 f4       	brcc	.+10     	; 0x4156 <__ftoa_engine+0x80>
    414c:	36 0f       	add	r19, r22
    414e:	e7 1e       	adc	r14, r23
    4150:	f8 1e       	adc	r15, r24
    4152:	49 1f       	adc	r20, r25
    4154:	51 1d       	adc	r21, r1
    4156:	66 0f       	add	r22, r22
    4158:	77 1f       	adc	r23, r23
    415a:	88 1f       	adc	r24, r24
    415c:	99 1f       	adc	r25, r25
    415e:	06 94       	lsr	r0
    4160:	a1 f7       	brne	.-24     	; 0x414a <__ftoa_engine+0x74>
    4162:	05 90       	lpm	r0, Z+
    4164:	07 94       	ror	r0
    4166:	28 f4       	brcc	.+10     	; 0x4172 <__ftoa_engine+0x9c>
    4168:	e7 0e       	add	r14, r23
    416a:	f8 1e       	adc	r15, r24
    416c:	49 1f       	adc	r20, r25
    416e:	56 1f       	adc	r21, r22
    4170:	c1 1d       	adc	r28, r1
    4172:	77 0f       	add	r23, r23
    4174:	88 1f       	adc	r24, r24
    4176:	99 1f       	adc	r25, r25
    4178:	66 1f       	adc	r22, r22
    417a:	06 94       	lsr	r0
    417c:	a1 f7       	brne	.-24     	; 0x4166 <__ftoa_engine+0x90>
    417e:	05 90       	lpm	r0, Z+
    4180:	07 94       	ror	r0
    4182:	28 f4       	brcc	.+10     	; 0x418e <__ftoa_engine+0xb8>
    4184:	f8 0e       	add	r15, r24
    4186:	49 1f       	adc	r20, r25
    4188:	56 1f       	adc	r21, r22
    418a:	c7 1f       	adc	r28, r23
    418c:	d1 1d       	adc	r29, r1
    418e:	88 0f       	add	r24, r24
    4190:	99 1f       	adc	r25, r25
    4192:	66 1f       	adc	r22, r22
    4194:	77 1f       	adc	r23, r23
    4196:	06 94       	lsr	r0
    4198:	a1 f7       	brne	.-24     	; 0x4182 <__ftoa_engine+0xac>
    419a:	05 90       	lpm	r0, Z+
    419c:	07 94       	ror	r0
    419e:	20 f4       	brcc	.+8      	; 0x41a8 <__ftoa_engine+0xd2>
    41a0:	49 0f       	add	r20, r25
    41a2:	56 1f       	adc	r21, r22
    41a4:	c7 1f       	adc	r28, r23
    41a6:	d8 1f       	adc	r29, r24
    41a8:	99 0f       	add	r25, r25
    41aa:	66 1f       	adc	r22, r22
    41ac:	77 1f       	adc	r23, r23
    41ae:	88 1f       	adc	r24, r24
    41b0:	06 94       	lsr	r0
    41b2:	a9 f7       	brne	.-22     	; 0x419e <__ftoa_engine+0xc8>
    41b4:	84 91       	lpm	r24, Z
    41b6:	10 95       	com	r17
    41b8:	17 70       	andi	r17, 0x07	; 7
    41ba:	41 f0       	breq	.+16     	; 0x41cc <__ftoa_engine+0xf6>
    41bc:	d6 95       	lsr	r29
    41be:	c7 95       	ror	r28
    41c0:	57 95       	ror	r21
    41c2:	47 95       	ror	r20
    41c4:	f7 94       	ror	r15
    41c6:	e7 94       	ror	r14
    41c8:	1a 95       	dec	r17
    41ca:	c1 f7       	brne	.-16     	; 0x41bc <__ftoa_engine+0xe6>
    41cc:	e4 e0       	ldi	r30, 0x04	; 4
    41ce:	f3 e0       	ldi	r31, 0x03	; 3
    41d0:	68 94       	set
    41d2:	15 90       	lpm	r1, Z+
    41d4:	15 91       	lpm	r17, Z+
    41d6:	35 91       	lpm	r19, Z+
    41d8:	65 91       	lpm	r22, Z+
    41da:	95 91       	lpm	r25, Z+
    41dc:	05 90       	lpm	r0, Z+
    41de:	7f e2       	ldi	r23, 0x2F	; 47
    41e0:	73 95       	inc	r23
    41e2:	e1 18       	sub	r14, r1
    41e4:	f1 0a       	sbc	r15, r17
    41e6:	43 0b       	sbc	r20, r19
    41e8:	56 0b       	sbc	r21, r22
    41ea:	c9 0b       	sbc	r28, r25
    41ec:	d0 09       	sbc	r29, r0
    41ee:	c0 f7       	brcc	.-16     	; 0x41e0 <__ftoa_engine+0x10a>
    41f0:	e1 0c       	add	r14, r1
    41f2:	f1 1e       	adc	r15, r17
    41f4:	43 1f       	adc	r20, r19
    41f6:	56 1f       	adc	r21, r22
    41f8:	c9 1f       	adc	r28, r25
    41fa:	d0 1d       	adc	r29, r0
    41fc:	7e f4       	brtc	.+30     	; 0x421c <__ftoa_engine+0x146>
    41fe:	70 33       	cpi	r23, 0x30	; 48
    4200:	11 f4       	brne	.+4      	; 0x4206 <__ftoa_engine+0x130>
    4202:	8a 95       	dec	r24
    4204:	e6 cf       	rjmp	.-52     	; 0x41d2 <__ftoa_engine+0xfc>
    4206:	e8 94       	clt
    4208:	01 50       	subi	r16, 0x01	; 1
    420a:	30 f0       	brcs	.+12     	; 0x4218 <__ftoa_engine+0x142>
    420c:	08 0f       	add	r16, r24
    420e:	0a f4       	brpl	.+2      	; 0x4212 <__ftoa_engine+0x13c>
    4210:	00 27       	eor	r16, r16
    4212:	02 17       	cp	r16, r18
    4214:	08 f4       	brcc	.+2      	; 0x4218 <__ftoa_engine+0x142>
    4216:	20 2f       	mov	r18, r16
    4218:	23 95       	inc	r18
    421a:	02 2f       	mov	r16, r18
    421c:	7a 33       	cpi	r23, 0x3A	; 58
    421e:	28 f0       	brcs	.+10     	; 0x422a <__ftoa_engine+0x154>
    4220:	79 e3       	ldi	r23, 0x39	; 57
    4222:	7d 93       	st	X+, r23
    4224:	2a 95       	dec	r18
    4226:	e9 f7       	brne	.-6      	; 0x4222 <__ftoa_engine+0x14c>
    4228:	10 c0       	rjmp	.+32     	; 0x424a <__ftoa_engine+0x174>
    422a:	7d 93       	st	X+, r23
    422c:	2a 95       	dec	r18
    422e:	89 f6       	brne	.-94     	; 0x41d2 <__ftoa_engine+0xfc>
    4230:	06 94       	lsr	r0
    4232:	97 95       	ror	r25
    4234:	67 95       	ror	r22
    4236:	37 95       	ror	r19
    4238:	17 95       	ror	r17
    423a:	17 94       	ror	r1
    423c:	e1 18       	sub	r14, r1
    423e:	f1 0a       	sbc	r15, r17
    4240:	43 0b       	sbc	r20, r19
    4242:	56 0b       	sbc	r21, r22
    4244:	c9 0b       	sbc	r28, r25
    4246:	d0 09       	sbc	r29, r0
    4248:	98 f0       	brcs	.+38     	; 0x4270 <__ftoa_engine+0x19a>
    424a:	23 95       	inc	r18
    424c:	7e 91       	ld	r23, -X
    424e:	73 95       	inc	r23
    4250:	7a 33       	cpi	r23, 0x3A	; 58
    4252:	08 f0       	brcs	.+2      	; 0x4256 <__ftoa_engine+0x180>
    4254:	70 e3       	ldi	r23, 0x30	; 48
    4256:	7c 93       	st	X, r23
    4258:	20 13       	cpse	r18, r16
    425a:	b8 f7       	brcc	.-18     	; 0x424a <__ftoa_engine+0x174>
    425c:	7e 91       	ld	r23, -X
    425e:	70 61       	ori	r23, 0x10	; 16
    4260:	7d 93       	st	X+, r23
    4262:	30 f0       	brcs	.+12     	; 0x4270 <__ftoa_engine+0x19a>
    4264:	83 95       	inc	r24
    4266:	71 e3       	ldi	r23, 0x31	; 49
    4268:	7d 93       	st	X+, r23
    426a:	70 e3       	ldi	r23, 0x30	; 48
    426c:	2a 95       	dec	r18
    426e:	e1 f7       	brne	.-8      	; 0x4268 <__ftoa_engine+0x192>
    4270:	11 24       	eor	r1, r1
    4272:	ef 90       	pop	r14
    4274:	ff 90       	pop	r15
    4276:	0f 91       	pop	r16
    4278:	1f 91       	pop	r17
    427a:	cf 91       	pop	r28
    427c:	df 91       	pop	r29
    427e:	99 27       	eor	r25, r25
    4280:	87 fd       	sbrc	r24, 7
    4282:	90 95       	com	r25
    4284:	08 95       	ret

00004286 <strnlen_P>:
    4286:	fc 01       	movw	r30, r24
    4288:	05 90       	lpm	r0, Z+
    428a:	61 50       	subi	r22, 0x01	; 1
    428c:	70 40       	sbci	r23, 0x00	; 0
    428e:	01 10       	cpse	r0, r1
    4290:	d8 f7       	brcc	.-10     	; 0x4288 <strnlen_P+0x2>
    4292:	80 95       	com	r24
    4294:	90 95       	com	r25
    4296:	8e 0f       	add	r24, r30
    4298:	9f 1f       	adc	r25, r31
    429a:	08 95       	ret

0000429c <strnlen>:
    429c:	fc 01       	movw	r30, r24
    429e:	61 50       	subi	r22, 0x01	; 1
    42a0:	70 40       	sbci	r23, 0x00	; 0
    42a2:	01 90       	ld	r0, Z+
    42a4:	01 10       	cpse	r0, r1
    42a6:	d8 f7       	brcc	.-10     	; 0x429e <strnlen+0x2>
    42a8:	80 95       	com	r24
    42aa:	90 95       	com	r25
    42ac:	8e 0f       	add	r24, r30
    42ae:	9f 1f       	adc	r25, r31
    42b0:	08 95       	ret

000042b2 <fdevopen>:
    42b2:	0f 93       	push	r16
    42b4:	1f 93       	push	r17
    42b6:	cf 93       	push	r28
    42b8:	df 93       	push	r29
    42ba:	00 97       	sbiw	r24, 0x00	; 0
    42bc:	31 f4       	brne	.+12     	; 0x42ca <fdevopen+0x18>
    42be:	61 15       	cp	r22, r1
    42c0:	71 05       	cpc	r23, r1
    42c2:	19 f4       	brne	.+6      	; 0x42ca <fdevopen+0x18>
    42c4:	80 e0       	ldi	r24, 0x00	; 0
    42c6:	90 e0       	ldi	r25, 0x00	; 0
    42c8:	39 c0       	rjmp	.+114    	; 0x433c <fdevopen+0x8a>
    42ca:	8b 01       	movw	r16, r22
    42cc:	ec 01       	movw	r28, r24
    42ce:	6e e0       	ldi	r22, 0x0E	; 14
    42d0:	70 e0       	ldi	r23, 0x00	; 0
    42d2:	81 e0       	ldi	r24, 0x01	; 1
    42d4:	90 e0       	ldi	r25, 0x00	; 0
    42d6:	14 d1       	rcall	.+552    	; 0x4500 <calloc>
    42d8:	fc 01       	movw	r30, r24
    42da:	89 2b       	or	r24, r25
    42dc:	99 f3       	breq	.-26     	; 0x42c4 <fdevopen+0x12>
    42de:	80 e8       	ldi	r24, 0x80	; 128
    42e0:	83 83       	std	Z+3, r24	; 0x03
    42e2:	01 15       	cp	r16, r1
    42e4:	11 05       	cpc	r17, r1
    42e6:	71 f0       	breq	.+28     	; 0x4304 <fdevopen+0x52>
    42e8:	02 87       	std	Z+10, r16	; 0x0a
    42ea:	13 87       	std	Z+11, r17	; 0x0b
    42ec:	81 e8       	ldi	r24, 0x81	; 129
    42ee:	83 83       	std	Z+3, r24	; 0x03
    42f0:	80 91 9c 21 	lds	r24, 0x219C	; 0x80219c <__iob>
    42f4:	90 91 9d 21 	lds	r25, 0x219D	; 0x80219d <__iob+0x1>
    42f8:	89 2b       	or	r24, r25
    42fa:	21 f4       	brne	.+8      	; 0x4304 <fdevopen+0x52>
    42fc:	e0 93 9c 21 	sts	0x219C, r30	; 0x80219c <__iob>
    4300:	f0 93 9d 21 	sts	0x219D, r31	; 0x80219d <__iob+0x1>
    4304:	20 97       	sbiw	r28, 0x00	; 0
    4306:	c9 f0       	breq	.+50     	; 0x433a <fdevopen+0x88>
    4308:	c0 87       	std	Z+8, r28	; 0x08
    430a:	d1 87       	std	Z+9, r29	; 0x09
    430c:	83 81       	ldd	r24, Z+3	; 0x03
    430e:	82 60       	ori	r24, 0x02	; 2
    4310:	83 83       	std	Z+3, r24	; 0x03
    4312:	80 91 9e 21 	lds	r24, 0x219E	; 0x80219e <__iob+0x2>
    4316:	90 91 9f 21 	lds	r25, 0x219F	; 0x80219f <__iob+0x3>
    431a:	89 2b       	or	r24, r25
    431c:	71 f4       	brne	.+28     	; 0x433a <fdevopen+0x88>
    431e:	e0 93 9e 21 	sts	0x219E, r30	; 0x80219e <__iob+0x2>
    4322:	f0 93 9f 21 	sts	0x219F, r31	; 0x80219f <__iob+0x3>
    4326:	80 91 a0 21 	lds	r24, 0x21A0	; 0x8021a0 <__iob+0x4>
    432a:	90 91 a1 21 	lds	r25, 0x21A1	; 0x8021a1 <__iob+0x5>
    432e:	89 2b       	or	r24, r25
    4330:	21 f4       	brne	.+8      	; 0x433a <fdevopen+0x88>
    4332:	e0 93 a0 21 	sts	0x21A0, r30	; 0x8021a0 <__iob+0x4>
    4336:	f0 93 a1 21 	sts	0x21A1, r31	; 0x8021a1 <__iob+0x5>
    433a:	cf 01       	movw	r24, r30
    433c:	df 91       	pop	r29
    433e:	cf 91       	pop	r28
    4340:	1f 91       	pop	r17
    4342:	0f 91       	pop	r16
    4344:	08 95       	ret

00004346 <fputc>:
    4346:	0f 93       	push	r16
    4348:	1f 93       	push	r17
    434a:	cf 93       	push	r28
    434c:	df 93       	push	r29
    434e:	fb 01       	movw	r30, r22
    4350:	23 81       	ldd	r18, Z+3	; 0x03
    4352:	21 fd       	sbrc	r18, 1
    4354:	03 c0       	rjmp	.+6      	; 0x435c <fputc+0x16>
    4356:	8f ef       	ldi	r24, 0xFF	; 255
    4358:	9f ef       	ldi	r25, 0xFF	; 255
    435a:	2c c0       	rjmp	.+88     	; 0x43b4 <fputc+0x6e>
    435c:	22 ff       	sbrs	r18, 2
    435e:	16 c0       	rjmp	.+44     	; 0x438c <fputc+0x46>
    4360:	46 81       	ldd	r20, Z+6	; 0x06
    4362:	57 81       	ldd	r21, Z+7	; 0x07
    4364:	24 81       	ldd	r18, Z+4	; 0x04
    4366:	35 81       	ldd	r19, Z+5	; 0x05
    4368:	42 17       	cp	r20, r18
    436a:	53 07       	cpc	r21, r19
    436c:	44 f4       	brge	.+16     	; 0x437e <fputc+0x38>
    436e:	a0 81       	ld	r26, Z
    4370:	b1 81       	ldd	r27, Z+1	; 0x01
    4372:	9d 01       	movw	r18, r26
    4374:	2f 5f       	subi	r18, 0xFF	; 255
    4376:	3f 4f       	sbci	r19, 0xFF	; 255
    4378:	20 83       	st	Z, r18
    437a:	31 83       	std	Z+1, r19	; 0x01
    437c:	8c 93       	st	X, r24
    437e:	26 81       	ldd	r18, Z+6	; 0x06
    4380:	37 81       	ldd	r19, Z+7	; 0x07
    4382:	2f 5f       	subi	r18, 0xFF	; 255
    4384:	3f 4f       	sbci	r19, 0xFF	; 255
    4386:	26 83       	std	Z+6, r18	; 0x06
    4388:	37 83       	std	Z+7, r19	; 0x07
    438a:	14 c0       	rjmp	.+40     	; 0x43b4 <fputc+0x6e>
    438c:	8b 01       	movw	r16, r22
    438e:	ec 01       	movw	r28, r24
    4390:	fb 01       	movw	r30, r22
    4392:	00 84       	ldd	r0, Z+8	; 0x08
    4394:	f1 85       	ldd	r31, Z+9	; 0x09
    4396:	e0 2d       	mov	r30, r0
    4398:	19 95       	eicall
    439a:	89 2b       	or	r24, r25
    439c:	e1 f6       	brne	.-72     	; 0x4356 <fputc+0x10>
    439e:	d8 01       	movw	r26, r16
    43a0:	16 96       	adiw	r26, 0x06	; 6
    43a2:	8d 91       	ld	r24, X+
    43a4:	9c 91       	ld	r25, X
    43a6:	17 97       	sbiw	r26, 0x07	; 7
    43a8:	01 96       	adiw	r24, 0x01	; 1
    43aa:	16 96       	adiw	r26, 0x06	; 6
    43ac:	8d 93       	st	X+, r24
    43ae:	9c 93       	st	X, r25
    43b0:	17 97       	sbiw	r26, 0x07	; 7
    43b2:	ce 01       	movw	r24, r28
    43b4:	df 91       	pop	r29
    43b6:	cf 91       	pop	r28
    43b8:	1f 91       	pop	r17
    43ba:	0f 91       	pop	r16
    43bc:	08 95       	ret

000043be <printf>:
    43be:	cf 93       	push	r28
    43c0:	df 93       	push	r29
    43c2:	cd b7       	in	r28, 0x3d	; 61
    43c4:	de b7       	in	r29, 0x3e	; 62
    43c6:	ae 01       	movw	r20, r28
    43c8:	4a 5f       	subi	r20, 0xFA	; 250
    43ca:	5f 4f       	sbci	r21, 0xFF	; 255
    43cc:	fa 01       	movw	r30, r20
    43ce:	61 91       	ld	r22, Z+
    43d0:	71 91       	ld	r23, Z+
    43d2:	af 01       	movw	r20, r30
    43d4:	80 91 9e 21 	lds	r24, 0x219E	; 0x80219e <__iob+0x2>
    43d8:	90 91 9f 21 	lds	r25, 0x219F	; 0x80219f <__iob+0x3>
    43dc:	f3 d9       	rcall	.-3098   	; 0x37c4 <vfprintf>
    43de:	df 91       	pop	r29
    43e0:	cf 91       	pop	r28
    43e2:	08 95       	ret

000043e4 <puts>:
    43e4:	0f 93       	push	r16
    43e6:	1f 93       	push	r17
    43e8:	cf 93       	push	r28
    43ea:	df 93       	push	r29
    43ec:	e0 91 9e 21 	lds	r30, 0x219E	; 0x80219e <__iob+0x2>
    43f0:	f0 91 9f 21 	lds	r31, 0x219F	; 0x80219f <__iob+0x3>
    43f4:	23 81       	ldd	r18, Z+3	; 0x03
    43f6:	21 ff       	sbrs	r18, 1
    43f8:	1b c0       	rjmp	.+54     	; 0x4430 <puts+0x4c>
    43fa:	8c 01       	movw	r16, r24
    43fc:	d0 e0       	ldi	r29, 0x00	; 0
    43fe:	c0 e0       	ldi	r28, 0x00	; 0
    4400:	f8 01       	movw	r30, r16
    4402:	81 91       	ld	r24, Z+
    4404:	8f 01       	movw	r16, r30
    4406:	60 91 9e 21 	lds	r22, 0x219E	; 0x80219e <__iob+0x2>
    440a:	70 91 9f 21 	lds	r23, 0x219F	; 0x80219f <__iob+0x3>
    440e:	db 01       	movw	r26, r22
    4410:	18 96       	adiw	r26, 0x08	; 8
    4412:	ed 91       	ld	r30, X+
    4414:	fc 91       	ld	r31, X
    4416:	19 97       	sbiw	r26, 0x09	; 9
    4418:	88 23       	and	r24, r24
    441a:	31 f0       	breq	.+12     	; 0x4428 <puts+0x44>
    441c:	19 95       	eicall
    441e:	89 2b       	or	r24, r25
    4420:	79 f3       	breq	.-34     	; 0x4400 <puts+0x1c>
    4422:	df ef       	ldi	r29, 0xFF	; 255
    4424:	cf ef       	ldi	r28, 0xFF	; 255
    4426:	ec cf       	rjmp	.-40     	; 0x4400 <puts+0x1c>
    4428:	8a e0       	ldi	r24, 0x0A	; 10
    442a:	19 95       	eicall
    442c:	89 2b       	or	r24, r25
    442e:	19 f0       	breq	.+6      	; 0x4436 <puts+0x52>
    4430:	8f ef       	ldi	r24, 0xFF	; 255
    4432:	9f ef       	ldi	r25, 0xFF	; 255
    4434:	02 c0       	rjmp	.+4      	; 0x443a <puts+0x56>
    4436:	8d 2f       	mov	r24, r29
    4438:	9c 2f       	mov	r25, r28
    443a:	df 91       	pop	r29
    443c:	cf 91       	pop	r28
    443e:	1f 91       	pop	r17
    4440:	0f 91       	pop	r16
    4442:	08 95       	ret

00004444 <__ultoa_invert>:
    4444:	fa 01       	movw	r30, r20
    4446:	aa 27       	eor	r26, r26
    4448:	28 30       	cpi	r18, 0x08	; 8
    444a:	51 f1       	breq	.+84     	; 0x44a0 <__ultoa_invert+0x5c>
    444c:	20 31       	cpi	r18, 0x10	; 16
    444e:	81 f1       	breq	.+96     	; 0x44b0 <__ultoa_invert+0x6c>
    4450:	e8 94       	clt
    4452:	6f 93       	push	r22
    4454:	6e 7f       	andi	r22, 0xFE	; 254
    4456:	6e 5f       	subi	r22, 0xFE	; 254
    4458:	7f 4f       	sbci	r23, 0xFF	; 255
    445a:	8f 4f       	sbci	r24, 0xFF	; 255
    445c:	9f 4f       	sbci	r25, 0xFF	; 255
    445e:	af 4f       	sbci	r26, 0xFF	; 255
    4460:	b1 e0       	ldi	r27, 0x01	; 1
    4462:	3e d0       	rcall	.+124    	; 0x44e0 <__ultoa_invert+0x9c>
    4464:	b4 e0       	ldi	r27, 0x04	; 4
    4466:	3c d0       	rcall	.+120    	; 0x44e0 <__ultoa_invert+0x9c>
    4468:	67 0f       	add	r22, r23
    446a:	78 1f       	adc	r23, r24
    446c:	89 1f       	adc	r24, r25
    446e:	9a 1f       	adc	r25, r26
    4470:	a1 1d       	adc	r26, r1
    4472:	68 0f       	add	r22, r24
    4474:	79 1f       	adc	r23, r25
    4476:	8a 1f       	adc	r24, r26
    4478:	91 1d       	adc	r25, r1
    447a:	a1 1d       	adc	r26, r1
    447c:	6a 0f       	add	r22, r26
    447e:	71 1d       	adc	r23, r1
    4480:	81 1d       	adc	r24, r1
    4482:	91 1d       	adc	r25, r1
    4484:	a1 1d       	adc	r26, r1
    4486:	20 d0       	rcall	.+64     	; 0x44c8 <__ultoa_invert+0x84>
    4488:	09 f4       	brne	.+2      	; 0x448c <__ultoa_invert+0x48>
    448a:	68 94       	set
    448c:	3f 91       	pop	r19
    448e:	2a e0       	ldi	r18, 0x0A	; 10
    4490:	26 9f       	mul	r18, r22
    4492:	11 24       	eor	r1, r1
    4494:	30 19       	sub	r19, r0
    4496:	30 5d       	subi	r19, 0xD0	; 208
    4498:	31 93       	st	Z+, r19
    449a:	de f6       	brtc	.-74     	; 0x4452 <__ultoa_invert+0xe>
    449c:	cf 01       	movw	r24, r30
    449e:	08 95       	ret
    44a0:	46 2f       	mov	r20, r22
    44a2:	47 70       	andi	r20, 0x07	; 7
    44a4:	40 5d       	subi	r20, 0xD0	; 208
    44a6:	41 93       	st	Z+, r20
    44a8:	b3 e0       	ldi	r27, 0x03	; 3
    44aa:	0f d0       	rcall	.+30     	; 0x44ca <__ultoa_invert+0x86>
    44ac:	c9 f7       	brne	.-14     	; 0x44a0 <__ultoa_invert+0x5c>
    44ae:	f6 cf       	rjmp	.-20     	; 0x449c <__ultoa_invert+0x58>
    44b0:	46 2f       	mov	r20, r22
    44b2:	4f 70       	andi	r20, 0x0F	; 15
    44b4:	40 5d       	subi	r20, 0xD0	; 208
    44b6:	4a 33       	cpi	r20, 0x3A	; 58
    44b8:	18 f0       	brcs	.+6      	; 0x44c0 <__ultoa_invert+0x7c>
    44ba:	49 5d       	subi	r20, 0xD9	; 217
    44bc:	31 fd       	sbrc	r19, 1
    44be:	40 52       	subi	r20, 0x20	; 32
    44c0:	41 93       	st	Z+, r20
    44c2:	02 d0       	rcall	.+4      	; 0x44c8 <__ultoa_invert+0x84>
    44c4:	a9 f7       	brne	.-22     	; 0x44b0 <__ultoa_invert+0x6c>
    44c6:	ea cf       	rjmp	.-44     	; 0x449c <__ultoa_invert+0x58>
    44c8:	b4 e0       	ldi	r27, 0x04	; 4
    44ca:	a6 95       	lsr	r26
    44cc:	97 95       	ror	r25
    44ce:	87 95       	ror	r24
    44d0:	77 95       	ror	r23
    44d2:	67 95       	ror	r22
    44d4:	ba 95       	dec	r27
    44d6:	c9 f7       	brne	.-14     	; 0x44ca <__ultoa_invert+0x86>
    44d8:	00 97       	sbiw	r24, 0x00	; 0
    44da:	61 05       	cpc	r22, r1
    44dc:	71 05       	cpc	r23, r1
    44de:	08 95       	ret
    44e0:	9b 01       	movw	r18, r22
    44e2:	ac 01       	movw	r20, r24
    44e4:	0a 2e       	mov	r0, r26
    44e6:	06 94       	lsr	r0
    44e8:	57 95       	ror	r21
    44ea:	47 95       	ror	r20
    44ec:	37 95       	ror	r19
    44ee:	27 95       	ror	r18
    44f0:	ba 95       	dec	r27
    44f2:	c9 f7       	brne	.-14     	; 0x44e6 <__ultoa_invert+0xa2>
    44f4:	62 0f       	add	r22, r18
    44f6:	73 1f       	adc	r23, r19
    44f8:	84 1f       	adc	r24, r20
    44fa:	95 1f       	adc	r25, r21
    44fc:	a0 1d       	adc	r26, r0
    44fe:	08 95       	ret

00004500 <calloc>:
    4500:	0f 93       	push	r16
    4502:	1f 93       	push	r17
    4504:	cf 93       	push	r28
    4506:	df 93       	push	r29
    4508:	86 9f       	mul	r24, r22
    450a:	80 01       	movw	r16, r0
    450c:	87 9f       	mul	r24, r23
    450e:	10 0d       	add	r17, r0
    4510:	96 9f       	mul	r25, r22
    4512:	10 0d       	add	r17, r0
    4514:	11 24       	eor	r1, r1
    4516:	c8 01       	movw	r24, r16
    4518:	0d d0       	rcall	.+26     	; 0x4534 <malloc>
    451a:	ec 01       	movw	r28, r24
    451c:	00 97       	sbiw	r24, 0x00	; 0
    451e:	21 f0       	breq	.+8      	; 0x4528 <calloc+0x28>
    4520:	a8 01       	movw	r20, r16
    4522:	60 e0       	ldi	r22, 0x00	; 0
    4524:	70 e0       	ldi	r23, 0x00	; 0
    4526:	27 d1       	rcall	.+590    	; 0x4776 <memset>
    4528:	ce 01       	movw	r24, r28
    452a:	df 91       	pop	r29
    452c:	cf 91       	pop	r28
    452e:	1f 91       	pop	r17
    4530:	0f 91       	pop	r16
    4532:	08 95       	ret

00004534 <malloc>:
    4534:	0f 93       	push	r16
    4536:	1f 93       	push	r17
    4538:	cf 93       	push	r28
    453a:	df 93       	push	r29
    453c:	82 30       	cpi	r24, 0x02	; 2
    453e:	91 05       	cpc	r25, r1
    4540:	10 f4       	brcc	.+4      	; 0x4546 <malloc+0x12>
    4542:	82 e0       	ldi	r24, 0x02	; 2
    4544:	90 e0       	ldi	r25, 0x00	; 0
    4546:	e0 91 a4 21 	lds	r30, 0x21A4	; 0x8021a4 <__flp>
    454a:	f0 91 a5 21 	lds	r31, 0x21A5	; 0x8021a5 <__flp+0x1>
    454e:	20 e0       	ldi	r18, 0x00	; 0
    4550:	30 e0       	ldi	r19, 0x00	; 0
    4552:	a0 e0       	ldi	r26, 0x00	; 0
    4554:	b0 e0       	ldi	r27, 0x00	; 0
    4556:	30 97       	sbiw	r30, 0x00	; 0
    4558:	19 f1       	breq	.+70     	; 0x45a0 <malloc+0x6c>
    455a:	40 81       	ld	r20, Z
    455c:	51 81       	ldd	r21, Z+1	; 0x01
    455e:	02 81       	ldd	r16, Z+2	; 0x02
    4560:	13 81       	ldd	r17, Z+3	; 0x03
    4562:	48 17       	cp	r20, r24
    4564:	59 07       	cpc	r21, r25
    4566:	c8 f0       	brcs	.+50     	; 0x459a <malloc+0x66>
    4568:	84 17       	cp	r24, r20
    456a:	95 07       	cpc	r25, r21
    456c:	69 f4       	brne	.+26     	; 0x4588 <malloc+0x54>
    456e:	10 97       	sbiw	r26, 0x00	; 0
    4570:	31 f0       	breq	.+12     	; 0x457e <malloc+0x4a>
    4572:	12 96       	adiw	r26, 0x02	; 2
    4574:	0c 93       	st	X, r16
    4576:	12 97       	sbiw	r26, 0x02	; 2
    4578:	13 96       	adiw	r26, 0x03	; 3
    457a:	1c 93       	st	X, r17
    457c:	27 c0       	rjmp	.+78     	; 0x45cc <malloc+0x98>
    457e:	00 93 a4 21 	sts	0x21A4, r16	; 0x8021a4 <__flp>
    4582:	10 93 a5 21 	sts	0x21A5, r17	; 0x8021a5 <__flp+0x1>
    4586:	22 c0       	rjmp	.+68     	; 0x45cc <malloc+0x98>
    4588:	21 15       	cp	r18, r1
    458a:	31 05       	cpc	r19, r1
    458c:	19 f0       	breq	.+6      	; 0x4594 <malloc+0x60>
    458e:	42 17       	cp	r20, r18
    4590:	53 07       	cpc	r21, r19
    4592:	18 f4       	brcc	.+6      	; 0x459a <malloc+0x66>
    4594:	9a 01       	movw	r18, r20
    4596:	bd 01       	movw	r22, r26
    4598:	ef 01       	movw	r28, r30
    459a:	df 01       	movw	r26, r30
    459c:	f8 01       	movw	r30, r16
    459e:	db cf       	rjmp	.-74     	; 0x4556 <malloc+0x22>
    45a0:	21 15       	cp	r18, r1
    45a2:	31 05       	cpc	r19, r1
    45a4:	f9 f0       	breq	.+62     	; 0x45e4 <malloc+0xb0>
    45a6:	28 1b       	sub	r18, r24
    45a8:	39 0b       	sbc	r19, r25
    45aa:	24 30       	cpi	r18, 0x04	; 4
    45ac:	31 05       	cpc	r19, r1
    45ae:	80 f4       	brcc	.+32     	; 0x45d0 <malloc+0x9c>
    45b0:	8a 81       	ldd	r24, Y+2	; 0x02
    45b2:	9b 81       	ldd	r25, Y+3	; 0x03
    45b4:	61 15       	cp	r22, r1
    45b6:	71 05       	cpc	r23, r1
    45b8:	21 f0       	breq	.+8      	; 0x45c2 <malloc+0x8e>
    45ba:	fb 01       	movw	r30, r22
    45bc:	82 83       	std	Z+2, r24	; 0x02
    45be:	93 83       	std	Z+3, r25	; 0x03
    45c0:	04 c0       	rjmp	.+8      	; 0x45ca <malloc+0x96>
    45c2:	80 93 a4 21 	sts	0x21A4, r24	; 0x8021a4 <__flp>
    45c6:	90 93 a5 21 	sts	0x21A5, r25	; 0x8021a5 <__flp+0x1>
    45ca:	fe 01       	movw	r30, r28
    45cc:	32 96       	adiw	r30, 0x02	; 2
    45ce:	44 c0       	rjmp	.+136    	; 0x4658 <malloc+0x124>
    45d0:	fe 01       	movw	r30, r28
    45d2:	e2 0f       	add	r30, r18
    45d4:	f3 1f       	adc	r31, r19
    45d6:	81 93       	st	Z+, r24
    45d8:	91 93       	st	Z+, r25
    45da:	22 50       	subi	r18, 0x02	; 2
    45dc:	31 09       	sbc	r19, r1
    45de:	28 83       	st	Y, r18
    45e0:	39 83       	std	Y+1, r19	; 0x01
    45e2:	3a c0       	rjmp	.+116    	; 0x4658 <malloc+0x124>
    45e4:	20 91 a2 21 	lds	r18, 0x21A2	; 0x8021a2 <__brkval>
    45e8:	30 91 a3 21 	lds	r19, 0x21A3	; 0x8021a3 <__brkval+0x1>
    45ec:	23 2b       	or	r18, r19
    45ee:	41 f4       	brne	.+16     	; 0x4600 <malloc+0xcc>
    45f0:	20 91 02 20 	lds	r18, 0x2002	; 0x802002 <__malloc_heap_start>
    45f4:	30 91 03 20 	lds	r19, 0x2003	; 0x802003 <__malloc_heap_start+0x1>
    45f8:	20 93 a2 21 	sts	0x21A2, r18	; 0x8021a2 <__brkval>
    45fc:	30 93 a3 21 	sts	0x21A3, r19	; 0x8021a3 <__brkval+0x1>
    4600:	20 91 00 20 	lds	r18, 0x2000	; 0x802000 <__data_start>
    4604:	30 91 01 20 	lds	r19, 0x2001	; 0x802001 <__data_start+0x1>
    4608:	21 15       	cp	r18, r1
    460a:	31 05       	cpc	r19, r1
    460c:	41 f4       	brne	.+16     	; 0x461e <malloc+0xea>
    460e:	2d b7       	in	r18, 0x3d	; 61
    4610:	3e b7       	in	r19, 0x3e	; 62
    4612:	40 91 04 20 	lds	r20, 0x2004	; 0x802004 <__malloc_margin>
    4616:	50 91 05 20 	lds	r21, 0x2005	; 0x802005 <__malloc_margin+0x1>
    461a:	24 1b       	sub	r18, r20
    461c:	35 0b       	sbc	r19, r21
    461e:	e0 91 a2 21 	lds	r30, 0x21A2	; 0x8021a2 <__brkval>
    4622:	f0 91 a3 21 	lds	r31, 0x21A3	; 0x8021a3 <__brkval+0x1>
    4626:	e2 17       	cp	r30, r18
    4628:	f3 07       	cpc	r31, r19
    462a:	a0 f4       	brcc	.+40     	; 0x4654 <malloc+0x120>
    462c:	2e 1b       	sub	r18, r30
    462e:	3f 0b       	sbc	r19, r31
    4630:	28 17       	cp	r18, r24
    4632:	39 07       	cpc	r19, r25
    4634:	78 f0       	brcs	.+30     	; 0x4654 <malloc+0x120>
    4636:	ac 01       	movw	r20, r24
    4638:	4e 5f       	subi	r20, 0xFE	; 254
    463a:	5f 4f       	sbci	r21, 0xFF	; 255
    463c:	24 17       	cp	r18, r20
    463e:	35 07       	cpc	r19, r21
    4640:	48 f0       	brcs	.+18     	; 0x4654 <malloc+0x120>
    4642:	4e 0f       	add	r20, r30
    4644:	5f 1f       	adc	r21, r31
    4646:	40 93 a2 21 	sts	0x21A2, r20	; 0x8021a2 <__brkval>
    464a:	50 93 a3 21 	sts	0x21A3, r21	; 0x8021a3 <__brkval+0x1>
    464e:	81 93       	st	Z+, r24
    4650:	91 93       	st	Z+, r25
    4652:	02 c0       	rjmp	.+4      	; 0x4658 <malloc+0x124>
    4654:	e0 e0       	ldi	r30, 0x00	; 0
    4656:	f0 e0       	ldi	r31, 0x00	; 0
    4658:	cf 01       	movw	r24, r30
    465a:	df 91       	pop	r29
    465c:	cf 91       	pop	r28
    465e:	1f 91       	pop	r17
    4660:	0f 91       	pop	r16
    4662:	08 95       	ret

00004664 <free>:
    4664:	cf 93       	push	r28
    4666:	df 93       	push	r29
    4668:	00 97       	sbiw	r24, 0x00	; 0
    466a:	09 f4       	brne	.+2      	; 0x466e <free+0xa>
    466c:	81 c0       	rjmp	.+258    	; 0x4770 <free+0x10c>
    466e:	fc 01       	movw	r30, r24
    4670:	32 97       	sbiw	r30, 0x02	; 2
    4672:	12 82       	std	Z+2, r1	; 0x02
    4674:	13 82       	std	Z+3, r1	; 0x03
    4676:	a0 91 a4 21 	lds	r26, 0x21A4	; 0x8021a4 <__flp>
    467a:	b0 91 a5 21 	lds	r27, 0x21A5	; 0x8021a5 <__flp+0x1>
    467e:	10 97       	sbiw	r26, 0x00	; 0
    4680:	81 f4       	brne	.+32     	; 0x46a2 <free+0x3e>
    4682:	20 81       	ld	r18, Z
    4684:	31 81       	ldd	r19, Z+1	; 0x01
    4686:	82 0f       	add	r24, r18
    4688:	93 1f       	adc	r25, r19
    468a:	20 91 a2 21 	lds	r18, 0x21A2	; 0x8021a2 <__brkval>
    468e:	30 91 a3 21 	lds	r19, 0x21A3	; 0x8021a3 <__brkval+0x1>
    4692:	28 17       	cp	r18, r24
    4694:	39 07       	cpc	r19, r25
    4696:	51 f5       	brne	.+84     	; 0x46ec <free+0x88>
    4698:	e0 93 a2 21 	sts	0x21A2, r30	; 0x8021a2 <__brkval>
    469c:	f0 93 a3 21 	sts	0x21A3, r31	; 0x8021a3 <__brkval+0x1>
    46a0:	67 c0       	rjmp	.+206    	; 0x4770 <free+0x10c>
    46a2:	ed 01       	movw	r28, r26
    46a4:	20 e0       	ldi	r18, 0x00	; 0
    46a6:	30 e0       	ldi	r19, 0x00	; 0
    46a8:	ce 17       	cp	r28, r30
    46aa:	df 07       	cpc	r29, r31
    46ac:	40 f4       	brcc	.+16     	; 0x46be <free+0x5a>
    46ae:	4a 81       	ldd	r20, Y+2	; 0x02
    46b0:	5b 81       	ldd	r21, Y+3	; 0x03
    46b2:	9e 01       	movw	r18, r28
    46b4:	41 15       	cp	r20, r1
    46b6:	51 05       	cpc	r21, r1
    46b8:	f1 f0       	breq	.+60     	; 0x46f6 <free+0x92>
    46ba:	ea 01       	movw	r28, r20
    46bc:	f5 cf       	rjmp	.-22     	; 0x46a8 <free+0x44>
    46be:	c2 83       	std	Z+2, r28	; 0x02
    46c0:	d3 83       	std	Z+3, r29	; 0x03
    46c2:	40 81       	ld	r20, Z
    46c4:	51 81       	ldd	r21, Z+1	; 0x01
    46c6:	84 0f       	add	r24, r20
    46c8:	95 1f       	adc	r25, r21
    46ca:	c8 17       	cp	r28, r24
    46cc:	d9 07       	cpc	r29, r25
    46ce:	59 f4       	brne	.+22     	; 0x46e6 <free+0x82>
    46d0:	88 81       	ld	r24, Y
    46d2:	99 81       	ldd	r25, Y+1	; 0x01
    46d4:	84 0f       	add	r24, r20
    46d6:	95 1f       	adc	r25, r21
    46d8:	02 96       	adiw	r24, 0x02	; 2
    46da:	80 83       	st	Z, r24
    46dc:	91 83       	std	Z+1, r25	; 0x01
    46de:	8a 81       	ldd	r24, Y+2	; 0x02
    46e0:	9b 81       	ldd	r25, Y+3	; 0x03
    46e2:	82 83       	std	Z+2, r24	; 0x02
    46e4:	93 83       	std	Z+3, r25	; 0x03
    46e6:	21 15       	cp	r18, r1
    46e8:	31 05       	cpc	r19, r1
    46ea:	29 f4       	brne	.+10     	; 0x46f6 <free+0x92>
    46ec:	e0 93 a4 21 	sts	0x21A4, r30	; 0x8021a4 <__flp>
    46f0:	f0 93 a5 21 	sts	0x21A5, r31	; 0x8021a5 <__flp+0x1>
    46f4:	3d c0       	rjmp	.+122    	; 0x4770 <free+0x10c>
    46f6:	e9 01       	movw	r28, r18
    46f8:	ea 83       	std	Y+2, r30	; 0x02
    46fa:	fb 83       	std	Y+3, r31	; 0x03
    46fc:	49 91       	ld	r20, Y+
    46fe:	59 91       	ld	r21, Y+
    4700:	c4 0f       	add	r28, r20
    4702:	d5 1f       	adc	r29, r21
    4704:	ec 17       	cp	r30, r28
    4706:	fd 07       	cpc	r31, r29
    4708:	61 f4       	brne	.+24     	; 0x4722 <free+0xbe>
    470a:	80 81       	ld	r24, Z
    470c:	91 81       	ldd	r25, Z+1	; 0x01
    470e:	84 0f       	add	r24, r20
    4710:	95 1f       	adc	r25, r21
    4712:	02 96       	adiw	r24, 0x02	; 2
    4714:	e9 01       	movw	r28, r18
    4716:	88 83       	st	Y, r24
    4718:	99 83       	std	Y+1, r25	; 0x01
    471a:	82 81       	ldd	r24, Z+2	; 0x02
    471c:	93 81       	ldd	r25, Z+3	; 0x03
    471e:	8a 83       	std	Y+2, r24	; 0x02
    4720:	9b 83       	std	Y+3, r25	; 0x03
    4722:	e0 e0       	ldi	r30, 0x00	; 0
    4724:	f0 e0       	ldi	r31, 0x00	; 0
    4726:	12 96       	adiw	r26, 0x02	; 2
    4728:	8d 91       	ld	r24, X+
    472a:	9c 91       	ld	r25, X
    472c:	13 97       	sbiw	r26, 0x03	; 3
    472e:	00 97       	sbiw	r24, 0x00	; 0
    4730:	19 f0       	breq	.+6      	; 0x4738 <free+0xd4>
    4732:	fd 01       	movw	r30, r26
    4734:	dc 01       	movw	r26, r24
    4736:	f7 cf       	rjmp	.-18     	; 0x4726 <free+0xc2>
    4738:	8d 91       	ld	r24, X+
    473a:	9c 91       	ld	r25, X
    473c:	11 97       	sbiw	r26, 0x01	; 1
    473e:	9d 01       	movw	r18, r26
    4740:	2e 5f       	subi	r18, 0xFE	; 254
    4742:	3f 4f       	sbci	r19, 0xFF	; 255
    4744:	82 0f       	add	r24, r18
    4746:	93 1f       	adc	r25, r19
    4748:	20 91 a2 21 	lds	r18, 0x21A2	; 0x8021a2 <__brkval>
    474c:	30 91 a3 21 	lds	r19, 0x21A3	; 0x8021a3 <__brkval+0x1>
    4750:	28 17       	cp	r18, r24
    4752:	39 07       	cpc	r19, r25
    4754:	69 f4       	brne	.+26     	; 0x4770 <free+0x10c>
    4756:	30 97       	sbiw	r30, 0x00	; 0
    4758:	29 f4       	brne	.+10     	; 0x4764 <free+0x100>
    475a:	10 92 a4 21 	sts	0x21A4, r1	; 0x8021a4 <__flp>
    475e:	10 92 a5 21 	sts	0x21A5, r1	; 0x8021a5 <__flp+0x1>
    4762:	02 c0       	rjmp	.+4      	; 0x4768 <free+0x104>
    4764:	12 82       	std	Z+2, r1	; 0x02
    4766:	13 82       	std	Z+3, r1	; 0x03
    4768:	a0 93 a2 21 	sts	0x21A2, r26	; 0x8021a2 <__brkval>
    476c:	b0 93 a3 21 	sts	0x21A3, r27	; 0x8021a3 <__brkval+0x1>
    4770:	df 91       	pop	r29
    4772:	cf 91       	pop	r28
    4774:	08 95       	ret

00004776 <memset>:
    4776:	dc 01       	movw	r26, r24
    4778:	01 c0       	rjmp	.+2      	; 0x477c <memset+0x6>
    477a:	6d 93       	st	X+, r22
    477c:	41 50       	subi	r20, 0x01	; 1
    477e:	50 40       	sbci	r21, 0x00	; 0
    4780:	e0 f7       	brcc	.-8      	; 0x477a <memset+0x4>
    4782:	08 95       	ret

00004784 <_exit>:
    4784:	f8 94       	cli

00004786 <__stop_program>:
    4786:	ff cf       	rjmp	.-2      	; 0x4786 <__stop_program>
